
========================================================================

** ELF Header Information

    File Name: d:\cccc2020\CODE\workspace\bfsk_pt32\embedded\adc_sample\MDK\output\ramcode\ramcode.axf

    Machine class: ELFCLASS32 (32-bit)
    Data encoding: ELFDATA2LSB (Little endian)
    Header version: EV_CURRENT (Current version)
    Operating System ABI: none
    ABI Version: 0
    File Type: ET_EXEC (Executable) (2)
    Machine: EM_ARM (ARM)

    Image Entry point: 0x20000131
    Flags: EF_ARM_HASENTRY + EF_ARM_ABI_FLOAT_SOFT (0x05000202)

    ARM ELF revision: 5 (ABI version 2)

    Conforms to Soft float procedure-call standard

    Built with
    Component: ARM Compiler 6.16 Tool: armasm [5dfea300]
    Component: ARM Compiler 6.16 Tool: armlink [5dfeaa00]

    Header size: 52 bytes (0x34)
    Program header entry size: 32 bytes (0x20)
    Section header entry size: 40 bytes (0x28)

    Program header entries: 1
    Section header entries: 16

    Program header offset: 179284 (0x0002bc54)
    Section header offset: 179316 (0x0002bc74)

    Section header string table index: 15

========================================================================

** Program header #0 (PT_LOAD) [PF_X + PF_W + PF_R + PF_ARM_ENTRY]
    Size : 51248 bytes (19776 bytes in file)
    Virtual address: 0x20000000 (Alignment 64)


========================================================================

** Section #1 'ER_IROM1' (SHT_PROGBITS) [SHF_ALLOC + SHF_EXECINSTR]
    Size   : 19692 bytes (alignment 4)
    Address: 0x20000000

    $d.realdata
    RESET
    __Vectors
        0x20000000:    20017b30    0{.     DCD    536967984
        0x20000004:    20000145    E..     DCD    536871237
        0x20000008:    20001445    E..     DCD    536876101
        0x2000000c:    20004401    .D.     DCD    536888321
        0x20000010:    20000157    W..     DCD    536871255
        0x20000014:    20000159    Y..     DCD    536871257
        0x20000018:    2000015b    [..     DCD    536871259
        0x2000001c:    00000000    ....    DCD    0
        0x20000020:    00000000    ....    DCD    0
        0x20000024:    00000000    ....    DCD    0
        0x20000028:    00000000    ....    DCD    0
        0x2000002c:    200024dd    .$.     DCD    536880349
        0x20000030:    2000015f    _..     DCD    536871263
        0x20000034:    00000000    ....    DCD    0
        0x20000038:    20001721    !..     DCD    536876833
        0x2000003c:    200024e1    .$.     DCD    536880353
        0x20000040:    20000165    e..     DCD    536871269
        0x20000044:    00000000    ....    DCD    0
        0x20000048:    00000000    ....    DCD    0
        0x2000004c:    20001725    %..     DCD    536876837
        0x20000050:    200012cd    ...     DCD    536875725
        0x20000054:    20000165    e..     DCD    536871269
        0x20000058:    200014b5    ...     DCD    536876213
        0x2000005c:    200014b9    ...     DCD    536876217
        0x20000060:    200014bd    ...     DCD    536876221
        0x20000064:    2000150d    ...     DCD    536876301
        0x20000068:    00000000    ....    DCD    0
        0x2000006c:    20000445    E..     DCD    536872005
        0x20000070:    00000000    ....    DCD    0
        0x20000074:    00000000    ....    DCD    0
        0x20000078:    00000000    ....    DCD    0
        0x2000007c:    00000000    ....    DCD    0
        0x20000080:    00000000    ....    DCD    0
        0x20000084:    00000000    ....    DCD    0
        0x20000088:    20000355    U..     DCD    536871765
        0x2000008c:    00000000    ....    DCD    0
        0x20000090:    00000000    ....    DCD    0
        0x20000094:    00000000    ....    DCD    0
        0x20000098:    00000000    ....    DCD    0
        0x2000009c:    00000000    ....    DCD    0
        0x200000a0:    20002685    .&.     DCD    536880773
        0x200000a4:    200026d5    .&.     DCD    536880853
        0x200000a8:    00000000    ....    DCD    0
        0x200000ac:    00000000    ....    DCD    0
        0x200000b0:    200026d9    .&.     DCD    536880857
        0x200000b4:    200026dd    .&.     DCD    536880861
        0x200000b8:    200026e1    .&.     DCD    536880865
        0x200000bc:    20000165    e..     DCD    536871269
        0x200000c0:    00000000    ....    DCD    0
        0x200000c4:    00000000    ....    DCD    0
        0x200000c8:    00000000    ....    DCD    0
        0x200000cc:    200024d5    .$.     DCD    536880341
        0x200000d0:    200024d9    .$.     DCD    536880345
        0x200000d4:    200026e9    .&.     DCD    536880873
        0x200000d8:    200026ed    .&.     DCD    536880877
        0x200000dc:    200026f1    .&.     DCD    536880881
        0x200000e0:    00000000    ....    DCD    0
        0x200000e4:    00000000    ....    DCD    0
        0x200000e8:    00000000    ....    DCD    0
        0x200000ec:    00000000    ....    DCD    0
        0x200000f0:    00000000    ....    DCD    0
        0x200000f4:    00000000    ....    DCD    0
        0x200000f8:    00000000    ....    DCD    0
        0x200000fc:    00000000    ....    DCD    0
        0x20000100:    00000000    ....    DCD    0
        0x20000104:    20000165    e..     DCD    536871269
        0x20000108:    00000000    ....    DCD    0
        0x2000010c:    20000165    e..     DCD    536871269
        0x20000110:    00000000    ....    DCD    0
        0x20000114:    00000000    ....    DCD    0
        0x20000118:    00000000    ....    DCD    0
        0x2000011c:    00000000    ....    DCD    0
        0x20000120:    00000000    ....    DCD    0
        0x20000124:    200026e5    .&.     DCD    536880869
        0x20000128:    00000000    ....    DCD    0
        0x2000012c:    20000165    e..     DCD    536871269
    $t
    .ARM.Collect$$$$00000000
    .ARM.Collect$$$$00000001
    __Vectors_End
    __main
    _main_stk
        0x20000130:    f8dfd00c    ....    LDR      sp,__lit__00000000 ; [0x20000140] = 0x20017b30
    .ARM.Collect$$$$00000004
    _main_scatterload
        0x20000134:    f000f8aa    ....    BL       __scatterload ; 0x2000028c
    .ARM.Collect$$$$00000008
    .ARM.Collect$$$$0000000A
    .ARM.Collect$$$$0000000B
    __main_after_scatterload
    _main_clock
    _main_cpp_init
    _main_init
        0x20000138:    4800        .H      LDR      r0,[pc,#0] ; [0x2000013c] = 0x200033c9
        0x2000013a:    4700        .G      BX       r0
    $d
        0x2000013c:    200033c9    .3.     DCD    536884169
    .ARM.Collect$$$$00002712
    __lit__00000000
    .ARM.Collect$$$$0000000D
    .ARM.Collect$$$$0000000F
    __rt_final_cpp
    __rt_final_exit
        0x20000140:    20017b30    0{.     DCD    536967984
    $t
    .text
    Reset_Handler
        0x20000144:    4808        .H      LDR      r0,[pc,#32] ; [0x20000168] = 0x20002505
        0x20000146:    4780        .G      BLX      r0
        0x20000148:    4808        .H      LDR      r0,[pc,#32] ; [0x2000016c] = 0x4000f800
        0x2000014a:    4909        .I      LDR      r1,[pc,#36] ; [0x20000170] = 0xa5a500f0
        0x2000014c:    6001        .`      STR      r1,[r0,#0]
        0x2000014e:    4809        .H      LDR      r0,[pc,#36] ; [0x20000174] = 0x20000131
        0x20000150:    4700        .G      BX       r0
        0x20000152:    e7fe        ..      B        0x20000152 ; Reset_Handler + 14
        0x20000154:    e7fe        ..      B        0x20000154 ; Reset_Handler + 16
    MemManage_Handler
        0x20000156:    e7fe        ..      B        MemManage_Handler ; 0x20000156
    BusFault_Handler
        0x20000158:    e7fe        ..      B        BusFault_Handler ; 0x20000158
    UsageFault_Handler
        0x2000015a:    e7fe        ..      B        UsageFault_Handler ; 0x2000015a
        0x2000015c:    e7fe        ..      B        0x2000015c ; UsageFault_Handler + 2
    DebugMon_Handler
        0x2000015e:    e7fe        ..      B        DebugMon_Handler ; 0x2000015e
        0x20000160:    e7fe        ..      B        0x20000160 ; DebugMon_Handler + 2
        0x20000162:    e7fe        ..      B        0x20000162 ; DebugMon_Handler + 4
    AES_Handler
    I2C_Handler
    QSPI_Handler
    RCC_Handler
    USB11_Handler
    WDG_Handler
        0x20000164:    e7fe        ..      B        AES_Handler ; 0x20000164
    $d
        0x20000166:    0000        ..      DCW    0
        0x20000168:    20002505    .%.     DCD    536880389
        0x2000016c:    4000f800    ...@    DCD    1073805312
        0x20000170:    a5a500f0    ....    DCD    2779054320
        0x20000174:    20000131    1..     DCD    536871217
    $t
    .text
    __rt_ctype_table
        0x20000178:    4800        .H      LDR      r0,[pc,#0] ; [0x2000017c] = 0x20004964
        0x2000017a:    4770        pG      BX       lr
    $d
        0x2000017c:    20004964    dI.     DCD    536889700
    $t
    .text
    __aeabi_memcpy
    __aeabi_memcpy4
    __aeabi_memcpy8
        0x20000180:    ea400301    @...    ORR      r3,r0,r1
        0x20000184:    079b        ..      LSLS     r3,r3,#30
        0x20000186:    d003        ..      BEQ      0x20000190 ; __aeabi_memcpy + 16
        0x20000188:    e009        ..      B        0x2000019e ; __aeabi_memcpy + 30
        0x2000018a:    c908        ..      LDM      r1!,{r3}
        0x2000018c:    1f12        ..      SUBS     r2,r2,#4
        0x2000018e:    c008        ..      STM      r0!,{r3}
        0x20000190:    2a04        .*      CMP      r2,#4
        0x20000192:    d2fa        ..      BCS      0x2000018a ; __aeabi_memcpy + 10
        0x20000194:    e003        ..      B        0x2000019e ; __aeabi_memcpy + 30
        0x20000196:    f8113b01    ...;    LDRB     r3,[r1],#1
        0x2000019a:    f8003b01    ...;    STRB     r3,[r0],#1
        0x2000019e:    1e52        R.      SUBS     r2,r2,#1
        0x200001a0:    d2f9        ..      BCS      0x20000196 ; __aeabi_memcpy + 22
        0x200001a2:    4770        pG      BX       lr
    .text
    __aeabi_memset
    __aeabi_memset4
    __aeabi_memset8
        0x200001a4:    b2d2        ..      UXTB     r2,r2
        0x200001a6:    e001        ..      B        0x200001ac ; __aeabi_memset + 8
        0x200001a8:    f8002b01    ...+    STRB     r2,[r0],#1
        0x200001ac:    1e49        I.      SUBS     r1,r1,#1
        0x200001ae:    d2fb        ..      BCS      0x200001a8 ; __aeabi_memset + 4
        0x200001b0:    4770        pG      BX       lr
    __aeabi_memclr
    __aeabi_memclr4
    __aeabi_memclr8
        0x200001b2:    2200        ."      MOVS     r2,#0
        0x200001b4:    e7f6        ..      B        __aeabi_memset ; 0x200001a4
    _memset$wrapper
        0x200001b6:    b510        ..      PUSH     {r4,lr}
        0x200001b8:    4613        .F      MOV      r3,r2
        0x200001ba:    460a        .F      MOV      r2,r1
        0x200001bc:    4604        .F      MOV      r4,r0
        0x200001be:    4619        .F      MOV      r1,r3
        0x200001c0:    f7fffff0    ....    BL       __aeabi_memset ; 0x200001a4
        0x200001c4:    4620         F      MOV      r0,r4
        0x200001c6:    bd10        ..      POP      {r4,pc}
    .text
    strstr
        0x200001c8:    b530        0.      PUSH     {r4,r5,lr}
        0x200001ca:    4605        .F      MOV      r5,r0
        0x200001cc:    462a        *F      MOV      r2,r5
        0x200001ce:    460b        .F      MOV      r3,r1
        0x200001d0:    f8120b01    ....    LDRB     r0,[r2],#1
        0x200001d4:    f8134b01    ...K    LDRB     r4,[r3],#1
        0x200001d8:    b108        ..      CBZ      r0,0x200001de ; strstr + 22
        0x200001da:    42a0        .B      CMP      r0,r4
        0x200001dc:    d0f8        ..      BEQ      0x200001d0 ; strstr + 8
        0x200001de:    b11c        ..      CBZ      r4,0x200001e8 ; strstr + 32
        0x200001e0:    2800        .(      CMP      r0,#0
        0x200001e2:    d002        ..      BEQ      0x200001ea ; strstr + 34
        0x200001e4:    1c6d        m.      ADDS     r5,r5,#1
        0x200001e6:    e7f1        ..      B        0x200001cc ; strstr + 4
        0x200001e8:    4628        (F      MOV      r0,r5
        0x200001ea:    bd30        0.      POP      {r4,r5,pc}
    .text
    strlen
        0x200001ec:    1c42        B.      ADDS     r2,r0,#1
        0x200001ee:    f8101b01    ....    LDRB     r1,[r0],#1
        0x200001f2:    2900        .)      CMP      r1,#0
        0x200001f4:    d1fb        ..      BNE      0x200001ee ; strlen + 2
        0x200001f6:    1a80        ..      SUBS     r0,r0,r2
        0x200001f8:    4770        pG      BX       lr
    .text
    strcmp
        0x200001fa:    b510        ..      PUSH     {r4,lr}
        0x200001fc:    2200        ."      MOVS     r2,#0
        0x200001fe:    e000        ..      B        0x20000202 ; strcmp + 8
        0x20000200:    1c52        R.      ADDS     r2,r2,#1
        0x20000202:    5c83        .\      LDRB     r3,[r0,r2]
        0x20000204:    5c8c        .\      LDRB     r4,[r1,r2]
        0x20000206:    42a3        .B      CMP      r3,r4
        0x20000208:    d101        ..      BNE      0x2000020e ; strcmp + 20
        0x2000020a:    2b00        .+      CMP      r3,#0
        0x2000020c:    d1f8        ..      BNE      0x20000200 ; strcmp + 6
        0x2000020e:    b2d8        ..      UXTB     r0,r3
        0x20000210:    b2e1        ..      UXTB     r1,r4
        0x20000212:    1a40        @.      SUBS     r0,r0,r1
        0x20000214:    bd10        ..      POP      {r4,pc}
    .text
    strcpy
        0x20000216:    4603        .F      MOV      r3,r0
        0x20000218:    f8112b01    ...+    LDRB     r2,[r1],#1
        0x2000021c:    f8002b01    ...+    STRB     r2,[r0],#1
        0x20000220:    2a00        .*      CMP      r2,#0
        0x20000222:    d1f9        ..      BNE      0x20000218 ; strcpy + 2
        0x20000224:    4618        .F      MOV      r0,r3
        0x20000226:    4770        pG      BX       lr
    .text
    __aeabi_uldivmod
        0x20000228:    e92d5ff0    -.._    PUSH     {r4-r12,lr}
        0x2000022c:    4605        .F      MOV      r5,r0
        0x2000022e:    2000        .       MOVS     r0,#0
        0x20000230:    4692        .F      MOV      r10,r2
        0x20000232:    469b        .F      MOV      r11,r3
        0x20000234:    4688        .F      MOV      r8,r1
        0x20000236:    4606        .F      MOV      r6,r0
        0x20000238:    4681        .F      MOV      r9,r0
        0x2000023a:    2440        @$      MOVS     r4,#0x40
        0x2000023c:    e01b        ..      B        0x20000276 ; __aeabi_uldivmod + 78
        0x2000023e:    4628        (F      MOV      r0,r5
        0x20000240:    4641        AF      MOV      r1,r8
        0x20000242:    4647        GF      MOV      r7,r8
        0x20000244:    4622        "F      MOV      r2,r4
        0x20000246:    f000f842    ..B.    BL       __aeabi_llsr ; 0x200002ce
        0x2000024a:    4653        SF      MOV      r3,r10
        0x2000024c:    465a        ZF      MOV      r2,r11
        0x2000024e:    1ac0        ..      SUBS     r0,r0,r3
        0x20000250:    4191        .A      SBCS     r1,r1,r2
        0x20000252:    d310        ..      BCC      0x20000276 ; __aeabi_uldivmod + 78
        0x20000254:    4611        .F      MOV      r1,r2
        0x20000256:    4618        .F      MOV      r0,r3
        0x20000258:    4622        "F      MOV      r2,r4
        0x2000025a:    f000f829    ..).    BL       __aeabi_llsl ; 0x200002b0
        0x2000025e:    1a2d        -.      SUBS     r5,r5,r0
        0x20000260:    eb670801    g...    SBC      r8,r7,r1
        0x20000264:    464f        OF      MOV      r7,r9
        0x20000266:    4622        "F      MOV      r2,r4
        0x20000268:    2001        .       MOVS     r0,#1
        0x2000026a:    2100        .!      MOVS     r1,#0
        0x2000026c:    f000f820    .. .    BL       __aeabi_llsl ; 0x200002b0
        0x20000270:    eb170900    ....    ADDS     r9,r7,r0
        0x20000274:    414e        NA      ADCS     r6,r6,r1
        0x20000276:    1e20         .      SUBS     r0,r4,#0
        0x20000278:    f1a40401    ....    SUB      r4,r4,#1
        0x2000027c:    dcdf        ..      BGT      0x2000023e ; __aeabi_uldivmod + 22
        0x2000027e:    4648        HF      MOV      r0,r9
        0x20000280:    4631        1F      MOV      r1,r6
        0x20000282:    462a        *F      MOV      r2,r5
        0x20000284:    4643        CF      MOV      r3,r8
        0x20000286:    e8bd9ff0    ....    POP      {r4-r12,pc}
        0x2000028a:    0000        ..      MOVS     r0,r0
    .text
    __scatterload
    __scatterload_rt2
        0x2000028c:    4c06        .L      LDR      r4,[pc,#24] ; [0x200002a8] = 0x20004ccc
        0x2000028e:    4d07        .M      LDR      r5,[pc,#28] ; [0x200002ac] = 0x20004cec
        0x20000290:    e006        ..      B        0x200002a0 ; __scatterload + 20
        0x20000292:    68e0        .h      LDR      r0,[r4,#0xc]
        0x20000294:    f0400301    @...    ORR      r3,r0,#1
        0x20000298:    e8940007    ....    LDM      r4,{r0-r2}
        0x2000029c:    4798        .G      BLX      r3
        0x2000029e:    3410        .4      ADDS     r4,r4,#0x10
        0x200002a0:    42ac        .B      CMP      r4,r5
        0x200002a2:    d3f6        ..      BCC      0x20000292 ; __scatterload + 6
        0x200002a4:    f7ffff48    ..H.    BL       __main_after_scatterload ; 0x20000138
    $d
        0x200002a8:    20004ccc    .L.     DCD    536890572
        0x200002ac:    20004cec    .L.     DCD    536890604
    $t
    .text
    __aeabi_llsl
    _ll_shift_l
        0x200002b0:    2a20         *      CMP      r2,#0x20
        0x200002b2:    db04        ..      BLT      0x200002be ; __aeabi_llsl + 14
        0x200002b4:    3a20         :      SUBS     r2,r2,#0x20
        0x200002b6:    fa00f102    ....    LSL      r1,r0,r2
        0x200002ba:    2000        .       MOVS     r0,#0
        0x200002bc:    4770        pG      BX       lr
        0x200002be:    4091        .@      LSLS     r1,r1,r2
        0x200002c0:    f1c20320    .. .    RSB      r3,r2,#0x20
        0x200002c4:    fa20f303     ...    LSR      r3,r0,r3
        0x200002c8:    4319        .C      ORRS     r1,r1,r3
        0x200002ca:    4090        .@      LSLS     r0,r0,r2
        0x200002cc:    4770        pG      BX       lr
    .text
    __aeabi_llsr
    _ll_ushift_r
        0x200002ce:    2a20         *      CMP      r2,#0x20
        0x200002d0:    db04        ..      BLT      0x200002dc ; __aeabi_llsr + 14
        0x200002d2:    3a20         :      SUBS     r2,r2,#0x20
        0x200002d4:    fa21f002    !...    LSR      r0,r1,r2
        0x200002d8:    2100        .!      MOVS     r1,#0
        0x200002da:    4770        pG      BX       lr
        0x200002dc:    fa21f302    !...    LSR      r3,r1,r2
        0x200002e0:    40d0        .@      LSRS     r0,r0,r2
        0x200002e2:    f1c20220    .. .    RSB      r2,r2,#0x20
        0x200002e6:    4091        .@      LSLS     r1,r1,r2
        0x200002e8:    4308        .C      ORRS     r0,r0,r1
        0x200002ea:    4619        .F      MOV      r1,r3
        0x200002ec:    4770        pG      BX       lr
    .text
    __decompress
    __decompress0
        0x200002ee:    b530        0.      PUSH     {r4,r5,lr}
        0x200002f0:    188c        ..      ADDS     r4,r1,r2
        0x200002f2:    f8102b01    ...+    LDRB     r2,[r0],#1
        0x200002f6:    f012030f    ....    ANDS     r3,r2,#0xf
        0x200002fa:    d101        ..      BNE      0x20000300 ; __decompress + 18
        0x200002fc:    f8103b01    ...;    LDRB     r3,[r0],#1
        0x20000300:    0912        ..      LSRS     r2,r2,#4
        0x20000302:    d106        ..      BNE      0x20000312 ; __decompress + 36
        0x20000304:    f8102b01    ...+    LDRB     r2,[r0],#1
        0x20000308:    e003        ..      B        0x20000312 ; __decompress + 36
        0x2000030a:    f8105b01    ...[    LDRB     r5,[r0],#1
        0x2000030e:    f8015b01    ...[    STRB     r5,[r1],#1
        0x20000312:    1e5b        [.      SUBS     r3,r3,#1
        0x20000314:    d1f9        ..      BNE      0x2000030a ; __decompress + 28
        0x20000316:    e001        ..      B        0x2000031c ; __decompress + 46
        0x20000318:    f8013b01    ...;    STRB     r3,[r1],#1
        0x2000031c:    1e52        R.      SUBS     r2,r2,#1
        0x2000031e:    d1fb        ..      BNE      0x20000318 ; __decompress + 42
        0x20000320:    42a1        .B      CMP      r1,r4
        0x20000322:    d3e6        ..      BCC      0x200002f2 ; __decompress + 4
        0x20000324:    2000        .       MOVS     r0,#0
        0x20000326:    bd30        0.      POP      {r4,r5,pc}
    $t.4
    ADC_ChannelConfig
        0x20000328:    6802        .h      LDR      r2,[r0,#0]
        0x2000032a:    f42272f8    "..r    BIC      r2,r2,#0x1f0
        0x2000032e:    6002        .`      STR      r2,[r0,#0]
        0x20000330:    6802        .h      LDR      r2,[r0,#0]
        0x20000332:    430a        .C      ORRS     r2,r2,r1
        0x20000334:    6002        .`      STR      r2,[r0,#0]
        0x20000336:    0909        ..      LSRS     r1,r1,#4
        0x20000338:    2201        ."      MOVS     r2,#1
        0x2000033a:    fa02f101    ....    LSL      r1,r2,r1
        0x2000033e:    6141        Aa      STR      r1,[r0,#0x14]
        0x20000340:    4770        pG      BX       lr
        0x20000342:    0000        ..      MOVS     r0,r0
    ADC_Cmd
        0x20000344:    6802        .h      LDR      r2,[r0,#0]
        0x20000346:    2900        .)      CMP      r1,#0
        0x20000348:    f0220201    "...    BIC      r2,r2,#1
        0x2000034c:    bf18        ..      IT       NE
        0x2000034e:    3201        .2      ADDNE    r2,#1
        0x20000350:    6002        .`      STR      r2,[r0,#0]
        0x20000352:    4770        pG      BX       lr
    ADC_Handler
        0x20000354:    4770        pG      BX       lr
        0x20000356:    0000        ..      MOVS     r0,r0
    ADC_Init
        0x20000358:    b510        ..      PUSH     {r4,lr}
        0x2000035a:    6802        .h      LDR      r2,[r0,#0]
        0x2000035c:    e9d1c300    ....    LDRD     r12,r3,[r1,#0]
        0x20000360:    f02202fc    "...    BIC      r2,r2,#0xfc
        0x20000364:    e9d1e402    ....    LDRD     lr,r4,[r1,#8]
        0x20000368:    431a        .C      ORRS     r2,r2,r3
        0x2000036a:    4322        "C      ORRS     r2,r2,r4
        0x2000036c:    6002        .`      STR      r2,[r0,#0]
        0x2000036e:    6842        Bh      LDR      r2,[r0,#4]
        0x20000370:    f64f7307    O..s    MOV      r3,#0xff07
        0x20000374:    439a        .C      BICS     r2,r2,r3
        0x20000376:    7c09        .|      LDRB     r1,[r1,#0x10]
        0x20000378:    ea42020c    B...    ORR      r2,r2,r12
        0x2000037c:    4311        .C      ORRS     r1,r1,r2
        0x2000037e:    ea41210e    A..!    ORR      r1,r1,lr,LSL #8
        0x20000382:    6041        A`      STR      r1,[r0,#4]
        0x20000384:    0921        !.      LSRS     r1,r4,#4
        0x20000386:    2201        ."      MOVS     r2,#1
        0x20000388:    fa02f101    ....    LSL      r1,r2,r1
        0x2000038c:    6141        Aa      STR      r1,[r0,#0x14]
        0x2000038e:    bd10        ..      POP      {r4,pc}
    ADC_StartOfConversion
        0x20000390:    6801        .h      LDR      r1,[r0,#0]
        0x20000392:    f0410102    A...    ORR      r1,r1,#2
        0x20000396:    6001        .`      STR      r1,[r0,#0]
        0x20000398:    4770        pG      BX       lr
        0x2000039a:    0000        ..      MOVS     r0,r0
    DMA_AutoRepeat_Cmd
        0x2000039c:    f24f020c    O...    MOV      r2,#0xf00c
        0x200003a0:    0140        @.      LSLS     r0,r0,#5
        0x200003a2:    f2c40200    ....    MOVT     r2,#0x4000
        0x200003a6:    5813        .X      LDR      r3,[r2,r0]
        0x200003a8:    2900        .)      CMP      r1,#0
        0x200003aa:    f4234380    #..C    BIC      r3,r3,#0x4000
        0x200003ae:    5013        .P      STR      r3,[r2,r0]
        0x200003b0:    5813        .X      LDR      r3,[r2,r0]
        0x200003b2:    f4234380    #..C    BIC      r3,r3,#0x4000
        0x200003b6:    bf18        ..      IT       NE
        0x200003b8:    f5034380    ...C    ADDNE    r3,r3,#0x4000
        0x200003bc:    5013        .P      STR      r3,[r2,r0]
        0x200003be:    4770        pG      BX       lr
    DMA_Cmd
        0x200003c0:    f24f020c    O...    MOV      r2,#0xf00c
        0x200003c4:    0140        @.      LSLS     r0,r0,#5
        0x200003c6:    f2c40200    ....    MOVT     r2,#0x4000
        0x200003ca:    5813        .X      LDR      r3,[r2,r0]
        0x200003cc:    2900        .)      CMP      r1,#0
        0x200003ce:    f0230301    #...    BIC      r3,r3,#1
        0x200003d2:    5013        .P      STR      r3,[r2,r0]
        0x200003d4:    5813        .X      LDR      r3,[r2,r0]
        0x200003d6:    f0230301    #...    BIC      r3,r3,#1
        0x200003da:    bf18        ..      IT       NE
        0x200003dc:    3301        .3      ADDNE    r3,#1
        0x200003de:    5013        .P      STR      r3,[r2,r0]
        0x200003e0:    4770        pG      BX       lr
        0x200003e2:    0000        ..      MOVS     r0,r0
    DMA_Config
        0x200003e4:    b5b0        ..      PUSH     {r4,r5,r7,lr}
        0x200003e6:    f24f0c00    O...    MOVW     r12,#0xf000
        0x200003ea:    f2c40c00    ....    MOVT     r12,#0x4000
        0x200003ee:    e9d13200    ...2    LDRD     r3,r2,[r1,#0]
        0x200003f2:    e9d14502    ...E    LDRD     r4,r5,[r1,#8]
        0x200003f6:    ea4f1e40    O.@.    LSL      lr,r0,#5
        0x200003fa:    eb0c1040    ..@.    ADD      r0,r12,r0,LSL #5
        0x200003fe:    f84c300e    L..0    STR      r3,[r12,lr]
        0x20000402:    6042        B`      STR      r2,[r0,#4]
        0x20000404:    6084        .`      STR      r4,[r0,#8]
        0x20000406:    68c2        .h      LDR      r2,[r0,#0xc]
        0x20000408:    e9d13404    ...4    LDRD     r3,r4,[r1,#0x10]
        0x2000040c:    f42272cf    "..r    BIC      r2,r2,#0x19e
        0x20000410:    ea4202c5    B...    ORR      r2,r2,r5,LSL #3
        0x20000414:    6989        .i      LDR      r1,[r1,#0x18]
        0x20000416:    ea4212c3    B...    ORR      r2,r2,r3,LSL #7
        0x2000041a:    ea420244    B.D.    ORR      r2,r2,r4,LSL #1
        0x2000041e:    ea420181    B...    ORR      r1,r2,r1,LSL #2
        0x20000422:    60c1        .`      STR      r1,[r0,#0xc]
        0x20000424:    bdb0        ..      POP      {r4,r5,r7,pc}
        0x20000426:    0000        ..      MOVS     r0,r0
    DMA_DirectionConfig
        0x20000428:    f24f020c    O...    MOV      r2,#0xf00c
        0x2000042c:    0140        @.      LSLS     r0,r0,#5
        0x2000042e:    f2c40200    ....    MOVT     r2,#0x4000
        0x20000432:    5813        .X      LDR      r3,[r2,r0]
        0x20000434:    f4235300    #..S    BIC      r3,r3,#0x2000
        0x20000438:    5013        .P      STR      r3,[r2,r0]
        0x2000043a:    5813        .X      LDR      r3,[r2,r0]
        0x2000043c:    4319        .C      ORRS     r1,r1,r3
        0x2000043e:    5011        .P      STR      r1,[r2,r0]
        0x20000440:    4770        pG      BX       lr
        0x20000442:    0000        ..      MOVS     r0,r0
    DMA_Handler
        0x20000444:    4770        pG      BX       lr
        0x20000446:    0000        ..      MOVS     r0,r0
    DMA_PeripheralConfig
        0x20000448:    b580        ..      PUSH     {r7,lr}
        0x2000044a:    f24f038c    O...    MOV      r3,#0xf08c
        0x2000044e:    f2c40300    ....    MOVT     r3,#0x4000
        0x20000452:    00c0        ..      LSLS     r0,r0,#3
        0x20000454:    f04f0c1f    O...    MOV      r12,#0x1f
        0x20000458:    f8d3e000    ....    LDR      lr,[r3,#0]
        0x2000045c:    fa0cf200    ....    LSL      r2,r12,r0
        0x20000460:    ea2e0202    ....    BIC      r2,lr,r2
        0x20000464:    601a        .`      STR      r2,[r3,#0]
        0x20000466:    681a        .h      LDR      r2,[r3,#0]
        0x20000468:    fa01f000    ....    LSL      r0,r1,r0
        0x2000046c:    4310        .C      ORRS     r0,r0,r2
        0x2000046e:    6018        .`      STR      r0,[r3,#0]
        0x20000470:    bd80        ..      POP      {r7,pc}
        0x20000472:    0000        ..      MOVS     r0,r0
    EventRecordItem
        0x20000474:    e92d47f0    -..G    PUSH     {r4-r10,lr}
        0x20000478:    f04f5780    O..W    MOV      r7,#0x10000000
        0x2000047c:    ea0707d1    ....    AND      r7,r7,r1,LSR #3
        0x20000480:    f04f5600    O..V    MOV      r6,#0x20000000
        0x20000484:    f6462c80    F..,    MOVW     r12,#0x6a80
        0x20000488:    ea060692    ....    AND      r6,r6,r2,LSR #2
        0x2000048c:    f04f4580    O..E    MOV      r5,#0x40000000
        0x20000490:    4338        8C      ORRS     r0,r0,r7
        0x20000492:    f2c20c01    ....    MOVT     r12,#0x2001
        0x20000496:    4692        .F      MOV      r10,r2
        0x20000498:    ea050553    ..S.    AND      r5,r5,r3,LSR #1
        0x2000049c:    4330        0C      ORRS     r0,r0,r6
        0x2000049e:    f10c0204    ....    ADD      r2,r12,#4
        0x200004a2:    e8524f00    R..O    LDREX    r4,[r2]
        0x200004a6:    1c67        g.      ADDS     r7,r4,#1
        0x200004a8:    e8427600    B..v    STREX    r6,r7,[r2]
        0x200004ac:    b106        ..      CBZ      r6,0x200004b0 ; EventRecordItem + 60
        0x200004ae:    e7f8        ..      B        0x200004a2 ; EventRecordItem + 46
        0x200004b0:    f2466e00    F..n    MOVW     lr,#0x6600
        0x200004b4:    ea400905    @...    ORR      r9,r0,r5
        0x200004b8:    f004003f    ..?.    AND      r0,r4,#0x3f
        0x200004bc:    f4047770    ..pw    AND      r7,r4,#0x3c0
        0x200004c0:    f2c20e01    ....    MOVT     lr,#0x2001
        0x200004c4:    ea493787    I..7    ORR      r7,r9,r7,LSL #14
        0x200004c8:    eb0e1400    ....    ADD      r4,lr,r0,LSL #4
        0x200004cc:    4698        .F      MOV      r8,r3
        0x200004ce:    f0476640    G.@f    ORR      r6,r7,#0xc000000
        0x200004d2:    340c        .4      ADDS     r4,r4,#0xc
        0x200004d4:    e8547f00    T...    LDREX    r7,[r4]
        0x200004d8:    01bb        ..      LSLS     r3,r7,#6
        0x200004da:    d303        ..      BCC      0x200004e4 ; EventRecordItem + 112
        0x200004dc:    f3bf8f2f    ../.    CLREX    
        0x200004e0:    2700        .'      MOVS     r7,#0
        0x200004e2:    e006        ..      B        0x200004f2 ; EventRecordItem + 126
        0x200004e4:    f0074700    ...G    AND      r7,r7,#0x80000000
        0x200004e8:    4337        7C      ORRS     r7,r7,r6
        0x200004ea:    e8447500    D..u    STREX    r5,r7,[r4]
        0x200004ee:    b105        ..      CBZ      r5,0x200004f2 ; EventRecordItem + 126
        0x200004f0:    e7f0        ..      B        0x200004d4 ; EventRecordItem + 96
        0x200004f2:    017b        {.      LSLS     r3,r7,#5
        0x200004f4:    f10080d7    ....    BMI.W    0x200006a6 ; EventRecordItem + 562
        0x200004f8:    e8523f00    R..?    LDREX    r3,[r2]
        0x200004fc:    1c58        X.      ADDS     r0,r3,#1
        0x200004fe:    e8420400    B...    STREX    r4,r0,[r2]
        0x20000502:    b104        ..      CBZ      r4,0x20000506 ; EventRecordItem + 146
        0x20000504:    e7f8        ..      B        0x200004f8 ; EventRecordItem + 132
        0x20000506:    f003003f    ..?.    AND      r0,r3,#0x3f
        0x2000050a:    f4037370    ..ps    AND      r3,r3,#0x3c0
        0x2000050e:    ea493383    I..3    ORR      r3,r9,r3,LSL #14
        0x20000512:    eb0e1400    ....    ADD      r4,lr,r0,LSL #4
        0x20000516:    f0436340    C.@c    ORR      r3,r3,#0xc000000
        0x2000051a:    340c        .4      ADDS     r4,r4,#0xc
        0x2000051c:    e8547f00    T...    LDREX    r7,[r4]
        0x20000520:    01be        ..      LSLS     r6,r7,#6
        0x20000522:    d303        ..      BCC      0x2000052c ; EventRecordItem + 184
        0x20000524:    f3bf8f2f    ../.    CLREX    
        0x20000528:    2700        .'      MOVS     r7,#0
        0x2000052a:    e006        ..      B        0x2000053a ; EventRecordItem + 198
        0x2000052c:    f0074700    ...G    AND      r7,r7,#0x80000000
        0x20000530:    431f        .C      ORRS     r7,r7,r3
        0x20000532:    e8447500    D..u    STREX    r5,r7,[r4]
        0x20000536:    b105        ..      CBZ      r5,0x2000053a ; EventRecordItem + 198
        0x20000538:    e7f0        ..      B        0x2000051c ; EventRecordItem + 168
        0x2000053a:    017b        {.      LSLS     r3,r7,#5
        0x2000053c:    f10080b3    ....    BMI.W    0x200006a6 ; EventRecordItem + 562
        0x20000540:    e8523f00    R..?    LDREX    r3,[r2]
        0x20000544:    1c58        X.      ADDS     r0,r3,#1
        0x20000546:    e8420400    B...    STREX    r4,r0,[r2]
        0x2000054a:    b104        ..      CBZ      r4,0x2000054e ; EventRecordItem + 218
        0x2000054c:    e7f8        ..      B        0x20000540 ; EventRecordItem + 204
        0x2000054e:    f003003f    ..?.    AND      r0,r3,#0x3f
        0x20000552:    f4037370    ..ps    AND      r3,r3,#0x3c0
        0x20000556:    ea493383    I..3    ORR      r3,r9,r3,LSL #14
        0x2000055a:    eb0e1400    ....    ADD      r4,lr,r0,LSL #4
        0x2000055e:    f0436340    C.@c    ORR      r3,r3,#0xc000000
        0x20000562:    340c        .4      ADDS     r4,r4,#0xc
        0x20000564:    e8547f00    T...    LDREX    r7,[r4]
        0x20000568:    01be        ..      LSLS     r6,r7,#6
        0x2000056a:    d303        ..      BCC      0x20000574 ; EventRecordItem + 256
        0x2000056c:    f3bf8f2f    ../.    CLREX    
        0x20000570:    2700        .'      MOVS     r7,#0
        0x20000572:    e006        ..      B        0x20000582 ; EventRecordItem + 270
        0x20000574:    f0074700    ...G    AND      r7,r7,#0x80000000
        0x20000578:    431f        .C      ORRS     r7,r7,r3
        0x2000057a:    e8447500    D..u    STREX    r5,r7,[r4]
        0x2000057e:    b105        ..      CBZ      r5,0x20000582 ; EventRecordItem + 270
        0x20000580:    e7f0        ..      B        0x20000564 ; EventRecordItem + 240
        0x20000582:    017b        {.      LSLS     r3,r7,#5
        0x20000584:    f100808f    ....    BMI.W    0x200006a6 ; EventRecordItem + 562
        0x20000588:    e8523f00    R..?    LDREX    r3,[r2]
        0x2000058c:    1c58        X.      ADDS     r0,r3,#1
        0x2000058e:    e8420400    B...    STREX    r4,r0,[r2]
        0x20000592:    b104        ..      CBZ      r4,0x20000596 ; EventRecordItem + 290
        0x20000594:    e7f8        ..      B        0x20000588 ; EventRecordItem + 276
        0x20000596:    f003003f    ..?.    AND      r0,r3,#0x3f
        0x2000059a:    f4037370    ..ps    AND      r3,r3,#0x3c0
        0x2000059e:    ea493383    I..3    ORR      r3,r9,r3,LSL #14
        0x200005a2:    eb0e1400    ....    ADD      r4,lr,r0,LSL #4
        0x200005a6:    f0436340    C.@c    ORR      r3,r3,#0xc000000
        0x200005aa:    340c        .4      ADDS     r4,r4,#0xc
        0x200005ac:    e8547f00    T...    LDREX    r7,[r4]
        0x200005b0:    01be        ..      LSLS     r6,r7,#6
        0x200005b2:    d303        ..      BCC      0x200005bc ; EventRecordItem + 328
        0x200005b4:    f3bf8f2f    ../.    CLREX    
        0x200005b8:    2700        .'      MOVS     r7,#0
        0x200005ba:    e006        ..      B        0x200005ca ; EventRecordItem + 342
        0x200005bc:    f0074700    ...G    AND      r7,r7,#0x80000000
        0x200005c0:    431f        .C      ORRS     r7,r7,r3
        0x200005c2:    e8447500    D..u    STREX    r5,r7,[r4]
        0x200005c6:    b105        ..      CBZ      r5,0x200005ca ; EventRecordItem + 342
        0x200005c8:    e7f0        ..      B        0x200005ac ; EventRecordItem + 312
        0x200005ca:    017b        {.      LSLS     r3,r7,#5
        0x200005cc:    f100806b    ..k.    BMI.W    0x200006a6 ; EventRecordItem + 562
        0x200005d0:    e8523f00    R..?    LDREX    r3,[r2]
        0x200005d4:    1c58        X.      ADDS     r0,r3,#1
        0x200005d6:    e8420400    B...    STREX    r4,r0,[r2]
        0x200005da:    b104        ..      CBZ      r4,0x200005de ; EventRecordItem + 362
        0x200005dc:    e7f8        ..      B        0x200005d0 ; EventRecordItem + 348
        0x200005de:    f003003f    ..?.    AND      r0,r3,#0x3f
        0x200005e2:    f4037370    ..ps    AND      r3,r3,#0x3c0
        0x200005e6:    ea493383    I..3    ORR      r3,r9,r3,LSL #14
        0x200005ea:    eb0e1400    ....    ADD      r4,lr,r0,LSL #4
        0x200005ee:    f0436340    C.@c    ORR      r3,r3,#0xc000000
        0x200005f2:    340c        .4      ADDS     r4,r4,#0xc
        0x200005f4:    e8547f00    T...    LDREX    r7,[r4]
        0x200005f8:    01be        ..      LSLS     r6,r7,#6
        0x200005fa:    d303        ..      BCC      0x20000604 ; EventRecordItem + 400
        0x200005fc:    f3bf8f2f    ../.    CLREX    
        0x20000600:    2700        .'      MOVS     r7,#0
        0x20000602:    e006        ..      B        0x20000612 ; EventRecordItem + 414
        0x20000604:    f0074700    ...G    AND      r7,r7,#0x80000000
        0x20000608:    431f        .C      ORRS     r7,r7,r3
        0x2000060a:    e8447500    D..u    STREX    r5,r7,[r4]
        0x2000060e:    b105        ..      CBZ      r5,0x20000612 ; EventRecordItem + 414
        0x20000610:    e7f0        ..      B        0x200005f4 ; EventRecordItem + 384
        0x20000612:    017b        {.      LSLS     r3,r7,#5
        0x20000614:    f1008047    ..G.    BMI.W    0x200006a6 ; EventRecordItem + 562
        0x20000618:    e8523f00    R..?    LDREX    r3,[r2]
        0x2000061c:    1c58        X.      ADDS     r0,r3,#1
        0x2000061e:    e8420400    B...    STREX    r4,r0,[r2]
        0x20000622:    b104        ..      CBZ      r4,0x20000626 ; EventRecordItem + 434
        0x20000624:    e7f8        ..      B        0x20000618 ; EventRecordItem + 420
        0x20000626:    f003003f    ..?.    AND      r0,r3,#0x3f
        0x2000062a:    f4037370    ..ps    AND      r3,r3,#0x3c0
        0x2000062e:    ea493383    I..3    ORR      r3,r9,r3,LSL #14
        0x20000632:    eb0e1400    ....    ADD      r4,lr,r0,LSL #4
        0x20000636:    f0436340    C.@c    ORR      r3,r3,#0xc000000
        0x2000063a:    340c        .4      ADDS     r4,r4,#0xc
        0x2000063c:    e8547f00    T...    LDREX    r7,[r4]
        0x20000640:    01be        ..      LSLS     r6,r7,#6
        0x20000642:    d303        ..      BCC      0x2000064c ; EventRecordItem + 472
        0x20000644:    f3bf8f2f    ../.    CLREX    
        0x20000648:    2700        .'      MOVS     r7,#0
        0x2000064a:    e006        ..      B        0x2000065a ; EventRecordItem + 486
        0x2000064c:    f0074700    ...G    AND      r7,r7,#0x80000000
        0x20000650:    431f        .C      ORRS     r7,r7,r3
        0x20000652:    e8447500    D..u    STREX    r5,r7,[r4]
        0x20000656:    b105        ..      CBZ      r5,0x2000065a ; EventRecordItem + 486
        0x20000658:    e7f0        ..      B        0x2000063c ; EventRecordItem + 456
        0x2000065a:    017b        {.      LSLS     r3,r7,#5
        0x2000065c:    d423        #.      BMI      0x200006a6 ; EventRecordItem + 562
        0x2000065e:    e8523f00    R..?    LDREX    r3,[r2]
        0x20000662:    1c58        X.      ADDS     r0,r3,#1
        0x20000664:    e8420400    B...    STREX    r4,r0,[r2]
        0x20000668:    b104        ..      CBZ      r4,0x2000066c ; EventRecordItem + 504
        0x2000066a:    e7f8        ..      B        0x2000065e ; EventRecordItem + 490
        0x2000066c:    f003003f    ..?.    AND      r0,r3,#0x3f
        0x20000670:    f4037270    ..pr    AND      r2,r3,#0x3c0
        0x20000674:    ea493282    I..2    ORR      r2,r9,r2,LSL #14
        0x20000678:    eb0e1300    ....    ADD      r3,lr,r0,LSL #4
        0x2000067c:    f0426240    B.@b    ORR      r2,r2,#0xc000000
        0x20000680:    f103040c    ....    ADD      r4,r3,#0xc
        0x20000684:    e8547f00    T...    LDREX    r7,[r4]
        0x20000688:    01bd        ..      LSLS     r5,r7,#6
        0x2000068a:    d303        ..      BCC      0x20000694 ; EventRecordItem + 544
        0x2000068c:    f3bf8f2f    ../.    CLREX    
        0x20000690:    2700        .'      MOVS     r7,#0
        0x20000692:    e006        ..      B        0x200006a2 ; EventRecordItem + 558
        0x20000694:    f0074700    ...G    AND      r7,r7,#0x80000000
        0x20000698:    4317        .C      ORRS     r7,r7,r2
        0x2000069a:    e8447300    D..s    STREX    r3,r7,[r4]
        0x2000069e:    b103        ..      CBZ      r3,0x200006a2 ; EventRecordItem + 558
        0x200006a0:    e7f0        ..      B        0x20000684 ; EventRecordItem + 528
        0x200006a2:    017a        z.      LSLS     r2,r7,#5
        0x200006a4:    d52e        ..      BPL      0x20000704 ; EventRecordItem + 656
        0x200006a6:    f0874204    ...B    EOR      r2,r7,#0x84000000
        0x200006aa:    f0024300    ...C    AND      r3,r2,#0x80000000
        0x200006ae:    f0214100    !..A    BIC      r1,r1,#0x80000000
        0x200006b2:    4419        .D      ADD      r1,r1,r3
        0x200006b4:    eb0e1500    ....    ADD      r5,lr,r0,LSL #4
        0x200006b8:    0100        ..      LSLS     r0,r0,#4
        0x200006ba:    f84e1000    N...    STR      r1,[lr,r0]
        0x200006be:    f02a4000    *..@    BIC      r0,r10,#0x80000000
        0x200006c2:    f0284100    (..A    BIC      r1,r8,#0x80000000
        0x200006c6:    4418        .D      ADD      r0,r0,r3
        0x200006c8:    4419        .D      ADD      r1,r1,r3
        0x200006ca:    e9c50101    ....    STRD     r0,r1,[r5,#4]
        0x200006ce:    e8541f00    T...    LDREX    r1,[r4]
        0x200006d2:    0189        ..      LSLS     r1,r1,#6
        0x200006d4:    d203        ..      BCS      0x200006de ; EventRecordItem + 618
        0x200006d6:    f3bf8f2f    ../.    CLREX    
        0x200006da:    2000        .       MOVS     r0,#0
        0x200006dc:    e004        ..      B        0x200006e8 ; EventRecordItem + 628
        0x200006de:    e8442300    D..#    STREX    r3,r2,[r4]
        0x200006e2:    b103        ..      CBZ      r3,0x200006e6 ; EventRecordItem + 626
        0x200006e4:    e7f3        ..      B        0x200006ce ; EventRecordItem + 602
        0x200006e6:    2001        .       MOVS     r0,#1
        0x200006e8:    b160        `.      CBZ      r0,0x20000704 ; EventRecordItem + 656
        0x200006ea:    f10c0008    ....    ADD      r0,r12,#8
        0x200006ee:    e8501f00    P...    LDREX    r1,[r0]
        0x200006f2:    1c4a        J.      ADDS     r2,r1,#1
        0x200006f4:    e8402300    @..#    STREX    r3,r2,[r0]
        0x200006f8:    b103        ..      CBZ      r3,0x200006fc ; EventRecordItem + 648
        0x200006fa:    e7f8        ..      B        0x200006ee ; EventRecordItem + 634
        0x200006fc:    2001        .       MOVS     r0,#1
        0x200006fe:    e8bd87f0    ....    POP      {r4-r10,pc}
        0x20000702:    bf00        ..      NOP      
        0x20000704:    f10c000c    ....    ADD      r0,r12,#0xc
        0x20000708:    e8501f00    P...    LDREX    r1,[r0]
        0x2000070c:    1c4a        J.      ADDS     r2,r1,#1
        0x2000070e:    e8402300    @..#    STREX    r3,r2,[r0]
        0x20000712:    b103        ..      CBZ      r3,0x20000716 ; EventRecordItem + 674
        0x20000714:    e7f8        ..      B        0x20000708 ; EventRecordItem + 660
        0x20000716:    2000        .       MOVS     r0,#0
        0x20000718:    e8bd87f0    ....    POP      {r4-r10,pc}
    EventRecorderInitialize
        0x2000071c:    e92d4ff0    -..O    PUSH     {r4-r11,lr}
        0x20000720:    b081        ..      SUB      sp,sp,#4
        0x20000722:    f6462a80    F..*    MOVW     r10,#0x6a80
        0x20000726:    f6462b00    F..+    MOVW     r11,#0x6a00
        0x2000072a:    4681        .F      MOV      r9,r0
        0x2000072c:    f2c20a01    ....    MOVT     r10,#0x2001
        0x20000730:    2000        .       MOVS     r0,#0
        0x20000732:    f2c20b01    ....    MOVT     r11,#0x2001
        0x20000736:    4688        .F      MOV      r8,r1
        0x20000738:    f88a0000    ....    STRB     r0,[r10,#0]
        0x2000073c:    4658        XF      MOV      r0,r11
        0x2000073e:    2180        .!      MOVS     r1,#0x80
        0x20000740:    f04f37ff    O..7    MOV      r7,#0xffffffff
        0x20000744:    f7fffd35    ..5.    BL       __aeabi_memclr ; 0x200001b2
        0x20000748:    f6441068    D.h.    MOV      r0,#0x4968
        0x2000074c:    f2c20000    ....    MOVT     r0,#0x2000
        0x20000750:    3803        .8      SUBS     r0,#3
        0x20000752:    2118        .!      MOVS     r1,#0x18
        0x20000754:    f2410221    A.!.    MOV      r2,#0x1021
        0x20000758:    f04f33ff    O..3    MOV      r3,#0xffffffff
        0x2000075c:    f8106f03    ...o    LDRB     r6,[r0,#3]!
        0x20000760:    ea832306    ...#    EOR      r3,r3,r6,LSL #8
        0x20000764:    b21e        ..      SXTH     r6,r3
        0x20000766:    ea820443    ..C.    EOR      r4,r2,r3,LSL #1
        0x2000076a:    42be        .B      CMP      r6,r7
        0x2000076c:    bfc8        ..      IT       GT
        0x2000076e:    005c        \.      LSLGT    r4,r3,#1
        0x20000770:    b223        #.      SXTH     r3,r4
        0x20000772:    ea820644    ..D.    EOR      r6,r2,r4,LSL #1
        0x20000776:    42bb        .B      CMP      r3,r7
        0x20000778:    bfc8        ..      IT       GT
        0x2000077a:    0066        f.      LSLGT    r6,r4,#1
        0x2000077c:    b233        3.      SXTH     r3,r6
        0x2000077e:    ea820446    ..F.    EOR      r4,r2,r6,LSL #1
        0x20000782:    42bb        .B      CMP      r3,r7
        0x20000784:    bfc8        ..      IT       GT
        0x20000786:    0074        t.      LSLGT    r4,r6,#1
        0x20000788:    b223        #.      SXTH     r3,r4
        0x2000078a:    ea820644    ..D.    EOR      r6,r2,r4,LSL #1
        0x2000078e:    42bb        .B      CMP      r3,r7
        0x20000790:    bfc8        ..      IT       GT
        0x20000792:    0066        f.      LSLGT    r6,r4,#1
        0x20000794:    b233        3.      SXTH     r3,r6
        0x20000796:    ea820446    ..F.    EOR      r4,r2,r6,LSL #1
        0x2000079a:    42bb        .B      CMP      r3,r7
        0x2000079c:    bfc8        ..      IT       GT
        0x2000079e:    0074        t.      LSLGT    r4,r6,#1
        0x200007a0:    b223        #.      SXTH     r3,r4
        0x200007a2:    ea820644    ..D.    EOR      r6,r2,r4,LSL #1
        0x200007a6:    42bb        .B      CMP      r3,r7
        0x200007a8:    bfc8        ..      IT       GT
        0x200007aa:    0066        f.      LSLGT    r6,r4,#1
        0x200007ac:    b233        3.      SXTH     r3,r6
        0x200007ae:    ea820446    ..F.    EOR      r4,r2,r6,LSL #1
        0x200007b2:    42bb        .B      CMP      r3,r7
        0x200007b4:    bfc8        ..      IT       GT
        0x200007b6:    0074        t.      LSLGT    r4,r6,#1
        0x200007b8:    b223        #.      SXTH     r3,r4
        0x200007ba:    ea820644    ..D.    EOR      r6,r2,r4,LSL #1
        0x200007be:    42bb        .B      CMP      r3,r7
        0x200007c0:    bfc8        ..      IT       GT
        0x200007c2:    0066        f.      LSLGT    r6,r4,#1
        0x200007c4:    7844        Dx      LDRB     r4,[r0,#1]
        0x200007c6:    7883        .x      LDRB     r3,[r0,#2]
        0x200007c8:    ea862604    ...&    EOR      r6,r6,r4,LSL #8
        0x200007cc:    b234        4.      SXTH     r4,r6
        0x200007ce:    ea820546    ..F.    EOR      r5,r2,r6,LSL #1
        0x200007d2:    42bc        .B      CMP      r4,r7
        0x200007d4:    bfc8        ..      IT       GT
        0x200007d6:    0075        u.      LSLGT    r5,r6,#1
        0x200007d8:    b22e        ..      SXTH     r6,r5
        0x200007da:    ea820445    ..E.    EOR      r4,r2,r5,LSL #1
        0x200007de:    42be        .B      CMP      r6,r7
        0x200007e0:    bfc8        ..      IT       GT
        0x200007e2:    006c        l.      LSLGT    r4,r5,#1
        0x200007e4:    b226        &.      SXTH     r6,r4
        0x200007e6:    ea820544    ..D.    EOR      r5,r2,r4,LSL #1
        0x200007ea:    42be        .B      CMP      r6,r7
        0x200007ec:    bfc8        ..      IT       GT
        0x200007ee:    0065        e.      LSLGT    r5,r4,#1
        0x200007f0:    b22e        ..      SXTH     r6,r5
        0x200007f2:    ea820445    ..E.    EOR      r4,r2,r5,LSL #1
        0x200007f6:    42be        .B      CMP      r6,r7
        0x200007f8:    bfc8        ..      IT       GT
        0x200007fa:    006c        l.      LSLGT    r4,r5,#1
        0x200007fc:    b226        &.      SXTH     r6,r4
        0x200007fe:    ea820544    ..D.    EOR      r5,r2,r4,LSL #1
        0x20000802:    42be        .B      CMP      r6,r7
        0x20000804:    bfc8        ..      IT       GT
        0x20000806:    0065        e.      LSLGT    r5,r4,#1
        0x20000808:    b22e        ..      SXTH     r6,r5
        0x2000080a:    ea820445    ..E.    EOR      r4,r2,r5,LSL #1
        0x2000080e:    42be        .B      CMP      r6,r7
        0x20000810:    bfc8        ..      IT       GT
        0x20000812:    006c        l.      LSLGT    r4,r5,#1
        0x20000814:    b226        &.      SXTH     r6,r4
        0x20000816:    ea820544    ..D.    EOR      r5,r2,r4,LSL #1
        0x2000081a:    42be        .B      CMP      r6,r7
        0x2000081c:    bfc8        ..      IT       GT
        0x2000081e:    0065        e.      LSLGT    r5,r4,#1
        0x20000820:    b22e        ..      SXTH     r6,r5
        0x20000822:    ea820445    ..E.    EOR      r4,r2,r5,LSL #1
        0x20000826:    42be        .B      CMP      r6,r7
        0x20000828:    bfc8        ..      IT       GT
        0x2000082a:    006c        l.      LSLGT    r4,r5,#1
        0x2000082c:    ea842303    ...#    EOR      r3,r4,r3,LSL #8
        0x20000830:    b21e        ..      SXTH     r6,r3
        0x20000832:    ea820543    ..C.    EOR      r5,r2,r3,LSL #1
        0x20000836:    42be        .B      CMP      r6,r7
        0x20000838:    bfc8        ..      IT       GT
        0x2000083a:    005d        ].      LSLGT    r5,r3,#1
        0x2000083c:    b22b        +.      SXTH     r3,r5
        0x2000083e:    ea820645    ..E.    EOR      r6,r2,r5,LSL #1
        0x20000842:    42bb        .B      CMP      r3,r7
        0x20000844:    bfc8        ..      IT       GT
        0x20000846:    006e        n.      LSLGT    r6,r5,#1
        0x20000848:    b233        3.      SXTH     r3,r6
        0x2000084a:    ea820546    ..F.    EOR      r5,r2,r6,LSL #1
        0x2000084e:    42bb        .B      CMP      r3,r7
        0x20000850:    bfc8        ..      IT       GT
        0x20000852:    0075        u.      LSLGT    r5,r6,#1
        0x20000854:    b22b        +.      SXTH     r3,r5
        0x20000856:    ea820645    ..E.    EOR      r6,r2,r5,LSL #1
        0x2000085a:    42bb        .B      CMP      r3,r7
        0x2000085c:    bfc8        ..      IT       GT
        0x2000085e:    006e        n.      LSLGT    r6,r5,#1
        0x20000860:    b233        3.      SXTH     r3,r6
        0x20000862:    ea820546    ..F.    EOR      r5,r2,r6,LSL #1
        0x20000866:    42bb        .B      CMP      r3,r7
        0x20000868:    bfc8        ..      IT       GT
        0x2000086a:    0075        u.      LSLGT    r5,r6,#1
        0x2000086c:    b22b        +.      SXTH     r3,r5
        0x2000086e:    ea820645    ..E.    EOR      r6,r2,r5,LSL #1
        0x20000872:    42bb        .B      CMP      r3,r7
        0x20000874:    bfc8        ..      IT       GT
        0x20000876:    006e        n.      LSLGT    r6,r5,#1
        0x20000878:    b233        3.      SXTH     r3,r6
        0x2000087a:    ea820546    ..F.    EOR      r5,r2,r6,LSL #1
        0x2000087e:    42bb        .B      CMP      r3,r7
        0x20000880:    bfc8        ..      IT       GT
        0x20000882:    0075        u.      LSLGT    r5,r6,#1
        0x20000884:    b22e        ..      SXTH     r6,r5
        0x20000886:    ea820345    ..E.    EOR      r3,r2,r5,LSL #1
        0x2000088a:    42be        .B      CMP      r6,r7
        0x2000088c:    bfc8        ..      IT       GT
        0x2000088e:    006b        k.      LSLGT    r3,r5,#1
        0x20000890:    3903        .9      SUBS     r1,#3
        0x20000892:    f47faf63    ..c.    BNE      0x2000075c ; EventRecorderInitialize + 64
        0x20000896:    f8da1020    .. .    LDR      r1,[r10,#0x20]
        0x2000089a:    f242706b    B.kp    MOV      r0,#0x276b
        0x2000089e:    f2ce10a5    ....    MOVT     r0,#0xe1a5
        0x200008a2:    4281        .B      CMP      r1,r0
        0x200008a4:    f0408092    @...    BNE.W    0x200009cc ; EventRecorderInitialize + 688
        0x200008a8:    f8ba0002    ....    LDRH     r0,[r10,#2]
        0x200008ac:    b299        ..      UXTH     r1,r3
        0x200008ae:    4288        .B      CMP      r0,r1
        0x200008b0:    f040808e    @...    BNE.W    0x200009d0 ; EventRecorderInitialize + 692
        0x200008b4:    f8da001c    ....    LDR      r0,[r10,#0x1c]
        0x200008b8:    1c41        A.      ADDS     r1,r0,#1
        0x200008ba:    2800        .(      CMP      r0,#0
        0x200008bc:    f8ca101c    ....    STR      r1,[r10,#0x1c]
        0x200008c0:    f000808b    ....    BEQ.W    0x200009da ; EventRecorderInitialize + 702
        0x200008c4:    f2466000    F..`    MOVW     r0,#0x6600
        0x200008c8:    f2c20001    ....    MOVT     r0,#0x2001
        0x200008cc:    2100        .!      MOVS     r1,#0
        0x200008ce:    bf00        ..      NOP      
        0x200008d0:    1842        B.      ADDS     r2,r0,r1
        0x200008d2:    68d3        .h      LDR      r3,[r2,#0xc]
        0x200008d4:    f5017180    ...q    ADD      r1,r1,#0x100
        0x200008d8:    015f        _.      LSLS     r7,r3,#5
        0x200008da:    bf44        D.      ITT      MI
        0x200008dc:    f0236340    #.@c    BICMI    r3,r3,#0xc000000
        0x200008e0:    60d3        .`      STRMI    r3,[r2,#0xc]
        0x200008e2:    69d3        .i      LDR      r3,[r2,#0x1c]
        0x200008e4:    015f        _.      LSLS     r7,r3,#5
        0x200008e6:    bf44        D.      ITT      MI
        0x200008e8:    f0236340    #.@c    BICMI    r3,r3,#0xc000000
        0x200008ec:    61d3        .a      STRMI    r3,[r2,#0x1c]
        0x200008ee:    6ad3        .j      LDR      r3,[r2,#0x2c]
        0x200008f0:    015f        _.      LSLS     r7,r3,#5
        0x200008f2:    bf44        D.      ITT      MI
        0x200008f4:    f0236340    #.@c    BICMI    r3,r3,#0xc000000
        0x200008f8:    62d3        .b      STRMI    r3,[r2,#0x2c]
        0x200008fa:    6bd3        .k      LDR      r3,[r2,#0x3c]
        0x200008fc:    015f        _.      LSLS     r7,r3,#5
        0x200008fe:    bf44        D.      ITT      MI
        0x20000900:    f0236340    #.@c    BICMI    r3,r3,#0xc000000
        0x20000904:    63d3        .c      STRMI    r3,[r2,#0x3c]
        0x20000906:    6cd3        .l      LDR      r3,[r2,#0x4c]
        0x20000908:    015f        _.      LSLS     r7,r3,#5
        0x2000090a:    bf44        D.      ITT      MI
        0x2000090c:    f0236340    #.@c    BICMI    r3,r3,#0xc000000
        0x20000910:    64d3        .d      STRMI    r3,[r2,#0x4c]
        0x20000912:    6dd3        .m      LDR      r3,[r2,#0x5c]
        0x20000914:    015f        _.      LSLS     r7,r3,#5
        0x20000916:    bf44        D.      ITT      MI
        0x20000918:    f0236340    #.@c    BICMI    r3,r3,#0xc000000
        0x2000091c:    65d3        .e      STRMI    r3,[r2,#0x5c]
        0x2000091e:    6ed3        .n      LDR      r3,[r2,#0x6c]
        0x20000920:    015f        _.      LSLS     r7,r3,#5
        0x20000922:    bf44        D.      ITT      MI
        0x20000924:    f0236340    #.@c    BICMI    r3,r3,#0xc000000
        0x20000928:    66d3        .f      STRMI    r3,[r2,#0x6c]
        0x2000092a:    6fd3        .o      LDR      r3,[r2,#0x7c]
        0x2000092c:    015f        _.      LSLS     r7,r3,#5
        0x2000092e:    bf44        D.      ITT      MI
        0x20000930:    f0236340    #.@c    BICMI    r3,r3,#0xc000000
        0x20000934:    67d3        .g      STRMI    r3,[r2,#0x7c]
        0x20000936:    f8d2308c    ...0    LDR      r3,[r2,#0x8c]
        0x2000093a:    015f        _.      LSLS     r7,r3,#5
        0x2000093c:    bf44        D.      ITT      MI
        0x2000093e:    f0236340    #.@c    BICMI    r3,r3,#0xc000000
        0x20000942:    f8c2308c    ...0    STRMI    r3,[r2,#0x8c]
        0x20000946:    f8d2309c    ...0    LDR      r3,[r2,#0x9c]
        0x2000094a:    015f        _.      LSLS     r7,r3,#5
        0x2000094c:    bf44        D.      ITT      MI
        0x2000094e:    f0236340    #.@c    BICMI    r3,r3,#0xc000000
        0x20000952:    f8c2309c    ...0    STRMI    r3,[r2,#0x9c]
        0x20000956:    f8d230ac    ...0    LDR      r3,[r2,#0xac]
        0x2000095a:    015f        _.      LSLS     r7,r3,#5
        0x2000095c:    bf44        D.      ITT      MI
        0x2000095e:    f0236340    #.@c    BICMI    r3,r3,#0xc000000
        0x20000962:    f8c230ac    ...0    STRMI    r3,[r2,#0xac]
        0x20000966:    f8d230bc    ...0    LDR      r3,[r2,#0xbc]
        0x2000096a:    015f        _.      LSLS     r7,r3,#5
        0x2000096c:    bf44        D.      ITT      MI
        0x2000096e:    f0236340    #.@c    BICMI    r3,r3,#0xc000000
        0x20000972:    f8c230bc    ...0    STRMI    r3,[r2,#0xbc]
        0x20000976:    f8d230cc    ...0    LDR      r3,[r2,#0xcc]
        0x2000097a:    015f        _.      LSLS     r7,r3,#5
        0x2000097c:    bf44        D.      ITT      MI
        0x2000097e:    f0236340    #.@c    BICMI    r3,r3,#0xc000000
        0x20000982:    f8c230cc    ...0    STRMI    r3,[r2,#0xcc]
        0x20000986:    f8d230dc    ...0    LDR      r3,[r2,#0xdc]
        0x2000098a:    015f        _.      LSLS     r7,r3,#5
        0x2000098c:    bf44        D.      ITT      MI
        0x2000098e:    f0236340    #.@c    BICMI    r3,r3,#0xc000000
        0x20000992:    f8c230dc    ...0    STRMI    r3,[r2,#0xdc]
        0x20000996:    f8d230ec    ...0    LDR      r3,[r2,#0xec]
        0x2000099a:    015f        _.      LSLS     r7,r3,#5
        0x2000099c:    bf44        D.      ITT      MI
        0x2000099e:    f0236340    #.@c    BICMI    r3,r3,#0xc000000
        0x200009a2:    f8c230ec    ...0    STRMI    r3,[r2,#0xec]
        0x200009a6:    f8d230fc    ...0    LDR      r3,[r2,#0xfc]
        0x200009aa:    015f        _.      LSLS     r7,r3,#5
        0x200009ac:    bf44        D.      ITT      MI
        0x200009ae:    f0236340    #.@c    BICMI    r3,r3,#0xc000000
        0x200009b2:    f8c230fc    ...0    STRMI    r3,[r2,#0xfc]
        0x200009b6:    f5b16f80    ...o    CMP      r1,#0x400
        0x200009ba:    d189        ..      BNE      0x200008d0 ; EventRecorderInitialize + 436
        0x200009bc:    f000fc1e    ....    BL       EventRecorderTimerSetup ; 0x200011fc
        0x200009c0:    4607        .F      MOV      r7,r0
        0x200009c2:    bb3f        ?.      CBNZ     r7,0x20000a14 ; EventRecorderInitialize + 760
        0x200009c4:    4638        8F      MOV      r0,r7
        0x200009c6:    b001        ..      ADD      sp,sp,#4
        0x200009c8:    e8bd8ff0    ....    POP      {r4-r11,pc}
        0x200009cc:    f8ca0020    .. .    STR      r0,[r10,#0x20]
        0x200009d0:    2001        .       MOVS     r0,#1
        0x200009d2:    f8aa3002    ...0    STRH     r3,[r10,#2]
        0x200009d6:    f8ca001c    ....    STR      r0,[r10,#0x1c]
        0x200009da:    f2466000    F..`    MOVW     r0,#0x6600
        0x200009de:    2600        .&      MOVS     r6,#0
        0x200009e0:    f2c20001    ....    MOVT     r0,#0x2001
        0x200009e4:    f44f6180    O..a    MOV      r1,#0x400
        0x200009e8:    f88a6001    ...`    STRB     r6,[r10,#1]
        0x200009ec:    e9ca6601    ...f    STRD     r6,r6,[r10,#4]
        0x200009f0:    f8ca600c    ...`    STR      r6,[r10,#0xc]
        0x200009f4:    f7fffbdd    ....    BL       __aeabi_memclr ; 0x200001b2
        0x200009f8:    f000fc00    ....    BL       EventRecorderTimerSetup ; 0x200011fc
        0x200009fc:    2800        .(      CMP      r0,#0
        0x200009fe:    4607        .F      MOV      r7,r0
        0x20000a00:    bf0c        ..      ITE      EQ
        0x20000a02:    2000        .       MOVEQ    r0,#0
        0x20000a04:    f000fbf4    ....    BLNE     EventRecorderTimerGetFreq ; 0x200011f0
        0x20000a08:    e9ca6004    ...`    STRD     r6,r0,[r10,#0x10]
        0x20000a0c:    f8ca6018    ...`    STR      r6,[r10,#0x18]
        0x20000a10:    2f00        ./      CMP      r7,#0
        0x20000a12:    d0d7        ..      BEQ      0x200009c4 ; EventRecorderInitialize + 680
        0x20000a14:    ea5f70c9    _..p    LSLS     r0,r9,#31
        0x20000a18:    f00080c1    ....    BEQ.W    0x20000b9e ; EventRecorderInitialize + 1154
        0x20000a1c:    2000        .       MOVS     r0,#0
        0x20000a1e:    2101        .!      MOVS     r1,#1
        0x20000a20:    08c3        ..      LSRS     r3,r0,#3
        0x20000a22:    f0000207    ....    AND      r2,r0,#7
        0x20000a26:    f81b6003    ...`    LDRB     r6,[r11,r3]
        0x20000a2a:    fa01f202    ....    LSL      r2,r1,r2
        0x20000a2e:    4316        .C      ORRS     r6,r6,r2
        0x20000a30:    f80b6003    ...`    STRB     r6,[r11,r3]
        0x20000a34:    1c43        C.      ADDS     r3,r0,#1
        0x20000a36:    f0030607    ....    AND      r6,r3,#7
        0x20000a3a:    08db        ..      LSRS     r3,r3,#3
        0x20000a3c:    f81b5003    ...P    LDRB     r5,[r11,r3]
        0x20000a40:    fa01f606    ....    LSL      r6,r1,r6
        0x20000a44:    432e        .C      ORRS     r6,r6,r5
        0x20000a46:    f80b6003    ...`    STRB     r6,[r11,r3]
        0x20000a4a:    1c83        ..      ADDS     r3,r0,#2
        0x20000a4c:    f0030607    ....    AND      r6,r3,#7
        0x20000a50:    08db        ..      LSRS     r3,r3,#3
        0x20000a52:    f81b5003    ...P    LDRB     r5,[r11,r3]
        0x20000a56:    fa01f606    ....    LSL      r6,r1,r6
        0x20000a5a:    432e        .C      ORRS     r6,r6,r5
        0x20000a5c:    f80b6003    ...`    STRB     r6,[r11,r3]
        0x20000a60:    1cc3        ..      ADDS     r3,r0,#3
        0x20000a62:    f0030607    ....    AND      r6,r3,#7
        0x20000a66:    08db        ..      LSRS     r3,r3,#3
        0x20000a68:    f81b5003    ...P    LDRB     r5,[r11,r3]
        0x20000a6c:    fa01f606    ....    LSL      r6,r1,r6
        0x20000a70:    432e        .C      ORRS     r6,r6,r5
        0x20000a72:    f80b6003    ...`    STRB     r6,[r11,r3]
        0x20000a76:    1d03        ..      ADDS     r3,r0,#4
        0x20000a78:    f0030607    ....    AND      r6,r3,#7
        0x20000a7c:    08db        ..      LSRS     r3,r3,#3
        0x20000a7e:    f81b5003    ...P    LDRB     r5,[r11,r3]
        0x20000a82:    fa01f606    ....    LSL      r6,r1,r6
        0x20000a86:    432e        .C      ORRS     r6,r6,r5
        0x20000a88:    f80b6003    ...`    STRB     r6,[r11,r3]
        0x20000a8c:    1d43        C.      ADDS     r3,r0,#5
        0x20000a8e:    f0030607    ....    AND      r6,r3,#7
        0x20000a92:    08db        ..      LSRS     r3,r3,#3
        0x20000a94:    f81b5003    ...P    LDRB     r5,[r11,r3]
        0x20000a98:    fa01f606    ....    LSL      r6,r1,r6
        0x20000a9c:    432e        .C      ORRS     r6,r6,r5
        0x20000a9e:    f80b6003    ...`    STRB     r6,[r11,r3]
        0x20000aa2:    1d83        ..      ADDS     r3,r0,#6
        0x20000aa4:    f0030607    ....    AND      r6,r3,#7
        0x20000aa8:    08db        ..      LSRS     r3,r3,#3
        0x20000aaa:    f81b5003    ...P    LDRB     r5,[r11,r3]
        0x20000aae:    fa01f606    ....    LSL      r6,r1,r6
        0x20000ab2:    432e        .C      ORRS     r6,r6,r5
        0x20000ab4:    f80b6003    ...`    STRB     r6,[r11,r3]
        0x20000ab8:    1dc3        ..      ADDS     r3,r0,#7
        0x20000aba:    f0030607    ....    AND      r6,r3,#7
        0x20000abe:    08db        ..      LSRS     r3,r3,#3
        0x20000ac0:    f81b5003    ...P    LDRB     r5,[r11,r3]
        0x20000ac4:    fa01f606    ....    LSL      r6,r1,r6
        0x20000ac8:    432e        .C      ORRS     r6,r6,r5
        0x20000aca:    f80b6003    ...`    STRB     r6,[r11,r3]
        0x20000ace:    f1000308    ....    ADD      r3,r0,#8
        0x20000ad2:    08db        ..      LSRS     r3,r3,#3
        0x20000ad4:    f81b6003    ...`    LDRB     r6,[r11,r3]
        0x20000ad8:    4316        .C      ORRS     r6,r6,r2
        0x20000ada:    f80b6003    ...`    STRB     r6,[r11,r3]
        0x20000ade:    f1000309    ....    ADD      r3,r0,#9
        0x20000ae2:    f0030607    ....    AND      r6,r3,#7
        0x20000ae6:    08db        ..      LSRS     r3,r3,#3
        0x20000ae8:    f81b5003    ...P    LDRB     r5,[r11,r3]
        0x20000aec:    fa01f606    ....    LSL      r6,r1,r6
        0x20000af0:    432e        .C      ORRS     r6,r6,r5
        0x20000af2:    f80b6003    ...`    STRB     r6,[r11,r3]
        0x20000af6:    f100030a    ....    ADD      r3,r0,#0xa
        0x20000afa:    f0030607    ....    AND      r6,r3,#7
        0x20000afe:    08db        ..      LSRS     r3,r3,#3
        0x20000b00:    f81b5003    ...P    LDRB     r5,[r11,r3]
        0x20000b04:    fa01f606    ....    LSL      r6,r1,r6
        0x20000b08:    432e        .C      ORRS     r6,r6,r5
        0x20000b0a:    f80b6003    ...`    STRB     r6,[r11,r3]
        0x20000b0e:    f100030b    ....    ADD      r3,r0,#0xb
        0x20000b12:    f0030607    ....    AND      r6,r3,#7
        0x20000b16:    08db        ..      LSRS     r3,r3,#3
        0x20000b18:    f81b5003    ...P    LDRB     r5,[r11,r3]
        0x20000b1c:    fa01f606    ....    LSL      r6,r1,r6
        0x20000b20:    432e        .C      ORRS     r6,r6,r5
        0x20000b22:    f80b6003    ...`    STRB     r6,[r11,r3]
        0x20000b26:    f100030c    ....    ADD      r3,r0,#0xc
        0x20000b2a:    f0030607    ....    AND      r6,r3,#7
        0x20000b2e:    08db        ..      LSRS     r3,r3,#3
        0x20000b30:    f81b5003    ...P    LDRB     r5,[r11,r3]
        0x20000b34:    fa01f606    ....    LSL      r6,r1,r6
        0x20000b38:    432e        .C      ORRS     r6,r6,r5
        0x20000b3a:    f80b6003    ...`    STRB     r6,[r11,r3]
        0x20000b3e:    f100030d    ....    ADD      r3,r0,#0xd
        0x20000b42:    f0030607    ....    AND      r6,r3,#7
        0x20000b46:    08db        ..      LSRS     r3,r3,#3
        0x20000b48:    f81b5003    ...P    LDRB     r5,[r11,r3]
        0x20000b4c:    fa01f606    ....    LSL      r6,r1,r6
        0x20000b50:    432e        .C      ORRS     r6,r6,r5
        0x20000b52:    f80b6003    ...`    STRB     r6,[r11,r3]
        0x20000b56:    f100030e    ....    ADD      r3,r0,#0xe
        0x20000b5a:    f0030607    ....    AND      r6,r3,#7
        0x20000b5e:    08db        ..      LSRS     r3,r3,#3
        0x20000b60:    f81b5003    ...P    LDRB     r5,[r11,r3]
        0x20000b64:    fa01f606    ....    LSL      r6,r1,r6
        0x20000b68:    432e        .C      ORRS     r6,r6,r5
        0x20000b6a:    f80b6003    ...`    STRB     r6,[r11,r3]
        0x20000b6e:    f100030f    ....    ADD      r3,r0,#0xf
        0x20000b72:    f0030607    ....    AND      r6,r3,#7
        0x20000b76:    08db        ..      LSRS     r3,r3,#3
        0x20000b78:    f81b5003    ...P    LDRB     r5,[r11,r3]
        0x20000b7c:    fa01f606    ....    LSL      r6,r1,r6
        0x20000b80:    432e        .C      ORRS     r6,r6,r5
        0x20000b82:    f80b6003    ...`    STRB     r6,[r11,r3]
        0x20000b86:    f1000310    ....    ADD      r3,r0,#0x10
        0x20000b8a:    08db        ..      LSRS     r3,r3,#3
        0x20000b8c:    f81b6003    ...`    LDRB     r6,[r11,r3]
        0x20000b90:    3011        .0      ADDS     r0,r0,#0x11
        0x20000b92:    4332        2C      ORRS     r2,r2,r6
        0x20000b94:    28ff        .(      CMP      r0,#0xff
        0x20000b96:    f80b2003    ...     STRB     r2,[r11,r3]
        0x20000b9a:    f47faf41    ..A.    BNE      0x20000a20 ; EventRecorderInitialize + 772
        0x20000b9e:    ea5f7089    _..p    LSLS     r0,r9,#30
        0x20000ba2:    f14080d3    @...    BPL.W    0x20000d4c ; EventRecorderInitialize + 1584
        0x20000ba6:    2000        .       MOVS     r0,#0
        0x20000ba8:    2101        .!      MOVS     r1,#1
        0x20000baa:    bf00        ..      NOP      
        0x20000bac:    eb0b03d0    ....    ADD      r3,r11,r0,LSR #3
        0x20000bb0:    f0000207    ....    AND      r2,r0,#7
        0x20000bb4:    f8936020    .. `    LDRB     r6,[r3,#0x20]
        0x20000bb8:    fa01f202    ....    LSL      r2,r1,r2
        0x20000bbc:    4316        .C      ORRS     r6,r6,r2
        0x20000bbe:    f8836020    .. `    STRB     r6,[r3,#0x20]
        0x20000bc2:    1c43        C.      ADDS     r3,r0,#1
        0x20000bc4:    f0030607    ....    AND      r6,r3,#7
        0x20000bc8:    eb0b03d3    ....    ADD      r3,r11,r3,LSR #3
        0x20000bcc:    f8935020    .. P    LDRB     r5,[r3,#0x20]
        0x20000bd0:    fa01f606    ....    LSL      r6,r1,r6
        0x20000bd4:    432e        .C      ORRS     r6,r6,r5
        0x20000bd6:    f8836020    .. `    STRB     r6,[r3,#0x20]
        0x20000bda:    1c83        ..      ADDS     r3,r0,#2
        0x20000bdc:    f0030607    ....    AND      r6,r3,#7
        0x20000be0:    eb0b03d3    ....    ADD      r3,r11,r3,LSR #3
        0x20000be4:    f8935020    .. P    LDRB     r5,[r3,#0x20]
        0x20000be8:    fa01f606    ....    LSL      r6,r1,r6
        0x20000bec:    432e        .C      ORRS     r6,r6,r5
        0x20000bee:    f8836020    .. `    STRB     r6,[r3,#0x20]
        0x20000bf2:    1cc3        ..      ADDS     r3,r0,#3
        0x20000bf4:    f0030607    ....    AND      r6,r3,#7
        0x20000bf8:    eb0b03d3    ....    ADD      r3,r11,r3,LSR #3
        0x20000bfc:    f8935020    .. P    LDRB     r5,[r3,#0x20]
        0x20000c00:    fa01f606    ....    LSL      r6,r1,r6
        0x20000c04:    432e        .C      ORRS     r6,r6,r5
        0x20000c06:    f8836020    .. `    STRB     r6,[r3,#0x20]
        0x20000c0a:    1d03        ..      ADDS     r3,r0,#4
        0x20000c0c:    f0030607    ....    AND      r6,r3,#7
        0x20000c10:    eb0b03d3    ....    ADD      r3,r11,r3,LSR #3
        0x20000c14:    f8935020    .. P    LDRB     r5,[r3,#0x20]
        0x20000c18:    fa01f606    ....    LSL      r6,r1,r6
        0x20000c1c:    432e        .C      ORRS     r6,r6,r5
        0x20000c1e:    f8836020    .. `    STRB     r6,[r3,#0x20]
        0x20000c22:    1d43        C.      ADDS     r3,r0,#5
        0x20000c24:    f0030607    ....    AND      r6,r3,#7
        0x20000c28:    eb0b03d3    ....    ADD      r3,r11,r3,LSR #3
        0x20000c2c:    f8935020    .. P    LDRB     r5,[r3,#0x20]
        0x20000c30:    fa01f606    ....    LSL      r6,r1,r6
        0x20000c34:    432e        .C      ORRS     r6,r6,r5
        0x20000c36:    f8836020    .. `    STRB     r6,[r3,#0x20]
        0x20000c3a:    1d83        ..      ADDS     r3,r0,#6
        0x20000c3c:    f0030607    ....    AND      r6,r3,#7
        0x20000c40:    eb0b03d3    ....    ADD      r3,r11,r3,LSR #3
        0x20000c44:    f8935020    .. P    LDRB     r5,[r3,#0x20]
        0x20000c48:    fa01f606    ....    LSL      r6,r1,r6
        0x20000c4c:    432e        .C      ORRS     r6,r6,r5
        0x20000c4e:    f8836020    .. `    STRB     r6,[r3,#0x20]
        0x20000c52:    1dc3        ..      ADDS     r3,r0,#7
        0x20000c54:    f0030607    ....    AND      r6,r3,#7
        0x20000c58:    eb0b03d3    ....    ADD      r3,r11,r3,LSR #3
        0x20000c5c:    f8935020    .. P    LDRB     r5,[r3,#0x20]
        0x20000c60:    fa01f606    ....    LSL      r6,r1,r6
        0x20000c64:    432e        .C      ORRS     r6,r6,r5
        0x20000c66:    f8836020    .. `    STRB     r6,[r3,#0x20]
        0x20000c6a:    f1000308    ....    ADD      r3,r0,#8
        0x20000c6e:    eb0b03d3    ....    ADD      r3,r11,r3,LSR #3
        0x20000c72:    f8936020    .. `    LDRB     r6,[r3,#0x20]
        0x20000c76:    4316        .C      ORRS     r6,r6,r2
        0x20000c78:    f8836020    .. `    STRB     r6,[r3,#0x20]
        0x20000c7c:    f1000309    ....    ADD      r3,r0,#9
        0x20000c80:    f0030607    ....    AND      r6,r3,#7
        0x20000c84:    eb0b03d3    ....    ADD      r3,r11,r3,LSR #3
        0x20000c88:    f8935020    .. P    LDRB     r5,[r3,#0x20]
        0x20000c8c:    fa01f606    ....    LSL      r6,r1,r6
        0x20000c90:    432e        .C      ORRS     r6,r6,r5
        0x20000c92:    f8836020    .. `    STRB     r6,[r3,#0x20]
        0x20000c96:    f100030a    ....    ADD      r3,r0,#0xa
        0x20000c9a:    f0030607    ....    AND      r6,r3,#7
        0x20000c9e:    eb0b03d3    ....    ADD      r3,r11,r3,LSR #3
        0x20000ca2:    f8935020    .. P    LDRB     r5,[r3,#0x20]
        0x20000ca6:    fa01f606    ....    LSL      r6,r1,r6
        0x20000caa:    432e        .C      ORRS     r6,r6,r5
        0x20000cac:    f8836020    .. `    STRB     r6,[r3,#0x20]
        0x20000cb0:    f100030b    ....    ADD      r3,r0,#0xb
        0x20000cb4:    f0030607    ....    AND      r6,r3,#7
        0x20000cb8:    eb0b03d3    ....    ADD      r3,r11,r3,LSR #3
        0x20000cbc:    f8935020    .. P    LDRB     r5,[r3,#0x20]
        0x20000cc0:    fa01f606    ....    LSL      r6,r1,r6
        0x20000cc4:    432e        .C      ORRS     r6,r6,r5
        0x20000cc6:    f8836020    .. `    STRB     r6,[r3,#0x20]
        0x20000cca:    f100030c    ....    ADD      r3,r0,#0xc
        0x20000cce:    f0030607    ....    AND      r6,r3,#7
        0x20000cd2:    eb0b03d3    ....    ADD      r3,r11,r3,LSR #3
        0x20000cd6:    f8935020    .. P    LDRB     r5,[r3,#0x20]
        0x20000cda:    fa01f606    ....    LSL      r6,r1,r6
        0x20000cde:    432e        .C      ORRS     r6,r6,r5
        0x20000ce0:    f8836020    .. `    STRB     r6,[r3,#0x20]
        0x20000ce4:    f100030d    ....    ADD      r3,r0,#0xd
        0x20000ce8:    f0030607    ....    AND      r6,r3,#7
        0x20000cec:    eb0b03d3    ....    ADD      r3,r11,r3,LSR #3
        0x20000cf0:    f8935020    .. P    LDRB     r5,[r3,#0x20]
        0x20000cf4:    fa01f606    ....    LSL      r6,r1,r6
        0x20000cf8:    432e        .C      ORRS     r6,r6,r5
        0x20000cfa:    f8836020    .. `    STRB     r6,[r3,#0x20]
        0x20000cfe:    f100030e    ....    ADD      r3,r0,#0xe
        0x20000d02:    f0030607    ....    AND      r6,r3,#7
        0x20000d06:    eb0b03d3    ....    ADD      r3,r11,r3,LSR #3
        0x20000d0a:    f8935020    .. P    LDRB     r5,[r3,#0x20]
        0x20000d0e:    fa01f606    ....    LSL      r6,r1,r6
        0x20000d12:    432e        .C      ORRS     r6,r6,r5
        0x20000d14:    f8836020    .. `    STRB     r6,[r3,#0x20]
        0x20000d18:    f100030f    ....    ADD      r3,r0,#0xf
        0x20000d1c:    f0030607    ....    AND      r6,r3,#7
        0x20000d20:    eb0b03d3    ....    ADD      r3,r11,r3,LSR #3
        0x20000d24:    f8935020    .. P    LDRB     r5,[r3,#0x20]
        0x20000d28:    fa01f606    ....    LSL      r6,r1,r6
        0x20000d2c:    432e        .C      ORRS     r6,r6,r5
        0x20000d2e:    f8836020    .. `    STRB     r6,[r3,#0x20]
        0x20000d32:    f1000310    ....    ADD      r3,r0,#0x10
        0x20000d36:    eb0b03d3    ....    ADD      r3,r11,r3,LSR #3
        0x20000d3a:    f8936020    .. `    LDRB     r6,[r3,#0x20]
        0x20000d3e:    3011        .0      ADDS     r0,r0,#0x11
        0x20000d40:    4332        2C      ORRS     r2,r2,r6
        0x20000d42:    28ff        .(      CMP      r0,#0xff
        0x20000d44:    f8832020    ..      STRB     r2,[r3,#0x20]
        0x20000d48:    f47faf30    ..0.    BNE      0x20000bac ; EventRecorderInitialize + 1168
        0x20000d4c:    ea5f7049    _.Ip    LSLS     r0,r9,#29
        0x20000d50:    f14080d2    @...    BPL.W    0x20000ef8 ; EventRecorderInitialize + 2012
        0x20000d54:    2000        .       MOVS     r0,#0
        0x20000d56:    2101        .!      MOVS     r1,#1
        0x20000d58:    eb0b03d0    ....    ADD      r3,r11,r0,LSR #3
        0x20000d5c:    f0000207    ....    AND      r2,r0,#7
        0x20000d60:    f8936040    ..@`    LDRB     r6,[r3,#0x40]
        0x20000d64:    fa01f202    ....    LSL      r2,r1,r2
        0x20000d68:    4316        .C      ORRS     r6,r6,r2
        0x20000d6a:    f8836040    ..@`    STRB     r6,[r3,#0x40]
        0x20000d6e:    1c43        C.      ADDS     r3,r0,#1
        0x20000d70:    f0030607    ....    AND      r6,r3,#7
        0x20000d74:    eb0b03d3    ....    ADD      r3,r11,r3,LSR #3
        0x20000d78:    f8935040    ..@P    LDRB     r5,[r3,#0x40]
        0x20000d7c:    fa01f606    ....    LSL      r6,r1,r6
        0x20000d80:    432e        .C      ORRS     r6,r6,r5
        0x20000d82:    f8836040    ..@`    STRB     r6,[r3,#0x40]
        0x20000d86:    1c83        ..      ADDS     r3,r0,#2
        0x20000d88:    f0030607    ....    AND      r6,r3,#7
        0x20000d8c:    eb0b03d3    ....    ADD      r3,r11,r3,LSR #3
        0x20000d90:    f8935040    ..@P    LDRB     r5,[r3,#0x40]
        0x20000d94:    fa01f606    ....    LSL      r6,r1,r6
        0x20000d98:    432e        .C      ORRS     r6,r6,r5
        0x20000d9a:    f8836040    ..@`    STRB     r6,[r3,#0x40]
        0x20000d9e:    1cc3        ..      ADDS     r3,r0,#3
        0x20000da0:    f0030607    ....    AND      r6,r3,#7
        0x20000da4:    eb0b03d3    ....    ADD      r3,r11,r3,LSR #3
        0x20000da8:    f8935040    ..@P    LDRB     r5,[r3,#0x40]
        0x20000dac:    fa01f606    ....    LSL      r6,r1,r6
        0x20000db0:    432e        .C      ORRS     r6,r6,r5
        0x20000db2:    f8836040    ..@`    STRB     r6,[r3,#0x40]
        0x20000db6:    1d03        ..      ADDS     r3,r0,#4
        0x20000db8:    f0030607    ....    AND      r6,r3,#7
        0x20000dbc:    eb0b03d3    ....    ADD      r3,r11,r3,LSR #3
        0x20000dc0:    f8935040    ..@P    LDRB     r5,[r3,#0x40]
        0x20000dc4:    fa01f606    ....    LSL      r6,r1,r6
        0x20000dc8:    432e        .C      ORRS     r6,r6,r5
        0x20000dca:    f8836040    ..@`    STRB     r6,[r3,#0x40]
        0x20000dce:    1d43        C.      ADDS     r3,r0,#5
        0x20000dd0:    f0030607    ....    AND      r6,r3,#7
        0x20000dd4:    eb0b03d3    ....    ADD      r3,r11,r3,LSR #3
        0x20000dd8:    f8935040    ..@P    LDRB     r5,[r3,#0x40]
        0x20000ddc:    fa01f606    ....    LSL      r6,r1,r6
        0x20000de0:    432e        .C      ORRS     r6,r6,r5
        0x20000de2:    f8836040    ..@`    STRB     r6,[r3,#0x40]
        0x20000de6:    1d83        ..      ADDS     r3,r0,#6
        0x20000de8:    f0030607    ....    AND      r6,r3,#7
        0x20000dec:    eb0b03d3    ....    ADD      r3,r11,r3,LSR #3
        0x20000df0:    f8935040    ..@P    LDRB     r5,[r3,#0x40]
        0x20000df4:    fa01f606    ....    LSL      r6,r1,r6
        0x20000df8:    432e        .C      ORRS     r6,r6,r5
        0x20000dfa:    f8836040    ..@`    STRB     r6,[r3,#0x40]
        0x20000dfe:    1dc3        ..      ADDS     r3,r0,#7
        0x20000e00:    f0030607    ....    AND      r6,r3,#7
        0x20000e04:    eb0b03d3    ....    ADD      r3,r11,r3,LSR #3
        0x20000e08:    f8935040    ..@P    LDRB     r5,[r3,#0x40]
        0x20000e0c:    fa01f606    ....    LSL      r6,r1,r6
        0x20000e10:    432e        .C      ORRS     r6,r6,r5
        0x20000e12:    f8836040    ..@`    STRB     r6,[r3,#0x40]
        0x20000e16:    f1000308    ....    ADD      r3,r0,#8
        0x20000e1a:    eb0b03d3    ....    ADD      r3,r11,r3,LSR #3
        0x20000e1e:    f8936040    ..@`    LDRB     r6,[r3,#0x40]
        0x20000e22:    4316        .C      ORRS     r6,r6,r2
        0x20000e24:    f8836040    ..@`    STRB     r6,[r3,#0x40]
        0x20000e28:    f1000309    ....    ADD      r3,r0,#9
        0x20000e2c:    f0030607    ....    AND      r6,r3,#7
        0x20000e30:    eb0b03d3    ....    ADD      r3,r11,r3,LSR #3
        0x20000e34:    f8935040    ..@P    LDRB     r5,[r3,#0x40]
        0x20000e38:    fa01f606    ....    LSL      r6,r1,r6
        0x20000e3c:    432e        .C      ORRS     r6,r6,r5
        0x20000e3e:    f8836040    ..@`    STRB     r6,[r3,#0x40]
        0x20000e42:    f100030a    ....    ADD      r3,r0,#0xa
        0x20000e46:    f0030607    ....    AND      r6,r3,#7
        0x20000e4a:    eb0b03d3    ....    ADD      r3,r11,r3,LSR #3
        0x20000e4e:    f8935040    ..@P    LDRB     r5,[r3,#0x40]
        0x20000e52:    fa01f606    ....    LSL      r6,r1,r6
        0x20000e56:    432e        .C      ORRS     r6,r6,r5
        0x20000e58:    f8836040    ..@`    STRB     r6,[r3,#0x40]
        0x20000e5c:    f100030b    ....    ADD      r3,r0,#0xb
        0x20000e60:    f0030607    ....    AND      r6,r3,#7
        0x20000e64:    eb0b03d3    ....    ADD      r3,r11,r3,LSR #3
        0x20000e68:    f8935040    ..@P    LDRB     r5,[r3,#0x40]
        0x20000e6c:    fa01f606    ....    LSL      r6,r1,r6
        0x20000e70:    432e        .C      ORRS     r6,r6,r5
        0x20000e72:    f8836040    ..@`    STRB     r6,[r3,#0x40]
        0x20000e76:    f100030c    ....    ADD      r3,r0,#0xc
        0x20000e7a:    f0030607    ....    AND      r6,r3,#7
        0x20000e7e:    eb0b03d3    ....    ADD      r3,r11,r3,LSR #3
        0x20000e82:    f8935040    ..@P    LDRB     r5,[r3,#0x40]
        0x20000e86:    fa01f606    ....    LSL      r6,r1,r6
        0x20000e8a:    432e        .C      ORRS     r6,r6,r5
        0x20000e8c:    f8836040    ..@`    STRB     r6,[r3,#0x40]
        0x20000e90:    f100030d    ....    ADD      r3,r0,#0xd
        0x20000e94:    f0030607    ....    AND      r6,r3,#7
        0x20000e98:    eb0b03d3    ....    ADD      r3,r11,r3,LSR #3
        0x20000e9c:    f8935040    ..@P    LDRB     r5,[r3,#0x40]
        0x20000ea0:    fa01f606    ....    LSL      r6,r1,r6
        0x20000ea4:    432e        .C      ORRS     r6,r6,r5
        0x20000ea6:    f8836040    ..@`    STRB     r6,[r3,#0x40]
        0x20000eaa:    f100030e    ....    ADD      r3,r0,#0xe
        0x20000eae:    f0030607    ....    AND      r6,r3,#7
        0x20000eb2:    eb0b03d3    ....    ADD      r3,r11,r3,LSR #3
        0x20000eb6:    f8935040    ..@P    LDRB     r5,[r3,#0x40]
        0x20000eba:    fa01f606    ....    LSL      r6,r1,r6
        0x20000ebe:    432e        .C      ORRS     r6,r6,r5
        0x20000ec0:    f8836040    ..@`    STRB     r6,[r3,#0x40]
        0x20000ec4:    f100030f    ....    ADD      r3,r0,#0xf
        0x20000ec8:    f0030607    ....    AND      r6,r3,#7
        0x20000ecc:    eb0b03d3    ....    ADD      r3,r11,r3,LSR #3
        0x20000ed0:    f8935040    ..@P    LDRB     r5,[r3,#0x40]
        0x20000ed4:    fa01f606    ....    LSL      r6,r1,r6
        0x20000ed8:    432e        .C      ORRS     r6,r6,r5
        0x20000eda:    f8836040    ..@`    STRB     r6,[r3,#0x40]
        0x20000ede:    f1000310    ....    ADD      r3,r0,#0x10
        0x20000ee2:    eb0b03d3    ....    ADD      r3,r11,r3,LSR #3
        0x20000ee6:    f8936040    ..@`    LDRB     r6,[r3,#0x40]
        0x20000eea:    3011        .0      ADDS     r0,r0,#0x11
        0x20000eec:    4332        2C      ORRS     r2,r2,r6
        0x20000eee:    28ff        .(      CMP      r0,#0xff
        0x20000ef0:    f8832040    ..@     STRB     r2,[r3,#0x40]
        0x20000ef4:    f47faf30    ..0.    BNE      0x20000d58 ; EventRecorderInitialize + 1596
        0x20000ef8:    ea5f7009    _..p    LSLS     r0,r9,#28
        0x20000efc:    f14080d2    @...    BPL.W    0x200010a4 ; EventRecorderInitialize + 2440
        0x20000f00:    2000        .       MOVS     r0,#0
        0x20000f02:    2101        .!      MOVS     r1,#1
        0x20000f04:    eb0b03d0    ....    ADD      r3,r11,r0,LSR #3
        0x20000f08:    f0000207    ....    AND      r2,r0,#7
        0x20000f0c:    f8936060    ..``    LDRB     r6,[r3,#0x60]
        0x20000f10:    fa01f202    ....    LSL      r2,r1,r2
        0x20000f14:    4316        .C      ORRS     r6,r6,r2
        0x20000f16:    f8836060    ..``    STRB     r6,[r3,#0x60]
        0x20000f1a:    1c43        C.      ADDS     r3,r0,#1
        0x20000f1c:    f0030607    ....    AND      r6,r3,#7
        0x20000f20:    eb0b03d3    ....    ADD      r3,r11,r3,LSR #3
        0x20000f24:    f8935060    ..`P    LDRB     r5,[r3,#0x60]
        0x20000f28:    fa01f606    ....    LSL      r6,r1,r6
        0x20000f2c:    432e        .C      ORRS     r6,r6,r5
        0x20000f2e:    f8836060    ..``    STRB     r6,[r3,#0x60]
        0x20000f32:    1c83        ..      ADDS     r3,r0,#2
        0x20000f34:    f0030607    ....    AND      r6,r3,#7
        0x20000f38:    eb0b03d3    ....    ADD      r3,r11,r3,LSR #3
        0x20000f3c:    f8935060    ..`P    LDRB     r5,[r3,#0x60]
        0x20000f40:    fa01f606    ....    LSL      r6,r1,r6
        0x20000f44:    432e        .C      ORRS     r6,r6,r5
        0x20000f46:    f8836060    ..``    STRB     r6,[r3,#0x60]
        0x20000f4a:    1cc3        ..      ADDS     r3,r0,#3
        0x20000f4c:    f0030607    ....    AND      r6,r3,#7
        0x20000f50:    eb0b03d3    ....    ADD      r3,r11,r3,LSR #3
        0x20000f54:    f8935060    ..`P    LDRB     r5,[r3,#0x60]
        0x20000f58:    fa01f606    ....    LSL      r6,r1,r6
        0x20000f5c:    432e        .C      ORRS     r6,r6,r5
        0x20000f5e:    f8836060    ..``    STRB     r6,[r3,#0x60]
        0x20000f62:    1d03        ..      ADDS     r3,r0,#4
        0x20000f64:    f0030607    ....    AND      r6,r3,#7
        0x20000f68:    eb0b03d3    ....    ADD      r3,r11,r3,LSR #3
        0x20000f6c:    f8935060    ..`P    LDRB     r5,[r3,#0x60]
        0x20000f70:    fa01f606    ....    LSL      r6,r1,r6
        0x20000f74:    432e        .C      ORRS     r6,r6,r5
        0x20000f76:    f8836060    ..``    STRB     r6,[r3,#0x60]
        0x20000f7a:    1d43        C.      ADDS     r3,r0,#5
        0x20000f7c:    f0030607    ....    AND      r6,r3,#7
        0x20000f80:    eb0b03d3    ....    ADD      r3,r11,r3,LSR #3
        0x20000f84:    f8935060    ..`P    LDRB     r5,[r3,#0x60]
        0x20000f88:    fa01f606    ....    LSL      r6,r1,r6
        0x20000f8c:    432e        .C      ORRS     r6,r6,r5
        0x20000f8e:    f8836060    ..``    STRB     r6,[r3,#0x60]
        0x20000f92:    1d83        ..      ADDS     r3,r0,#6
        0x20000f94:    f0030607    ....    AND      r6,r3,#7
        0x20000f98:    eb0b03d3    ....    ADD      r3,r11,r3,LSR #3
        0x20000f9c:    f8935060    ..`P    LDRB     r5,[r3,#0x60]
        0x20000fa0:    fa01f606    ....    LSL      r6,r1,r6
        0x20000fa4:    432e        .C      ORRS     r6,r6,r5
        0x20000fa6:    f8836060    ..``    STRB     r6,[r3,#0x60]
        0x20000faa:    1dc3        ..      ADDS     r3,r0,#7
        0x20000fac:    f0030607    ....    AND      r6,r3,#7
        0x20000fb0:    eb0b03d3    ....    ADD      r3,r11,r3,LSR #3
        0x20000fb4:    f8935060    ..`P    LDRB     r5,[r3,#0x60]
        0x20000fb8:    fa01f606    ....    LSL      r6,r1,r6
        0x20000fbc:    432e        .C      ORRS     r6,r6,r5
        0x20000fbe:    f8836060    ..``    STRB     r6,[r3,#0x60]
        0x20000fc2:    f1000308    ....    ADD      r3,r0,#8
        0x20000fc6:    eb0b03d3    ....    ADD      r3,r11,r3,LSR #3
        0x20000fca:    f8936060    ..``    LDRB     r6,[r3,#0x60]
        0x20000fce:    4316        .C      ORRS     r6,r6,r2
        0x20000fd0:    f8836060    ..``    STRB     r6,[r3,#0x60]
        0x20000fd4:    f1000309    ....    ADD      r3,r0,#9
        0x20000fd8:    f0030607    ....    AND      r6,r3,#7
        0x20000fdc:    eb0b03d3    ....    ADD      r3,r11,r3,LSR #3
        0x20000fe0:    f8935060    ..`P    LDRB     r5,[r3,#0x60]
        0x20000fe4:    fa01f606    ....    LSL      r6,r1,r6
        0x20000fe8:    432e        .C      ORRS     r6,r6,r5
        0x20000fea:    f8836060    ..``    STRB     r6,[r3,#0x60]
        0x20000fee:    f100030a    ....    ADD      r3,r0,#0xa
        0x20000ff2:    f0030607    ....    AND      r6,r3,#7
        0x20000ff6:    eb0b03d3    ....    ADD      r3,r11,r3,LSR #3
        0x20000ffa:    f8935060    ..`P    LDRB     r5,[r3,#0x60]
        0x20000ffe:    fa01f606    ....    LSL      r6,r1,r6
        0x20001002:    432e        .C      ORRS     r6,r6,r5
        0x20001004:    f8836060    ..``    STRB     r6,[r3,#0x60]
        0x20001008:    f100030b    ....    ADD      r3,r0,#0xb
        0x2000100c:    f0030607    ....    AND      r6,r3,#7
        0x20001010:    eb0b03d3    ....    ADD      r3,r11,r3,LSR #3
        0x20001014:    f8935060    ..`P    LDRB     r5,[r3,#0x60]
        0x20001018:    fa01f606    ....    LSL      r6,r1,r6
        0x2000101c:    432e        .C      ORRS     r6,r6,r5
        0x2000101e:    f8836060    ..``    STRB     r6,[r3,#0x60]
        0x20001022:    f100030c    ....    ADD      r3,r0,#0xc
        0x20001026:    f0030607    ....    AND      r6,r3,#7
        0x2000102a:    eb0b03d3    ....    ADD      r3,r11,r3,LSR #3
        0x2000102e:    f8935060    ..`P    LDRB     r5,[r3,#0x60]
        0x20001032:    fa01f606    ....    LSL      r6,r1,r6
        0x20001036:    432e        .C      ORRS     r6,r6,r5
        0x20001038:    f8836060    ..``    STRB     r6,[r3,#0x60]
        0x2000103c:    f100030d    ....    ADD      r3,r0,#0xd
        0x20001040:    f0030607    ....    AND      r6,r3,#7
        0x20001044:    eb0b03d3    ....    ADD      r3,r11,r3,LSR #3
        0x20001048:    f8935060    ..`P    LDRB     r5,[r3,#0x60]
        0x2000104c:    fa01f606    ....    LSL      r6,r1,r6
        0x20001050:    432e        .C      ORRS     r6,r6,r5
        0x20001052:    f8836060    ..``    STRB     r6,[r3,#0x60]
        0x20001056:    f100030e    ....    ADD      r3,r0,#0xe
        0x2000105a:    f0030607    ....    AND      r6,r3,#7
        0x2000105e:    eb0b03d3    ....    ADD      r3,r11,r3,LSR #3
        0x20001062:    f8935060    ..`P    LDRB     r5,[r3,#0x60]
        0x20001066:    fa01f606    ....    LSL      r6,r1,r6
        0x2000106a:    432e        .C      ORRS     r6,r6,r5
        0x2000106c:    f8836060    ..``    STRB     r6,[r3,#0x60]
        0x20001070:    f100030f    ....    ADD      r3,r0,#0xf
        0x20001074:    f0030607    ....    AND      r6,r3,#7
        0x20001078:    eb0b03d3    ....    ADD      r3,r11,r3,LSR #3
        0x2000107c:    f8935060    ..`P    LDRB     r5,[r3,#0x60]
        0x20001080:    fa01f606    ....    LSL      r6,r1,r6
        0x20001084:    432e        .C      ORRS     r6,r6,r5
        0x20001086:    f8836060    ..``    STRB     r6,[r3,#0x60]
        0x2000108a:    f1000310    ....    ADD      r3,r0,#0x10
        0x2000108e:    eb0b03d3    ....    ADD      r3,r11,r3,LSR #3
        0x20001092:    f8936060    ..``    LDRB     r6,[r3,#0x60]
        0x20001096:    3011        .0      ADDS     r0,r0,#0x11
        0x20001098:    4332        2C      ORRS     r2,r2,r6
        0x2000109a:    28ff        .(      CMP      r0,#0xff
        0x2000109c:    f8832060    ..`     STRB     r2,[r3,#0x60]
        0x200010a0:    f47faf30    ..0.    BNE      0x20000f04 ; EventRecorderInitialize + 2024
        0x200010a4:    f89b001d    ....    LDRB     r0,[r11,#0x1d]
        0x200010a8:    f89b103d    ..=.    LDRB     r1,[r11,#0x3d]
        0x200010ac:    f89b205d    ..]     LDRB     r2,[r11,#0x5d]
        0x200010b0:    f0400080    @...    ORR      r0,r0,#0x80
        0x200010b4:    f88b001d    ....    STRB     r0,[r11,#0x1d]
        0x200010b8:    f0410080    A...    ORR      r0,r1,#0x80
        0x200010bc:    f89b107d    ..}.    LDRB     r1,[r11,#0x7d]
        0x200010c0:    f89b305f    .._0    LDRB     r3,[r11,#0x5f]
        0x200010c4:    f88b003d    ..=.    STRB     r0,[r11,#0x3d]
        0x200010c8:    f0420080    B...    ORR      r0,r2,#0x80
        0x200010cc:    f88b005d    ..].    STRB     r0,[r11,#0x5d]
        0x200010d0:    f0410080    A...    ORR      r0,r1,#0x80
        0x200010d4:    f88b007d    ..}.    STRB     r0,[r11,#0x7d]
        0x200010d8:    f0430040    C.@.    ORR      r0,r3,#0x40
        0x200010dc:    f88b005f    .._.    STRB     r0,[r11,#0x5f]
        0x200010e0:    4654        TF      MOV      r4,r10
        0x200010e2:    f8545f18    T.._    LDR      r5,[r4,#0x18]!
        0x200010e6:    f000f87d    ..}.    BL       EventRecorderTimerGetCount ; 0x200011e4
        0x200010ea:    4601        .F      MOV      r1,r0
        0x200010ec:    e8540f00    T...    LDREX    r0,[r4]
        0x200010f0:    e8441200    D...    STREX    r2,r1,[r4]
        0x200010f4:    b102        ..      CBZ      r2,0x200010f8 ; EventRecorderInitialize + 2524
        0x200010f6:    e7f9        ..      B        0x200010ec ; EventRecorderInitialize + 2512
        0x200010f8:    42a8        .B      CMP      r0,r5
        0x200010fa:    d1f1        ..      BNE      0x200010e0 ; EventRecorderInitialize + 2500
        0x200010fc:    42a9        .B      CMP      r1,r5
        0x200010fe:    d208        ..      BCS      0x20001112 ; EventRecorderInitialize + 2550
        0x20001100:    f10a0010    ....    ADD      r0,r10,#0x10
        0x20001104:    e8502f00    P../    LDREX    r2,[r0]
        0x20001108:    1c53        S.      ADDS     r3,r2,#1
        0x2000110a:    e8403400    @..4    STREX    r4,r3,[r0]
        0x2000110e:    b104        ..      CBZ      r4,0x20001112 ; EventRecorderInitialize + 2550
        0x20001110:    e7f8        ..      B        0x20001104 ; EventRecorderInitialize + 2536
        0x20001112:    f64f7500    O..u    MOVW     r5,#0xff00
        0x20001116:    f8da201c    ...     LDR      r2,[r10,#0x1c]
        0x2000111a:    f2c03500    ...5    MOVT     r5,#0x300
        0x2000111e:    4628        (F      MOV      r0,r5
        0x20001120:    2300        .#      MOVS     r3,#0
        0x20001122:    f7fff9a7    ....    BL       EventRecordItem ; 0x20000474
        0x20001126:    f1b80f00    ....    CMP      r8,#0
        0x2000112a:    f43fac4b    ?.K.    BEQ      0x200009c4 ; EventRecorderInitialize + 680
        0x2000112e:    f89a0000    ....    LDRB     r0,[r10,#0]
        0x20001132:    2800        .(      CMP      r0,#0
        0x20001134:    f47fac46    ..F.    BNE      0x200009c4 ; EventRecorderInitialize + 680
        0x20001138:    2001        .       MOVS     r0,#1
        0x2000113a:    f88a0000    ....    STRB     r0,[r10,#0]
        0x2000113e:    bf00        ..      NOP      
        0x20001140:    4654        TF      MOV      r4,r10
        0x20001142:    f8546f18    T..o    LDR      r6,[r4,#0x18]!
        0x20001146:    f000f84d    ..M.    BL       EventRecorderTimerGetCount ; 0x200011e4
        0x2000114a:    4601        .F      MOV      r1,r0
        0x2000114c:    e8540f00    T...    LDREX    r0,[r4]
        0x20001150:    e8441200    D...    STREX    r2,r1,[r4]
        0x20001154:    b102        ..      CBZ      r2,0x20001158 ; EventRecorderInitialize + 2620
        0x20001156:    e7f9        ..      B        0x2000114c ; EventRecorderInitialize + 2608
        0x20001158:    42b0        .B      CMP      r0,r6
        0x2000115a:    d1f1        ..      BNE      0x20001140 ; EventRecorderInitialize + 2596
        0x2000115c:    42b1        .B      CMP      r1,r6
        0x2000115e:    d208        ..      BCS      0x20001172 ; EventRecorderInitialize + 2646
        0x20001160:    f10a0010    ....    ADD      r0,r10,#0x10
        0x20001164:    e8502f00    P../    LDREX    r2,[r0]
        0x20001168:    1c53        S.      ADDS     r3,r2,#1
        0x2000116a:    e8403400    @..4    STREX    r4,r3,[r0]
        0x2000116e:    b104        ..      CBZ      r4,0x20001172 ; EventRecorderInitialize + 2646
        0x20001170:    e7f8        ..      B        0x20001164 ; EventRecorderInitialize + 2632
        0x20001172:    1c68        h.      ADDS     r0,r5,#1
        0x20001174:    2200        ."      MOVS     r2,#0
        0x20001176:    2300        .#      MOVS     r3,#0
        0x20001178:    f7fff97c    ..|.    BL       EventRecordItem ; 0x20000474
        0x2000117c:    4638        8F      MOV      r0,r7
        0x2000117e:    b001        ..      ADD      sp,sp,#4
        0x20001180:    e8bd8ff0    ....    POP      {r4-r11,pc}
    EventRecorderStart
        0x20001184:    b570        p.      PUSH     {r4-r6,lr}
        0x20001186:    f6462480    F..$    MOVW     r4,#0x6a80
        0x2000118a:    f2c20401    ....    MOVT     r4,#0x2001
        0x2000118e:    7820         x      LDRB     r0,[r4,#0]
        0x20001190:    b110        ..      CBZ      r0,0x20001198 ; EventRecorderStart + 20
        0x20001192:    2001        .       MOVS     r0,#1
        0x20001194:    bd70        p.      POP      {r4-r6,pc}
        0x20001196:    bf00        ..      NOP      
        0x20001198:    2001        .       MOVS     r0,#1
        0x2000119a:    7020         p      STRB     r0,[r4,#0]
        0x2000119c:    4626        &F      MOV      r6,r4
        0x2000119e:    f8565f18    V.._    LDR      r5,[r6,#0x18]!
        0x200011a2:    f000f81f    ....    BL       EventRecorderTimerGetCount ; 0x200011e4
        0x200011a6:    4601        .F      MOV      r1,r0
        0x200011a8:    e8560f00    V...    LDREX    r0,[r6]
        0x200011ac:    e8461200    F...    STREX    r2,r1,[r6]
        0x200011b0:    b102        ..      CBZ      r2,0x200011b4 ; EventRecorderStart + 48
        0x200011b2:    e7f9        ..      B        0x200011a8 ; EventRecorderStart + 36
        0x200011b4:    42a8        .B      CMP      r0,r5
        0x200011b6:    d1f1        ..      BNE      0x2000119c ; EventRecorderStart + 24
        0x200011b8:    42a9        .B      CMP      r1,r5
        0x200011ba:    d208        ..      BCS      0x200011ce ; EventRecorderStart + 74
        0x200011bc:    f1040010    ....    ADD      r0,r4,#0x10
        0x200011c0:    e8502f00    P../    LDREX    r2,[r0]
        0x200011c4:    1c53        S.      ADDS     r3,r2,#1
        0x200011c6:    e8403400    @..4    STREX    r4,r3,[r0]
        0x200011ca:    b104        ..      CBZ      r4,0x200011ce ; EventRecorderStart + 74
        0x200011cc:    e7f8        ..      B        0x200011c0 ; EventRecorderStart + 60
        0x200011ce:    f64f7001    O..p    MOV      r0,#0xff01
        0x200011d2:    f2c03000    ...0    MOVT     r0,#0x300
        0x200011d6:    2200        ."      MOVS     r2,#0
        0x200011d8:    2300        .#      MOVS     r3,#0
        0x200011da:    f7fff94b    ..K.    BL       EventRecordItem ; 0x20000474
        0x200011de:    2001        .       MOVS     r0,#1
        0x200011e0:    bd70        p.      POP      {r4-r6,pc}
        0x200011e2:    0000        ..      MOVS     r0,r0
    EventRecorderTimerGetCount
        0x200011e4:    f2410004    A...    MOV      r0,#0x1004
        0x200011e8:    f2ce0000    ....    MOVT     r0,#0xe000
        0x200011ec:    6800        .h      LDR      r0,[r0,#0]
        0x200011ee:    4770        pG      BX       lr
    EventRecorderTimerGetFreq
        0x200011f0:    f2400018    @...    MOVW     r0,#0x18
        0x200011f4:    f2c20001    ....    MOVT     r0,#0x2001
        0x200011f8:    6800        .h      LDR      r0,[r0,#0]
        0x200011fa:    4770        pG      BX       lr
    EventRecorderTimerSetup
        0x200011fc:    f64e50fc    N..P    MOV      r0,#0xedfc
        0x20001200:    f2ce0000    ....    MOVT     r0,#0xe000
        0x20001204:    6801        .h      LDR      r1,[r0,#0]
        0x20001206:    f0417180    A..q    ORR      r1,r1,#0x1000000
        0x2000120a:    6001        .`      STR      r1,[r0,#0]
        0x2000120c:    f2410100    A...    MOVW     r1,#0x1000
        0x20001210:    f2ce0100    ....    MOVT     r1,#0xe000
        0x20001214:    6808        .h      LDR      r0,[r1,#0]
        0x20001216:    f0400201    @...    ORR      r2,r0,#1
        0x2000121a:    2001        .       MOVS     r0,#1
        0x2000121c:    600a        .`      STR      r2,[r1,#0]
        0x2000121e:    4770        pG      BX       lr
    FIFO_GetDataCount
        0x20001220:    6900        .i      LDR      r0,[r0,#0x10]
        0x20001222:    4770        pG      BX       lr
    FIFO_Init
        0x20001224:    6841        Ah      LDR      r1,[r0,#4]
        0x20001226:    2200        ."      MOVS     r2,#0
        0x20001228:    e9c01102    ....    STRD     r1,r1,[r0,#8]
        0x2000122c:    6102        .a      STR      r2,[r0,#0x10]
        0x2000122e:    4770        pG      BX       lr
    FIFO_IsDataEmpty
        0x20001230:    6900        .i      LDR      r0,[r0,#0x10]
        0x20001232:    fab0f080    ....    CLZ      r0,r0
        0x20001236:    0940        @.      LSRS     r0,r0,#5
        0x20001238:    4770        pG      BX       lr
        0x2000123a:    0000        ..      MOVS     r0,r0
    FIFO_ReadData
        0x2000123c:    b5b0        ..      PUSH     {r4,r5,r7,lr}
        0x2000123e:    2a00        .*      CMP      r2,#0
        0x20001240:    bf08        ..      IT       EQ
        0x20001242:    bdb0        ..      POPEQ    {r4,r5,r7,pc}
        0x20001244:    f8d0c010    ....    LDR      r12,[r0,#0x10]
        0x20001248:    f1bc0f00    ....    CMP      r12,#0
        0x2000124c:    d025        %.      BEQ      0x2000129a ; FIFO_ReadData + 94
        0x2000124e:    f8d0e004    ....    LDR      lr,[r0,#4]
        0x20001252:    68c5        .h      LDR      r5,[r0,#0xc]
        0x20001254:    eba5030e    ....    SUB      r3,r5,lr
        0x20001258:    ebbc0fa3    ....    CMP      r12,r3,ASR #2
        0x2000125c:    bf8c        ..      ITE      HI
        0x2000125e:    f8d0e000    ....    LDRHI    lr,[r0,#0]
        0x20001262:    f04f0e00    O...    MOVLS    lr,#0
        0x20001266:    ebae030c    ....    SUB      r3,lr,r12
        0x2000126a:    eb050483    ....    ADD      r4,r5,r3,LSL #2
        0x2000126e:    6084        .`      STR      r4,[r0,#8]
        0x20001270:    f8553023    U.#0    LDR      r3,[r5,r3,LSL #2]
        0x20001274:    f8413b04    A..;    STR      r3,[r1],#4
        0x20001278:    e9d0e300    ....    LDRD     lr,r3,[r0,#0]
        0x2000127c:    6884        .h      LDR      r4,[r0,#8]
        0x2000127e:    6905        .i      LDR      r5,[r0,#0x10]
        0x20001280:    3404        .4      ADDS     r4,#4
        0x20001282:    f1a50c01    ....    SUB      r12,r5,#1
        0x20001286:    eb03058e    ....    ADD      r5,r3,lr,LSL #2
        0x2000128a:    42ac        .B      CMP      r4,r5
        0x2000128c:    6084        .`      STR      r4,[r0,#8]
        0x2000128e:    f8c0c010    ....    STR      r12,[r0,#0x10]
        0x20001292:    bf28        (.      IT       CS
        0x20001294:    6083        .`      STRCS    r3,[r0,#8]
        0x20001296:    3a01        .:      SUBS     r2,#1
        0x20001298:    d1d6        ..      BNE      0x20001248 ; FIFO_ReadData + 12
        0x2000129a:    bdb0        ..      POP      {r4,r5,r7,pc}
    FIFO_WriteOneData
        0x2000129c:    b580        ..      PUSH     {r7,lr}
        0x2000129e:    6802        .h      LDR      r2,[r0,#0]
        0x200012a0:    6903        .i      LDR      r3,[r0,#0x10]
        0x200012a2:    3a01        .:      SUBS     r2,#1
        0x200012a4:    4293        .B      CMP      r3,r2
        0x200012a6:    bf88        ..      IT       HI
        0x200012a8:    bd80        ..      POPHI    {r7,pc}
        0x200012aa:    68c2        .h      LDR      r2,[r0,#0xc]
        0x200012ac:    6011        .`      STR      r1,[r2,#0]
        0x200012ae:    e9d0ce00    ....    LDRD     r12,lr,[r0,#0]
        0x200012b2:    e9d03203    ...2    LDRD     r3,r2,[r0,#0xc]
        0x200012b6:    eb0e018c    ....    ADD      r1,lr,r12,LSL #2
        0x200012ba:    3304        .3      ADDS     r3,#4
        0x200012bc:    3201        .2      ADDS     r2,#1
        0x200012be:    60c3        .`      STR      r3,[r0,#0xc]
        0x200012c0:    428b        .B      CMP      r3,r1
        0x200012c2:    6102        .a      STR      r2,[r0,#0x10]
        0x200012c4:    bf28        (.      IT       CS
        0x200012c6:    f8c0e00c    ....    STRCS    lr,[r0,#0xc]
        0x200012ca:    bd80        ..      POP      {r7,pc}
    FLASH_Handler
        0x200012cc:    4770        pG      BX       lr
        0x200012ce:    0000        ..      MOVS     r0,r0
    GPIO_ClearITPendingBit
        0x200012d0:    6381        .c      STR      r1,[r0,#0x38]
        0x200012d2:    4770        pG      BX       lr
    GPIO_ITConfig
        0x200012d4:    2320         #      MOVS     r3,#0x20
        0x200012d6:    2a00        .*      CMP      r2,#0
        0x200012d8:    bf08        ..      IT       EQ
        0x200012da:    2324        $#      MOVEQ    r3,#0x24
        0x200012dc:    50c1        .P      STR      r1,[r0,r3]
        0x200012de:    4770        pG      BX       lr
    GPIO_Init
        0x200012e0:    790b        .y      LDRB     r3,[r1,#4]
        0x200012e2:    f8d1c000    ....    LDR      r12,[r1,#0]
        0x200012e6:    1e5a        Z.      SUBS     r2,r3,#1
        0x200012e8:    2a02        .*      CMP      r2,#2
        0x200012ea:    d209        ..      BCS      0x20001300 ; GPIO_Init + 32
        0x200012ec:    2b02        .+      CMP      r3,#2
        0x200012ee:    f8c0c010    ....    STR      r12,[r0,#0x10]
        0x200012f2:    bf14        ..      ITE      NE
        0x200012f4:    3048        H0      ADDNE    r0,r0,#0x48
        0x200012f6:    3044        D0      ADDEQ    r0,r0,#0x44
        0x200012f8:    f8c0c000    ....    STR      r12,[r0,#0]
        0x200012fc:    4770        pG      BX       lr
        0x200012fe:    bf00        ..      NOP      
        0x20001300:    2b03        .+      CMP      r3,#3
        0x20001302:    d103        ..      BNE      0x2000130c ; GPIO_Init + 44
        0x20001304:    3014        .0      ADDS     r0,r0,#0x14
        0x20001306:    f8c0c000    ....    STR      r12,[r0,#0]
        0x2000130a:    4770        pG      BX       lr
        0x2000130c:    f8c0c014    ....    STR      r12,[r0,#0x14]
        0x20001310:    7949        Iy      LDRB     r1,[r1,#5]
        0x20001312:    2902        .)      CMP      r1,#2
        0x20001314:    d00a        ..      BEQ      0x2000132c ; GPIO_Init + 76
        0x20001316:    2901        .)      CMP      r1,#1
        0x20001318:    d00e        ..      BEQ      0x20001338 ; GPIO_Init + 88
        0x2000131a:    2900        .)      CMP      r1,#0
        0x2000131c:    bf18        ..      IT       NE
        0x2000131e:    4770        pG      BXNE     lr
        0x20001320:    f8c0c050    ..P.    STR      r12,[r0,#0x50]
        0x20001324:    3040        @0      ADDS     r0,r0,#0x40
        0x20001326:    f8c0c000    ....    STR      r12,[r0,#0]
        0x2000132a:    4770        pG      BX       lr
        0x2000132c:    f8c0c04c    ..L.    STR      r12,[r0,#0x4c]
        0x20001330:    3040        @0      ADDS     r0,r0,#0x40
        0x20001332:    f8c0c000    ....    STR      r12,[r0,#0]
        0x20001336:    4770        pG      BX       lr
        0x20001338:    f8c0c03c    ..<.    STR      r12,[r0,#0x3c]
        0x2000133c:    3050        P0      ADDS     r0,r0,#0x50
        0x2000133e:    f8c0c000    ....    STR      r12,[r0,#0]
        0x20001342:    4770        pG      BX       lr
    GPIO_PinAFConfig
        0x20001344:    0049        I.      LSLS     r1,r1,#1
        0x20001346:    6983        .i      LDR      r3,[r0,#0x18]
        0x20001348:    fa02f101    ....    LSL      r1,r2,r1
        0x2000134c:    4319        .C      ORRS     r1,r1,r3
        0x2000134e:    6181        .a      STR      r1,[r0,#0x18]
        0x20001350:    4770        pG      BX       lr
        0x20001352:    0000        ..      MOVS     r0,r0
    GPIO_ReadInputDataBit
        0x20001354:    6800        .h      LDR      r0,[r0,#0]
        0x20001356:    4008        .@      ANDS     r0,r0,r1
        0x20001358:    bf18        ..      IT       NE
        0x2000135a:    2001        .       MOVNE    r0,#1
        0x2000135c:    4770        pG      BX       lr
        0x2000135e:    0000        ..      MOVS     r0,r0
    GPIO_SetBits
        0x20001360:    6842        Bh      LDR      r2,[r0,#4]
        0x20001362:    4311        .C      ORRS     r1,r1,r2
        0x20001364:    6041        A`      STR      r1,[r0,#4]
        0x20001366:    4770        pG      BX       lr
    GPIO_TriTypeConfig
        0x20001368:    2a04        .*      CMP      r2,#4
        0x2000136a:    bf88        ..      IT       HI
        0x2000136c:    4770        pG      BXHI     lr
        0x2000136e:    e8dff002    ....    TBB      [pc,r2]
    $d.16
        0x20001372:    0703        ..      DCW    1795
        0x20001374:    00110d0b    ....    DCD    1117451
    $t.17
        0x20001378:    6281        .b      STR      r1,[r0,#0x28]
        0x2000137a:    6301        .c      STR      r1,[r0,#0x30]
        0x2000137c:    60c1        .`      STR      r1,[r0,#0xc]
        0x2000137e:    4770        pG      BX       lr
        0x20001380:    6281        .b      STR      r1,[r0,#0x28]
        0x20001382:    6341        Ac      STR      r1,[r0,#0x34]
        0x20001384:    60c1        .`      STR      r1,[r0,#0xc]
        0x20001386:    4770        pG      BX       lr
        0x20001388:    6081        .`      STR      r1,[r0,#8]
        0x2000138a:    4770        pG      BX       lr
        0x2000138c:    62c1        .b      STR      r1,[r0,#0x2c]
        0x2000138e:    6301        .c      STR      r1,[r0,#0x30]
        0x20001390:    60c1        .`      STR      r1,[r0,#0xc]
        0x20001392:    4770        pG      BX       lr
        0x20001394:    62c1        .b      STR      r1,[r0,#0x2c]
        0x20001396:    6341        Ac      STR      r1,[r0,#0x34]
        0x20001398:    60c1        .`      STR      r1,[r0,#0xc]
        0x2000139a:    4770        pG      BX       lr
    HardFaultHandler
        0x2000139c:    f64e522c    N.,R    MOV      r2,#0xed2c
        0x200013a0:    f2ce0200    ....    MOVT     r2,#0xe000
        0x200013a4:    6811        .h      LDR      r1,[r2,#0]
        0x200013a6:    f1b13fff    ...?    CMP      r1,#0xffffffff
        0x200013aa:    dd43        C.      BLE      0x20001434 ; HardFaultHandler + 152
        0x200013ac:    f8523c08    R..<    LDR      r3,[r2,#-8]
        0x200013b0:    f240119c    @...    MOVW     r1,#0x19c
        0x200013b4:    f2c20101    ....    MOVT     r1,#0x2001
        0x200013b8:    624b        Kb      STR      r3,[r1,#0x24]
        0x200013ba:    f8123c04    ...<    LDRB     r3,[r2,#-4]
        0x200013be:    f8813028    ..(0    STRB     r3,[r1,#0x28]
        0x200013c2:    f8123c03    ...<    LDRB     r3,[r2,#-3]
        0x200013c6:    62cb        .b      STR      r3,[r1,#0x2c]
        0x200013c8:    68d3        .h      LDR      r3,[r2,#0xc]
        0x200013ca:    630b        .c      STR      r3,[r1,#0x30]
        0x200013cc:    f8323c02    2..<    LDRH     r3,[r2,#-2]
        0x200013d0:    868b        ..      STRH     r3,[r1,#0x34]
        0x200013d2:    6813        .h      LDR      r3,[r2,#0]
        0x200013d4:    638b        .c      STR      r3,[r1,#0x38]
        0x200013d6:    6853        Sh      LDR      r3,[r2,#4]
        0x200013d8:    63cb        .c      STR      r3,[r1,#0x3c]
        0x200013da:    6912        .i      LDR      r2,[r2,#0x10]
        0x200013dc:    640a        .d      STR      r2,[r1,#0x40]
        0x200013de:    2200        ."      MOVS     r2,#0
        0x200013e0:    600a        .`      STR      r2,[r1,#0]
        0x200013e2:    bf00        ..      NOP      
        0x200013e4:    680a        .h      LDR      r2,[r1,#0]
        0x200013e6:    b932        2.      CBNZ     r2,0x200013f6 ; HardFaultHandler + 90
        0x200013e8:    680a        .h      LDR      r2,[r1,#0]
        0x200013ea:    b922        ".      CBNZ     r2,0x200013f6 ; HardFaultHandler + 90
        0x200013ec:    680a        .h      LDR      r2,[r1,#0]
        0x200013ee:    b912        ..      CBNZ     r2,0x200013f6 ; HardFaultHandler + 90
        0x200013f0:    680a        .h      LDR      r2,[r1,#0]
        0x200013f2:    2a00        .*      CMP      r2,#0
        0x200013f4:    d0f6        ..      BEQ      0x200013e4 ; HardFaultHandler + 72
        0x200013f6:    6802        .h      LDR      r2,[r0,#0]
        0x200013f8:    604a        J`      STR      r2,[r1,#4]
        0x200013fa:    6842        Bh      LDR      r2,[r0,#4]
        0x200013fc:    608a        .`      STR      r2,[r1,#8]
        0x200013fe:    6882        .h      LDR      r2,[r0,#8]
        0x20001400:    60ca        .`      STR      r2,[r1,#0xc]
        0x20001402:    68c2        .h      LDR      r2,[r0,#0xc]
        0x20001404:    610a        .a      STR      r2,[r1,#0x10]
        0x20001406:    6902        .i      LDR      r2,[r0,#0x10]
        0x20001408:    614a        Ja      STR      r2,[r1,#0x14]
        0x2000140a:    6942        Bi      LDR      r2,[r0,#0x14]
        0x2000140c:    618a        .a      STR      r2,[r1,#0x18]
        0x2000140e:    6982        .i      LDR      r2,[r0,#0x18]
        0x20001410:    61ca        .a      STR      r2,[r1,#0x1c]
        0x20001412:    69c0        .i      LDR      r0,[r0,#0x1c]
        0x20001414:    6208        .b      STR      r0,[r1,#0x20]
        0x20001416:    2000        .       MOVS     r0,#0
        0x20001418:    6008        .`      STR      r0,[r1,#0]
        0x2000141a:    bf00        ..      NOP      
        0x2000141c:    6808        .h      LDR      r0,[r1,#0]
        0x2000141e:    b980        ..      CBNZ     r0,0x20001442 ; HardFaultHandler + 166
        0x20001420:    6808        .h      LDR      r0,[r1,#0]
        0x20001422:    b970        p.      CBNZ     r0,0x20001442 ; HardFaultHandler + 166
        0x20001424:    6808        .h      LDR      r0,[r1,#0]
        0x20001426:    b960        `.      CBNZ     r0,0x20001442 ; HardFaultHandler + 166
        0x20001428:    6808        .h      LDR      r0,[r1,#0]
        0x2000142a:    2800        .(      CMP      r0,#0
        0x2000142c:    bf18        ..      IT       NE
        0x2000142e:    4770        pG      BXNE     lr
        0x20001430:    e7f4        ..      B        0x2000141c ; HardFaultHandler + 128
        0x20001432:    bf00        ..      NOP      
        0x20001434:    6811        .h      LDR      r1,[r2,#0]
        0x20001436:    f0414100    A..A    ORR      r1,r1,#0x80000000
        0x2000143a:    6011        .`      STR      r1,[r2,#0]
        0x2000143c:    6981        .i      LDR      r1,[r0,#0x18]
        0x2000143e:    3102        .1      ADDS     r1,#2
        0x20001440:    6181        .a      STR      r1,[r0,#0x18]
        0x20001442:    4770        pG      BX       lr
    NMI_Handler
        0x20001444:    4770        pG      BX       lr
        0x20001446:    0000        ..      MOVS     r0,r0
    NVIC_Init
        0x20001448:    b510        ..      PUSH     {r4,lr}
        0x2000144a:    7881        .x      LDRB     r1,[r0,#2]
        0x2000144c:    7802        .x      LDRB     r2,[r0,#0]
        0x2000144e:    f24e4c00    N..L    MOVW     r12,#0xe400
        0x20001452:    f2ce0c00    ....    MOVT     r12,#0xe000
        0x20001456:    b309        ..      CBZ      r1,0x2000149c ; NVIC_Init + 84
        0x20001458:    0893        ..      LSRS     r3,r2,#2
        0x2000145a:    f81ce003    ....    LDRB     lr,[r12,r3]
        0x2000145e:    7844        Dx      LDRB     r4,[r0,#1]
        0x20001460:    2118        .!      MOVS     r1,#0x18
        0x20001462:    ea0101c2    ....    AND      r1,r1,r2,LSL #3
        0x20001466:    22ff        ."      MOVS     r2,#0xff
        0x20001468:    01a4        ..      LSLS     r4,r4,#6
        0x2000146a:    408a        .@      LSLS     r2,r2,r1
        0x2000146c:    b2e4        ..      UXTB     r4,r4
        0x2000146e:    ea2e0202    ....    BIC      r2,lr,r2
        0x20001472:    fa04f101    ....    LSL      r1,r4,r1
        0x20001476:    4311        .C      ORRS     r1,r1,r2
        0x20001478:    f80c1003    ....    STRB     r1,[r12,r3]
        0x2000147c:    7800        .x      LDRB     r0,[r0,#0]
        0x2000147e:    2201        ."      MOVS     r2,#1
        0x20001480:    f000011f    ....    AND      r1,r0,#0x1f
        0x20001484:    fa02f101    ....    LSL      r1,r2,r1
        0x20001488:    f3c01042    ..B.    UBFX     r0,r0,#5,#3
        0x2000148c:    f64f5200    O..R    MOVW     r2,#0xfd00
        0x20001490:    eb0c0080    ....    ADD      r0,r12,r0,LSL #2
        0x20001494:    f6cf72ff    ...r    MOVT     r2,#0xffff
        0x20001498:    5081        .P      STR      r1,[r0,r2]
        0x2000149a:    bd10        ..      POP      {r4,pc}
        0x2000149c:    f002001f    ....    AND      r0,r2,#0x1f
        0x200014a0:    2101        .!      MOVS     r1,#1
        0x200014a2:    fa01f000    ....    LSL      r0,r1,r0
        0x200014a6:    f64f5180    O..Q    MOV      r1,#0xfd80
        0x200014aa:    f6cf71ff    ...q    MOVT     r1,#0xffff
        0x200014ae:    f84c0001    L...    STR      r0,[r12,r1]
        0x200014b2:    bd10        ..      POP      {r4,pc}
    PA_Handler
        0x200014b4:    4770        pG      BX       lr
        0x200014b6:    0000        ..      MOVS     r0,r0
    PB_Handler
        0x200014b8:    4770        pG      BX       lr
        0x200014ba:    0000        ..      MOVS     r0,r0
    PC_Handler
        0x200014bc:    b510        ..      PUSH     {r4,lr}
        0x200014be:    f2420400    B...    MOVW     r4,#0x2000
        0x200014c2:    f2c40401    ....    MOVT     r4,#0x4001
        0x200014c6:    4620         F      MOV      r0,r4
        0x200014c8:    f44f6180    O..a    MOV      r1,#0x400
        0x200014cc:    f7ffff00    ....    BL       GPIO_ClearITPendingBit ; 0x200012d0
        0x200014d0:    4620         F      MOV      r0,r4
        0x200014d2:    f44f6100    O..a    MOV      r1,#0x800
        0x200014d6:    f7fffefb    ....    BL       GPIO_ClearITPendingBit ; 0x200012d0
        0x200014da:    a105        ..      ADR      r1,{pc}+0x16 ; 0x200014f0
        0x200014dc:    2000        .       MOVS     r0,#0
        0x200014de:    f000fadf    ....    BL       SEGGER_RTT_printf ; 0x20001aa0
        0x200014e2:    f2401084    @...    MOVW     r0,#0x184
        0x200014e6:    f2c20001    ....    MOVT     r0,#0x2001
        0x200014ea:    2101        .!      MOVS     r1,#1
        0x200014ec:    6001        .`      STR      r1,[r0,#0]
        0x200014ee:    bd10        ..      POP      {r4,pc}
    $d.10
        0x200014f0:    72657375    user    DCD    1919251317
        0x200014f4:    74756220     but    DCD    1953849888
        0x200014f8:    206e6f74    ton     DCD    544108404
        0x200014fc:    73657270    pres    DCD    1936028272
        0x20001500:    21646573    sed!    DCD    560227699
        0x20001504:    0a0d2121    !!..    DCD    168632609
        0x20001508:    00000000    ....    DCD    0
    $t.11
    PD_Handler
        0x2000150c:    4770        pG      BX       lr
        0x2000150e:    0000        ..      MOVS     r0,r0
    PMW_TimeBaseInit
        0x20001510:    880a        ..      LDRH     r2,[r1,#0]
        0x20001512:    6202        .b      STR      r2,[r0,#0x20]
        0x20001514:    788a        .x      LDRB     r2,[r1,#2]
        0x20001516:    78cb        .x      LDRB     r3,[r1,#3]
        0x20001518:    f891c004    ....    LDRB     r12,[r1,#4]
        0x2000151c:    7949        Iy      LDRB     r1,[r1,#5]
        0x2000151e:    6042        B`      STR      r2,[r0,#4]
        0x20001520:    ea41010c    A...    ORR      r1,r1,r12
        0x20001524:    6103        .a      STR      r3,[r0,#0x10]
        0x20001526:    61c1        .a      STR      r1,[r0,#0x1c]
        0x20001528:    4770        pG      BX       lr
        0x2000152a:    0000        ..      MOVS     r0,r0
    PWM_BKI_LevelConfig
        0x2000152c:    6c82        .l      LDR      r2,[r0,#0x48]
        0x2000152e:    f0227200    "..r    BIC      r2,r2,#0x2000000
        0x20001532:    4311        .C      ORRS     r1,r1,r2
        0x20001534:    6481        .d      STR      r1,[r0,#0x48]
        0x20001536:    4770        pG      BX       lr
    PWM_BreakInput_Cmd
        0x20001538:    6c82        .l      LDR      r2,[r0,#0x48]
        0x2000153a:    2900        .)      CMP      r1,#0
        0x2000153c:    f0227280    "..r    BIC      r2,r2,#0x1000000
        0x20001540:    bf18        ..      IT       NE
        0x20001542:    f1027280    ...r    ADDNE    r2,r2,#0x1000000
        0x20001546:    6482        .d      STR      r2,[r0,#0x48]
        0x20001548:    4770        pG      BX       lr
        0x2000154a:    0000        ..      MOVS     r0,r0
    PWM_ClearFlag
        0x2000154c:    6001        .`      STR      r1,[r0,#0]
        0x2000154e:    4770        pG      BX       lr
    PWM_Cmd
        0x20001550:    6842        Bh      LDR      r2,[r0,#4]
        0x20001552:    2901        .)      CMP      r1,#1
        0x20001554:    f0220201    "...    BIC      r2,r2,#1
        0x20001558:    bf08        ..      IT       EQ
        0x2000155a:    3201        .2      ADDEQ    r2,#1
        0x2000155c:    6042        B`      STR      r2,[r0,#4]
        0x2000155e:    4770        pG      BX       lr
    PWM_GetFlagStatus
        0x20001560:    6800        .h      LDR      r0,[r0,#0]
        0x20001562:    4008        .@      ANDS     r0,r0,r1
        0x20001564:    bf18        ..      IT       NE
        0x20001566:    2001        .       MOVNE    r0,#1
        0x20001568:    4770        pG      BX       lr
        0x2000156a:    0000        ..      MOVS     r0,r0
    PWM_IntConfig
        0x2000156c:    297f        .)      CMP      r1,#0x7f
        0x2000156e:    dc15        ..      BGT      0x2000159c ; PWM_IntConfig + 48
        0x20001570:    2910        .)      CMP      r1,#0x10
        0x20001572:    bf88        ..      IT       HI
        0x20001574:    4770        pG      BXHI     lr
        0x20001576:    2301        .#      MOVS     r3,#1
        0x20001578:    fa03fc01    ....    LSL      r12,r3,r1
        0x2000157c:    f2401316    @...    MOVW     r3,#0x116
        0x20001580:    f2c00301    ....    MOVT     r3,#1
        0x20001584:    ea1c0f03    ....    TST      r12,r3
        0x20001588:    d007        ..      BEQ      0x2000159a ; PWM_IntConfig + 46
        0x2000158a:    2a00        .*      CMP      r2,#0
        0x2000158c:    69c3        .i      LDR      r3,[r0,#0x1c]
        0x2000158e:    bf0c        ..      ITE      EQ
        0x20001590:    438b        .C      BICEQ    r3,r3,r1
        0x20001592:    430b        .C      ORRNE    r3,r3,r1
        0x20001594:    2908        .)      CMP      r1,#8
        0x20001596:    61c3        .a      STR      r3,[r0,#0x1c]
        0x20001598:    d01a        ..      BEQ      0x200015d0 ; PWM_IntConfig + 100
        0x2000159a:    4770        pG      BX       lr
        0x2000159c:    f5b14f00    ...O    CMP      r1,#0x8000
        0x200015a0:    da06        ..      BGE      0x200015b0 ; PWM_IntConfig + 68
        0x200015a2:    2980        .)      CMP      r1,#0x80
        0x200015a4:    d014        ..      BEQ      0x200015d0 ; PWM_IntConfig + 100
        0x200015a6:    f5b16f00    ...o    CMP      r1,#0x800
        0x200015aa:    d011        ..      BEQ      0x200015d0 ; PWM_IntConfig + 100
        0x200015ac:    e7f5        ..      B        0x2000159a ; PWM_IntConfig + 46
        0x200015ae:    bf00        ..      NOP      
        0x200015b0:    d00e        ..      BEQ      0x200015d0 ; PWM_IntConfig + 100
        0x200015b2:    f1b16f80    ...o    CMP      r1,#0x4000000
        0x200015b6:    d1f0        ..      BNE      0x2000159a ; PWM_IntConfig + 46
        0x200015b8:    6c81        .l      LDR      r1,[r0,#0x48]
        0x200015ba:    2a00        .*      CMP      r2,#0
        0x200015bc:    bf1e        ..      ITTT     NE
        0x200015be:    f0416180    A..a    ORRNE    r1,r1,#0x4000000
        0x200015c2:    6481        .d      STRNE    r1,[r0,#0x48]
        0x200015c4:    4770        pG      BXNE     lr
        0x200015c6:    f0216180    !..a    BIC      r1,r1,#0x4000000
        0x200015ca:    6481        .d      STR      r1,[r0,#0x48]
        0x200015cc:    4770        pG      BX       lr
        0x200015ce:    bf00        ..      NOP      
        0x200015d0:    2a00        .*      CMP      r2,#0
        0x200015d2:    6b42        Bk      LDR      r2,[r0,#0x34]
        0x200015d4:    bf14        ..      ITE      NE
        0x200015d6:    4311        .C      ORRNE    r1,r1,r2
        0x200015d8:    ea220101    "...    BICEQ    r1,r2,r1
        0x200015dc:    6341        Ac      STR      r1,[r0,#0x34]
        0x200015de:    4770        pG      BX       lr
    PWM_Mode_Config
        0x200015e0:    b5f0        ..      PUSH     {r4-r7,lr}
        0x200015e2:    b087        ..      SUB      sp,sp,#0x1c
        0x200015e4:    f2410400    A...    MOVW     r4,#0x1000
        0x200015e8:    f2c40400    ....    MOVT     r4,#0x4000
        0x200015ec:    f5044570    ..pE    ADD      r5,r4,#0xf000
        0x200015f0:    4628        (F      MOV      r0,r5
        0x200015f2:    2108        .!      MOVS     r1,#8
        0x200015f4:    2202        ."      MOVS     r2,#2
        0x200015f6:    f7fffea5    ....    BL       GPIO_PinAFConfig ; 0x20001344
        0x200015fa:    4628        (F      MOV      r0,r5
        0x200015fc:    210b        .!      MOVS     r1,#0xb
        0x200015fe:    2202        ."      MOVS     r2,#2
        0x20001600:    f7fffea0    ....    BL       GPIO_PinAFConfig ; 0x20001344
        0x20001604:    2018        .       MOVS     r0,#0x18
        0x20001606:    f8ad0000    ....    STRH     r0,[sp,#0]
        0x2000160a:    2001        .       MOVS     r0,#1
        0x2000160c:    f88d0002    ....    STRB     r0,[sp,#2]
        0x20001610:    4668        hF      MOV      r0,sp
        0x20001612:    f7ffff19    ....    BL       NVIC_Init ; 0x20001448
        0x20001616:    f2400018    @...    MOVW     r0,#0x18
        0x2000161a:    f2c20001    ....    MOVT     r0,#0x2001
        0x2000161e:    6800        .h      LDR      r0,[r0,#0]
        0x20001620:    f64d6183    M..a    MOV      r1,#0xde83
        0x20001624:    f2c4311b    ...1    MOVT     r1,#0x431b
        0x20001628:    fba00101    ....    UMULL    r0,r1,r0,r1
        0x2000162c:    f24030e7    @..0    MOV      r0,#0x3e7
        0x20001630:    f8ad0014    ....    STRH     r0,[sp,#0x14]
        0x20001634:    f04f30ff    O..0    MOV      r0,#0xffffffff
        0x20001638:    eb0040d1    ...@    ADD      r0,r0,r1,LSR #19
        0x2000163c:    f88d0017    ....    STRB     r0,[sp,#0x17]
        0x20001640:    2600        .&      MOVS     r6,#0
        0x20001642:    a905        ..      ADD      r1,sp,#0x14
        0x20001644:    4620         F      MOV      r0,r4
        0x20001646:    f8ad6018    ...`    STRH     r6,[sp,#0x18]
        0x2000164a:    f7ffff61    ..a.    BL       PMW_TimeBaseInit ; 0x20001510
        0x2000164e:    f44f7040    O.@p    MOV      r0,#0x300
        0x20001652:    ad01        ..      ADD      r5,sp,#4
        0x20001654:    f8ad0004    ....    STRH     r0,[sp,#4]
        0x20001658:    f44f3780    O..7    MOV      r7,#0x10000
        0x2000165c:    4620         F      MOV      r0,r4
        0x2000165e:    4629        )F      MOV      r1,r5
        0x20001660:    9602        ..      STR      r6,[sp,#8]
        0x20001662:    f88d6012    ...`    STRB     r6,[sp,#0x12]
        0x20001666:    9703        ..      STR      r7,[sp,#0xc]
        0x20001668:    f8ad6010    ...`    STRH     r6,[sp,#0x10]
        0x2000166c:    f000f824    ..$.    BL       PWM_OutputInit ; 0x200016b8
        0x20001670:    f2403003    @..0    MOV      r0,#0x303
        0x20001674:    f8ad0004    ....    STRH     r0,[sp,#4]
        0x20001678:    f24010f3    @...    MOV      r0,#0x1f3
        0x2000167c:    f8ad0010    ....    STRH     r0,[sp,#0x10]
        0x20001680:    4620         F      MOV      r0,r4
        0x20001682:    4629        )F      MOV      r1,r5
        0x20001684:    9602        ..      STR      r6,[sp,#8]
        0x20001686:    f88d6012    ...`    STRB     r6,[sp,#0x12]
        0x2000168a:    9703        ..      STR      r7,[sp,#0xc]
        0x2000168c:    f000f814    ....    BL       PWM_OutputInit ; 0x200016b8
        0x20001690:    4620         F      MOV      r0,r4
        0x20001692:    2110        .!      MOVS     r1,#0x10
        0x20001694:    2201        ."      MOVS     r2,#1
        0x20001696:    f7ffff69    ..i.    BL       PWM_IntConfig ; 0x2000156c
        0x2000169a:    4620         F      MOV      r0,r4
        0x2000169c:    2100        .!      MOVS     r1,#0
        0x2000169e:    f7ffff4b    ..K.    BL       PWM_BreakInput_Cmd ; 0x20001538
        0x200016a2:    4620         F      MOV      r0,r4
        0x200016a4:    2100        .!      MOVS     r1,#0
        0x200016a6:    f7ffff41    ..A.    BL       PWM_BKI_LevelConfig ; 0x2000152c
        0x200016aa:    4620         F      MOV      r0,r4
        0x200016ac:    2101        .!      MOVS     r1,#1
        0x200016ae:    f7ffff4f    ..O.    BL       PWM_Cmd ; 0x20001550
        0x200016b2:    b007        ..      ADD      sp,sp,#0x1c
        0x200016b4:    bdf0        ..      POP      {r4-r7,pc}
        0x200016b6:    0000        ..      MOVS     r0,r0
    PWM_OutputInit
        0x200016b8:    b5b0        ..      PUSH     {r4,r5,r7,lr}
        0x200016ba:    780a        .x      LDRB     r2,[r1,#0]
        0x200016bc:    2a03        .*      CMP      r2,#3
        0x200016be:    d811        ..      BHI      0x200016e4 ; PWM_OutputInit + 44
        0x200016c0:    e8dff002    ....    TBB      [pc,r2]
    $d.2
        0x200016c4:    0e0a0602    ....    DCD    235537922
    $t.3
        0x200016c8:    898b        ..      LDRH     r3,[r1,#0xc]
        0x200016ca:    6243        Cb      STR      r3,[r0,#0x24]
        0x200016cc:    e00a        ..      B        0x200016e4 ; PWM_OutputInit + 44
        0x200016ce:    bf00        ..      NOP      
        0x200016d0:    898b        ..      LDRH     r3,[r1,#0xc]
        0x200016d2:    6283        .b      STR      r3,[r0,#0x28]
        0x200016d4:    e006        ..      B        0x200016e4 ; PWM_OutputInit + 44
        0x200016d6:    bf00        ..      NOP      
        0x200016d8:    898b        ..      LDRH     r3,[r1,#0xc]
        0x200016da:    62c3        .b      STR      r3,[r0,#0x2c]
        0x200016dc:    e002        ..      B        0x200016e4 ; PWM_OutputInit + 44
        0x200016de:    bf00        ..      NOP      
        0x200016e0:    898b        ..      LDRH     r3,[r1,#0xc]
        0x200016e2:    6303        .c      STR      r3,[r0,#0x30]
        0x200016e4:    ea4f0e82    O...    LSL      lr,r2,#2
        0x200016e8:    2307        .#      MOVS     r3,#7
        0x200016ea:    f44f1488    O...    MOV      r4,#0x110000
        0x200016ee:    fa03f30e    ....    LSL      r3,r3,lr
        0x200016f2:    4094        .@      LSLS     r4,r4,r2
        0x200016f4:    f8d0c048    ..H.    LDR      r12,[r0,#0x48]
        0x200016f8:    4323        #C      ORRS     r3,r3,r4
        0x200016fa:    784c        Lx      LDRB     r4,[r1,#1]
        0x200016fc:    ea2c0503    ,...    BIC      r5,r12,r3
        0x20001700:    fa04fc0e    ....    LSL      r12,r4,lr
        0x20001704:    e9d14301    ...C    LDRD     r4,r3,[r1,#4]
        0x20001708:    4094        .@      LSLS     r4,r4,r2
        0x2000170a:    fa03f202    ....    LSL      r2,r3,r2
        0x2000170e:    ea440305    D...    ORR      r3,r4,r5
        0x20001712:    ea43030c    C...    ORR      r3,r3,r12
        0x20001716:    431a        .C      ORRS     r2,r2,r3
        0x20001718:    6482        .d      STR      r2,[r0,#0x48]
        0x2000171a:    7b89        .{      LDRB     r1,[r1,#0xe]
        0x2000171c:    64c1        .d      STR      r1,[r0,#0x4c]
        0x2000171e:    bdb0        ..      POP      {r4,r5,r7,pc}
    PendSV_Handler
        0x20001720:    4770        pG      BX       lr
        0x20001722:    0000        ..      MOVS     r0,r0
    RTC_Handler
        0x20001724:    4770        pG      BX       lr
        0x20001726:    0000        ..      MOVS     r0,r0
    SEGGER_RTT_ConfigUpBuffer
        0x20001728:    b5b0        ..      PUSH     {r4,r5,r7,lr}
        0x2000172a:    f2461e24    F.$.    MOV      lr,#0x6124
        0x2000172e:    f2c20e01    ....    MOVT     lr,#0x2001
        0x20001732:    f89e4000    ...@    LDRB     r4,[lr,#0]
        0x20001736:    468c        .F      MOV      r12,r1
        0x20001738:    2c00        .,      CMP      r4,#0
        0x2000173a:    d142        B.      BNE      0x200017c2 ; SEGGER_RTT_ConfigUpBuffer + 154
        0x2000173c:    2103        .!      MOVS     r1,#3
        0x2000173e:    f8ce1010    ....    STR      r1,[lr,#0x10]
        0x20001742:    f8ce1014    ....    STR      r1,[lr,#0x14]
        0x20001746:    f6443127    D.'1    MOV      r1,#0x4b27
        0x2000174a:    f24614cc    F...    MOV      r4,#0x61cc
        0x2000174e:    f2c20100    ....    MOVT     r1,#0x2000
        0x20001752:    f2c20401    ....    MOVT     r4,#0x2001
        0x20001756:    f8ce1018    ....    STR      r1,[lr,#0x18]
        0x2000175a:    f8ce401c    ...@    STR      r4,[lr,#0x1c]
        0x2000175e:    f44f6480    O..d    MOV      r4,#0x400
        0x20001762:    f8ce4020    .. @    STR      r4,[lr,#0x20]
        0x20001766:    2400        .$      MOVS     r4,#0
        0x20001768:    f8ce4028    ..(@    STR      r4,[lr,#0x28]
        0x2000176c:    f8ce4024    ..$@    STR      r4,[lr,#0x24]
        0x20001770:    f8ce402c    ..,@    STR      r4,[lr,#0x2c]
        0x20001774:    f8ce1060    ..`.    STR      r1,[lr,#0x60]
        0x20001778:    f2401188    @...    MOVW     r1,#0x188
        0x2000177c:    f2c20101    ....    MOVT     r1,#0x2001
        0x20001780:    3101        .1      ADDS     r1,#1
        0x20001782:    f8ce1064    ..d.    STR      r1,[lr,#0x64]
        0x20001786:    2110        .!      MOVS     r1,#0x10
        0x20001788:    f8ce1068    ..h.    STR      r1,[lr,#0x68]
        0x2000178c:    f2454152    E.RA    MOV      r1,#0x5452
        0x20001790:    f2c00154    ..T.    MOVT     r1,#0x54
        0x20001794:    f8ce4070    ..p@    STR      r4,[lr,#0x70]
        0x20001798:    f8ce406c    ..l@    STR      r4,[lr,#0x6c]
        0x2000179c:    f8ce4074    ..t@    STR      r4,[lr,#0x74]
        0x200017a0:    f8ce1007    ....    STR      r1,[lr,#7]
        0x200017a4:    f2445147    D.GQ    MOV      r1,#0x4547
        0x200017a8:    f2c00152    ..R.    MOVT     r1,#0x52
        0x200017ac:    f8ce1003    ....    STR      r1,[lr,#3]
        0x200017b0:    f2445153    D.SQ    MOV      r1,#0x4553
        0x200017b4:    f2c47147    ..Gq    MOVT     r1,#0x4747
        0x200017b8:    f8ce1000    ....    STR      r1,[lr,#0]
        0x200017bc:    2120         !      MOVS     r1,#0x20
        0x200017be:    f88e1006    ....    STRB     r1,[lr,#6]
        0x200017c2:    2802        .(      CMP      r0,#2
        0x200017c4:    bf84        ..      ITT      HI
        0x200017c6:    f04f30ff    O..0    MOVHI    r0,#0xffffffff
        0x200017ca:    bdb0        ..      POPHI    {r4,r5,r7,pc}
        0x200017cc:    9d04        ..      LDR      r5,[sp,#0x10]
        0x200017ce:    f3ef8411    ....    MRS      r4,BASEPRI
        0x200017d2:    f04f0120    O. .    MOV      r1,#0x20
        0x200017d6:    f3818811    ....    MSR      BASEPRI,r1
        0x200017da:    b150        P.      CBZ      r0,0x200017f2 ; SEGGER_RTT_ConfigUpBuffer + 202
        0x200017dc:    eb000140    ..@.    ADD      r1,r0,r0,LSL #1
        0x200017e0:    eb0e01c1    ....    ADD      r1,lr,r1,LSL #3
        0x200017e4:    f8c1c018    ....    STR      r12,[r1,#0x18]
        0x200017e8:    61ca        .a      STR      r2,[r1,#0x1c]
        0x200017ea:    2200        ."      MOVS     r2,#0
        0x200017ec:    620b        .b      STR      r3,[r1,#0x20]
        0x200017ee:    628a        .b      STR      r2,[r1,#0x28]
        0x200017f0:    624a        Jb      STR      r2,[r1,#0x24]
        0x200017f2:    eb000040    ..@.    ADD      r0,r0,r0,LSL #1
        0x200017f6:    eb0e00c0    ....    ADD      r0,lr,r0,LSL #3
        0x200017fa:    62c5        .b      STR      r5,[r0,#0x2c]
        0x200017fc:    2000        .       MOVS     r0,#0
        0x200017fe:    f3848811    ....    MSR      BASEPRI,r4
        0x20001802:    bdb0        ..      POP      {r4,r5,r7,pc}
    SEGGER_RTT_Init
        0x20001804:    f2461024    F.$.    MOV      r0,#0x6124
        0x20001808:    f2c20001    ....    MOVT     r0,#0x2001
        0x2000180c:    2103        .!      MOVS     r1,#3
        0x2000180e:    6101        .a      STR      r1,[r0,#0x10]
        0x20001810:    6141        Aa      STR      r1,[r0,#0x14]
        0x20001812:    f6443127    D.'1    MOV      r1,#0x4b27
        0x20001816:    f24612cc    F...    MOV      r2,#0x61cc
        0x2000181a:    f2c20100    ....    MOVT     r1,#0x2000
        0x2000181e:    f2c20201    ....    MOVT     r2,#0x2001
        0x20001822:    6181        .a      STR      r1,[r0,#0x18]
        0x20001824:    61c2        .a      STR      r2,[r0,#0x1c]
        0x20001826:    f44f6280    O..b    MOV      r2,#0x400
        0x2000182a:    6202        .b      STR      r2,[r0,#0x20]
        0x2000182c:    2200        ."      MOVS     r2,#0
        0x2000182e:    6282        .b      STR      r2,[r0,#0x28]
        0x20001830:    6242        Bb      STR      r2,[r0,#0x24]
        0x20001832:    62c2        .b      STR      r2,[r0,#0x2c]
        0x20001834:    6601        .f      STR      r1,[r0,#0x60]
        0x20001836:    f2401188    @...    MOVW     r1,#0x188
        0x2000183a:    f2c20101    ....    MOVT     r1,#0x2001
        0x2000183e:    3101        .1      ADDS     r1,#1
        0x20001840:    6641        Af      STR      r1,[r0,#0x64]
        0x20001842:    2110        .!      MOVS     r1,#0x10
        0x20001844:    6681        .f      STR      r1,[r0,#0x68]
        0x20001846:    f2454152    E.RA    MOV      r1,#0x5452
        0x2000184a:    f2c00154    ..T.    MOVT     r1,#0x54
        0x2000184e:    6702        .g      STR      r2,[r0,#0x70]
        0x20001850:    66c2        .f      STR      r2,[r0,#0x6c]
        0x20001852:    6742        Bg      STR      r2,[r0,#0x74]
        0x20001854:    f8c01007    ....    STR      r1,[r0,#7]
        0x20001858:    f2445147    D.GQ    MOV      r1,#0x4547
        0x2000185c:    f2c00152    ..R.    MOVT     r1,#0x52
        0x20001860:    f8c01003    ....    STR      r1,[r0,#3]
        0x20001864:    f2445153    D.SQ    MOV      r1,#0x4553
        0x20001868:    f2c47147    ..Gq    MOVT     r1,#0x4747
        0x2000186c:    6001        .`      STR      r1,[r0,#0]
        0x2000186e:    2120         !      MOVS     r1,#0x20
        0x20001870:    7181        .q      STRB     r1,[r0,#6]
        0x20001872:    4770        pG      BX       lr
    SEGGER_RTT_Write
        0x20001874:    b510        ..      PUSH     {r4,lr}
        0x20001876:    f2461e24    F.$.    MOV      lr,#0x6124
        0x2000187a:    f2c20e01    ....    MOVT     lr,#0x2001
        0x2000187e:    f89e3000    ...0    LDRB     r3,[lr,#0]
        0x20001882:    468c        .F      MOV      r12,r1
        0x20001884:    2b00        .+      CMP      r3,#0
        0x20001886:    d142        B.      BNE      0x2000190e ; SEGGER_RTT_Write + 154
        0x20001888:    2103        .!      MOVS     r1,#3
        0x2000188a:    f8ce1010    ....    STR      r1,[lr,#0x10]
        0x2000188e:    f8ce1014    ....    STR      r1,[lr,#0x14]
        0x20001892:    f6443127    D.'1    MOV      r1,#0x4b27
        0x20001896:    f24613cc    F...    MOV      r3,#0x61cc
        0x2000189a:    f2c20100    ....    MOVT     r1,#0x2000
        0x2000189e:    f2c20301    ....    MOVT     r3,#0x2001
        0x200018a2:    f8ce1018    ....    STR      r1,[lr,#0x18]
        0x200018a6:    f8ce301c    ...0    STR      r3,[lr,#0x1c]
        0x200018aa:    f44f6380    O..c    MOV      r3,#0x400
        0x200018ae:    f8ce3020    .. 0    STR      r3,[lr,#0x20]
        0x200018b2:    2300        .#      MOVS     r3,#0
        0x200018b4:    f8ce3028    ..(0    STR      r3,[lr,#0x28]
        0x200018b8:    f8ce3024    ..$0    STR      r3,[lr,#0x24]
        0x200018bc:    f8ce302c    ..,0    STR      r3,[lr,#0x2c]
        0x200018c0:    f8ce1060    ..`.    STR      r1,[lr,#0x60]
        0x200018c4:    f2401188    @...    MOVW     r1,#0x188
        0x200018c8:    f2c20101    ....    MOVT     r1,#0x2001
        0x200018cc:    3101        .1      ADDS     r1,#1
        0x200018ce:    f8ce1064    ..d.    STR      r1,[lr,#0x64]
        0x200018d2:    2110        .!      MOVS     r1,#0x10
        0x200018d4:    f8ce1068    ..h.    STR      r1,[lr,#0x68]
        0x200018d8:    f2454152    E.RA    MOV      r1,#0x5452
        0x200018dc:    f2c00154    ..T.    MOVT     r1,#0x54
        0x200018e0:    f8ce3070    ..p0    STR      r3,[lr,#0x70]
        0x200018e4:    f8ce306c    ..l0    STR      r3,[lr,#0x6c]
        0x200018e8:    f8ce3074    ..t0    STR      r3,[lr,#0x74]
        0x200018ec:    f8ce1007    ....    STR      r1,[lr,#7]
        0x200018f0:    f2445147    D.GQ    MOV      r1,#0x4547
        0x200018f4:    f2c00152    ..R.    MOVT     r1,#0x52
        0x200018f8:    f8ce1003    ....    STR      r1,[lr,#3]
        0x200018fc:    f2445153    D.SQ    MOV      r1,#0x4553
        0x20001900:    f2c47147    ..Gq    MOVT     r1,#0x4747
        0x20001904:    f8ce1000    ....    STR      r1,[lr,#0]
        0x20001908:    2120         !      MOVS     r1,#0x20
        0x2000190a:    f88e1006    ....    STRB     r1,[lr,#6]
        0x2000190e:    f3ef8411    ....    MRS      r4,BASEPRI
        0x20001912:    f04f0120    O. .    MOV      r1,#0x20
        0x20001916:    f3818811    ....    MSR      BASEPRI,r1
        0x2000191a:    4661        aF      MOV      r1,r12
        0x2000191c:    f000f804    ....    BL       SEGGER_RTT_WriteNoLock ; 0x20001928
        0x20001920:    f3848811    ....    MSR      BASEPRI,r4
        0x20001924:    bd10        ..      POP      {r4,pc}
        0x20001926:    0000        ..      MOVS     r0,r0
    SEGGER_RTT_WriteNoLock
        0x20001928:    e92d4ff0    -..O    PUSH     {r4-r11,lr}
        0x2000192c:    b081        ..      SUB      sp,sp,#4
        0x2000192e:    f2461324    F.$.    MOV      r3,#0x6124
        0x20001932:    eb000040    ..@.    ADD      r0,r0,r0,LSL #1
        0x20001936:    f2c20301    ....    MOVT     r3,#0x2001
        0x2000193a:    eb0306c0    ....    ADD      r6,r3,r0,LSL #3
        0x2000193e:    6af0        .j      LDR      r0,[r6,#0x2c]
        0x20001940:    4614        .F      MOV      r4,r2
        0x20001942:    2802        .(      CMP      r0,#2
        0x20001944:    4689        .F      MOV      r9,r1
        0x20001946:    d011        ..      BEQ      0x2000196c ; SEGGER_RTT_WriteNoLock + 68
        0x20001948:    2801        .(      CMP      r0,#1
        0x2000194a:    d045        E.      BEQ      0x200019d8 ; SEGGER_RTT_WriteNoLock + 176
        0x2000194c:    b948        H.      CBNZ     r0,0x20001962 ; SEGGER_RTT_WriteNoLock + 58
        0x2000194e:    4635        5F      MOV      r5,r6
        0x20001950:    f8557f24    U.$.    LDR      r7,[r5,#0x24]!
        0x20001954:    6868        hh      LDR      r0,[r5,#4]
        0x20001956:    42b8        .B      CMP      r0,r7
        0x20001958:    d976        v.      BLS      0x20001a48 ; SEGGER_RTT_WriteNoLock + 288
        0x2000195a:    43f9        .C      MVNS     r1,r7
        0x2000195c:    4408        .D      ADD      r0,r0,r1
        0x2000195e:    42a0        .B      CMP      r0,r4
        0x20001960:    d279        y.      BCS      0x20001a56 ; SEGGER_RTT_WriteNoLock + 302
        0x20001962:    2600        .&      MOVS     r6,#0
        0x20001964:    4630        0F      MOV      r0,r6
        0x20001966:    b001        ..      ADD      sp,sp,#4
        0x20001968:    e8bd8ff0    ....    POP      {r4-r11,pc}
        0x2000196c:    f8565f24    V.$_    LDR      r5,[r6,#0x24]!
        0x20001970:    1d30        0.      ADDS     r0,r6,#4
        0x20001972:    f1a60b04    ....    SUB      r11,r6,#4
        0x20001976:    46b2        .F      MOV      r10,r6
        0x20001978:    f1a60808    ....    SUB      r8,r6,#8
        0x2000197c:    2600        .&      MOVS     r6,#0
        0x2000197e:    9000        ..      STR      r0,[sp,#0]
        0x20001980:    e020         .      B        0x200019c4 ; SEGGER_RTT_WriteNoLock + 156
        0x20001982:    bf00        ..      NOP      
        0x20001984:    f8db0000    ....    LDR      r0,[r11,#0]
        0x20001988:    43ea        .C      MVNS     r2,r5
        0x2000198a:    4411        .D      ADD      r1,r1,r2
        0x2000198c:    4401        .D      ADD      r1,r1,r0
        0x2000198e:    1b47        G.      SUBS     r7,r0,r5
        0x20001990:    42b9        .B      CMP      r1,r7
        0x20001992:    bf38        8.      IT       CC
        0x20001994:    460f        .F      MOVCC    r7,r1
        0x20001996:    f8d80000    ....    LDR      r0,[r8,#0]
        0x2000199a:    42a7        .B      CMP      r7,r4
        0x2000199c:    bf28        (.      IT       CS
        0x2000199e:    4627        'F      MOVCS    r7,r4
        0x200019a0:    4428        (D      ADD      r0,r0,r5
        0x200019a2:    4649        IF      MOV      r1,r9
        0x200019a4:    463a        :F      MOV      r2,r7
        0x200019a6:    f7fefbeb    ....    BL       __aeabi_memcpy ; 0x20000180
        0x200019aa:    f8db0000    ....    LDR      r0,[r11,#0]
        0x200019ae:    1979        y.      ADDS     r1,r7,r5
        0x200019b0:    1be4        ..      SUBS     r4,r4,r7
        0x200019b2:    1a0d        ..      SUBS     r5,r1,r0
        0x200019b4:    443e        >D      ADD      r6,r6,r7
        0x200019b6:    44b9        .D      ADD      r9,r9,r7
        0x200019b8:    bf18        ..      IT       NE
        0x200019ba:    460d        .F      MOVNE    r5,r1
        0x200019bc:    2c00        .,      CMP      r4,#0
        0x200019be:    f8ca5000    ...P    STR      r5,[r10,#0]
        0x200019c2:    d057        W.      BEQ      0x20001a74 ; SEGGER_RTT_WriteNoLock + 332
        0x200019c4:    9800        ..      LDR      r0,[sp,#0]
        0x200019c6:    6801        .h      LDR      r1,[r0,#0]
        0x200019c8:    42a9        .B      CMP      r1,r5
        0x200019ca:    d9db        ..      BLS      0x20001984 ; SEGGER_RTT_WriteNoLock + 92
        0x200019cc:    43ea        .C      MVNS     r2,r5
        0x200019ce:    f8db0000    ....    LDR      r0,[r11,#0]
        0x200019d2:    4411        .D      ADD      r1,r1,r2
        0x200019d4:    e7db        ..      B        0x2000198e ; SEGGER_RTT_WriteNoLock + 102
        0x200019d6:    bf00        ..      NOP      
        0x200019d8:    46b0        .F      MOV      r8,r6
        0x200019da:    f8587f24    X.$.    LDR      r7,[r8,#0x24]!
        0x200019de:    f8d81004    ....    LDR      r1,[r8,#4]
        0x200019e2:    42b9        .B      CMP      r1,r7
        0x200019e4:    d904        ..      BLS      0x200019f0 ; SEGGER_RTT_WriteNoLock + 200
        0x200019e6:    43fa        .C      MVNS     r2,r7
        0x200019e8:    6a30        0j      LDR      r0,[r6,#0x20]
        0x200019ea:    4411        .D      ADD      r1,r1,r2
        0x200019ec:    e004        ..      B        0x200019f8 ; SEGGER_RTT_WriteNoLock + 208
        0x200019ee:    bf00        ..      NOP      
        0x200019f0:    6a30        0j      LDR      r0,[r6,#0x20]
        0x200019f2:    43fa        .C      MVNS     r2,r7
        0x200019f4:    4411        .D      ADD      r1,r1,r2
        0x200019f6:    4401        .D      ADD      r1,r1,r0
        0x200019f8:    42a1        .B      CMP      r1,r4
        0x200019fa:    bf38        8.      IT       CC
        0x200019fc:    460c        .F      MOVCC    r4,r1
        0x200019fe:    1bc5        ..      SUBS     r5,r0,r7
        0x20001a00:    f8560f1c    V...    LDR      r0,[r6,#0x1c]!
        0x20001a04:    42ac        .B      CMP      r4,r5
        0x20001a06:    4438        8D      ADD      r0,r0,r7
        0x20001a08:    d20c        ..      BCS      0x20001a24 ; SEGGER_RTT_WriteNoLock + 252
        0x20001a0a:    4649        IF      MOV      r1,r9
        0x20001a0c:    4622        "F      MOV      r2,r4
        0x20001a0e:    f7fefbb7    ....    BL       __aeabi_memcpy ; 0x20000180
        0x20001a12:    19e0        ..      ADDS     r0,r4,r7
        0x20001a14:    f8c80000    ....    STR      r0,[r8,#0]
        0x20001a18:    4626        &F      MOV      r6,r4
        0x20001a1a:    4630        0F      MOV      r0,r6
        0x20001a1c:    b001        ..      ADD      sp,sp,#4
        0x20001a1e:    e8bd8ff0    ....    POP      {r4-r11,pc}
        0x20001a22:    bf00        ..      NOP      
        0x20001a24:    4649        IF      MOV      r1,r9
        0x20001a26:    462a        *F      MOV      r2,r5
        0x20001a28:    f7fefbaa    ....    BL       __aeabi_memcpy ; 0x20000180
        0x20001a2c:    1b67        g.      SUBS     r7,r4,r5
        0x20001a2e:    6830        0h      LDR      r0,[r6,#0]
        0x20001a30:    eb090105    ....    ADD      r1,r9,r5
        0x20001a34:    463a        :F      MOV      r2,r7
        0x20001a36:    f7fefba3    ....    BL       __aeabi_memcpy ; 0x20000180
        0x20001a3a:    f8c87000    ...p    STR      r7,[r8,#0]
        0x20001a3e:    4626        &F      MOV      r6,r4
        0x20001a40:    4630        0F      MOV      r0,r6
        0x20001a42:    b001        ..      ADD      sp,sp,#4
        0x20001a44:    e8bd8ff0    ....    POP      {r4-r11,pc}
        0x20001a48:    6a31        1j      LDR      r1,[r6,#0x20]
        0x20001a4a:    43fa        .C      MVNS     r2,r7
        0x20001a4c:    4410        .D      ADD      r0,r0,r2
        0x20001a4e:    4408        .D      ADD      r0,r0,r1
        0x20001a50:    42a0        .B      CMP      r0,r4
        0x20001a52:    f4ffaf86    ....    BCC.W    0x20001962 ; SEGGER_RTT_WriteNoLock + 58
        0x20001a56:    f8560f1c    V...    LDR      r0,[r6,#0x1c]!
        0x20001a5a:    6871        qh      LDR      r1,[r6,#4]
        0x20001a5c:    4438        8D      ADD      r0,r0,r7
        0x20001a5e:    eba10807    ....    SUB      r8,r1,r7
        0x20001a62:    45a0        .E      CMP      r8,r4
        0x20001a64:    d90a        ..      BLS      0x20001a7c ; SEGGER_RTT_WriteNoLock + 340
        0x20001a66:    4649        IF      MOV      r1,r9
        0x20001a68:    4622        "F      MOV      r2,r4
        0x20001a6a:    f7fefb89    ....    BL       __aeabi_memcpy ; 0x20000180
        0x20001a6e:    1938        8.      ADDS     r0,r7,r4
        0x20001a70:    6028        (`      STR      r0,[r5,#0]
        0x20001a72:    4626        &F      MOV      r6,r4
        0x20001a74:    4630        0F      MOV      r0,r6
        0x20001a76:    b001        ..      ADD      sp,sp,#4
        0x20001a78:    e8bd8ff0    ....    POP      {r4-r11,pc}
        0x20001a7c:    4649        IF      MOV      r1,r9
        0x20001a7e:    4642        BF      MOV      r2,r8
        0x20001a80:    f7fefb7e    ..~.    BL       __aeabi_memcpy ; 0x20000180
        0x20001a84:    eba40708    ....    SUB      r7,r4,r8
        0x20001a88:    6830        0h      LDR      r0,[r6,#0]
        0x20001a8a:    eb090108    ....    ADD      r1,r9,r8
        0x20001a8e:    463a        :F      MOV      r2,r7
        0x20001a90:    f7fefb76    ..v.    BL       __aeabi_memcpy ; 0x20000180
        0x20001a94:    602f        /`      STR      r7,[r5,#0]
        0x20001a96:    4626        &F      MOV      r6,r4
        0x20001a98:    4630        0F      MOV      r0,r6
        0x20001a9a:    b001        ..      ADD      sp,sp,#4
        0x20001a9c:    e8bd8ff0    ....    POP      {r4-r11,pc}
    SEGGER_RTT_printf
        0x20001aa0:    b082        ..      SUB      sp,sp,#8
        0x20001aa2:    b580        ..      PUSH     {r7,lr}
        0x20001aa4:    b082        ..      SUB      sp,sp,#8
        0x20001aa6:    e9cd2304    ...#    STRD     r2,r3,[sp,#0x10]
        0x20001aaa:    aa04        ..      ADD      r2,sp,#0x10
        0x20001aac:    9201        ..      STR      r2,[sp,#4]
        0x20001aae:    aa01        ..      ADD      r2,sp,#4
        0x20001ab0:    f000f806    ....    BL       SEGGER_RTT_vprintf ; 0x20001ac0
        0x20001ab4:    b002        ..      ADD      sp,sp,#8
        0x20001ab6:    e8bd4080    ...@    POP      {r7,lr}
        0x20001aba:    b002        ..      ADD      sp,sp,#8
        0x20001abc:    4770        pG      BX       lr
        0x20001abe:    0000        ..      MOVS     r0,r0
    SEGGER_RTT_vprintf
        0x20001ac0:    e92d4ff0    -..O    PUSH     {r4-r11,lr}
        0x20001ac4:    b09d        ..      SUB      sp,sp,#0x74
        0x20001ac6:    4616        .F      MOV      r6,r2
        0x20001ac8:    aa08        ..      ADD      r2,sp,#0x20
        0x20001aca:    f2417959    A.Yy    MOV      r9,#0x1759
        0x20001ace:    9218        ..      STR      r2,[sp,#0x60]
        0x20001ad0:    2240        @"      MOVS     r2,#0x40
        0x20001ad2:    2500        .%      MOVS     r5,#0
        0x20001ad4:    9005        ..      STR      r0,[sp,#0x14]
        0x20001ad6:    901c        ..      STR      r0,[sp,#0x70]
        0x20001ad8:    f10d0b60    ..`.    ADD      r11,sp,#0x60
        0x20001adc:    f2cd19b7    ....    MOVT     r9,#0xd1b7
        0x20001ae0:    2000        .       MOVS     r0,#0
        0x20001ae2:    460c        .F      MOV      r4,r1
        0x20001ae4:    9219        ..      STR      r2,[sp,#0x64]
        0x20001ae6:    e9cd551a    ...U    STRD     r5,r5,[sp,#0x68]
        0x20001aea:    9607        ..      STR      r6,[sp,#0x1c]
        0x20001aec:    e00c        ..      B        0x20001b08 ; SEGGER_RTT_vprintf + 72
        0x20001aee:    bf00        ..      NOP      
        0x20001af0:    463b        ;F      MOV      r3,r7
        0x20001af2:    f8cd8004    ....    STR      r8,[sp,#4]
        0x20001af6:    f000fe83    ....    BL       _PrintUnsigned ; 0x20002800
        0x20001afa:    e1a3        ..      B        0x20001e44 ; SEGGER_RTT_vprintf + 900
        0x20001afc:    981b        ..      LDR      r0,[sp,#0x6c]
        0x20001afe:    4621        !F      MOV      r1,r4
        0x20001b00:    f1b03fff    ...?    CMP      r0,#0xffffffff
        0x20001b04:    f34084ce    @...    BLE.W    0x200024a4 ; SEGGER_RTT_vprintf + 2532
        0x20001b08:    f8143b01    ...;    LDRB     r3,[r4],#1
        0x20001b0c:    2b25        %+      CMP      r3,#0x25
        0x20001b0e:    d01b        ..      BEQ      0x20001b48 ; SEGGER_RTT_vprintf + 136
        0x20001b10:    2b00        .+      CMP      r3,#0
        0x20001b12:    f00084af    ....    BEQ.W    0x20002474 ; SEGGER_RTT_vprintf + 2484
        0x20001b16:    e9dd2019    ...     LDRD     r2,r0,[sp,#0x64]
        0x20001b1a:    1c41        A.      ADDS     r1,r0,#1
        0x20001b1c:    4291        .B      CMP      r1,r2
        0x20001b1e:    d807        ..      BHI      0x20001b30 ; SEGGER_RTT_vprintf + 112
        0x20001b20:    9a18        ..      LDR      r2,[sp,#0x60]
        0x20001b22:    5413        .T      STRB     r3,[r2,r0]
        0x20001b24:    981b        ..      LDR      r0,[sp,#0x6c]
        0x20001b26:    9a19        ..      LDR      r2,[sp,#0x64]
        0x20001b28:    3001        .0      ADDS     r0,#1
        0x20001b2a:    901b        ..      STR      r0,[sp,#0x6c]
        0x20001b2c:    4608        .F      MOV      r0,r1
        0x20001b2e:    911a        ..      STR      r1,[sp,#0x68]
        0x20001b30:    4290        .B      CMP      r0,r2
        0x20001b32:    d1e3        ..      BNE      0x20001afc ; SEGGER_RTT_vprintf + 60
        0x20001b34:    9918        ..      LDR      r1,[sp,#0x60]
        0x20001b36:    981c        ..      LDR      r0,[sp,#0x70]
        0x20001b38:    f7fffe9c    ....    BL       SEGGER_RTT_Write ; 0x20001874
        0x20001b3c:    991a        ..      LDR      r1,[sp,#0x68]
        0x20001b3e:    4288        .B      CMP      r0,r1
        0x20001b40:    f04084a4    @...    BNE.W    0x2000248c ; SEGGER_RTT_vprintf + 2508
        0x20001b44:    951a        ..      STR      r5,[sp,#0x68]
        0x20001b46:    e7d9        ..      B        0x20001afc ; SEGGER_RTT_vprintf + 60
        0x20001b48:    f1010a02    ....    ADD      r10,r1,#2
        0x20001b4c:    f04f0800    O...    MOV      r8,#0
        0x20001b50:    f81a1c01    ....    LDRB     r1,[r10,#-1]
        0x20001b54:    f1a10323    ..#.    SUB      r3,r1,#0x23
        0x20001b58:    2b0d        .+      CMP      r3,#0xd
        0x20001b5a:    f200805f    .._.    BHI.W    0x20001c1c ; SEGGER_RTT_vprintf + 348
        0x20001b5e:    2202        ."      MOVS     r2,#2
        0x20001b60:    e8dff003    ....    TBB      [pc,r3]
    $d.1
        0x20001b64:    5c5c5c08    .\\\    DCD    1549556744
        0x20001b68:    5c5c5c5c    \\\\    DCD    1549556828
        0x20001b6c:    5c0c5c0a    .\.\    DCD    1544313866
        0x20001b70:    bf000d5c    \...    DCD    3204451676
    $t.2
        0x20001b74:    2208        ."      MOVS     r2,#8
        0x20001b76:    e002        ..      B        0x20001b7e ; SEGGER_RTT_vprintf + 190
        0x20001b78:    2204        ."      MOVS     r2,#4
        0x20001b7a:    e000        ..      B        0x20001b7e ; SEGGER_RTT_vprintf + 190
        0x20001b7c:    2201        ."      MOVS     r2,#1
        0x20001b7e:    f89a1000    ....    LDRB     r1,[r10,#0]
        0x20001b82:    ea480802    H...    ORR      r8,r8,r2
        0x20001b86:    f1a10323    ..#.    SUB      r3,r1,#0x23
        0x20001b8a:    2b0d        .+      CMP      r3,#0xd
        0x20001b8c:    f2008086    ....    BHI.W    0x20001c9c ; SEGGER_RTT_vprintf + 476
        0x20001b90:    2202        ."      MOVS     r2,#2
        0x20001b92:    e8dff003    ....    TBB      [pc,r3]
    $d.3
        0x20001b96:    8307        ..      DCW    33543
        0x20001b98:    83838383    ....    DCD    2206434179
        0x20001b9c:    83098383    ....    DCD    2198438787
        0x20001ba0:    0c83830b    ....    DCD    209945355
    $t.4
        0x20001ba4:    2208        ."      MOVS     r2,#8
        0x20001ba6:    e002        ..      B        0x20001bae ; SEGGER_RTT_vprintf + 238
        0x20001ba8:    2204        ."      MOVS     r2,#4
        0x20001baa:    e000        ..      B        0x20001bae ; SEGGER_RTT_vprintf + 238
        0x20001bac:    2201        ."      MOVS     r2,#1
        0x20001bae:    f89a1001    ....    LDRB     r1,[r10,#1]
        0x20001bb2:    ea480802    H...    ORR      r8,r8,r2
        0x20001bb6:    f1a10323    ..#.    SUB      r3,r1,#0x23
        0x20001bba:    2b0d        .+      CMP      r3,#0xd
        0x20001bbc:    f200806c    ..l.    BHI.W    0x20001c98 ; SEGGER_RTT_vprintf + 472
        0x20001bc0:    2202        ."      MOVS     r2,#2
        0x20001bc2:    e8dff003    ....    TBB      [pc,r3]
    $d.5
        0x20001bc6:    6907        .i      DCW    26887
        0x20001bc8:    69696969    iiii    DCD    1768515945
        0x20001bcc:    69096969    ii.i    DCD    1762224489
        0x20001bd0:    0c69690b    .ii.    DCD    208234763
    $t.6
        0x20001bd4:    2208        ."      MOVS     r2,#8
        0x20001bd6:    e002        ..      B        0x20001bde ; SEGGER_RTT_vprintf + 286
        0x20001bd8:    2204        ."      MOVS     r2,#4
        0x20001bda:    e000        ..      B        0x20001bde ; SEGGER_RTT_vprintf + 286
        0x20001bdc:    2201        ."      MOVS     r2,#1
        0x20001bde:    f89a1002    ....    LDRB     r1,[r10,#2]
        0x20001be2:    ea480802    H...    ORR      r8,r8,r2
        0x20001be6:    f1a10323    ..#.    SUB      r3,r1,#0x23
        0x20001bea:    2b0d        .+      CMP      r3,#0xd
        0x20001bec:    f2008062    ..b.    BHI.W    0x20001cb4 ; SEGGER_RTT_vprintf + 500
        0x20001bf0:    2202        ."      MOVS     r2,#2
        0x20001bf2:    e8dff003    ....    TBB      [pc,r3]
    $d.7
        0x20001bf6:    5f0f        ._      DCW    24335
        0x20001bf8:    5f5f5f5f    ____    DCD    1600085855
        0x20001bfc:    5f115f5f    __._    DCD    1594974047
        0x20001c00:    075f5f0d    .__.    DCD    123690765
    $t.8
        0x20001c04:    ea480802    H...    ORR      r8,r8,r2
        0x20001c08:    f10a0a04    ....    ADD      r10,r10,#4
        0x20001c0c:    e7a0        ..      B        0x20001b50 ; SEGGER_RTT_vprintf + 144
        0x20001c0e:    bf00        ..      NOP      
        0x20001c10:    2201        ."      MOVS     r2,#1
        0x20001c12:    e7f7        ..      B        0x20001c04 ; SEGGER_RTT_vprintf + 324
        0x20001c14:    2208        ."      MOVS     r2,#8
        0x20001c16:    e7f5        ..      B        0x20001c04 ; SEGGER_RTT_vprintf + 324
        0x20001c18:    2204        ."      MOVS     r2,#4
        0x20001c1a:    e7f3        ..      B        0x20001c04 ; SEGGER_RTT_vprintf + 324
        0x20001c1c:    f1aa0a01    ....    SUB      r10,r10,#1
        0x20001c20:    f1a10230    ..0.    SUB      r2,r1,#0x30
        0x20001c24:    2a09        .*      CMP      r2,#9
        0x20001c26:    d83d        =.      BHI      0x20001ca4 ; SEGGER_RTT_vprintf + 484
        0x20001c28:    f10a0a02    ....    ADD      r10,r10,#2
        0x20001c2c:    2200        ."      MOVS     r2,#0
        0x20001c2e:    bf00        ..      NOP      
        0x20001c30:    eb020282    ....    ADD      r2,r2,r2,LSL #2
        0x20001c34:    eb010242    ..B.    ADD      r2,r1,r2,LSL #1
        0x20001c38:    f81a1c01    ....    LDRB     r1,[r10,#-1]
        0x20001c3c:    3a30        0:      SUBS     r2,r2,#0x30
        0x20001c3e:    f1a10330    ..0.    SUB      r3,r1,#0x30
        0x20001c42:    2b09        .+      CMP      r3,#9
        0x20001c44:    d83e        >.      BHI      0x20001cc4 ; SEGGER_RTT_vprintf + 516
        0x20001c46:    eb020282    ....    ADD      r2,r2,r2,LSL #2
        0x20001c4a:    eb010242    ..B.    ADD      r2,r1,r2,LSL #1
        0x20001c4e:    f89a1000    ....    LDRB     r1,[r10,#0]
        0x20001c52:    3a30        0:      SUBS     r2,r2,#0x30
        0x20001c54:    f1a10330    ..0.    SUB      r3,r1,#0x30
        0x20001c58:    2b09        .+      CMP      r3,#9
        0x20001c5a:    d835        5.      BHI      0x20001cc8 ; SEGGER_RTT_vprintf + 520
        0x20001c5c:    eb020282    ....    ADD      r2,r2,r2,LSL #2
        0x20001c60:    eb010242    ..B.    ADD      r2,r1,r2,LSL #1
        0x20001c64:    f89a1001    ....    LDRB     r1,[r10,#1]
        0x20001c68:    3a30        0:      SUBS     r2,r2,#0x30
        0x20001c6a:    f1a10330    ..0.    SUB      r3,r1,#0x30
        0x20001c6e:    2b09        .+      CMP      r3,#9
        0x20001c70:    d876        v.      BHI      0x20001d60 ; SEGGER_RTT_vprintf + 672
        0x20001c72:    eb020282    ....    ADD      r2,r2,r2,LSL #2
        0x20001c76:    eb010242    ..B.    ADD      r2,r1,r2,LSL #1
        0x20001c7a:    f89a1002    ....    LDRB     r1,[r10,#2]
        0x20001c7e:    3a30        0:      SUBS     r2,r2,#0x30
        0x20001c80:    f1a10330    ..0.    SUB      r3,r1,#0x30
        0x20001c84:    2b09        .+      CMP      r3,#9
        0x20001c86:    f10a0a04    ....    ADD      r10,r10,#4
        0x20001c8a:    d9d1        ..      BLS      0x20001c30 ; SEGGER_RTT_vprintf + 368
        0x20001c8c:    f1aa0a02    ....    SUB      r10,r10,#2
        0x20001c90:    292e        .)      CMP      r1,#0x2e
        0x20001c92:    d01b        ..      BEQ      0x20001ccc ; SEGGER_RTT_vprintf + 524
        0x20001c94:    e009        ..      B        0x20001caa ; SEGGER_RTT_vprintf + 490
        0x20001c96:    bf00        ..      NOP      
        0x20001c98:    f10a0a01    ....    ADD      r10,r10,#1
        0x20001c9c:    f1a10230    ..0.    SUB      r2,r1,#0x30
        0x20001ca0:    2a09        .*      CMP      r2,#9
        0x20001ca2:    d9c1        ..      BLS      0x20001c28 ; SEGGER_RTT_vprintf + 360
        0x20001ca4:    2200        ."      MOVS     r2,#0
        0x20001ca6:    292e        .)      CMP      r1,#0x2e
        0x20001ca8:    d010        ..      BEQ      0x20001ccc ; SEGGER_RTT_vprintf + 524
        0x20001caa:    2700        .'      MOVS     r7,#0
        0x20001cac:    3925        %9      SUBS     r1,r1,#0x25
        0x20001cae:    2953        S)      CMP      r1,#0x53
        0x20001cb0:    d968        h.      BLS      0x20001d84 ; SEGGER_RTT_vprintf + 708
        0x20001cb2:    e0c7        ..      B        0x20001e44 ; SEGGER_RTT_vprintf + 900
        0x20001cb4:    f10a0a02    ....    ADD      r10,r10,#2
        0x20001cb8:    f1a10230    ..0.    SUB      r2,r1,#0x30
        0x20001cbc:    2a09        .*      CMP      r2,#9
        0x20001cbe:    d8f1        ..      BHI      0x20001ca4 ; SEGGER_RTT_vprintf + 484
        0x20001cc0:    e7b2        ..      B        0x20001c28 ; SEGGER_RTT_vprintf + 360
        0x20001cc2:    bf00        ..      NOP      
        0x20001cc4:    f1aa0a01    ....    SUB      r10,r10,#1
        0x20001cc8:    292e        .)      CMP      r1,#0x2e
        0x20001cca:    d1ee        ..      BNE      0x20001caa ; SEGGER_RTT_vprintf + 490
        0x20001ccc:    4653        SF      MOV      r3,r10
        0x20001cce:    f8131f01    ....    LDRB     r1,[r3,#1]!
        0x20001cd2:    f1a10730    ..0.    SUB      r7,r1,#0x30
        0x20001cd6:    2f09        ./      CMP      r7,#9
        0x20001cd8:    d906        ..      BLS      0x20001ce8 ; SEGGER_RTT_vprintf + 552
        0x20001cda:    2700        .'      MOVS     r7,#0
        0x20001cdc:    469a        .F      MOV      r10,r3
        0x20001cde:    3925        %9      SUBS     r1,r1,#0x25
        0x20001ce0:    2953        S)      CMP      r1,#0x53
        0x20001ce2:    d94f        O.      BLS      0x20001d84 ; SEGGER_RTT_vprintf + 708
        0x20001ce4:    e0ae        ..      B        0x20001e44 ; SEGGER_RTT_vprintf + 900
        0x20001ce6:    bf00        ..      NOP      
        0x20001ce8:    f10a0a02    ....    ADD      r10,r10,#2
        0x20001cec:    2700        .'      MOVS     r7,#0
        0x20001cee:    bf00        ..      NOP      
        0x20001cf0:    eb070387    ....    ADD      r3,r7,r7,LSL #2
        0x20001cf4:    eb010343    ..C.    ADD      r3,r1,r3,LSL #1
        0x20001cf8:    f89a1000    ....    LDRB     r1,[r10,#0]
        0x20001cfc:    f1a10730    ..0.    SUB      r7,r1,#0x30
        0x20001d00:    2f09        ./      CMP      r7,#9
        0x20001d02:    f1a30730    ..0.    SUB      r7,r3,#0x30
        0x20001d06:    d839        9.      BHI      0x20001d7c ; SEGGER_RTT_vprintf + 700
        0x20001d08:    eb070387    ....    ADD      r3,r7,r7,LSL #2
        0x20001d0c:    eb010343    ..C.    ADD      r3,r1,r3,LSL #1
        0x20001d10:    f89a1001    ....    LDRB     r1,[r10,#1]
        0x20001d14:    f1a10730    ..0.    SUB      r7,r1,#0x30
        0x20001d18:    2f09        ./      CMP      r7,#9
        0x20001d1a:    f1a30730    ..0.    SUB      r7,r3,#0x30
        0x20001d1e:    d825        %.      BHI      0x20001d6c ; SEGGER_RTT_vprintf + 684
        0x20001d20:    eb070387    ....    ADD      r3,r7,r7,LSL #2
        0x20001d24:    eb010343    ..C.    ADD      r3,r1,r3,LSL #1
        0x20001d28:    f89a1002    ....    LDRB     r1,[r10,#2]
        0x20001d2c:    f1a10730    ..0.    SUB      r7,r1,#0x30
        0x20001d30:    2f09        ./      CMP      r7,#9
        0x20001d32:    f1a30730    ..0.    SUB      r7,r3,#0x30
        0x20001d36:    d81f        ..      BHI      0x20001d78 ; SEGGER_RTT_vprintf + 696
        0x20001d38:    eb070387    ....    ADD      r3,r7,r7,LSL #2
        0x20001d3c:    eb010343    ..C.    ADD      r3,r1,r3,LSL #1
        0x20001d40:    f89a1003    ....    LDRB     r1,[r10,#3]
        0x20001d44:    f1a30730    ..0.    SUB      r7,r3,#0x30
        0x20001d48:    f1a10330    ..0.    SUB      r3,r1,#0x30
        0x20001d4c:    2b09        .+      CMP      r3,#9
        0x20001d4e:    f10a0a04    ....    ADD      r10,r10,#4
        0x20001d52:    d9cd        ..      BLS      0x20001cf0 ; SEGGER_RTT_vprintf + 560
        0x20001d54:    f1aa0a01    ....    SUB      r10,r10,#1
        0x20001d58:    3925        %9      SUBS     r1,r1,#0x25
        0x20001d5a:    2953        S)      CMP      r1,#0x53
        0x20001d5c:    d912        ..      BLS      0x20001d84 ; SEGGER_RTT_vprintf + 708
        0x20001d5e:    e071        q.      B        0x20001e44 ; SEGGER_RTT_vprintf + 900
        0x20001d60:    f10a0a01    ....    ADD      r10,r10,#1
        0x20001d64:    292e        .)      CMP      r1,#0x2e
        0x20001d66:    d0b1        ..      BEQ      0x20001ccc ; SEGGER_RTT_vprintf + 524
        0x20001d68:    e79f        ..      B        0x20001caa ; SEGGER_RTT_vprintf + 490
        0x20001d6a:    bf00        ..      NOP      
        0x20001d6c:    f10a0a01    ....    ADD      r10,r10,#1
        0x20001d70:    3925        %9      SUBS     r1,r1,#0x25
        0x20001d72:    2953        S)      CMP      r1,#0x53
        0x20001d74:    d906        ..      BLS      0x20001d84 ; SEGGER_RTT_vprintf + 708
        0x20001d76:    e065        e.      B        0x20001e44 ; SEGGER_RTT_vprintf + 900
        0x20001d78:    f10a0a02    ....    ADD      r10,r10,#2
        0x20001d7c:    3925        %9      SUBS     r1,r1,#0x25
        0x20001d7e:    2953        S)      CMP      r1,#0x53
        0x20001d80:    f2008060    ..`.    BHI.W    0x20001e44 ; SEGGER_RTT_vprintf + 900
        0x20001d84:    e8dff011    ....    TBH      [pc,r1,LSL #1]
    $d.9
        0x20001d88:    005e01ac    ..^.    DCD    6160812
        0x20001d8c:    005e005e    ^.^.    DCD    6160478
        0x20001d90:    005e005e    ^.^.    DCD    6160478
        0x20001d94:    005e005e    ^.^.    DCD    6160478
        0x20001d98:    005e005e    ^.^.    DCD    6160478
        0x20001d9c:    005e005e    ^.^.    DCD    6160478
        0x20001da0:    005e005e    ^.^.    DCD    6160478
        0x20001da4:    005e005e    ^.^.    DCD    6160478
        0x20001da8:    005e005e    ^.^.    DCD    6160478
        0x20001dac:    005e005e    ^.^.    DCD    6160478
        0x20001db0:    005e005e    ^.^.    DCD    6160478
        0x20001db4:    005e005e    ^.^.    DCD    6160478
        0x20001db8:    005e005e    ^.^.    DCD    6160478
        0x20001dbc:    005e005e    ^.^.    DCD    6160478
        0x20001dc0:    005e005e    ^.^.    DCD    6160478
        0x20001dc4:    005e005e    ^.^.    DCD    6160478
        0x20001dc8:    005e005e    ^.^.    DCD    6160478
        0x20001dcc:    005e005e    ^.^.    DCD    6160478
        0x20001dd0:    005e005e    ^.^.    DCD    6160478
        0x20001dd4:    005e005e    ^.^.    DCD    6160478
        0x20001dd8:    005e005e    ^.^.    DCD    6160478
        0x20001ddc:    005e005e    ^.^.    DCD    6160478
        0x20001de0:    005e005e    ^.^.    DCD    6160478
        0x20001de4:    005e005e    ^.^.    DCD    6160478
        0x20001de8:    005e005e    ^.^.    DCD    6160478
        0x20001dec:    0054005e    ^.T.    DCD    5505118
        0x20001df0:    005e005e    ^.^.    DCD    6160478
        0x20001df4:    005e005e    ^.^.    DCD    6160478
        0x20001df8:    005e005e    ^.^.    DCD    6160478
        0x20001dfc:    005e005e    ^.^.    DCD    6160478
        0x20001e00:    005e005e    ^.^.    DCD    6160478
        0x20001e04:    01fc01dc    ....    DCD    33292764
        0x20001e08:    005e005e    ^.^.    DCD    6160478
        0x20001e0c:    0062005e    ^.b.    DCD    6422622
        0x20001e10:    005e005e    ^.^.    DCD    6160478
        0x20001e14:    0062005e    ^.b.    DCD    6422622
        0x20001e18:    005e005e    ^.^.    DCD    6160478
        0x20001e1c:    02a4005e    ^...    DCD    44302430
        0x20001e20:    005e005e    ^.^.    DCD    6160478
        0x20001e24:    005e02b2    ..^.    DCD    6161074
        0x20001e28:    005e02e0    ..^.    DCD    6161120
        0x20001e2c:    0054005e    ^.T.    DCD    5505118
    $t.10
        0x20001e30:    e7ff        ..      B        0x20001e32 ; SEGGER_RTT_vprintf + 882
        0x20001e32:    6830        0h      LDR      r0,[r6,#0]
        0x20001e34:    1d01        ..      ADDS     r1,r0,#4
        0x20001e36:    6031        1`      STR      r1,[r6,#0]
        0x20001e38:    6801        .h      LDR      r1,[r0,#0]
        0x20001e3a:    9200        ..      STR      r2,[sp,#0]
        0x20001e3c:    4658        XF      MOV      r0,r11
        0x20001e3e:    2210        ."      MOVS     r2,#0x10
        0x20001e40:    e656        V.      B        0x20001af0 ; SEGGER_RTT_vprintf + 48
        0x20001e42:    bf00        ..      NOP      
        0x20001e44:    f10a0401    ....    ADD      r4,r10,#1
        0x20001e48:    e658        X.      B        0x20001afc ; SEGGER_RTT_vprintf + 60
        0x20001e4a:    bf00        ..      NOP      
        0x20001e4c:    f89a1001    ....    LDRB     r1,[r10,#1]
        0x20001e50:    3925        %9      SUBS     r1,r1,#0x25
        0x20001e52:    2953        S)      CMP      r1,#0x53
        0x20001e54:    f200812a    ..*.    BHI.W    0x200020ac ; SEGGER_RTT_vprintf + 1516
        0x20001e58:    e8dff011    ....    TBH      [pc,r1,LSL #1]
    $d.11
        0x20001e5c:    01280120     .(.    DCD    19398944
        0x20001e60:    01280128    (.(.    DCD    19398952
        0x20001e64:    01280128    (.(.    DCD    19398952
        0x20001e68:    01280128    (.(.    DCD    19398952
        0x20001e6c:    01280128    (.(.    DCD    19398952
        0x20001e70:    01280128    (.(.    DCD    19398952
        0x20001e74:    01280128    (.(.    DCD    19398952
        0x20001e78:    01280128    (.(.    DCD    19398952
        0x20001e7c:    01280128    (.(.    DCD    19398952
        0x20001e80:    01280128    (.(.    DCD    19398952
        0x20001e84:    01280128    (.(.    DCD    19398952
        0x20001e88:    01280128    (.(.    DCD    19398952
        0x20001e8c:    01280128    (.(.    DCD    19398952
        0x20001e90:    01280128    (.(.    DCD    19398952
        0x20001e94:    01280128    (.(.    DCD    19398952
        0x20001e98:    01280128    (.(.    DCD    19398952
        0x20001e9c:    01280128    (.(.    DCD    19398952
        0x20001ea0:    01280128    (.(.    DCD    19398952
        0x20001ea4:    01280128    (.(.    DCD    19398952
        0x20001ea8:    01280128    (.(.    DCD    19398952
        0x20001eac:    01280128    (.(.    DCD    19398952
        0x20001eb0:    01280128    (.(.    DCD    19398952
        0x20001eb4:    01280128    (.(.    DCD    19398952
        0x20001eb8:    01280128    (.(.    DCD    19398952
        0x20001ebc:    01280128    (.(.    DCD    19398952
        0x20001ec0:    00540128    (.T.    DCD    5505320
        0x20001ec4:    01280128    (.(.    DCD    19398952
        0x20001ec8:    01280128    (.(.    DCD    19398952
        0x20001ecc:    01280128    (.(.    DCD    19398952
        0x20001ed0:    01280128    (.(.    DCD    19398952
        0x20001ed4:    01280128    (.(.    DCD    19398952
        0x20001ed8:    0130012c    ,.0.    DCD    19923244
        0x20001edc:    01280128    (.(.    DCD    19398952
        0x20001ee0:    00580128    (.X.    DCD    5767464
        0x20001ee4:    01280128    (.(.    DCD    19398952
        0x20001ee8:    00580128    (.X.    DCD    5767464
        0x20001eec:    01280128    (.(.    DCD    19398952
        0x20001ef0:    01340128    (.4.    DCD    20185384
        0x20001ef4:    01280128    (.(.    DCD    19398952
        0x20001ef8:    01280138    8.(.    DCD    19398968
        0x20001efc:    0128013c    <.(.    DCD    19398972
        0x20001f00:    00540128    (.T.    DCD    5505320
    $t.12
        0x20001f04:    f10a0a01    ....    ADD      r10,r10,#1
        0x20001f08:    e793        ..      B        0x20001e32 ; SEGGER_RTT_vprintf + 882
        0x20001f0a:    bf00        ..      NOP      
        0x20001f0c:    f89a1002    ....    LDRB     r1,[r10,#2]
        0x20001f10:    3925        %9      SUBS     r1,r1,#0x25
        0x20001f12:    2953        S)      CMP      r1,#0x53
        0x20001f14:    f20080ee    ....    BHI.W    0x200020f4 ; SEGGER_RTT_vprintf + 1588
        0x20001f18:    e8dff011    ....    TBH      [pc,r1,LSL #1]
    $d.13
        0x20001f1c:    00ec00e0    ....    DCD    15466720
        0x20001f20:    00ec00ec    ....    DCD    15466732
        0x20001f24:    00ec00ec    ....    DCD    15466732
        0x20001f28:    00ec00ec    ....    DCD    15466732
        0x20001f2c:    00ec00ec    ....    DCD    15466732
        0x20001f30:    00ec00ec    ....    DCD    15466732
        0x20001f34:    00ec00ec    ....    DCD    15466732
        0x20001f38:    00ec00ec    ....    DCD    15466732
        0x20001f3c:    00ec00ec    ....    DCD    15466732
        0x20001f40:    00ec00ec    ....    DCD    15466732
        0x20001f44:    00ec00ec    ....    DCD    15466732
        0x20001f48:    00ec00ec    ....    DCD    15466732
        0x20001f4c:    00ec00ec    ....    DCD    15466732
        0x20001f50:    00ec00ec    ....    DCD    15466732
        0x20001f54:    00ec00ec    ....    DCD    15466732
        0x20001f58:    00ec00ec    ....    DCD    15466732
        0x20001f5c:    00ec00ec    ....    DCD    15466732
        0x20001f60:    00ec00ec    ....    DCD    15466732
        0x20001f64:    00ec00ec    ....    DCD    15466732
        0x20001f68:    00ec00ec    ....    DCD    15466732
        0x20001f6c:    00ec00ec    ....    DCD    15466732
        0x20001f70:    00ec00ec    ....    DCD    15466732
        0x20001f74:    00ec00ec    ....    DCD    15466732
        0x20001f78:    00ec00ec    ....    DCD    15466732
        0x20001f7c:    00ec00ec    ....    DCD    15466732
        0x20001f80:    00b800ec    ....    DCD    12058860
        0x20001f84:    00ec00ec    ....    DCD    15466732
        0x20001f88:    00ec00ec    ....    DCD    15466732
        0x20001f8c:    00ec00ec    ....    DCD    15466732
        0x20001f90:    00ec00ec    ....    DCD    15466732
        0x20001f94:    00ec00ec    ....    DCD    15466732
        0x20001f98:    00f400f0    ....    DCD    15991024
        0x20001f9c:    00ec00ec    ....    DCD    15466732
        0x20001fa0:    005400ec    ..T.    DCD    5505260
        0x20001fa4:    00ec00ec    ....    DCD    15466732
        0x20001fa8:    005400ec    ..T.    DCD    5505260
        0x20001fac:    00ec00ec    ....    DCD    15466732
        0x20001fb0:    00f800ec    ....    DCD    16253164
        0x20001fb4:    00ec00ec    ....    DCD    15466732
        0x20001fb8:    00ec00fc    ....    DCD    15466748
        0x20001fbc:    00ec0100    ....    DCD    15466752
        0x20001fc0:    00b800ec    ....    DCD    12058860
    $t.14
        0x20001fc4:    f89a1003    ....    LDRB     r1,[r10,#3]
        0x20001fc8:    3925        %9      SUBS     r1,r1,#0x25
        0x20001fca:    2953        S)      CMP      r1,#0x53
        0x20001fcc:    f20080b2    ....    BHI.W    0x20002134 ; SEGGER_RTT_vprintf + 1652
        0x20001fd0:    e8dff011    ....    TBH      [pc,r1,LSL #1]
    $d.15
        0x20001fd4:    00b000a8    ....    DCD    11534504
        0x20001fd8:    00b000b0    ....    DCD    11534512
        0x20001fdc:    00b000b0    ....    DCD    11534512
        0x20001fe0:    00b000b0    ....    DCD    11534512
        0x20001fe4:    00b000b0    ....    DCD    11534512
        0x20001fe8:    00b000b0    ....    DCD    11534512
        0x20001fec:    00b000b0    ....    DCD    11534512
        0x20001ff0:    00b000b0    ....    DCD    11534512
        0x20001ff4:    00b000b0    ....    DCD    11534512
        0x20001ff8:    00b000b0    ....    DCD    11534512
        0x20001ffc:    00b000b0    ....    DCD    11534512
        0x20002000:    00b000b0    ....    DCD    11534512
        0x20002004:    00b000b0    ....    DCD    11534512
        0x20002008:    00b000b0    ....    DCD    11534512
        0x2000200c:    00b000b0    ....    DCD    11534512
        0x20002010:    00b000b0    ....    DCD    11534512
        0x20002014:    00b000b0    ....    DCD    11534512
        0x20002018:    00b000b0    ....    DCD    11534512
        0x2000201c:    00b000b0    ....    DCD    11534512
        0x20002020:    00b000b0    ....    DCD    11534512
        0x20002024:    00b000b0    ....    DCD    11534512
        0x20002028:    00b000b0    ....    DCD    11534512
        0x2000202c:    00b000b0    ....    DCD    11534512
        0x20002030:    00b000b0    ....    DCD    11534512
        0x20002034:    00b000b0    ....    DCD    11534512
        0x20002038:    006000b0    ..`.    DCD    6291632
        0x2000203c:    00b000b0    ....    DCD    11534512
        0x20002040:    00b000b0    ....    DCD    11534512
        0x20002044:    00b000b0    ....    DCD    11534512
        0x20002048:    00b000b0    ....    DCD    11534512
        0x2000204c:    00b000b0    ....    DCD    11534512
        0x20002050:    00d400b4    ....    DCD    13893812
        0x20002054:    00b000b0    ....    DCD    11534512
        0x20002058:    005400b0    ..T.    DCD    5505200
        0x2000205c:    00b000b0    ....    DCD    11534512
        0x20002060:    005400b0    ..T.    DCD    5505200
        0x20002064:    00b000b0    ....    DCD    11534512
        0x20002068:    017c00b0    ..|.    DCD    24903856
        0x2000206c:    00b000b0    ....    DCD    11534512
        0x20002070:    00b0018a    ....    DCD    11534730
        0x20002074:    00b001b8    ....    DCD    11534776
        0x20002078:    006000b0    ..`.    DCD    6291632
    $t.16
        0x2000207c:    f81a1f04    ....    LDRB     r1,[r10,#4]!
        0x20002080:    3925        %9      SUBS     r1,r1,#0x25
        0x20002082:    2953        S)      CMP      r1,#0x53
        0x20002084:    f67fae7e    ..~.    BLS      0x20001d84 ; SEGGER_RTT_vprintf + 708
        0x20002088:    e6dc        ..      B        0x20001e44 ; SEGGER_RTT_vprintf + 900
        0x2000208a:    bf00        ..      NOP      
        0x2000208c:    f10a0a02    ....    ADD      r10,r10,#2
        0x20002090:    e6cf        ..      B        0x20001e32 ; SEGGER_RTT_vprintf + 882
        0x20002092:    bf00        ..      NOP      
        0x20002094:    f10a0a03    ....    ADD      r10,r10,#3
        0x20002098:    e6cb        ..      B        0x20001e32 ; SEGGER_RTT_vprintf + 882
        0x2000209a:    bf00        ..      NOP      
        0x2000209c:    f10a0a01    ....    ADD      r10,r10,#1
        0x200020a0:    e9dd2019    ...     LDRD     r2,r0,[sp,#0x64]
        0x200020a4:    1c41        A.      ADDS     r1,r0,#1
        0x200020a6:    4291        .B      CMP      r1,r2
        0x200020a8:    d91f        ..      BLS      0x200020ea ; SEGGER_RTT_vprintf + 1578
        0x200020aa:    e05a        Z.      B        0x20002162 ; SEGGER_RTT_vprintf + 1698
        0x200020ac:    f10a0a01    ....    ADD      r10,r10,#1
        0x200020b0:    e6c8        ..      B        0x20001e44 ; SEGGER_RTT_vprintf + 900
        0x200020b2:    bf00        ..      NOP      
        0x200020b4:    f10a0a01    ....    ADD      r10,r10,#1
        0x200020b8:    e042        B.      B        0x20002140 ; SEGGER_RTT_vprintf + 1664
        0x200020ba:    bf00        ..      NOP      
        0x200020bc:    f10a0a01    ....    ADD      r10,r10,#1
        0x200020c0:    e05e        ^.      B        0x20002180 ; SEGGER_RTT_vprintf + 1728
        0x200020c2:    bf00        ..      NOP      
        0x200020c4:    f10a0a01    ....    ADD      r10,r10,#1
        0x200020c8:    e102        ..      B        0x200022d0 ; SEGGER_RTT_vprintf + 2064
        0x200020ca:    bf00        ..      NOP      
        0x200020cc:    f10a0a01    ....    ADD      r10,r10,#1
        0x200020d0:    e10c        ..      B        0x200022ec ; SEGGER_RTT_vprintf + 2092
        0x200020d2:    bf00        ..      NOP      
        0x200020d4:    f10a0a01    ....    ADD      r10,r10,#1
        0x200020d8:    e136        6.      B        0x20002348 ; SEGGER_RTT_vprintf + 2184
        0x200020da:    bf00        ..      NOP      
        0x200020dc:    f10a0a02    ....    ADD      r10,r10,#2
        0x200020e0:    e9dd2019    ...     LDRD     r2,r0,[sp,#0x64]
        0x200020e4:    1c41        A.      ADDS     r1,r0,#1
        0x200020e6:    4291        .B      CMP      r1,r2
        0x200020e8:    d83b        ;.      BHI      0x20002162 ; SEGGER_RTT_vprintf + 1698
        0x200020ea:    9a18        ..      LDR      r2,[sp,#0x60]
        0x200020ec:    2325        %#      MOVS     r3,#0x25
        0x200020ee:    5413        .T      STRB     r3,[r2,r0]
        0x200020f0:    e031        1.      B        0x20002156 ; SEGGER_RTT_vprintf + 1686
        0x200020f2:    bf00        ..      NOP      
        0x200020f4:    f10a0a02    ....    ADD      r10,r10,#2
        0x200020f8:    e6a4        ..      B        0x20001e44 ; SEGGER_RTT_vprintf + 900
        0x200020fa:    bf00        ..      NOP      
        0x200020fc:    f10a0a02    ....    ADD      r10,r10,#2
        0x20002100:    e01e        ..      B        0x20002140 ; SEGGER_RTT_vprintf + 1664
        0x20002102:    bf00        ..      NOP      
        0x20002104:    f10a0a02    ....    ADD      r10,r10,#2
        0x20002108:    e03a        :.      B        0x20002180 ; SEGGER_RTT_vprintf + 1728
        0x2000210a:    bf00        ..      NOP      
        0x2000210c:    f10a0a02    ....    ADD      r10,r10,#2
        0x20002110:    e0de        ..      B        0x200022d0 ; SEGGER_RTT_vprintf + 2064
        0x20002112:    bf00        ..      NOP      
        0x20002114:    f10a0a02    ....    ADD      r10,r10,#2
        0x20002118:    e0e8        ..      B        0x200022ec ; SEGGER_RTT_vprintf + 2092
        0x2000211a:    bf00        ..      NOP      
        0x2000211c:    f10a0a02    ....    ADD      r10,r10,#2
        0x20002120:    e112        ..      B        0x20002348 ; SEGGER_RTT_vprintf + 2184
        0x20002122:    bf00        ..      NOP      
        0x20002124:    f10a0a03    ....    ADD      r10,r10,#3
        0x20002128:    e9dd2019    ...     LDRD     r2,r0,[sp,#0x64]
        0x2000212c:    1c41        A.      ADDS     r1,r0,#1
        0x2000212e:    4291        .B      CMP      r1,r2
        0x20002130:    d9db        ..      BLS      0x200020ea ; SEGGER_RTT_vprintf + 1578
        0x20002132:    e016        ..      B        0x20002162 ; SEGGER_RTT_vprintf + 1698
        0x20002134:    f10a0a03    ....    ADD      r10,r10,#3
        0x20002138:    e684        ..      B        0x20001e44 ; SEGGER_RTT_vprintf + 900
        0x2000213a:    bf00        ..      NOP      
        0x2000213c:    f10a0a03    ....    ADD      r10,r10,#3
        0x20002140:    e9dd2019    ...     LDRD     r2,r0,[sp,#0x64]
        0x20002144:    6833        3h      LDR      r3,[r6,#0]
        0x20002146:    1c41        A.      ADDS     r1,r0,#1
        0x20002148:    1d1f        ..      ADDS     r7,r3,#4
        0x2000214a:    4291        .B      CMP      r1,r2
        0x2000214c:    6037        7`      STR      r7,[r6,#0]
        0x2000214e:    d808        ..      BHI      0x20002162 ; SEGGER_RTT_vprintf + 1698
        0x20002150:    681a        .h      LDR      r2,[r3,#0]
        0x20002152:    9b18        ..      LDR      r3,[sp,#0x60]
        0x20002154:    541a        .T      STRB     r2,[r3,r0]
        0x20002156:    981b        ..      LDR      r0,[sp,#0x6c]
        0x20002158:    9a19        ..      LDR      r2,[sp,#0x64]
        0x2000215a:    3001        .0      ADDS     r0,#1
        0x2000215c:    901b        ..      STR      r0,[sp,#0x6c]
        0x2000215e:    4608        .F      MOV      r0,r1
        0x20002160:    911a        ..      STR      r1,[sp,#0x68]
        0x20002162:    4290        .B      CMP      r0,r2
        0x20002164:    f47fae6e    ..n.    BNE      0x20001e44 ; SEGGER_RTT_vprintf + 900
        0x20002168:    9918        ..      LDR      r1,[sp,#0x60]
        0x2000216a:    981c        ..      LDR      r0,[sp,#0x70]
        0x2000216c:    f7fffb82    ....    BL       SEGGER_RTT_Write ; 0x20001874
        0x20002170:    991a        ..      LDR      r1,[sp,#0x68]
        0x20002172:    4288        .B      CMP      r0,r1
        0x20002174:    f04080e2    @...    BNE.W    0x2000233c ; SEGGER_RTT_vprintf + 2172
        0x20002178:    951a        ..      STR      r5,[sp,#0x68]
        0x2000217a:    e663        c.      B        0x20001e44 ; SEGGER_RTT_vprintf + 900
        0x2000217c:    f10a0a03    ....    ADD      r10,r10,#3
        0x20002180:    6831        1h      LDR      r1,[r6,#0]
        0x20002182:    1d0b        ..      ADDS     r3,r1,#4
        0x20002184:    6033        3`      STR      r3,[r6,#0]
        0x20002186:    680c        .h      LDR      r4,[r1,#0]
        0x20002188:    2c00        .,      CMP      r4,#0
        0x2000218a:    4621        !F      MOV      r1,r4
        0x2000218c:    f1c40300    ....    RSB      r3,r4,#0
        0x20002190:    bf48        H.      IT       MI
        0x20002192:    4619        .F      MOVMI    r1,r3
        0x20002194:    290a        .)      CMP      r1,#0xa
        0x20002196:    9306        ..      STR      r3,[sp,#0x18]
        0x20002198:    d31c        ..      BCC      0x200021d4 ; SEGGER_RTT_vprintf + 1812
        0x2000219a:    f04f0b02    O...    MOV      r11,#2
        0x2000219e:    f2427510    B..u    MOV      r5,#0x2710
        0x200021a2:    bf00        ..      NOP      
        0x200021a4:    2963        c)      CMP      r1,#0x63
        0x200021a6:    d917        ..      BLS      0x200021d8 ; SEGGER_RTT_vprintf + 1816
        0x200021a8:    f5b17f7a    ..z.    CMP      r1,#0x3e8
        0x200021ac:    f0c0813e    ..>.    BCC.W    0x2000242c ; SEGGER_RTT_vprintf + 2412
        0x200021b0:    42a9        .B      CMP      r1,r5
        0x200021b2:    f0c0813f    ..?.    BCC.W    0x20002434 ; SEGGER_RTT_vprintf + 2420
        0x200021b6:    fba13609    ...6    UMULL    r3,r6,r1,r9
        0x200021ba:    f248639f    H..c    MOV      r3,#0x869f
        0x200021be:    f2c00301    ....    MOVT     r3,#1
        0x200021c2:    4299        .B      CMP      r1,r3
        0x200021c4:    ea4f3156    O.V1    LSR      r1,r6,#13
        0x200021c8:    f10b0b04    ....    ADD      r11,r11,#4
        0x200021cc:    d8ea        ..      BHI      0x200021a4 ; SEGGER_RTT_vprintf + 1764
        0x200021ce:    f1ab0b01    ....    SUB      r11,r11,#1
        0x200021d2:    e001        ..      B        0x200021d8 ; SEGGER_RTT_vprintf + 1816
        0x200021d4:    f04f0b01    O...    MOV      r11,#1
        0x200021d8:    45bb        .E      CMP      r11,r7
        0x200021da:    f04f0500    O...    MOV      r5,#0
        0x200021de:    bf38        8.      IT       CC
        0x200021e0:    46bb        .F      MOVCC    r11,r7
        0x200021e2:    b16a        j.      CBZ      r2,0x20002200 ; SEGGER_RTT_vprintf + 1856
        0x200021e4:    2100        .!      MOVS     r1,#0
        0x200021e6:    2c00        .,      CMP      r4,#0
        0x200021e8:    bf48        H.      IT       MI
        0x200021ea:    2101        .!      MOVMI    r1,#1
        0x200021ec:    f0080304    ....    AND      r3,r8,#4
        0x200021f0:    ea410193    A...    ORR      r1,r1,r3,LSR #2
        0x200021f4:    eba20901    ....    SUB      r9,r2,r1
        0x200021f8:    f0180602    ....    ANDS     r6,r8,#2
        0x200021fc:    d105        ..      BNE      0x2000220a ; SEGGER_RTT_vprintf + 1866
        0x200021fe:    e02f        /.      B        0x20002260 ; SEGGER_RTT_vprintf + 1952
        0x20002200:    f04f0900    O...    MOV      r9,#0
        0x20002204:    f0180602    ....    ANDS     r6,r8,#2
        0x20002208:    d02a        *.      BEQ      0x20002260 ; SEGGER_RTT_vprintf + 1952
        0x2000220a:    bb4f        O.      CBNZ     r7,0x20002260 ; SEGGER_RTT_vprintf + 1952
        0x2000220c:    2800        .(      CMP      r0,#0
        0x2000220e:    f1008122    ..".    BMI.W    0x20002456 ; SEGGER_RTT_vprintf + 2454
        0x20002212:    f1b43fff    ...?    CMP      r4,#0xffffffff
        0x20002216:    f34080a1    @...    BLE.W    0x2000235c ; SEGGER_RTT_vprintf + 2204
        0x2000221a:    ea5f7048    _.Hp    LSLS     r0,r8,#29
        0x2000221e:    f14080b6    @...    BPL.W    0x2000238e ; SEGGER_RTT_vprintf + 2254
        0x20002222:    e9dd2019    ...     LDRD     r2,r0,[sp,#0x64]
        0x20002226:    1c41        A.      ADDS     r1,r0,#1
        0x20002228:    4291        .B      CMP      r1,r2
        0x2000222a:    d808        ..      BHI      0x2000223e ; SEGGER_RTT_vprintf + 1918
        0x2000222c:    9a18        ..      LDR      r2,[sp,#0x60]
        0x2000222e:    232b        +#      MOVS     r3,#0x2b
        0x20002230:    5413        .T      STRB     r3,[r2,r0]
        0x20002232:    981b        ..      LDR      r0,[sp,#0x6c]
        0x20002234:    9a19        ..      LDR      r2,[sp,#0x64]
        0x20002236:    3001        .0      ADDS     r0,#1
        0x20002238:    901b        ..      STR      r0,[sp,#0x6c]
        0x2000223a:    4608        .F      MOV      r0,r1
        0x2000223c:    911a        ..      STR      r1,[sp,#0x68]
        0x2000223e:    4290        .B      CMP      r0,r2
        0x20002240:    f04080a5    @...    BNE.W    0x2000238e ; SEGGER_RTT_vprintf + 2254
        0x20002244:    9918        ..      LDR      r1,[sp,#0x60]
        0x20002246:    981c        ..      LDR      r0,[sp,#0x70]
        0x20002248:    f7fffb14    ....    BL       SEGGER_RTT_Write ; 0x20001874
        0x2000224c:    991a        ..      LDR      r1,[sp,#0x68]
        0x2000224e:    4288        .B      CMP      r0,r1
        0x20002250:    f04080fe    @...    BNE.W    0x20002450 ; SEGGER_RTT_vprintf + 2448
        0x20002254:    951a        ..      STR      r5,[sp,#0x68]
        0x20002256:    981b        ..      LDR      r0,[sp,#0x6c]
        0x20002258:    2800        .(      CMP      r0,#0
        0x2000225a:    f140809b    @...    BPL.W    0x20002394 ; SEGGER_RTT_vprintf + 2260
        0x2000225e:    e0fa        ..      B        0x20002456 ; SEGGER_RTT_vprintf + 2454
        0x20002260:    ea5f71c8    _..q    LSLS     r1,r8,#31
        0x20002264:    d1d2        ..      BNE      0x2000220c ; SEGGER_RTT_vprintf + 1868
        0x20002266:    f1b90f00    ....    CMP      r9,#0
        0x2000226a:    d0cf        ..      BEQ      0x2000220c ; SEGGER_RTT_vprintf + 1868
        0x2000226c:    4659        YF      MOV      r1,r11
        0x2000226e:    9604        ..      STR      r6,[sp,#0x10]
        0x20002270:    45d9        .E      CMP      r9,r11
        0x20002272:    bf38        8.      IT       CC
        0x20002274:    4649        IF      MOVCC    r1,r9
        0x20002276:    f1090601    ....    ADD      r6,r9,#1
        0x2000227a:    f2417959    A.Yy    MOV      r9,#0x1759
        0x2000227e:    2500        .%      MOVS     r5,#0
        0x20002280:    f2cd19b7    ....    MOVT     r9,#0xd1b7
        0x20002284:    9103        ..      STR      r1,[sp,#0xc]
        0x20002286:    e004        ..      B        0x20002292 ; SEGGER_RTT_vprintf + 2002
        0x20002288:    981b        ..      LDR      r0,[sp,#0x6c]
        0x2000228a:    951a        ..      STR      r5,[sp,#0x68]
        0x2000228c:    2800        .(      CMP      r0,#0
        0x2000228e:    f10080b8    ....    BMI.W    0x20002402 ; SEGGER_RTT_vprintf + 2370
        0x20002292:    3e01        .>      SUBS     r6,#1
        0x20002294:    45b3        .E      CMP      r11,r6
        0x20002296:    f08080d1    ....    BCS.W    0x2000243c ; SEGGER_RTT_vprintf + 2428
        0x2000229a:    e9dd2119    ...!    LDRD     r2,r1,[sp,#0x64]
        0x2000229e:    1c4b        K.      ADDS     r3,r1,#1
        0x200022a0:    4293        .B      CMP      r3,r2
        0x200022a2:    d808        ..      BHI      0x200022b6 ; SEGGER_RTT_vprintf + 2038
        0x200022a4:    9818        ..      LDR      r0,[sp,#0x60]
        0x200022a6:    2220         "      MOVS     r2,#0x20
        0x200022a8:    5442        BT      STRB     r2,[r0,r1]
        0x200022aa:    981b        ..      LDR      r0,[sp,#0x6c]
        0x200022ac:    9a19        ..      LDR      r2,[sp,#0x64]
        0x200022ae:    3001        .0      ADDS     r0,#1
        0x200022b0:    4619        .F      MOV      r1,r3
        0x200022b2:    931a        ..      STR      r3,[sp,#0x68]
        0x200022b4:    901b        ..      STR      r0,[sp,#0x6c]
        0x200022b6:    4291        .B      CMP      r1,r2
        0x200022b8:    d1e8        ..      BNE      0x2000228c ; SEGGER_RTT_vprintf + 1996
        0x200022ba:    9918        ..      LDR      r1,[sp,#0x60]
        0x200022bc:    981c        ..      LDR      r0,[sp,#0x70]
        0x200022be:    f7fffad9    ....    BL       SEGGER_RTT_Write ; 0x20001874
        0x200022c2:    991a        ..      LDR      r1,[sp,#0x68]
        0x200022c4:    4288        .B      CMP      r0,r1
        0x200022c6:    d0df        ..      BEQ      0x20002288 ; SEGGER_RTT_vprintf + 1992
        0x200022c8:    e098        ..      B        0x200023fc ; SEGGER_RTT_vprintf + 2364
        0x200022ca:    bf00        ..      NOP      
        0x200022cc:    f10a0a03    ....    ADD      r10,r10,#3
        0x200022d0:    6830        0h      LDR      r0,[r6,#0]
        0x200022d2:    2210        ."      MOVS     r2,#0x10
        0x200022d4:    1d01        ..      ADDS     r1,r0,#4
        0x200022d6:    6031        1`      STR      r1,[r6,#0]
        0x200022d8:    6801        .h      LDR      r1,[r0,#0]
        0x200022da:    2008        .       MOVS     r0,#8
        0x200022dc:    9000        ..      STR      r0,[sp,#0]
        0x200022de:    4658        XF      MOV      r0,r11
        0x200022e0:    2308        .#      MOVS     r3,#8
        0x200022e2:    9501        ..      STR      r5,[sp,#4]
        0x200022e4:    f7ffbc07    ....    B.W      0x20001af6 ; SEGGER_RTT_vprintf + 54
        0x200022e8:    f10a0a03    ....    ADD      r10,r10,#3
        0x200022ec:    6831        1h      LDR      r1,[r6,#0]
        0x200022ee:    1d0a        ..      ADDS     r2,r1,#4
        0x200022f0:    6032        2`      STR      r2,[r6,#0]
        0x200022f2:    680c        .h      LDR      r4,[r1,#0]
        0x200022f4:    e008        ..      B        0x20002308 ; SEGGER_RTT_vprintf + 2120
        0x200022f6:    bf00        ..      NOP      
        0x200022f8:    981b        ..      LDR      r0,[sp,#0x6c]
        0x200022fa:    951a        ..      STR      r5,[sp,#0x68]
        0x200022fc:    f1b03fff    ...?    CMP      r0,#0xffffffff
        0x20002300:    f1040401    ....    ADD      r4,r4,#1
        0x20002304:    f77fad9e    ....    BLE      0x20001e44 ; SEGGER_RTT_vprintf + 900
        0x20002308:    7827        'x      LDRB     r7,[r4,#0]
        0x2000230a:    2f00        ./      CMP      r7,#0
        0x2000230c:    f43fad9a    ?...    BEQ      0x20001e44 ; SEGGER_RTT_vprintf + 900
        0x20002310:    e9dd2119    ...!    LDRD     r2,r1,[sp,#0x64]
        0x20002314:    1c4b        K.      ADDS     r3,r1,#1
        0x20002316:    4293        .B      CMP      r3,r2
        0x20002318:    d807        ..      BHI      0x2000232a ; SEGGER_RTT_vprintf + 2154
        0x2000231a:    9818        ..      LDR      r0,[sp,#0x60]
        0x2000231c:    5447        GT      STRB     r7,[r0,r1]
        0x2000231e:    981b        ..      LDR      r0,[sp,#0x6c]
        0x20002320:    9a19        ..      LDR      r2,[sp,#0x64]
        0x20002322:    3001        .0      ADDS     r0,#1
        0x20002324:    4619        .F      MOV      r1,r3
        0x20002326:    931a        ..      STR      r3,[sp,#0x68]
        0x20002328:    901b        ..      STR      r0,[sp,#0x6c]
        0x2000232a:    4291        .B      CMP      r1,r2
        0x2000232c:    d1e6        ..      BNE      0x200022fc ; SEGGER_RTT_vprintf + 2108
        0x2000232e:    9918        ..      LDR      r1,[sp,#0x60]
        0x20002330:    981c        ..      LDR      r0,[sp,#0x70]
        0x20002332:    f7fffa9f    ....    BL       SEGGER_RTT_Write ; 0x20001874
        0x20002336:    991a        ..      LDR      r1,[sp,#0x68]
        0x20002338:    4288        .B      CMP      r0,r1
        0x2000233a:    d0dd        ..      BEQ      0x200022f8 ; SEGGER_RTT_vprintf + 2104
        0x2000233c:    f04f30ff    O..0    MOV      r0,#0xffffffff
        0x20002340:    901b        ..      STR      r0,[sp,#0x6c]
        0x20002342:    e57f        ..      B        0x20001e44 ; SEGGER_RTT_vprintf + 900
        0x20002344:    f10a0a03    ....    ADD      r10,r10,#3
        0x20002348:    6830        0h      LDR      r0,[r6,#0]
        0x2000234a:    1d01        ..      ADDS     r1,r0,#4
        0x2000234c:    6031        1`      STR      r1,[r6,#0]
        0x2000234e:    6801        .h      LDR      r1,[r0,#0]
        0x20002350:    9200        ..      STR      r2,[sp,#0]
        0x20002352:    4658        XF      MOV      r0,r11
        0x20002354:    220a        ."      MOVS     r2,#0xa
        0x20002356:    f7ffbbcb    ....    B        0x20001af0 ; SEGGER_RTT_vprintf + 48
        0x2000235a:    bf00        ..      NOP      
        0x2000235c:    e9dd2019    ...     LDRD     r2,r0,[sp,#0x64]
        0x20002360:    1c41        A.      ADDS     r1,r0,#1
        0x20002362:    4291        .B      CMP      r1,r2
        0x20002364:    d808        ..      BHI      0x20002378 ; SEGGER_RTT_vprintf + 2232
        0x20002366:    9a18        ..      LDR      r2,[sp,#0x60]
        0x20002368:    232d        -#      MOVS     r3,#0x2d
        0x2000236a:    5413        .T      STRB     r3,[r2,r0]
        0x2000236c:    981b        ..      LDR      r0,[sp,#0x6c]
        0x2000236e:    9a19        ..      LDR      r2,[sp,#0x64]
        0x20002370:    3001        .0      ADDS     r0,#1
        0x20002372:    901b        ..      STR      r0,[sp,#0x6c]
        0x20002374:    4608        .F      MOV      r0,r1
        0x20002376:    911a        ..      STR      r1,[sp,#0x68]
        0x20002378:    4290        .B      CMP      r0,r2
        0x2000237a:    d163        c.      BNE      0x20002444 ; SEGGER_RTT_vprintf + 2436
        0x2000237c:    9918        ..      LDR      r1,[sp,#0x60]
        0x2000237e:    981c        ..      LDR      r0,[sp,#0x70]
        0x20002380:    f7fffa78    ..x.    BL       SEGGER_RTT_Write ; 0x20001874
        0x20002384:    991a        ..      LDR      r1,[sp,#0x68]
        0x20002386:    4288        .B      CMP      r0,r1
        0x20002388:    d162        b.      BNE      0x20002450 ; SEGGER_RTT_vprintf + 2448
        0x2000238a:    9c06        ..      LDR      r4,[sp,#0x18]
        0x2000238c:    951a        ..      STR      r5,[sp,#0x68]
        0x2000238e:    981b        ..      LDR      r0,[sp,#0x6c]
        0x20002390:    2800        .(      CMP      r0,#0
        0x20002392:    d460        `.      BMI      0x20002456 ; SEGGER_RTT_vprintf + 2454
        0x20002394:    b3d6        ..      CBZ      r6,0x2000240c ; SEGGER_RTT_vprintf + 2380
        0x20002396:    f0080101    ....    AND      r1,r8,#1
        0x2000239a:    4339        9C      ORRS     r1,r1,r7
        0x2000239c:    d136        6.      BNE      0x2000240c ; SEGGER_RTT_vprintf + 2380
        0x2000239e:    f1b90f00    ....    CMP      r9,#0
        0x200023a2:    d033        3.      BEQ      0x2000240c ; SEGGER_RTT_vprintf + 2380
        0x200023a4:    9406        ..      STR      r4,[sp,#0x18]
        0x200023a6:    465c        \F      MOV      r4,r11
        0x200023a8:    45d9        .E      CMP      r9,r11
        0x200023aa:    bf38        8.      IT       CC
        0x200023ac:    464c        LF      MOVCC    r4,r9
        0x200023ae:    f1090601    ....    ADD      r6,r9,#1
        0x200023b2:    f2417959    A.Yy    MOV      r9,#0x1759
        0x200023b6:    2500        .%      MOVS     r5,#0
        0x200023b8:    f2cd19b7    ....    MOVT     r9,#0xd1b7
        0x200023bc:    e004        ..      B        0x200023c8 ; SEGGER_RTT_vprintf + 2312
        0x200023be:    bf00        ..      NOP      
        0x200023c0:    981b        ..      LDR      r0,[sp,#0x6c]
        0x200023c2:    951a        ..      STR      r5,[sp,#0x68]
        0x200023c4:    2800        .(      CMP      r0,#0
        0x200023c6:    d41c        ..      BMI      0x20002402 ; SEGGER_RTT_vprintf + 2370
        0x200023c8:    3e01        .>      SUBS     r6,#1
        0x200023ca:    45b3        .E      CMP      r11,r6
        0x200023cc:    d24e        N.      BCS      0x2000246c ; SEGGER_RTT_vprintf + 2476
        0x200023ce:    e9dd2119    ...!    LDRD     r2,r1,[sp,#0x64]
        0x200023d2:    1c4b        K.      ADDS     r3,r1,#1
        0x200023d4:    4293        .B      CMP      r3,r2
        0x200023d6:    d808        ..      BHI      0x200023ea ; SEGGER_RTT_vprintf + 2346
        0x200023d8:    9818        ..      LDR      r0,[sp,#0x60]
        0x200023da:    2230        0"      MOVS     r2,#0x30
        0x200023dc:    5442        BT      STRB     r2,[r0,r1]
        0x200023de:    981b        ..      LDR      r0,[sp,#0x6c]
        0x200023e0:    9a19        ..      LDR      r2,[sp,#0x64]
        0x200023e2:    3001        .0      ADDS     r0,#1
        0x200023e4:    4619        .F      MOV      r1,r3
        0x200023e6:    931a        ..      STR      r3,[sp,#0x68]
        0x200023e8:    901b        ..      STR      r0,[sp,#0x6c]
        0x200023ea:    4291        .B      CMP      r1,r2
        0x200023ec:    d1ea        ..      BNE      0x200023c4 ; SEGGER_RTT_vprintf + 2308
        0x200023ee:    9918        ..      LDR      r1,[sp,#0x60]
        0x200023f0:    981c        ..      LDR      r0,[sp,#0x70]
        0x200023f2:    f7fffa3f    ..?.    BL       SEGGER_RTT_Write ; 0x20001874
        0x200023f6:    991a        ..      LDR      r1,[sp,#0x68]
        0x200023f8:    4288        .B      CMP      r0,r1
        0x200023fa:    d0e1        ..      BEQ      0x200023c0 ; SEGGER_RTT_vprintf + 2304
        0x200023fc:    f04f30ff    O..0    MOV      r0,#0xffffffff
        0x20002400:    901b        ..      STR      r0,[sp,#0x6c]
        0x20002402:    9e07        ..      LDR      r6,[sp,#0x1c]
        0x20002404:    f10d0b60    ..`.    ADD      r11,sp,#0x60
        0x20002408:    f7ffbd1c    ....    B.W      0x20001e44 ; SEGGER_RTT_vprintf + 900
        0x2000240c:    9e07        ..      LDR      r6,[sp,#0x1c]
        0x2000240e:    f10d0b60    ..`.    ADD      r11,sp,#0x60
        0x20002412:    4658        XF      MOV      r0,r11
        0x20002414:    4621        !F      MOV      r1,r4
        0x20002416:    220a        ."      MOVS     r2,#0xa
        0x20002418:    463b        ;F      MOV      r3,r7
        0x2000241a:    f8cd9000    ....    STR      r9,[sp,#0]
        0x2000241e:    f8cd8004    ....    STR      r8,[sp,#4]
        0x20002422:    f000f9ed    ....    BL       _PrintUnsigned ; 0x20002800
        0x20002426:    2500        .%      MOVS     r5,#0
        0x20002428:    e019        ..      B        0x2000245e ; SEGGER_RTT_vprintf + 2462
        0x2000242a:    bf00        ..      NOP      
        0x2000242c:    f10b0b01    ....    ADD      r11,r11,#1
        0x20002430:    e6d2        ..      B        0x200021d8 ; SEGGER_RTT_vprintf + 1816
        0x20002432:    bf00        ..      NOP      
        0x20002434:    f10b0b02    ....    ADD      r11,r11,#2
        0x20002438:    e6ce        ..      B        0x200021d8 ; SEGGER_RTT_vprintf + 1816
        0x2000243a:    bf00        ..      NOP      
        0x2000243c:    e9dd9603    ....    LDRD     r9,r6,[sp,#0xc]
        0x20002440:    2500        .%      MOVS     r5,#0
        0x20002442:    e6e3        ..      B        0x2000220c ; SEGGER_RTT_vprintf + 1868
        0x20002444:    9c06        ..      LDR      r4,[sp,#0x18]
        0x20002446:    981b        ..      LDR      r0,[sp,#0x6c]
        0x20002448:    2800        .(      CMP      r0,#0
        0x2000244a:    d5a3        ..      BPL      0x20002394 ; SEGGER_RTT_vprintf + 2260
        0x2000244c:    e003        ..      B        0x20002456 ; SEGGER_RTT_vprintf + 2454
        0x2000244e:    bf00        ..      NOP      
        0x20002450:    f04f30ff    O..0    MOV      r0,#0xffffffff
        0x20002454:    901b        ..      STR      r0,[sp,#0x6c]
        0x20002456:    9e07        ..      LDR      r6,[sp,#0x1c]
        0x20002458:    2500        .%      MOVS     r5,#0
        0x2000245a:    f10d0b60    ..`.    ADD      r11,sp,#0x60
        0x2000245e:    f2417959    A.Yy    MOV      r9,#0x1759
        0x20002462:    f2cd19b7    ....    MOVT     r9,#0xd1b7
        0x20002466:    f7ffbced    ....    B.W      0x20001e44 ; SEGGER_RTT_vprintf + 900
        0x2000246a:    bf00        ..      NOP      
        0x2000246c:    46a1        .F      MOV      r9,r4
        0x2000246e:    9e07        ..      LDR      r6,[sp,#0x1c]
        0x20002470:    9c06        ..      LDR      r4,[sp,#0x18]
        0x20002472:    e7cc        ..      B        0x2000240e ; SEGGER_RTT_vprintf + 2382
        0x20002474:    2801        .(      CMP      r0,#1
        0x20002476:    db0f        ..      BLT      0x20002498 ; SEGGER_RTT_vprintf + 2520
        0x20002478:    9a1a        ..      LDR      r2,[sp,#0x68]
        0x2000247a:    b18a        ..      CBZ      r2,0x200024a0 ; SEGGER_RTT_vprintf + 2528
        0x2000247c:    9805        ..      LDR      r0,[sp,#0x14]
        0x2000247e:    a908        ..      ADD      r1,sp,#0x20
        0x20002480:    f7fff9f8    ....    BL       SEGGER_RTT_Write ; 0x20001874
        0x20002484:    e9dd101a    ....    LDRD     r1,r0,[sp,#0x68]
        0x20002488:    e00b        ..      B        0x200024a2 ; SEGGER_RTT_vprintf + 2530
        0x2000248a:    bf00        ..      NOP      
        0x2000248c:    f04f30ff    O..0    MOV      r0,#0xffffffff
        0x20002490:    b01d        ..      ADD      sp,sp,#0x74
        0x20002492:    e8bd8ff0    ....    POP      {r4-r11,pc}
        0x20002496:    bf00        ..      NOP      
        0x20002498:    2000        .       MOVS     r0,#0
        0x2000249a:    b01d        ..      ADD      sp,sp,#0x74
        0x2000249c:    e8bd8ff0    ....    POP      {r4-r11,pc}
        0x200024a0:    2100        .!      MOVS     r1,#0
        0x200024a2:    4408        .D      ADD      r0,r0,r1
        0x200024a4:    b01d        ..      ADD      sp,sp,#0x74
        0x200024a6:    e8bd8ff0    ....    POP      {r4-r11,pc}
        0x200024aa:    0000        ..      MOVS     r0,r0
    SERIAL_PutChar
        0x200024ac:    f6444110    D..A    MOV      r1,#0x4c10
        0x200024b0:    f2c40100    ....    MOVT     r1,#0x4000
        0x200024b4:    680a        .h      LDR      r2,[r1,#0]
        0x200024b6:    0512        ..      LSLS     r2,r2,#20
        0x200024b8:    d509        ..      BPL      0x200024ce ; SERIAL_PutChar + 34
        0x200024ba:    680a        .h      LDR      r2,[r1,#0]
        0x200024bc:    0512        ..      LSLS     r2,r2,#20
        0x200024be:    bf44        D.      ITT      MI
        0x200024c0:    680a        .h      LDRMI    r2,[r1,#0]
        0x200024c2:    ea5f5202    _..R    LSLSMI   r2,r2,#20
        0x200024c6:    d502        ..      BPL      0x200024ce ; SERIAL_PutChar + 34
        0x200024c8:    680a        .h      LDR      r2,[r1,#0]
        0x200024ca:    0512        ..      LSLS     r2,r2,#20
        0x200024cc:    d4f2        ..      BMI      0x200024b4 ; SERIAL_PutChar + 8
        0x200024ce:    f8410c10    A...    STR      r0,[r1,#-0x10]
        0x200024d2:    4770        pG      BX       lr
    SPI0_Handler
        0x200024d4:    4770        pG      BX       lr
        0x200024d6:    0000        ..      MOVS     r0,r0
    SPI1_Handler
        0x200024d8:    4770        pG      BX       lr
        0x200024da:    0000        ..      MOVS     r0,r0
    SVC_Handler
        0x200024dc:    4770        pG      BX       lr
        0x200024de:    0000        ..      MOVS     r0,r0
    SysTick_Handler
        0x200024e0:    f2461020    F. .    MOV      r0,#0x6120
        0x200024e4:    f2c20001    ....    MOVT     r0,#0x2001
        0x200024e8:    6801        .h      LDR      r1,[r0,#0]
        0x200024ea:    b111        ..      CBZ      r1,0x200024f2 ; SysTick_Handler + 18
        0x200024ec:    6801        .h      LDR      r1,[r0,#0]
        0x200024ee:    3901        .9      SUBS     r1,#1
        0x200024f0:    6001        .`      STR      r1,[r0,#0]
        0x200024f2:    f646302c    F.,0    MOV      r0,#0x6b2c
        0x200024f6:    f2c20001    ....    MOVT     r0,#0x2001
        0x200024fa:    6801        .h      LDR      r1,[r0,#0]
        0x200024fc:    3101        .1      ADDS     r1,#1
        0x200024fe:    6001        .`      STR      r1,[r0,#0]
        0x20002500:    4770        pG      BX       lr
        0x20002502:    0000        ..      MOVS     r0,r0
    SystemInit
        0x20002504:    b580        ..      PUSH     {r7,lr}
        0x20002506:    b083        ..      SUB      sp,sp,#0xc
        0x20002508:    f6450010    E...    MOV      r0,#0x5810
        0x2000250c:    f2c40000    ....    MOVT     r0,#0x4000
        0x20002510:    6a81        .j      LDR      r1,[r0,#0x28]
        0x20002512:    f2410e0c    A...    MOV      lr,#0x100c
        0x20002516:    f0210101    !...    BIC      r1,r1,#1
        0x2000251a:    6281        .b      STR      r1,[r0,#0x28]
        0x2000251c:    6a42        Bj      LDR      r2,[r0,#0x24]
        0x2000251e:    f2c40e02    ....    MOVT     lr,#0x4002
        0x20002522:    f0220201    "...    BIC      r2,r2,#1
        0x20002526:    6242        Bb      STR      r2,[r0,#0x24]
        0x20002528:    f8de2000    ...     LDR      r2,[lr,#0]
        0x2000252c:    f2436300    C..c    MOVW     r3,#0x3600
        0x20002530:    f0220240    ".@.    BIC      r2,r2,#0x40
        0x20002534:    f8ce2000    ...     STR      r2,[lr,#0]
        0x20002538:    f240021c    @...    MOVW     r2,#0x1c
        0x2000253c:    f2c20201    ....    MOVT     r2,#0x2001
        0x20002540:    f2c0136e    ..n.    MOVT     r3,#0x16e
        0x20002544:    6013        .`      STR      r3,[r2,#0]
        0x20002546:    f24a0218    J...    MOV      r2,#0xa018
        0x2000254a:    f2c00201    ....    MOVT     r2,#1
        0x2000254e:    6042        B`      STR      r2,[r0,#4]
        0x20002550:    f6405211    @..R    MOV      r2,#0xd11
        0x20002554:    6002        .`      STR      r2,[r0,#0]
        0x20002556:    6802        .h      LDR      r2,[r0,#0]
        0x20002558:    f0420210    B...    ORR      r2,r2,#0x10
        0x2000255c:    6002        .`      STR      r2,[r0,#0]
        0x2000255e:    bf00        ..      NOP      
        0x20002560:    6802        .h      LDR      r2,[r0,#0]
        0x20002562:    f1b23fff    ...?    CMP      r2,#0xffffffff
        0x20002566:    dd09        ..      BLE      0x2000257c ; SystemInit + 120
        0x20002568:    6801        .h      LDR      r1,[r0,#0]
        0x2000256a:    2900        .)      CMP      r1,#0
        0x2000256c:    d406        ..      BMI      0x2000257c ; SystemInit + 120
        0x2000256e:    6801        .h      LDR      r1,[r0,#0]
        0x20002570:    2900        .)      CMP      r1,#0
        0x20002572:    d403        ..      BMI      0x2000257c ; SystemInit + 120
        0x20002574:    6801        .h      LDR      r1,[r0,#0]
        0x20002576:    f1b13fff    ...?    CMP      r1,#0xffffffff
        0x2000257a:    dcf1        ..      BGT      0x20002560 ; SystemInit + 92
        0x2000257c:    f64f0200    O...    MOVW     r2,#0xf800
        0x20002580:    23f0        .#      MOVS     r3,#0xf0
        0x20002582:    f2c40200    ....    MOVT     r2,#0x4000
        0x20002586:    f2ca53a5    ...S    MOVT     r3,#0xa5a5
        0x2000258a:    f04f0c00    O...    MOV      r12,#0
        0x2000258e:    6013        .`      STR      r3,[r2,#0]
        0x20002590:    f8cdc000    ....    STR      r12,[sp,#0]
        0x20002594:    9b00        ..      LDR      r3,[sp,#0]
        0x20002596:    f6430280    C...    MOVW     r2,#0x3880
        0x2000259a:    f2c00201    ....    MOVT     r2,#1
        0x2000259e:    4293        .B      CMP      r3,r2
        0x200025a0:    da18        ..      BGE      0x200025d4 ; SystemInit + 208
        0x200025a2:    bf00        ..      NOP      
        0x200025a4:    9b00        ..      LDR      r3,[sp,#0]
        0x200025a6:    3301        .3      ADDS     r3,#1
        0x200025a8:    9300        ..      STR      r3,[sp,#0]
        0x200025aa:    9b00        ..      LDR      r3,[sp,#0]
        0x200025ac:    4293        .B      CMP      r3,r2
        0x200025ae:    da11        ..      BGE      0x200025d4 ; SystemInit + 208
        0x200025b0:    9900        ..      LDR      r1,[sp,#0]
        0x200025b2:    3101        .1      ADDS     r1,#1
        0x200025b4:    9100        ..      STR      r1,[sp,#0]
        0x200025b6:    9900        ..      LDR      r1,[sp,#0]
        0x200025b8:    4291        .B      CMP      r1,r2
        0x200025ba:    da0b        ..      BGE      0x200025d4 ; SystemInit + 208
        0x200025bc:    9900        ..      LDR      r1,[sp,#0]
        0x200025be:    3101        .1      ADDS     r1,#1
        0x200025c0:    9100        ..      STR      r1,[sp,#0]
        0x200025c2:    9900        ..      LDR      r1,[sp,#0]
        0x200025c4:    4291        .B      CMP      r1,r2
        0x200025c6:    da05        ..      BGE      0x200025d4 ; SystemInit + 208
        0x200025c8:    9900        ..      LDR      r1,[sp,#0]
        0x200025ca:    3101        .1      ADDS     r1,#1
        0x200025cc:    9100        ..      STR      r1,[sp,#0]
        0x200025ce:    9900        ..      LDR      r1,[sp,#0]
        0x200025d0:    4291        .B      CMP      r1,r2
        0x200025d2:    dbe7        ..      BLT      0x200025a4 ; SystemInit + 160
        0x200025d4:    f8de3000    ...0    LDR      r3,[lr,#0]
        0x200025d8:    f64f71fc    O..q    MOV      r1,#0xfffc
        0x200025dc:    4019        .@      ANDS     r1,r1,r3
        0x200025de:    3102        .1      ADDS     r1,#2
        0x200025e0:    f8ce1000    ....    STR      r1,[lr,#0]
        0x200025e4:    f8cdc008    ....    STR      r12,[sp,#8]
        0x200025e8:    9902        ..      LDR      r1,[sp,#8]
        0x200025ea:    4291        .B      CMP      r1,r2
        0x200025ec:    da18        ..      BGE      0x20002620 ; SystemInit + 284
        0x200025ee:    bf00        ..      NOP      
        0x200025f0:    9902        ..      LDR      r1,[sp,#8]
        0x200025f2:    3101        .1      ADDS     r1,#1
        0x200025f4:    9102        ..      STR      r1,[sp,#8]
        0x200025f6:    9902        ..      LDR      r1,[sp,#8]
        0x200025f8:    4291        .B      CMP      r1,r2
        0x200025fa:    da11        ..      BGE      0x20002620 ; SystemInit + 284
        0x200025fc:    9902        ..      LDR      r1,[sp,#8]
        0x200025fe:    3101        .1      ADDS     r1,#1
        0x20002600:    9102        ..      STR      r1,[sp,#8]
        0x20002602:    9902        ..      LDR      r1,[sp,#8]
        0x20002604:    4291        .B      CMP      r1,r2
        0x20002606:    da0b        ..      BGE      0x20002620 ; SystemInit + 284
        0x20002608:    9902        ..      LDR      r1,[sp,#8]
        0x2000260a:    3101        .1      ADDS     r1,#1
        0x2000260c:    9102        ..      STR      r1,[sp,#8]
        0x2000260e:    9902        ..      LDR      r1,[sp,#8]
        0x20002610:    4291        .B      CMP      r1,r2
        0x20002612:    da05        ..      BGE      0x20002620 ; SystemInit + 284
        0x20002614:    9902        ..      LDR      r1,[sp,#8]
        0x20002616:    3101        .1      ADDS     r1,#1
        0x20002618:    9102        ..      STR      r1,[sp,#8]
        0x2000261a:    9902        ..      LDR      r1,[sp,#8]
        0x2000261c:    4291        .B      CMP      r1,r2
        0x2000261e:    dbe7        ..      BLT      0x200025f0 ; SystemInit + 236
        0x20002620:    f8de1000    ....    LDR      r1,[lr,#0]
        0x20002624:    f64f437f    O..C    MOV      r3,#0xfc7f
        0x20002628:    f4416180    A..a    ORR      r1,r1,#0x400
        0x2000262c:    f8ce1000    ....    STR      r1,[lr,#0]
        0x20002630:    f8de1000    ....    LDR      r1,[lr,#0]
        0x20002634:    4019        .@      ANDS     r1,r1,r3
        0x20002636:    f8ce1000    ....    STR      r1,[lr,#0]
        0x2000263a:    2100        .!      MOVS     r1,#0
        0x2000263c:    9101        ..      STR      r1,[sp,#4]
        0x2000263e:    9901        ..      LDR      r1,[sp,#4]
        0x20002640:    4291        .B      CMP      r1,r2
        0x20002642:    da17        ..      BGE      0x20002674 ; SystemInit + 368
        0x20002644:    9901        ..      LDR      r1,[sp,#4]
        0x20002646:    3101        .1      ADDS     r1,#1
        0x20002648:    9101        ..      STR      r1,[sp,#4]
        0x2000264a:    9901        ..      LDR      r1,[sp,#4]
        0x2000264c:    4291        .B      CMP      r1,r2
        0x2000264e:    da11        ..      BGE      0x20002674 ; SystemInit + 368
        0x20002650:    9901        ..      LDR      r1,[sp,#4]
        0x20002652:    3101        .1      ADDS     r1,#1
        0x20002654:    9101        ..      STR      r1,[sp,#4]
        0x20002656:    9901        ..      LDR      r1,[sp,#4]
        0x20002658:    4291        .B      CMP      r1,r2
        0x2000265a:    da0b        ..      BGE      0x20002674 ; SystemInit + 368
        0x2000265c:    9901        ..      LDR      r1,[sp,#4]
        0x2000265e:    3101        .1      ADDS     r1,#1
        0x20002660:    9101        ..      STR      r1,[sp,#4]
        0x20002662:    9901        ..      LDR      r1,[sp,#4]
        0x20002664:    4291        .B      CMP      r1,r2
        0x20002666:    da05        ..      BGE      0x20002674 ; SystemInit + 368
        0x20002668:    9901        ..      LDR      r1,[sp,#4]
        0x2000266a:    3101        .1      ADDS     r1,#1
        0x2000266c:    9101        ..      STR      r1,[sp,#4]
        0x2000266e:    9901        ..      LDR      r1,[sp,#4]
        0x20002670:    4291        .B      CMP      r1,r2
        0x20002672:    dbe7        ..      BLT      0x20002644 ; SystemInit + 320
        0x20002674:    f8501c08    P...    LDR      r1,[r0,#-8]
        0x20002678:    f0410101    A...    ORR      r1,r1,#1
        0x2000267c:    f8401c08    @...    STR      r1,[r0,#-8]
        0x20002680:    b003        ..      ADD      sp,sp,#0xc
        0x20002682:    bd80        ..      POP      {r7,pc}
    TMR0_Handler
        0x20002684:    b5b0        ..      PUSH     {r4,r5,r7,lr}
        0x20002686:    f2410400    A...    MOVW     r4,#0x1000
        0x2000268a:    f2c40400    ....    MOVT     r4,#0x4000
        0x2000268e:    4620         F      MOV      r0,r4
        0x20002690:    2110        .!      MOVS     r1,#0x10
        0x20002692:    f7feff65    ..e.    BL       PWM_GetFlagStatus ; 0x20001560
        0x20002696:    2800        .(      CMP      r0,#0
        0x20002698:    bf08        ..      IT       EQ
        0x2000269a:    bdb0        ..      POPEQ    {r4,r5,r7,pc}
        0x2000269c:    f24650cc    F..P    MOV      r0,#0x65cc
        0x200026a0:    f2c20001    ....    MOVT     r0,#0x2001
        0x200026a4:    8805        ..      LDRH     r5,[r0,#0]
        0x200026a6:    f5044070    ..p@    ADD      r0,r4,#0xf000
        0x200026aa:    f44f6100    O..a    MOV      r1,#0x800
        0x200026ae:    f7fefe51    ..Q.    BL       GPIO_ReadInputDataBit ; 0x20001354
        0x200026b2:    2800        .(      CMP      r0,#0
        0x200026b4:    f2400004    @...    MOVW     r0,#4
        0x200026b8:    bf18        ..      IT       NE
        0x200026ba:    f5053580    ...5    ADDNE    r5,r5,#0x10000
        0x200026be:    f2c20001    ....    MOVT     r0,#0x2001
        0x200026c2:    4629        )F      MOV      r1,r5
        0x200026c4:    f7fefdea    ....    BL       FIFO_WriteOneData ; 0x2000129c
        0x200026c8:    4620         F      MOV      r0,r4
        0x200026ca:    2110        .!      MOVS     r1,#0x10
        0x200026cc:    e8bd40b0    ...@    POP      {r4,r5,r7,lr}
        0x200026d0:    f7febf3c    ..<.    B        PWM_ClearFlag ; 0x2000154c
    TMR1_Handler
        0x200026d4:    4770        pG      BX       lr
        0x200026d6:    0000        ..      MOVS     r0,r0
    TMR2_Handler
        0x200026d8:    4770        pG      BX       lr
        0x200026da:    0000        ..      MOVS     r0,r0
    TMR3_Handler
        0x200026dc:    4770        pG      BX       lr
        0x200026de:    0000        ..      MOVS     r0,r0
    TMR4_Handler
        0x200026e0:    4770        pG      BX       lr
        0x200026e2:    0000        ..      MOVS     r0,r0
    TMR5_Handler
        0x200026e4:    4770        pG      BX       lr
        0x200026e6:    0000        ..      MOVS     r0,r0
    UART0_Handler
        0x200026e8:    4770        pG      BX       lr
        0x200026ea:    0000        ..      MOVS     r0,r0
    UART1_Handler
        0x200026ec:    4770        pG      BX       lr
        0x200026ee:    0000        ..      MOVS     r0,r0
    UART2_Handler
        0x200026f0:    b5b0        ..      PUSH     {r4,r5,r7,lr}
        0x200026f2:    f6444000    D..@    MOVW     r0,#0x4c00
        0x200026f6:    f2c40000    ....    MOVT     r0,#0x4000
        0x200026fa:    6804        .h      LDR      r4,[r0,#0]
        0x200026fc:    f64625a4    F..%    MOV      r5,#0x6aa4
        0x20002700:    f2c20501    ....    MOVT     r5,#0x2001
        0x20002704:    b2e0        ..      UXTB     r0,r4
        0x20002706:    4629        )F      MOV      r1,r5
        0x20002708:    f000fa36    ..6.    BL       ansi_get_char ; 0x20002b78
        0x2000270c:    280d        .(      CMP      r0,#0xd
        0x2000270e:    d10a        ..      BNE      0x20002726 ; UART2_Handler + 54
        0x20002710:    f2400020    @. .    MOVW     r0,#0x20
        0x20002714:    f1050108    ....    ADD      r1,r5,#8
        0x20002718:    f2c20001    ....    MOVT     r0,#0x2001
        0x2000271c:    f001fbdc    ....    BL       shell_parser ; 0x20003ed8
        0x20002720:    4628        (F      MOV      r0,r5
        0x20002722:    f000fa21    ..!.    BL       ansi_clear_current_line ; 0x20002b68
        0x20002726:    a103        ..      ADR      r1,{pc}+0xe ; 0x20002734
        0x20002728:    2000        .       MOVS     r0,#0
        0x2000272a:    4622        "F      MOV      r2,r4
        0x2000272c:    e8bd40b0    ...@    POP      {r4,r5,r7,lr}
        0x20002730:    f7ffb9b6    ....    B        SEGGER_RTT_printf ; 0x20001aa0
    $d.20
        0x20002734:    3a766572    rev:    DCD    980837746
        0x20002738:    25783020     0x%    DCD    628633632
        0x2000273c:    0d583230    02X.    DCD    223883824
        0x20002740:    0000000a    ....    DCD    10
    $t.2
    UART_Cmd
        0x20002744:    6842        Bh      LDR      r2,[r0,#4]
        0x20002746:    2900        .)      CMP      r1,#0
        0x20002748:    f0220280    "...    BIC      r2,r2,#0x80
        0x2000274c:    bf18        ..      IT       NE
        0x2000274e:    3280        .2      ADDNE    r2,r2,#0x80
        0x20002750:    6042        B`      STR      r2,[r0,#4]
        0x20002752:    4770        pG      BX       lr
    UART_ITConfig
        0x20002754:    2a00        .*      CMP      r2,#0
        0x20002756:    68c2        .h      LDR      r2,[r0,#0xc]
        0x20002758:    bf0c        ..      ITE      EQ
        0x2000275a:    ea220101    "...    BICEQ    r1,r2,r1
        0x2000275e:    4311        .C      ORRNE    r1,r1,r2
        0x20002760:    60c1        .`      STR      r1,[r0,#0xc]
        0x20002762:    4770        pG      BX       lr
    UART_Init
        0x20002764:    b580        ..      PUSH     {r7,lr}
        0x20002766:    f64f72ff    O..r    MOV      r2,#0xffff
        0x2000276a:    6202        .b      STR      r2,[r0,#0x20]
        0x2000276c:    f04f32ff    O..2    MOV      r2,#0xffffffff
        0x20002770:    61c2        .a      STR      r2,[r0,#0x1c]
        0x20002772:    f8b1c004    ....    LDRH     r12,[r1,#4]
        0x20002776:    88cb        ..      LDRH     r3,[r1,#6]
        0x20002778:    890a        ..      LDRH     r2,[r1,#8]
        0x2000277a:    ea43030c    C...    ORR      r3,r3,r12
        0x2000277e:    431a        .C      ORRS     r2,r2,r3
        0x20002780:    6042        B`      STR      r2,[r0,#4]
        0x20002782:    8a0a        ..      LDRH     r2,[r1,#0x10]
        0x20002784:    6843        Ch      LDR      r3,[r0,#4]
        0x20002786:    2a00        .*      CMP      r2,#0
        0x20002788:    f4237380    #..s    BIC      r3,r3,#0x100
        0x2000278c:    bf18        ..      IT       NE
        0x2000278e:    f5037380    ...s    ADDNE    r3,r3,#0x100
        0x20002792:    6043        C`      STR      r3,[r0,#4]
        0x20002794:    f8d1c000    ....    LDR      r12,[r1,#0]
        0x20002798:    68ca        .h      LDR      r2,[r1,#0xc]
        0x2000279a:    f8d1e014    ....    LDR      lr,[r1,#0x14]
        0x2000279e:    fb0cf302    ....    MUL      r3,r12,r2
        0x200027a2:    fbbef1f3    ....    UDIV     r1,lr,r3
        0x200027a6:    fb01ee13    ....    MLS      lr,r1,r3,lr
        0x200027aa:    0853        S.      LSRS     r3,r2,#1
        0x200027ac:    fb03f30c    ....    MUL      r3,r3,r12
        0x200027b0:    459e        .E      CMP      lr,r3
        0x200027b2:    bf88        ..      IT       HI
        0x200027b4:    3101        .1      ADDHI    r1,#1
        0x200027b6:    b289        ..      UXTH     r1,r1
        0x200027b8:    2a04        .*      CMP      r2,#4
        0x200027ba:    6081        .`      STR      r1,[r0,#8]
        0x200027bc:    d00c        ..      BEQ      0x200027d8 ; UART_Init + 116
        0x200027be:    2a08        .*      CMP      r2,#8
        0x200027c0:    d014        ..      BEQ      0x200027ec ; UART_Init + 136
        0x200027c2:    2a10        .*      CMP      r2,#0x10
        0x200027c4:    bf18        ..      IT       NE
        0x200027c6:    bd80        ..      POPNE    {r7,pc}
        0x200027c8:    6881        .h      LDR      r1,[r0,#8]
        0x200027ca:    f4213140    !.@1    BIC      r1,r1,#0x30000
        0x200027ce:    6081        .`      STR      r1,[r0,#8]
        0x200027d0:    6881        .h      LDR      r1,[r0,#8]
        0x200027d2:    6081        .`      STR      r1,[r0,#8]
        0x200027d4:    bd80        ..      POP      {r7,pc}
        0x200027d6:    bf00        ..      NOP      
        0x200027d8:    6881        .h      LDR      r1,[r0,#8]
        0x200027da:    f4213140    !.@1    BIC      r1,r1,#0x30000
        0x200027de:    6081        .`      STR      r1,[r0,#8]
        0x200027e0:    6881        .h      LDR      r1,[r0,#8]
        0x200027e2:    f4413180    A..1    ORR      r1,r1,#0x10000
        0x200027e6:    6081        .`      STR      r1,[r0,#8]
        0x200027e8:    bd80        ..      POP      {r7,pc}
        0x200027ea:    bf00        ..      NOP      
        0x200027ec:    6881        .h      LDR      r1,[r0,#8]
        0x200027ee:    f4213140    !.@1    BIC      r1,r1,#0x30000
        0x200027f2:    6081        .`      STR      r1,[r0,#8]
        0x200027f4:    6881        .h      LDR      r1,[r0,#8]
        0x200027f6:    f4413100    A..1    ORR      r1,r1,#0x20000
        0x200027fa:    6081        .`      STR      r1,[r0,#8]
        0x200027fc:    bd80        ..      POP      {r7,pc}
        0x200027fe:    0000        ..      MOVS     r0,r0
    _PrintUnsigned
        0x20002800:    e92d4ff0    -..O    PUSH     {r4-r11,lr}
        0x20002804:    b083        ..      SUB      sp,sp,#0xc
        0x20002806:    468b        .F      MOV      r11,r1
        0x20002808:    e9dd910c    ....    LDRD     r9,r1,[sp,#0x30]
        0x2000280c:    461f        .F      MOV      r7,r3
        0x2000280e:    4615        .F      MOV      r5,r2
        0x20002810:    4593        .E      CMP      r11,r2
        0x20002812:    4604        .F      MOV      r4,r0
        0x20002814:    d202        ..      BCS      0x2000281c ; _PrintUnsigned + 28
        0x20002816:    f04f0801    O...    MOV      r8,#1
        0x2000281a:    e01f        ..      B        0x2000285c ; _PrintUnsigned + 92
        0x2000281c:    f04f0802    O...    MOV      r8,#2
        0x20002820:    4658        XF      MOV      r0,r11
        0x20002822:    bf00        ..      NOP      
        0x20002824:    fbb0f0f5    ....    UDIV     r0,r0,r5
        0x20002828:    42a8        .B      CMP      r0,r5
        0x2000282a:    d317        ..      BCC      0x2000285c ; _PrintUnsigned + 92
        0x2000282c:    fbb0f0f5    ....    UDIV     r0,r0,r5
        0x20002830:    42a8        .B      CMP      r0,r5
        0x20002832:    d30d        ..      BCC      0x20002850 ; _PrintUnsigned + 80
        0x20002834:    fbb0f0f5    ....    UDIV     r0,r0,r5
        0x20002838:    42a8        .B      CMP      r0,r5
        0x2000283a:    d30d        ..      BCC      0x20002858 ; _PrintUnsigned + 88
        0x2000283c:    fbb0f0f5    ....    UDIV     r0,r0,r5
        0x20002840:    f1080804    ....    ADD      r8,r8,#4
        0x20002844:    42a8        .B      CMP      r0,r5
        0x20002846:    d2ed        ..      BCS      0x20002824 ; _PrintUnsigned + 36
        0x20002848:    f1a80801    ....    SUB      r8,r8,#1
        0x2000284c:    e006        ..      B        0x2000285c ; _PrintUnsigned + 92
        0x2000284e:    bf00        ..      NOP      
        0x20002850:    f1080801    ....    ADD      r8,r8,#1
        0x20002854:    e002        ..      B        0x2000285c ; _PrintUnsigned + 92
        0x20002856:    bf00        ..      NOP      
        0x20002858:    f1080802    ....    ADD      r8,r8,#2
        0x2000285c:    45b8        .E      CMP      r8,r7
        0x2000285e:    bf38        8.      IT       CC
        0x20002860:    46b8        .F      MOVCC    r8,r7
        0x20002862:    f1b90f00    ....    CMP      r9,#0
        0x20002866:    f0010001    ....    AND      r0,r1,#1
        0x2000286a:    9002        ..      STR      r0,[sp,#8]
        0x2000286c:    d035        5.      BEQ      0x200028da ; _PrintUnsigned + 218
        0x2000286e:    bba0        ..      CBNZ     r0,0x200028da ; _PrintUnsigned + 218
        0x20002870:    0788        ..      LSLS     r0,r1,#30
        0x20002872:    f04f0620    O. .    MOV      r6,#0x20
        0x20002876:    f04f0020    O. .    MOV      r0,#0x20
        0x2000287a:    bf48        H.      IT       MI
        0x2000287c:    2630        0&      MOVMI    r6,#0x30
        0x2000287e:    2f00        ./      CMP      r7,#0
        0x20002880:    bf18        ..      IT       NE
        0x20002882:    4606        .F      MOVNE    r6,r0
        0x20002884:    4640        @F      MOV      r0,r8
        0x20002886:    f04f0a00    O...    MOV      r10,#0
        0x2000288a:    45c8        .E      CMP      r8,r9
        0x2000288c:    bf88        ..      IT       HI
        0x2000288e:    4648        HF      MOVHI    r0,r9
        0x20002890:    9001        ..      STR      r0,[sp,#4]
        0x20002892:    e005        ..      B        0x200028a0 ; _PrintUnsigned + 160
        0x20002894:    f8c4a008    ....    STR      r10,[r4,#8]
        0x20002898:    68e0        .h      LDR      r0,[r4,#0xc]
        0x2000289a:    f1b03fff    ...?    CMP      r0,#0xffffffff
        0x2000289e:    dd1c        ..      BLE      0x200028da ; _PrintUnsigned + 218
        0x200028a0:    45c8        .E      CMP      r8,r9
        0x200028a2:    d26f        o.      BCS      0x20002984 ; _PrintUnsigned + 388
        0x200028a4:    e9d42001    ...     LDRD     r2,r0,[r4,#4]
        0x200028a8:    1c41        A.      ADDS     r1,r0,#1
        0x200028aa:    4291        .B      CMP      r1,r2
        0x200028ac:    d807        ..      BHI      0x200028be ; _PrintUnsigned + 190
        0x200028ae:    6822        "h      LDR      r2,[r4,#0]
        0x200028b0:    5416        .T      STRB     r6,[r2,r0]
        0x200028b2:    68e0        .h      LDR      r0,[r4,#0xc]
        0x200028b4:    6862        bh      LDR      r2,[r4,#4]
        0x200028b6:    3001        .0      ADDS     r0,#1
        0x200028b8:    60e0        .`      STR      r0,[r4,#0xc]
        0x200028ba:    4608        .F      MOV      r0,r1
        0x200028bc:    60a1        .`      STR      r1,[r4,#8]
        0x200028be:    4290        .B      CMP      r0,r2
        0x200028c0:    f1a90901    ....    SUB      r9,r9,#1
        0x200028c4:    d1e8        ..      BNE      0x20002898 ; _PrintUnsigned + 152
        0x200028c6:    6821        !h      LDR      r1,[r4,#0]
        0x200028c8:    6920         i      LDR      r0,[r4,#0x10]
        0x200028ca:    f7feffd3    ....    BL       SEGGER_RTT_Write ; 0x20001874
        0x200028ce:    68a1        .h      LDR      r1,[r4,#8]
        0x200028d0:    4288        .B      CMP      r0,r1
        0x200028d2:    d0df        ..      BEQ      0x20002894 ; _PrintUnsigned + 148
        0x200028d4:    f04f30ff    O..0    MOV      r0,#0xffffffff
        0x200028d8:    60e0        .`      STR      r0,[r4,#0xc]
        0x200028da:    68e0        .h      LDR      r0,[r4,#0xc]
        0x200028dc:    2800        .(      CMP      r0,#0
        0x200028de:    d460        `.      BMI      0x200029a2 ; _PrintUnsigned + 418
        0x200028e0:    2601        .&      MOVS     r6,#1
        0x200028e2:    e001        ..      B        0x200028e8 ; _PrintUnsigned + 232
        0x200028e4:    3f01        .?      SUBS     r7,#1
        0x200028e6:    436e        nC      MULS     r6,r5,r6
        0x200028e8:    2f02        ./      CMP      r7,#2
        0x200028ea:    d301        ..      BCC      0x200028f0 ; _PrintUnsigned + 240
        0x200028ec:    3f01        .?      SUBS     r7,#1
        0x200028ee:    e003        ..      B        0x200028f8 ; _PrintUnsigned + 248
        0x200028f0:    fbbbf1f6    ....    UDIV     r1,r11,r6
        0x200028f4:    42a9        .B      CMP      r1,r5
        0x200028f6:    d31b        ..      BCC      0x20002930 ; _PrintUnsigned + 304
        0x200028f8:    2f01        ./      CMP      r7,#1
        0x200028fa:    fb05f606    ....    MUL      r6,r5,r6
        0x200028fe:    d901        ..      BLS      0x20002904 ; _PrintUnsigned + 260
        0x20002900:    3f01        .?      SUBS     r7,#1
        0x20002902:    e003        ..      B        0x2000290c ; _PrintUnsigned + 268
        0x20002904:    fbbbf1f6    ....    UDIV     r1,r11,r6
        0x20002908:    42a9        .B      CMP      r1,r5
        0x2000290a:    d311        ..      BCC      0x20002930 ; _PrintUnsigned + 304
        0x2000290c:    2f01        ./      CMP      r7,#1
        0x2000290e:    fb05f606    ....    MUL      r6,r5,r6
        0x20002912:    d901        ..      BLS      0x20002918 ; _PrintUnsigned + 280
        0x20002914:    3f01        .?      SUBS     r7,#1
        0x20002916:    e003        ..      B        0x20002920 ; _PrintUnsigned + 288
        0x20002918:    fbbbf1f6    ....    UDIV     r1,r11,r6
        0x2000291c:    42a9        .B      CMP      r1,r5
        0x2000291e:    d307        ..      BCC      0x20002930 ; _PrintUnsigned + 304
        0x20002920:    2f01        ./      CMP      r7,#1
        0x20002922:    fb05f606    ....    MUL      r6,r5,r6
        0x20002926:    d8dd        ..      BHI      0x200028e4 ; _PrintUnsigned + 228
        0x20002928:    fbbbf1f6    ....    UDIV     r1,r11,r6
        0x2000292c:    42a9        .B      CMP      r1,r5
        0x2000292e:    d2da        ..      BCS      0x200028e6 ; _PrintUnsigned + 230
        0x20002930:    68a1        .h      LDR      r1,[r4,#8]
        0x20002932:    f20f0ac8    ....    ADR.W    r10,{pc}+0xca ; 0x200029fc
        0x20002936:    bf00        ..      NOP      
        0x20002938:    6862        bh      LDR      r2,[r4,#4]
        0x2000293a:    fbbbf7f6    ....    UDIV     r7,r11,r6
        0x2000293e:    1c4b        K.      ADDS     r3,r1,#1
        0x20002940:    4293        .B      CMP      r3,r2
        0x20002942:    d809        ..      BHI      0x20002958 ; _PrintUnsigned + 344
        0x20002944:    f81a0007    ....    LDRB     r0,[r10,r7]
        0x20002948:    6822        "h      LDR      r2,[r4,#0]
        0x2000294a:    5450        PT      STRB     r0,[r2,r1]
        0x2000294c:    68e0        .h      LDR      r0,[r4,#0xc]
        0x2000294e:    6862        bh      LDR      r2,[r4,#4]
        0x20002950:    3001        .0      ADDS     r0,#1
        0x20002952:    4619        .F      MOV      r1,r3
        0x20002954:    60a3        .`      STR      r3,[r4,#8]
        0x20002956:    60e0        .`      STR      r0,[r4,#0xc]
        0x20002958:    4291        .B      CMP      r1,r2
        0x2000295a:    d109        ..      BNE      0x20002970 ; _PrintUnsigned + 368
        0x2000295c:    6821        !h      LDR      r1,[r4,#0]
        0x2000295e:    6920         i      LDR      r0,[r4,#0x10]
        0x20002960:    f7feff88    ....    BL       SEGGER_RTT_Write ; 0x20001874
        0x20002964:    68a1        .h      LDR      r1,[r4,#8]
        0x20002966:    4288        .B      CMP      r0,r1
        0x20002968:    d112        ..      BNE      0x20002990 ; _PrintUnsigned + 400
        0x2000296a:    68e0        .h      LDR      r0,[r4,#0xc]
        0x2000296c:    2100        .!      MOVS     r1,#0
        0x2000296e:    60a1        .`      STR      r1,[r4,#8]
        0x20002970:    2800        .(      CMP      r0,#0
        0x20002972:    d410        ..      BMI      0x20002996 ; _PrintUnsigned + 406
        0x20002974:    fbb6f2f5    ....    UDIV     r2,r6,r5
        0x20002978:    fb07bb16    ....    MLS      r11,r7,r6,r11
        0x2000297c:    42ae        .B      CMP      r6,r5
        0x2000297e:    4616        .F      MOV      r6,r2
        0x20002980:    d2da        ..      BCS      0x20002938 ; _PrintUnsigned + 312
        0x20002982:    e008        ..      B        0x20002996 ; _PrintUnsigned + 406
        0x20002984:    f8dd9004    ....    LDR      r9,[sp,#4]
        0x20002988:    68e0        .h      LDR      r0,[r4,#0xc]
        0x2000298a:    2800        .(      CMP      r0,#0
        0x2000298c:    d5a8        ..      BPL      0x200028e0 ; _PrintUnsigned + 224
        0x2000298e:    e008        ..      B        0x200029a2 ; _PrintUnsigned + 418
        0x20002990:    f04f30ff    O..0    MOV      r0,#0xffffffff
        0x20002994:    60e0        .`      STR      r0,[r4,#0xc]
        0x20002996:    9a02        ..      LDR      r2,[sp,#8]
        0x20002998:    2a00        .*      CMP      r2,#0
        0x2000299a:    bf18        ..      IT       NE
        0x2000299c:    f1b90f00    ....    CMPNE    r9,#0
        0x200029a0:    d102        ..      BNE      0x200029a8 ; _PrintUnsigned + 424
        0x200029a2:    b003        ..      ADD      sp,sp,#0xc
        0x200029a4:    e8bd8ff0    ....    POP      {r4-r11,pc}
        0x200029a8:    f1090501    ....    ADD      r5,r9,#1
        0x200029ac:    2620         &      MOVS     r6,#0x20
        0x200029ae:    e002        ..      B        0x200029b6 ; _PrintUnsigned + 438
        0x200029b0:    f1b03fff    ...?    CMP      r0,#0xffffffff
        0x200029b4:    ddf5        ..      BLE      0x200029a2 ; _PrintUnsigned + 418
        0x200029b6:    3d01        .=      SUBS     r5,#1
        0x200029b8:    45a8        .E      CMP      r8,r5
        0x200029ba:    d2f2        ..      BCS      0x200029a2 ; _PrintUnsigned + 418
        0x200029bc:    6862        bh      LDR      r2,[r4,#4]
        0x200029be:    1c4b        K.      ADDS     r3,r1,#1
        0x200029c0:    4293        .B      CMP      r3,r2
        0x200029c2:    d807        ..      BHI      0x200029d4 ; _PrintUnsigned + 468
        0x200029c4:    6820         h      LDR      r0,[r4,#0]
        0x200029c6:    5446        FT      STRB     r6,[r0,r1]
        0x200029c8:    68e0        .h      LDR      r0,[r4,#0xc]
        0x200029ca:    6862        bh      LDR      r2,[r4,#4]
        0x200029cc:    3001        .0      ADDS     r0,#1
        0x200029ce:    4619        .F      MOV      r1,r3
        0x200029d0:    60a3        .`      STR      r3,[r4,#8]
        0x200029d2:    60e0        .`      STR      r0,[r4,#0xc]
        0x200029d4:    4291        .B      CMP      r1,r2
        0x200029d6:    d1eb        ..      BNE      0x200029b0 ; _PrintUnsigned + 432
        0x200029d8:    6821        !h      LDR      r1,[r4,#0]
        0x200029da:    6920         i      LDR      r0,[r4,#0x10]
        0x200029dc:    f7feff4a    ..J.    BL       SEGGER_RTT_Write ; 0x20001874
        0x200029e0:    68a1        .h      LDR      r1,[r4,#8]
        0x200029e2:    4288        .B      CMP      r0,r1
        0x200029e4:    d104        ..      BNE      0x200029f0 ; _PrintUnsigned + 496
        0x200029e6:    68e0        .h      LDR      r0,[r4,#0xc]
        0x200029e8:    2100        .!      MOVS     r1,#0
        0x200029ea:    60a1        .`      STR      r1,[r4,#8]
        0x200029ec:    e7e0        ..      B        0x200029b0 ; _PrintUnsigned + 432
        0x200029ee:    bf00        ..      NOP      
        0x200029f0:    f04f30ff    O..0    MOV      r0,#0xffffffff
        0x200029f4:    60e0        .`      STR      r0,[r4,#0xc]
        0x200029f6:    b003        ..      ADD      sp,sp,#0xc
        0x200029f8:    e8bd8ff0    ....    POP      {r4-r11,pc}
    $d.18
    _PrintUnsigned._aV2C
        0x200029fc:    33323130    0123    DCD    858927408
        0x20002a00:    37363534    4567    DCD    926299444
        0x20002a04:    42413938    89AB    DCD    1111570744
        0x20002a08:    46454443    CDEF    DCD    1178944579
    $t.9
    __NVIC_SystemReset
        0x20002a0c:    f64e500c    N..P    MOV      r0,#0xed0c
        0x20002a10:    f3bf8f4f    ..O.    DSB      
        0x20002a14:    f2ce0000    ....    MOVT     r0,#0xe000
        0x20002a18:    6801        .h      LDR      r1,[r0,#0]
        0x20002a1a:    2204        ."      MOVS     r2,#4
        0x20002a1c:    f40161e0    ...a    AND      r1,r1,#0x700
        0x20002a20:    f2c052fa    ...R    MOVT     r2,#0x5fa
        0x20002a24:    4311        .C      ORRS     r1,r1,r2
        0x20002a26:    6001        .`      STR      r1,[r0,#0]
        0x20002a28:    f3bf8f4f    ..O.    DSB      
        0x20002a2c:    bf00        ..      NOP      
        0x20002a2e:    bf00        ..      NOP      
        0x20002a30:    bf00        ..      NOP      
        0x20002a32:    bf00        ..      NOP      
        0x20002a34:    e7fa        ..      B        0x20002a2c ; __NVIC_SystemReset + 32
        0x20002a36:    0000        ..      MOVS     r0,r0
    _shell_init
        0x20002a38:    b5b0        ..      PUSH     {r4,r5,r7,lr}
        0x20002a3a:    4604        .F      MOV      r4,r0
        0x20002a3c:    a029        ).      ADR      r0,{pc}+0xa8 ; 0x20002ae4
        0x20002a3e:    f001fce9    ....    BL       __0printf$8 ; 0x20004414
        0x20002a42:    f64430a4    D..0    MOV      r0,#0x4ba4
        0x20002a46:    f2c20000    ....    MOVT     r0,#0x2000
        0x20002a4a:    f001ff37    ..7.    BL       puts ; 0x200048bc
        0x20002a4e:    f64430cd    D..0    MOV      r0,#0x4bcd
        0x20002a52:    f2c20000    ....    MOVT     r0,#0x2000
        0x20002a56:    f001ff31    ..1.    BL       puts ; 0x200048bc
        0x20002a5a:    f644401f    D..@    MOV      r0,#0x4c1f
        0x20002a5e:    f2c20000    ....    MOVT     r0,#0x2000
        0x20002a62:    f001ff2b    ..+.    BL       puts ; 0x200048bc
        0x20002a66:    f6444048    D.H@    MOV      r0,#0x4c48
        0x20002a6a:    f2c20000    ....    MOVT     r0,#0x2000
        0x20002a6e:    f001ff25    ..%.    BL       puts ; 0x200048bc
        0x20002a72:    f64430f6    D..0    MOV      r0,#0x4bf6
        0x20002a76:    f2c20000    ....    MOVT     r0,#0x2000
        0x20002a7a:    f001ff1f    ....    BL       puts ; 0x200048bc
        0x20002a7e:    f6444071    D.q@    MOV      r0,#0x4c71
        0x20002a82:    f2c20000    ....    MOVT     r0,#0x2000
        0x20002a86:    f001ff19    ....    BL       puts ; 0x200048bc
        0x20002a8a:    a019        ..      ADR      r0,{pc}+0x66 ; 0x20002af0
        0x20002a8c:    f001fcc2    ....    BL       __0printf$8 ; 0x20004414
        0x20002a90:    f644409a    D..@    MOV      r0,#0x4c9a
        0x20002a94:    f2c20000    ....    MOVT     r0,#0x2000
        0x20002a98:    f001fcbc    ....    BL       __0printf$8 ; 0x20004414
        0x20002a9c:    a016        ..      ADR      r0,{pc}+0x5c ; 0x20002af8
        0x20002a9e:    f001ff0d    ....    BL       puts ; 0x200048bc
        0x20002aa2:    a01a        ..      ADR      r0,{pc}+0x6a ; 0x20002b0c
        0x20002aa4:    f001ff0a    ....    BL       puts ; 0x200048bc
        0x20002aa8:    a11e        ..      ADR      r1,{pc}+0x7c ; 0x20002b24
        0x20002aaa:    2000        .       MOVS     r0,#0
        0x20002aac:    2500        .%      MOVS     r5,#0
        0x20002aae:    f7fefff7    ....    BL       SEGGER_RTT_printf ; 0x20001aa0
        0x20002ab2:    a021        !.      ADR      r0,{pc}+0x86 ; 0x20002b38
        0x20002ab4:    a126        &.      ADR      r1,{pc}+0x9c ; 0x20002b50
        0x20002ab6:    a228        (.      ADR      r2,{pc}+0xa2 ; 0x20002b58
        0x20002ab8:    f001fcac    ....    BL       __0printf$8 ; 0x20004414
        0x20002abc:    f64430a1    D..0    MOV      r0,#0x4ba1
        0x20002ac0:    f2c20000    ....    MOVT     r0,#0x2000
        0x20002ac4:    4621        !F      MOV      r1,r4
        0x20002ac6:    f001fca5    ....    BL       __0printf$8 ; 0x20004414
        0x20002aca:    f8445f24    D.$_    STR      r5,[r4,#0x24]!
        0x20002ace:    a124        $.      ADR      r1,{pc}+0x92 ; 0x20002b60
        0x20002ad0:    4620         F      MOV      r0,r4
        0x20002ad2:    80a5        ..      STRH     r5,[r4,#4]
        0x20002ad4:    60a5        .`      STR      r5,[r4,#8]
        0x20002ad6:    81a5        ..      STRH     r5,[r4,#0xc]
        0x20002ad8:    f001f8b0    ....    BL       shell_his_queue_add_cmd ; 0x20003c3c
        0x20002adc:    2001        .       MOVS     r0,#1
        0x20002ade:    80e0        ..      STRH     r0,[r4,#6]
        0x20002ae0:    bdb0        ..      POP      {r4,r5,r7,pc}
        0x20002ae2:    bf00        ..      NOP      
    $d.1
        0x20002ae4:    5b1b0a0d    ...[    DCD    1528498701
        0x20002ae8:    313b3633    36;1    DCD    825964083
        0x20002aec:    0000006d    m...    DCD    109
        0x20002af0:    5b1b0a0d    ...[    DCD    1528498701
        0x20002af4:    00006d30    0m..    DCD    27952
        0x20002af8:    73726556    Vers    DCD    1936876886
        0x20002afc:    3a6e6f69    ion:    DCD    980316009
        0x20002b00:    20202020            DCD    538976288
        0x20002b04:    302e3120     1.0    DCD    808333600
        0x20002b08:    000d302e    .0..    DCD    864302
        0x20002b0c:    79706f43    Copy    DCD    2037411651
        0x20002b10:    68676972    righ    DCD    1751607666
        0x20002b14:    20203a74    t:      DCD    538983028
        0x20002b18:    32303220     202    DCD    842019360
        0x20002b1c:    65622032    2 be    DCD    1700929586
        0x20002b20:    000d6174    ta..    DCD    876916
        0x20002b24:    636d6172    ramc    DCD    1668112754
        0x20002b28:    2065646f    ode     DCD    543515759
        0x20002b2c:    676f7270    prog    DCD    1735357040
        0x20002b30:    0d6d6172    ram.    DCD    225272178
        0x20002b34:    0000000a    ....    DCD    10
        0x20002b38:    61727325    %sra    DCD    1634890533
        0x20002b3c:    646f636d    mcod    DCD    1685021549
        0x20002b40:    20732565    e%s     DCD    544417125
        0x20002b44:    676f7270    prog    DCD    1735357040
        0x20002b48:    0d6d6172    ram.    DCD    225272178
        0x20002b4c:    0000000a    ....    DCD    10
        0x20002b50:    3b345b1b    .[4;    DCD    993286939
        0x20002b54:    006d3434    44m.    DCD    7156788
        0x20002b58:    6d305b1b    .[0m    DCD    1831885595
        0x20002b5c:    00000000    ....    DCD    0
        0x20002b60:    6320736c    ls c    DCD    1663071084
        0x20002b64:    0000646d    md..    DCD    25709
    $t.2
    ansi_clear_current_line
        0x20002b68:    2100        .!      MOVS     r1,#0
        0x20002b6a:    f64f72ff    O..r    MOV      r2,#0xffff
        0x20002b6e:    6041        A`      STR      r1,[r0,#4]
        0x20002b70:    8002        ..      STRH     r2,[r0,#0]
        0x20002b72:    7201        .r      STRB     r1,[r0,#8]
        0x20002b74:    4770        pG      BX       lr
        0x20002b76:    0000        ..      MOVS     r0,r0
    ansi_get_char
        0x20002b78:    b5b0        ..      PUSH     {r4,r5,r7,lr}
        0x20002b7a:    4604        .F      MOV      r4,r0
        0x20002b7c:    287f        .(      CMP      r0,#0x7f
        0x20002b7e:    f8910081    ....    LDRB     r0,[r1,#0x81]
        0x20002b82:    460d        .F      MOV      r5,r1
        0x20002b84:    bf08        ..      IT       EQ
        0x20002b86:    2408        .$      MOVEQ    r4,#8
        0x20002b88:    2802        .(      CMP      r0,#2
        0x20002b8a:    d00f        ..      BEQ      0x20002bac ; ansi_get_char + 52
        0x20002b8c:    2800        .(      CMP      r0,#0
        0x20002b8e:    d12f        /.      BNE      0x20002bf0 ; ansi_get_char + 120
        0x20002b90:    f1a40208    ....    SUB      r2,r4,#8
        0x20002b94:    2a05        .*      CMP      r2,#5
        0x20002b96:    d845        E.      BHI      0x20002c24 ; ansi_get_char + 172
        0x20002b98:    2000        .       MOVS     r0,#0
        0x20002b9a:    2101        .!      MOVS     r1,#1
        0x20002b9c:    e8dff002    ....    TBB      [pc,r2]
    $d.4
        0x20002ba0:    423e0445    E.>B    DCD    1111360581
        0x20002ba4:    bf005042    BP..    DCD    3204468802
    $t.5
        0x20002ba8:    2003        .       MOVS     r0,#3
        0x20002baa:    e04a        J.      B        0x20002c42 ; ansi_get_char + 202
        0x20002bac:    f8950080    ....    LDRB     r0,[r5,#0x80]
        0x20002bb0:    f1a40161    ..a.    SUB      r1,r4,#0x61
        0x20002bb4:    b2c9        ..      UXTB     r1,r1
        0x20002bb6:    4428        (D      ADD      r0,r0,r5
        0x20002bb8:    291a        .)      CMP      r1,#0x1a
        0x20002bba:    f880406c    ..l@    STRB     r4,[r0,#0x6c]
        0x20002bbe:    d21d        ..      BCS      0x20002bfc ; ansi_get_char + 132
        0x20002bc0:    f6441180    D...    MOVW     r1,#0x4980
        0x20002bc4:    f04f30ff    O..0    MOV      r0,#0xffffffff
        0x20002bc8:    f2c20100    ....    MOVT     r1,#0x2000
        0x20002bcc:    2813        .(      CMP      r0,#0x13
        0x20002bce:    d053        S.      BEQ      0x20002c78 ; ansi_get_char + 256
        0x20002bd0:    180a        ..      ADDS     r2,r1,r0
        0x20002bd2:    7853        Sx      LDRB     r3,[r2,#1]
        0x20002bd4:    42a3        .B      CMP      r3,r4
        0x20002bd6:    d04f        O.      BEQ      0x20002c78 ; ansi_get_char + 256
        0x20002bd8:    7893        .x      LDRB     r3,[r2,#2]
        0x20002bda:    42a3        .B      CMP      r3,r4
        0x20002bdc:    d054        T.      BEQ      0x20002c88 ; ansi_get_char + 272
        0x20002bde:    78d3        .x      LDRB     r3,[r2,#3]
        0x20002be0:    42a3        .B      CMP      r3,r4
        0x20002be2:    d053        S.      BEQ      0x20002c8c ; ansi_get_char + 276
        0x20002be4:    7912        .y      LDRB     r2,[r2,#4]
        0x20002be6:    3004        .0      ADDS     r0,#4
        0x20002be8:    42a2        .B      CMP      r2,r4
        0x20002bea:    d1ef        ..      BNE      0x20002bcc ; ansi_get_char + 84
        0x20002bec:    e04f        O.      B        0x20002c8e ; ansi_get_char + 278
        0x20002bee:    bf00        ..      NOP      
        0x20002bf0:    2000        .       MOVS     r0,#0
        0x20002bf2:    f8850081    ....    STRB     r0,[r5,#0x81]
        0x20002bf6:    4620         F      MOV      r0,r4
        0x20002bf8:    bdb0        ..      POP      {r4,r5,r7,pc}
        0x20002bfa:    bf00        ..      NOP      
        0x20002bfc:    2c7e        ~,      CMP      r4,#0x7e
        0x20002bfe:    d0df        ..      BEQ      0x20002bc0 ; ansi_get_char + 72
        0x20002c00:    f1a40041    ..A.    SUB      r0,r4,#0x41
        0x20002c04:    b2c0        ..      UXTB     r0,r0
        0x20002c06:    2819        .(      CMP      r0,#0x19
        0x20002c08:    d9da        ..      BLS      0x20002bc0 ; ansi_get_char + 72
        0x20002c0a:    f8950080    ....    LDRB     r0,[r5,#0x80]
        0x20002c0e:    2813        .(      CMP      r0,#0x13
        0x20002c10:    d327        '.      BCC      0x20002c62 ; ansi_get_char + 234
        0x20002c12:    2000        .       MOVS     r0,#0
        0x20002c14:    f8a50080    ....    STRH     r0,[r5,#0x80]
        0x20002c18:    4620         F      MOV      r0,r4
        0x20002c1a:    bdb0        ..      POP      {r4,r5,r7,pc}
        0x20002c1c:    2101        .!      MOVS     r1,#1
        0x20002c1e:    2001        .       MOVS     r0,#1
        0x20002c20:    b921        !.      CBNZ     r1,0x20002c2c ; ansi_get_char + 180
        0x20002c22:    e011        ..      B        0x20002c48 ; ansi_get_char + 208
        0x20002c24:    f04f30ff    O..0    MOV      r0,#0xffffffff
        0x20002c28:    2100        .!      MOVS     r1,#0
        0x20002c2a:    b169        i.      CBZ      r1,0x20002c48 ; ansi_get_char + 208
        0x20002c2c:    f64411e8    D...    MOV      r1,#0x49e8
        0x20002c30:    f2c20100    ....    MOVT     r1,#0x2000
        0x20002c34:    f8511020    Q. .    LDR      r1,[r1,r0,LSL #2]
        0x20002c38:    4628        (F      MOV      r0,r5
        0x20002c3a:    4788        .G      BLX      r1
        0x20002c3c:    4620         F      MOV      r0,r4
        0x20002c3e:    bdb0        ..      POP      {r4,r5,r7,pc}
        0x20002c40:    2002        .       MOVS     r0,#2
        0x20002c42:    2101        .!      MOVS     r1,#1
        0x20002c44:    2900        .)      CMP      r1,#0
        0x20002c46:    d1f1        ..      BNE      0x20002c2c ; ansi_get_char + 180
        0x20002c48:    2c1b        .,      CMP      r4,#0x1b
        0x20002c4a:    d10f        ..      BNE      0x20002c6c ; ansi_get_char + 244
        0x20002c4c:    f8951080    ....    LDRB     r1,[r5,#0x80]
        0x20002c50:    2002        .       MOVS     r0,#2
        0x20002c52:    f8850081    ....    STRB     r0,[r5,#0x81]
        0x20002c56:    1868        h.      ADDS     r0,r5,r1
        0x20002c58:    211b        .!      MOVS     r1,#0x1b
        0x20002c5a:    f880106c    ..l.    STRB     r1,[r0,#0x6c]
        0x20002c5e:    f8950080    ....    LDRB     r0,[r5,#0x80]
        0x20002c62:    3001        .0      ADDS     r0,#1
        0x20002c64:    f8850080    ....    STRB     r0,[r5,#0x80]
        0x20002c68:    4620         F      MOV      r0,r4
        0x20002c6a:    bdb0        ..      POP      {r4,r5,r7,pc}
        0x20002c6c:    4628        (F      MOV      r0,r5
        0x20002c6e:    4621        !F      MOV      r1,r4
        0x20002c70:    f000fbe6    ....    BL       nr_ansi_common_char_slover ; 0x20003440
        0x20002c74:    4620         F      MOV      r0,r4
        0x20002c76:    bdb0        ..      POP      {r4,r5,r7,pc}
        0x20002c78:    f1a00113    ....    SUB      r1,r0,#0x13
        0x20002c7c:    fab1f181    ....    CLZ      r1,r1
        0x20002c80:    0949        I.      LSRS     r1,r1,#5
        0x20002c82:    3001        .0      ADDS     r0,#1
        0x20002c84:    e004        ..      B        0x20002c90 ; ansi_get_char + 280
        0x20002c86:    bf00        ..      NOP      
        0x20002c88:    3002        .0      ADDS     r0,#2
        0x20002c8a:    e000        ..      B        0x20002c8e ; ansi_get_char + 278
        0x20002c8c:    3003        .0      ADDS     r0,#3
        0x20002c8e:    2100        .!      MOVS     r1,#0
        0x20002c90:    2900        .)      CMP      r1,#0
        0x20002c92:    f6441198    D...    MOV      r1,#0x4998
        0x20002c96:    f2c20100    ....    MOVT     r1,#0x2000
        0x20002c9a:    bf18        ..      IT       NE
        0x20002c9c:    f04f30ff    O..0    MOVNE    r0,#0xffffffff
        0x20002ca0:    f8511020    Q. .    LDR      r1,[r1,r0,LSL #2]
        0x20002ca4:    4628        (F      MOV      r0,r5
        0x20002ca6:    4788        .G      BLX      r1
        0x20002ca8:    2000        .       MOVS     r0,#0
        0x20002caa:    f8a50080    ....    STRH     r0,[r5,#0x80]
        0x20002cae:    4620         F      MOV      r0,r4
        0x20002cb0:    bdb0        ..      POP      {r4,r5,r7,pc}
        0x20002cb2:    0000        ..      MOVS     r0,r0
    ansi_init
        0x20002cb4:    2100        .!      MOVS     r1,#0
        0x20002cb6:    f64f72ff    O..r    MOV      r2,#0xffff
        0x20002cba:    6041        A`      STR      r1,[r0,#4]
        0x20002cbc:    8002        ..      STRH     r2,[r0,#0]
        0x20002cbe:    7201        .r      STRB     r1,[r0,#8]
        0x20002cc0:    f8a01080    ....    STRH     r1,[r0,#0x80]
        0x20002cc4:    4770        pG      BX       lr
        0x20002cc6:    0000        ..      MOVS     r0,r0
    app
        0x20002cc8:    b510        ..      PUSH     {r4,lr}
        0x20002cca:    f5ad6dfa    ...m    SUB      sp,sp,#0x7d0
        0x20002cce:    f2401080    @...    MOVW     r0,#0x180
        0x20002cd2:    f2c20001    ....    MOVT     r0,#0x2001
        0x20002cd6:    6841        Ah      LDR      r1,[r0,#4]
        0x20002cd8:    2900        .)      CMP      r1,#0
        0x20002cda:    bf1c        ..      ITT      NE
        0x20002cdc:    2100        .!      MOVNE    r1,#0
        0x20002cde:    6041        A`      STRNE    r1,[r0,#4]
        0x20002ce0:    7801        .x      LDRB     r1,[r0,#0]
        0x20002ce2:    2903        .)      CMP      r1,#3
        0x20002ce4:    d826        &.      BHI      0x20002d34 ; app + 108
        0x20002ce6:    e8dff001    ....    TBB      [pc,r1]
    $d.5
        0x20002cea:    3703        .7      DCW    14083
        0x20002cec:    bf00253d    =%..    DCD    3204457789
    $t.6
        0x20002cf0:    4668        hF      MOV      r0,sp
        0x20002cf2:    f44f61fa    O..a    MOV      r1,#0x7d0
        0x20002cf6:    f7fdfa5c    ..\.    BL       __aeabi_memclr ; 0x200001b2
        0x20002cfa:    f2400004    @...    MOVW     r0,#4
        0x20002cfe:    f2c20001    ....    MOVT     r0,#0x2001
        0x20002d02:    f7fefa8d    ....    BL       FIFO_GetDataCount ; 0x20001220
        0x20002d06:    f5b07ffa    ....    CMP      r0,#0x1f4
        0x20002d0a:    d92d        -.      BLS      0x20002d68 ; app + 160
        0x20002d0c:    f2400004    @...    MOVW     r0,#4
        0x20002d10:    466c        lF      MOV      r4,sp
        0x20002d12:    f2c20001    ....    MOVT     r0,#0x2001
        0x20002d16:    4621        !F      MOV      r1,r4
        0x20002d18:    f44f72fa    O..r    MOV      r2,#0x1f4
        0x20002d1c:    f7fefa8e    ....    BL       FIFO_ReadData ; 0x2000123c
        0x20002d20:    2001        .       MOVS     r0,#1
        0x20002d22:    4621        !F      MOV      r1,r4
        0x20002d24:    f44f62fa    O..b    MOV      r2,#0x7d0
        0x20002d28:    f7fefda4    ....    BL       SEGGER_RTT_Write ; 0x20001874
        0x20002d2c:    f50d6dfa    ...m    ADD      sp,sp,#0x7d0
        0x20002d30:    bd10        ..      POP      {r4,pc}
        0x20002d32:    bf00        ..      NOP      
        0x20002d34:    f6442184    D..!    MOV      r1,#0x4a84
        0x20002d38:    f2c20100    ....    MOVT     r1,#0x2000
        0x20002d3c:    2000        .       MOVS     r0,#0
        0x20002d3e:    f7fefeaf    ....    BL       SEGGER_RTT_printf ; 0x20001aa0
        0x20002d42:    f644208f    D..     MOV      r0,#0x4a8f
        0x20002d46:    f2c20000    ....    MOVT     r0,#0x2000
        0x20002d4a:    f50d6dfa    ...m    ADD      sp,sp,#0x7d0
        0x20002d4e:    e8bd4010    ...@    POP      {r4,lr}
        0x20002d52:    f001bdb3    ....    B.W      puts ; 0x200048bc
        0x20002d56:    bf00        ..      NOP      
        0x20002d58:    2102        .!      MOVS     r1,#2
        0x20002d5a:    7001        .p      STRB     r1,[r0,#0]
        0x20002d5c:    f50d6dfa    ...m    ADD      sp,sp,#0x7d0
        0x20002d60:    bd10        ..      POP      {r4,pc}
        0x20002d62:    bf00        ..      NOP      
        0x20002d64:    7841        Ax      LDRB     r1,[r0,#1]
        0x20002d66:    7001        .p      STRB     r1,[r0,#0]
        0x20002d68:    f50d6dfa    ...m    ADD      sp,sp,#0x7d0
        0x20002d6c:    bd10        ..      POP      {r4,pc}
        0x20002d6e:    0000        ..      MOVS     r0,r0
    bsp_init
        0x20002d70:    e92d43f0    -..C    PUSH     {r4-r9,lr}
        0x20002d74:    b089        ..      SUB      sp,sp,#0x24
        0x20002d76:    f644310a    D..1    MOV      r1,#0x4b0a
        0x20002d7a:    f2421220    B. .    MOV      r2,#0x2120
        0x20002d7e:    f04f0800    O...    MOV      r8,#0
        0x20002d82:    f2c20100    ....    MOVT     r1,#0x2000
        0x20002d86:    f2c20201    ....    MOVT     r2,#0x2001
        0x20002d8a:    2001        .       MOVS     r0,#1
        0x20002d8c:    f44f4380    O..C    MOV      r3,#0x4000
        0x20002d90:    f8cd8000    ....    STR      r8,[sp,#0]
        0x20002d94:    2401        .$      MOVS     r4,#1
        0x20002d96:    f7fefcc7    ....    BL       SEGGER_RTT_ConfigUpBuffer ; 0x20001728
        0x20002d9a:    f7fefd33    ..3.    BL       SEGGER_RTT_Init ; 0x20001804
        0x20002d9e:    f64421cb    D..!    MOV      r1,#0x4acb
        0x20002da2:    f644321f    D..2    MOV      r2,#0x4b1f
        0x20002da6:    f64443c4    D..C    MOV      r3,#0x4cc4
        0x20002daa:    f2c20100    ....    MOVT     r1,#0x2000
        0x20002dae:    f2c20200    ....    MOVT     r2,#0x2000
        0x20002db2:    f2c20300    ....    MOVT     r3,#0x2000
        0x20002db6:    2000        .       MOVS     r0,#0
        0x20002db8:    f7fefe72    ..r.    BL       SEGGER_RTT_printf ; 0x20001aa0
        0x20002dbc:    f64421b4    D..!    MOV      r1,#0x4ab4
        0x20002dc0:    f64422fe    D.."    MOV      r2,#0x4afe
        0x20002dc4:    f6443316    D..3    MOV      r3,#0x4b16
        0x20002dc8:    f2c20100    ....    MOVT     r1,#0x2000
        0x20002dcc:    f2c20200    ....    MOVT     r2,#0x2000
        0x20002dd0:    f2c20300    ....    MOVT     r3,#0x2000
        0x20002dd4:    2000        .       MOVS     r0,#0
        0x20002dd6:    f7fefe63    ..c.    BL       SEGGER_RTT_printf ; 0x20001aa0
        0x20002dda:    f000fafb    ....    BL       memory_init ; 0x200033d4
        0x20002dde:    f000fd69    ..i.    BL       read_uid ; 0x200038b4
        0x20002de2:    2027        '       MOVS     r0,#0x27
        0x20002de4:    f8ad0008    ....    STRH     r0,[sp,#8]
        0x20002de8:    a802        ..      ADD      r0,sp,#8
        0x20002dea:    f88d400a    ...@    STRB     r4,[sp,#0xa]
        0x20002dee:    f7fefb2b    ..+.    BL       NVIC_Init ; 0x20001448
        0x20002df2:    f2460900    F...    MOVW     r9,#0x6000
        0x20002df6:    f2c40900    ....    MOVT     r9,#0x4000
        0x20002dfa:    f5a956a0    ...V    SUB      r6,r9,#0x1400
        0x20002dfe:    4630        0F      MOV      r0,r6
        0x20002e00:    2101        .!      MOVS     r1,#1
        0x20002e02:    2201        ."      MOVS     r2,#1
        0x20002e04:    f7fffca6    ....    BL       UART_ITConfig ; 0x20002754
        0x20002e08:    f2420500    B...    MOVW     r5,#0x2000
        0x20002e0c:    f2c40501    ....    MOVT     r5,#0x4001
        0x20002e10:    f5a55780    ...W    SUB      r7,r5,#0x1000
        0x20002e14:    4638        8F      MOV      r0,r7
        0x20002e16:    210a        .!      MOVS     r1,#0xa
        0x20002e18:    2201        ."      MOVS     r2,#1
        0x20002e1a:    f7fefa93    ....    BL       GPIO_PinAFConfig ; 0x20001344
        0x20002e1e:    4638        8F      MOV      r0,r7
        0x20002e20:    210b        .!      MOVS     r1,#0xb
        0x20002e22:    2201        ."      MOVS     r2,#1
        0x20002e24:    f7fefa8e    ....    BL       GPIO_PinAFConfig ; 0x20001344
        0x20002e28:    f44f30e1    O..0    MOV      r0,#0x1c200
        0x20002e2c:    9002        ..      STR      r0,[sp,#8]
        0x20002e2e:    2001        .       MOVS     r0,#1
        0x20002e30:    f2c00008    ....    MOVT     r0,#8
        0x20002e34:    9003        ..      STR      r0,[sp,#0xc]
        0x20002e36:    2020                MOVS     r0,#0x20
        0x20002e38:    f8ad0010    ....    STRH     r0,[sp,#0x10]
        0x20002e3c:    2010        .       MOVS     r0,#0x10
        0x20002e3e:    9005        ..      STR      r0,[sp,#0x14]
        0x20002e40:    f6460000    F...    MOVW     r0,#0x6800
        0x20002e44:    f6c01089    ....    MOVT     r0,#0x989
        0x20002e48:    9007        ..      STR      r0,[sp,#0x1c]
        0x20002e4a:    a902        ..      ADD      r1,sp,#8
        0x20002e4c:    4630        0F      MOV      r0,r6
        0x20002e4e:    f8ad4018    ...@    STRH     r4,[sp,#0x18]
        0x20002e52:    f7fffc87    ....    BL       UART_Init ; 0x20002764
        0x20002e56:    4630        0F      MOV      r0,r6
        0x20002e58:    2101        .!      MOVS     r1,#1
        0x20002e5a:    f7fffc73    ..s.    BL       UART_Cmd ; 0x20002744
        0x20002e5e:    2040        @       MOVS     r0,#0x40
        0x20002e60:    ae02        ..      ADD      r6,sp,#8
        0x20002e62:    9002        ..      STR      r0,[sp,#8]
        0x20002e64:    4628        (F      MOV      r0,r5
        0x20002e66:    4631        1F      MOV      r1,r6
        0x20002e68:    f8ad400c    ...@    STRH     r4,[sp,#0xc]
        0x20002e6c:    f7fefa38    ..8.    BL       GPIO_Init ; 0x200012e0
        0x20002e70:    2080        .       MOVS     r0,#0x80
        0x20002e72:    9002        ..      STR      r0,[sp,#8]
        0x20002e74:    4628        (F      MOV      r0,r5
        0x20002e76:    4631        1F      MOV      r1,r6
        0x20002e78:    f8ad400c    ...@    STRH     r4,[sp,#0xc]
        0x20002e7c:    f7fefa30    ..0.    BL       GPIO_Init ; 0x200012e0
        0x20002e80:    f44f7080    O..p    MOV      r0,#0x100
        0x20002e84:    9002        ..      STR      r0,[sp,#8]
        0x20002e86:    4628        (F      MOV      r0,r5
        0x20002e88:    4631        1F      MOV      r1,r6
        0x20002e8a:    f8ad400c    ...@    STRH     r4,[sp,#0xc]
        0x20002e8e:    f7fefa27    ..'.    BL       GPIO_Init ; 0x200012e0
        0x20002e92:    4628        (F      MOV      r0,r5
        0x20002e94:    2140        @!      MOVS     r1,#0x40
        0x20002e96:    f7fefa63    ..c.    BL       GPIO_SetBits ; 0x20001360
        0x20002e9a:    4628        (F      MOV      r0,r5
        0x20002e9c:    2180        .!      MOVS     r1,#0x80
        0x20002e9e:    f7fefa5f    .._.    BL       GPIO_SetBits ; 0x20001360
        0x20002ea2:    4628        (F      MOV      r0,r5
        0x20002ea4:    f44f7180    O..q    MOV      r1,#0x100
        0x20002ea8:    f7fefa5a    ..Z.    BL       GPIO_SetBits ; 0x20001360
        0x20002eac:    2008        .       MOVS     r0,#8
        0x20002eae:    f8ad0008    ....    STRH     r0,[sp,#8]
        0x20002eb2:    a802        ..      ADD      r0,sp,#8
        0x20002eb4:    f88d400a    ...@    STRB     r4,[sp,#0xa]
        0x20002eb8:    f7fefac6    ....    BL       NVIC_Init ; 0x20001448
        0x20002ebc:    4628        (F      MOV      r0,r5
        0x20002ebe:    f44f6180    O..a    MOV      r1,#0x400
        0x20002ec2:    2200        ."      MOVS     r2,#0
        0x20002ec4:    f7fefa50    ..P.    BL       GPIO_TriTypeConfig ; 0x20001368
        0x20002ec8:    4628        (F      MOV      r0,r5
        0x20002eca:    f44f6100    O..a    MOV      r1,#0x800
        0x20002ece:    2200        ."      MOVS     r2,#0
        0x20002ed0:    f7fefa4a    ..J.    BL       GPIO_TriTypeConfig ; 0x20001368
        0x20002ed4:    4628        (F      MOV      r0,r5
        0x20002ed6:    f44f6180    O..a    MOV      r1,#0x400
        0x20002eda:    2201        ."      MOVS     r2,#1
        0x20002edc:    f7fef9fa    ....    BL       GPIO_ITConfig ; 0x200012d4
        0x20002ee0:    4628        (F      MOV      r0,r5
        0x20002ee2:    f44f6100    O..a    MOV      r1,#0x800
        0x20002ee6:    2201        ."      MOVS     r2,#1
        0x20002ee8:    f7fef9f4    ....    BL       GPIO_ITConfig ; 0x200012d4
        0x20002eec:    f7fefb78    ..x.    BL       PWM_Mode_Config ; 0x200015e0
        0x20002ef0:    4648        HF      MOV      r0,r9
        0x20002ef2:    2130        0!      MOVS     r1,#0x30
        0x20002ef4:    2530        0%      MOVS     r5,#0x30
        0x20002ef6:    f7fdfa17    ....    BL       ADC_ChannelConfig ; 0x20000328
        0x20002efa:    2004        .       MOVS     r0,#4
        0x20002efc:    9002        ..      STR      r0,[sp,#8]
        0x20002efe:    20ff        .       MOVS     r0,#0xff
        0x20002f00:    e9cd0504    ....    STRD     r0,r5,[sp,#0x10]
        0x20002f04:    a902        ..      ADD      r1,sp,#8
        0x20002f06:    4648        HF      MOV      r0,r9
        0x20002f08:    f88d4018    ...@    STRB     r4,[sp,#0x18]
        0x20002f0c:    f8cd800c    ....    STR      r8,[sp,#0xc]
        0x20002f10:    f7fdfa22    ..".    BL       ADC_Init ; 0x20000358
        0x20002f14:    4648        HF      MOV      r0,r9
        0x20002f16:    2101        .!      MOVS     r1,#1
        0x20002f18:    f7fdfa14    ....    BL       ADC_Cmd ; 0x20000344
        0x20002f1c:    4648        HF      MOV      r0,r9
        0x20002f1e:    f7fdfa37    ..7.    BL       ADC_StartOfConversion ; 0x20000390
        0x20002f22:    f246000c    F...    MOV      r0,#0x600c
        0x20002f26:    f2c40000    ....    MOVT     r0,#0x4000
        0x20002f2a:    9002        ..      STR      r0,[sp,#8]
        0x20002f2c:    f24650cc    F..P    MOV      r0,#0x65cc
        0x20002f30:    f2c20001    ....    MOVT     r0,#0x2001
        0x20002f34:    e9cd0403    ....    STRD     r0,r4,[sp,#0xc]
        0x20002f38:    a902        ..      ADD      r1,sp,#8
        0x20002f3a:    2000        .       MOVS     r0,#0
        0x20002f3c:    e9cd4405    ...D    STRD     r4,r4,[sp,#0x14]
        0x20002f40:    e9cd8807    ....    STRD     r8,r8,[sp,#0x1c]
        0x20002f44:    f7fdfa4e    ..N.    BL       DMA_Config ; 0x200003e4
        0x20002f48:    2000        .       MOVS     r0,#0
        0x20002f4a:    210e        .!      MOVS     r1,#0xe
        0x20002f4c:    f7fdfa7c    ..|.    BL       DMA_PeripheralConfig ; 0x20000448
        0x20002f50:    2000        .       MOVS     r0,#0
        0x20002f52:    2100        .!      MOVS     r1,#0
        0x20002f54:    f7fdfa68    ..h.    BL       DMA_DirectionConfig ; 0x20000428
        0x20002f58:    2000        .       MOVS     r0,#0
        0x20002f5a:    2101        .!      MOVS     r1,#1
        0x20002f5c:    f7fdfa1e    ....    BL       DMA_AutoRepeat_Cmd ; 0x2000039c
        0x20002f60:    2000        .       MOVS     r0,#0
        0x20002f62:    2101        .!      MOVS     r1,#1
        0x20002f64:    f7fdfa2c    ..,.    BL       DMA_Cmd ; 0x200003c0
        0x20002f68:    f2400018    @...    MOVW     r0,#0x18
        0x20002f6c:    f2c20001    ....    MOVT     r0,#0x2001
        0x20002f70:    6800        .h      LDR      r0,[r0,#0]
        0x20002f72:    f64451d3    D..Q    MOV      r1,#0x4dd3
        0x20002f76:    f2c10162    ..b.    MOVT     r1,#0x1062
        0x20002f7a:    fba00101    ....    UMULL    r0,r1,r0,r1
        0x20002f7e:    f04f30ff    O..0    MOV      r0,#0xffffffff
        0x20002f82:    eb001091    ....    ADD      r0,r0,r1,LSR #6
        0x20002f86:    f1b07f80    ....    CMP      r0,#0x1000000
        0x20002f8a:    d301        ..      BCC      0x20002f90 ; bsp_init + 544
        0x20002f8c:    e7fe        ..      B        0x20002f8c ; bsp_init + 540
        0x20002f8e:    bf00        ..      NOP      
        0x20002f90:    f24e0110    N...    MOV      r1,#0xe010
        0x20002f94:    f2ce0100    ....    MOVT     r1,#0xe000
        0x20002f98:    6048        H`      STR      r0,[r1,#4]
        0x20002f9a:    f64e5023    N.#P    MOV      r0,#0xed23
        0x20002f9e:    f2ce0000    ....    MOVT     r0,#0xe000
        0x20002fa2:    22c0        ."      MOVS     r2,#0xc0
        0x20002fa4:    7002        .p      STRB     r2,[r0,#0]
        0x20002fa6:    2007        .       MOVS     r0,#7
        0x20002fa8:    f8c18008    ....    STR      r8,[r1,#8]
        0x20002fac:    6008        .`      STR      r0,[r1,#0]
        0x20002fae:    200f        .       MOVS     r0,#0xf
        0x20002fb0:    2101        .!      MOVS     r1,#1
        0x20002fb2:    f7fdfbb3    ....    BL       EventRecorderInitialize ; 0x2000071c
        0x20002fb6:    f7fef8e5    ....    BL       EventRecorderStart ; 0x20001184
        0x20002fba:    f64620a4    F..     MOV      r0,#0x6aa4
        0x20002fbe:    f2c20001    ....    MOVT     r0,#0x2001
        0x20002fc2:    f7fffe77    ..w.    BL       ansi_init ; 0x20002cb4
        0x20002fc6:    f2400020    @. .    MOVW     r0,#0x20
        0x20002fca:    f2c20001    ....    MOVT     r0,#0x2001
        0x20002fce:    f7fffd33    ..3.    BL       _shell_init ; 0x20002a38
        0x20002fd2:    b009        ..      ADD      sp,sp,#0x24
        0x20002fd4:    e8bd83f0    ....    POP      {r4-r9,pc}
    fputc
        0x20002fd8:    b580        ..      PUSH     {r7,lr}
        0x20002fda:    b2c0        ..      UXTB     r0,r0
        0x20002fdc:    f7fffa66    ..f.    BL       SERIAL_PutChar ; 0x200024ac
        0x20002fe0:    bd80        ..      POP      {r7,pc}
        0x20002fe2:    0000        ..      MOVS     r0,r0
    hexdump
        0x20002fe4:    e92d4ff0    -..O    PUSH     {r4-r11,lr}
        0x20002fe8:    b099        ..      SUB      sp,sp,#0x64
        0x20002fea:    f6443430    D.04    MOV      r4,#0x4b30
        0x20002fee:    f644358f    D..5    MOV      r5,#0x4b8f
        0x20002ff2:    4606        .F      MOV      r6,r0
        0x20002ff4:    f2c20400    ....    MOVT     r4,#0x2000
        0x20002ff8:    f2c20500    ....    MOVT     r5,#0x2000
        0x20002ffc:    460f        .F      MOV      r7,r1
        0x20002ffe:    2000        .       MOVS     r0,#0
        0x20003000:    4621        !F      MOV      r1,r4
        0x20003002:    462a        *F      MOV      r2,r5
        0x20003004:    4633        3F      MOV      r3,r6
        0x20003006:    9700        ..      STR      r7,[sp,#0]
        0x20003008:    f7fefd4a    ..J.    BL       SEGGER_RTT_printf ; 0x20001aa0
        0x2000300c:    4620         F      MOV      r0,r4
        0x2000300e:    4629        )F      MOV      r1,r5
        0x20003010:    4632        2F      MOV      r2,r6
        0x20003012:    463b        ;F      MOV      r3,r7
        0x20003014:    f001f9fe    ....    BL       __0printf$8 ; 0x20004414
        0x20003018:    1e78        x.      SUBS     r0,r7,#1
        0x2000301a:    28ff        .(      CMP      r0,#0xff
        0x2000301c:    d904        ..      BLS      0x20003028 ; hexdump + 68
        0x2000301e:    f04f30ff    O..0    MOV      r0,#0xffffffff
        0x20003022:    b019        ..      ADD      sp,sp,#0x64
        0x20003024:    e8bd8ff0    ....    POP      {r4-r11,pc}
        0x20003028:    2f10        ./      CMP      r7,#0x10
        0x2000302a:    f04f0400    O...    MOV      r4,#0
        0x2000302e:    9603        ..      STR      r6,[sp,#0xc]
        0x20003030:    4638        8F      MOV      r0,r7
        0x20003032:    9704        ..      STR      r7,[sp,#0x10]
        0x20003034:    f2c080a4    ....    BLT.W    0x20003180 ; hexdump + 412
        0x20003038:    9904        ..      LDR      r1,[sp,#0x10]
        0x2000303a:    f64f70f0    O..p    MOV      r0,#0xfff0
        0x2000303e:    4008        .@      ANDS     r0,r0,r1
        0x20003040:    9006        ..      STR      r0,[sp,#0x18]
        0x20003042:    9803        ..      LDR      r0,[sp,#0xc]
        0x20003044:    f6443b7e    D.~;    MOV      r11,#0x4b7e
        0x20003048:    f1000901    ....    ADD      r9,r0,#1
        0x2000304c:    f10d0053    ..S.    ADD      r0,sp,#0x53
        0x20003050:    1c41        A.      ADDS     r1,r0,#1
        0x20003052:    f2c20b00    ....    MOVT     r11,#0x2000
        0x20003056:    f10d0a22    ..".    ADD      r10,sp,#0x22
        0x2000305a:    f04f0820    O. .    MOV      r8,#0x20
        0x2000305e:    2400        .$      MOVS     r4,#0
        0x20003060:    9105        ..      STR      r1,[sp,#0x14]
        0x20003062:    bf00        ..      NOP      
        0x20003064:    f8dde014    ....    LDR      lr,[sp,#0x14]
        0x20003068:    2200        ."      MOVS     r2,#0
        0x2000306a:    f06f0c06    o...    MVN      r12,#6
        0x2000306e:    210a        .!      MOVS     r1,#0xa
        0x20003070:    9407        ..      STR      r4,[sp,#0x1c]
        0x20003072:    bf00        ..      NOP      
        0x20003074:    eb090302    ....    ADD      r3,r9,r2
        0x20003078:    f8136c01    ...l    LDRB     r6,[r3,#-1]
        0x2000307c:    eb0a0501    ....    ADD      r5,r10,r1
        0x20003080:    0937        7.      LSRS     r7,r6,#4
        0x20003082:    f81b7007    ...p    LDRB     r7,[r11,r7]
        0x20003086:    785c        \x      LDRB     r4,[r3,#1]
        0x20003088:    f8057c0a    ...|    STRB     r7,[r5,#-0xa]
        0x2000308c:    f006070f    ....    AND      r7,r6,#0xf
        0x20003090:    f81b5007    ...P    LDRB     r5,[r11,r7]
        0x20003094:    eb020742    ..B.    ADD      r7,r2,r2,LSL #1
        0x20003098:    4457        WD      ADD      r7,r7,r10
        0x2000309a:    789b        .x      LDRB     r3,[r3,#2]
        0x2000309c:    707d        }p      STRB     r5,[r7,#1]
        0x2000309e:    f8878002    ....    STRB     r8,[r7,#2]
        0x200030a2:    2e20         .      CMP      r6,#0x20
        0x200030a4:    bf38        8.      IT       CC
        0x200030a6:    262e        .&      MOVCC    r6,#0x2e
        0x200030a8:    f8195002    ...P    LDRB     r5,[r9,r2]
        0x200030ac:    f10d0053    ..S.    ADD      r0,sp,#0x53
        0x200030b0:    5486        .T      STRB     r6,[r0,r2]
        0x200030b2:    092e        ..      LSRS     r6,r5,#4
        0x200030b4:    f81b6006    ...`    LDRB     r6,[r11,r6]
        0x200030b8:    f005000f    ....    AND      r0,r5,#0xf
        0x200030bc:    f81b0000    ....    LDRB     r0,[r11,r0]
        0x200030c0:    70fe        .p      STRB     r6,[r7,#3]
        0x200030c2:    0926        &.      LSRS     r6,r4,#4
        0x200030c4:    f81b6006    ...`    LDRB     r6,[r11,r6]
        0x200030c8:    7138        8q      STRB     r0,[r7,#4]
        0x200030ca:    eb0a000c    ....    ADD      r0,r10,r12
        0x200030ce:    f880800c    ....    STRB     r8,[r0,#0xc]
        0x200030d2:    2d20         -      CMP      r5,#0x20
        0x200030d4:    bf38        8.      IT       CC
        0x200030d6:    252e        .%      MOVCC    r5,#0x2e
        0x200030d8:    71be        .q      STRB     r6,[r7,#6]
        0x200030da:    f004060f    ....    AND      r6,r4,#0xf
        0x200030de:    f81b6006    ...`    LDRB     r6,[r11,r6]
        0x200030e2:    f80e5002    ...P    STRB     r5,[lr,r2]
        0x200030e6:    7386        .s      STRB     r6,[r0,#0xe]
        0x200030e8:    0918        ..      LSRS     r0,r3,#4
        0x200030ea:    f81b0000    ....    LDRB     r0,[r11,r0]
        0x200030ee:    f8878008    ....    STRB     r8,[r7,#8]
        0x200030f2:    2c20         ,      CMP      r4,#0x20
        0x200030f4:    bf38        8.      IT       CC
        0x200030f6:    242e        .$      MOVCC    r4,#0x2e
        0x200030f8:    7278        xr      STRB     r0,[r7,#9]
        0x200030fa:    f003000f    ....    AND      r0,r3,#0xf
        0x200030fe:    f81b0000    ....    LDRB     r0,[r11,r0]
        0x20003102:    1e4e        N.      SUBS     r6,r1,#1
        0x20003104:    f80a0001    ....    STRB     r0,[r10,r1]
        0x20003108:    1d10        ..      ADDS     r0,r2,#4
        0x2000310a:    f0460702    F...    ORR      r7,r6,#2
        0x2000310e:    0746        F.      LSLS     r6,r0,#29
        0x20003110:    eb0e0502    ....    ADD      r5,lr,r2
        0x20003114:    f04f0620    O. .    MOV      r6,#0x20
        0x20003118:    706c        lp      STRB     r4,[r5,#1]
        0x2000311a:    bf58        X.      IT       PL
        0x2000311c:    2609        .&      MOVPL    r6,#9
        0x2000311e:    2a07        .*      CMP      r2,#7
        0x20003120:    bf28        (.      IT       CS
        0x20003122:    4646        FF      MOVCS    r6,r8
        0x20003124:    2b20         +      CMP      r3,#0x20
        0x20003126:    f80a6007    ...`    STRB     r6,[r10,r7]
        0x2000312a:    bf38        8.      IT       CC
        0x2000312c:    232e        .#      MOVCC    r3,#0x2e
        0x2000312e:    f10c0c0c    ....    ADD      r12,r12,#0xc
        0x20003132:    310c        .1      ADDS     r1,r1,#0xc
        0x20003134:    2810        .(      CMP      r0,#0x10
        0x20003136:    4602        .F      MOV      r2,r0
        0x20003138:    70ab        .p      STRB     r3,[r5,#2]
        0x2000313a:    d19b        ..      BNE      0x20003074 ; hexdump + 144
        0x2000313c:    9c07        ..      LDR      r4,[sp,#0x1c]
        0x2000313e:    2000        .       MOVS     r0,#0
        0x20003140:    f6443160    D.`1    MOV      r1,#0x4b60
        0x20003144:    f88d0052    ..R.    STRB     r0,[sp,#0x52]
        0x20003148:    f88d0063    ..c.    STRB     r0,[sp,#0x63]
        0x2000314c:    2000        .       MOVS     r0,#0
        0x2000314e:    f2c20100    ....    MOVT     r1,#0x2000
        0x20003152:    4622        "F      MOV      r2,r4
        0x20003154:    4653        SF      MOV      r3,r10
        0x20003156:    f10d0553    ..S.    ADD      r5,sp,#0x53
        0x2000315a:    9500        ..      STR      r5,[sp,#0]
        0x2000315c:    f7fefca0    ....    BL       SEGGER_RTT_printf ; 0x20001aa0
        0x20003160:    f6443052    D.R0    MOV      r0,#0x4b52
        0x20003164:    f2c20000    ....    MOVT     r0,#0x2000
        0x20003168:    4621        !F      MOV      r1,r4
        0x2000316a:    4652        RF      MOV      r2,r10
        0x2000316c:    462b        +F      MOV      r3,r5
        0x2000316e:    f001f951    ..Q.    BL       __0printf$8 ; 0x20004414
        0x20003172:    9806        ..      LDR      r0,[sp,#0x18]
        0x20003174:    3410        .4      ADDS     r4,r4,#0x10
        0x20003176:    4284        .B      CMP      r4,r0
        0x20003178:    f1090910    ....    ADD      r9,r9,#0x10
        0x2000317c:    f4ffaf72    ..r.    BCC      0x20003064 ; hexdump + 128
        0x20003180:    9904        ..      LDR      r1,[sp,#0x10]
        0x20003182:    17c8        ..      ASRS     r0,r1,#31
        0x20003184:    eb017010    ...p    ADD      r0,r1,r0,LSR #28
        0x20003188:    f020000f     ...    BIC      r0,r0,#0xf
        0x2000318c:    1a0a        ..      SUBS     r2,r1,r0
        0x2000318e:    2a01        .*      CMP      r2,#1
        0x20003190:    f2c08113    ....    BLT.W    0x200033ba ; hexdump + 982
        0x20003194:    f04f0a00    O...    MOV      r10,#0
        0x20003198:    428c        .B      CMP      r4,r1
        0x2000319a:    f04f0300    O...    MOV      r3,#0
        0x2000319e:    f28080e7    ....    BGE.W    0x20003370 ; hexdump + 908
        0x200031a2:    43e0        .C      MVNS     r0,r4
        0x200031a4:    1b0b        ..      SUBS     r3,r1,r4
        0x200031a6:    4408        .D      ADD      r0,r0,r1
        0x200031a8:    f644387e    D.~8    MOV      r8,#0x4b7e
        0x200031ac:    f0030103    ....    AND      r1,r3,#3
        0x200031b0:    2803        .(      CMP      r0,#3
        0x200031b2:    f2c20800    ....    MOVT     r8,#0x2000
        0x200031b6:    d207        ..      BCS      0x200031c8 ; hexdump + 484
        0x200031b8:    f8ddb00c    ....    LDR      r11,[sp,#0xc]
        0x200031bc:    2600        .&      MOVS     r6,#0
        0x200031be:    46a1        .F      MOV      r9,r4
        0x200031c0:    2900        .)      CMP      r1,#0
        0x200031c2:    f0408082    @...    BNE.W    0x200032ca ; hexdump + 742
        0x200031c6:    e0d3        ..      B        0x20003370 ; hexdump + 908
        0x200031c8:    f0230003    #...    BIC      r0,r3,#3
        0x200031cc:    e9cd0406    ....    STRD     r0,r4,[sp,#0x18]
        0x200031d0:    9803        ..      LDR      r0,[sp,#0xc]
        0x200031d2:    2600        .&      MOVS     r6,#0
        0x200031d4:    4420         D      ADD      r0,r0,r4
        0x200031d6:    3001        .0      ADDS     r0,#1
        0x200031d8:    9005        ..      STR      r0,[sp,#0x14]
        0x200031da:    f10d0053    ..S.    ADD      r0,sp,#0x53
        0x200031de:    f1000a01    ....    ADD      r10,r0,#1
        0x200031e2:    f06f000b    o...    MVN      r0,#0xb
        0x200031e6:    f04f0b20    O. .    MOV      r11,#0x20
        0x200031ea:    e9cd1201    ....    STRD     r1,r2,[sp,#4]
        0x200031ee:    9304        ..      STR      r3,[sp,#0x10]
        0x200031f0:    9a05        ..      LDR      r2,[sp,#0x14]
        0x200031f2:    f10d0922    ..".    ADD      r9,sp,#0x22
        0x200031f6:    1993        ..      ADDS     r3,r2,r6
        0x200031f8:    f8131c01    ....    LDRB     r1,[r3,#-1]
        0x200031fc:    eb090c00    ....    ADD      r12,r9,r0
        0x20003200:    090f        ..      LSRS     r7,r1,#4
        0x20003202:    f8187007    ...p    LDRB     r7,[r8,r7]
        0x20003206:    785c        \x      LDRB     r4,[r3,#1]
        0x20003208:    f88c700c    ...p    STRB     r7,[r12,#0xc]
        0x2000320c:    f001070f    ....    AND      r7,r1,#0xf
        0x20003210:    f8185007    ...P    LDRB     r5,[r8,r7]
        0x20003214:    eb060746    ..F.    ADD      r7,r6,r6,LSL #1
        0x20003218:    444f        OD      ADD      r7,r7,r9
        0x2000321a:    707d        }p      STRB     r5,[r7,#1]
        0x2000321c:    2920         )      CMP      r1,#0x20
        0x2000321e:    bf38        8.      IT       CC
        0x20003220:    212e        .!      MOVCC    r1,#0x2e
        0x20003222:    5d95        .]      LDRB     r5,[r2,r6]
        0x20003224:    f10d0253    ..S.    ADD      r2,sp,#0x53
        0x20003228:    5591        .U      STRB     r1,[r2,r6]
        0x2000322a:    0929        ).      LSRS     r1,r5,#4
        0x2000322c:    f8181001    ....    LDRB     r1,[r8,r1]
        0x20003230:    f893e002    ....    LDRB     lr,[r3,#2]
        0x20003234:    70f9        .p      STRB     r1,[r7,#3]
        0x20003236:    f005010f    ....    AND      r1,r5,#0xf
        0x2000323a:    f8181001    ....    LDRB     r1,[r8,r1]
        0x2000323e:    f887b002    ....    STRB     r11,[r7,#2]
        0x20003242:    7139        9q      STRB     r1,[r7,#4]
        0x20003244:    0921        !.      LSRS     r1,r4,#4
        0x20003246:    f8181001    ....    LDRB     r1,[r8,r1]
        0x2000324a:    f88cb011    ....    STRB     r11,[r12,#0x11]
        0x2000324e:    2d20         -      CMP      r5,#0x20
        0x20003250:    bf38        8.      IT       CC
        0x20003252:    252e        .%      MOVCC    r5,#0x2e
        0x20003254:    71b9        .q      STRB     r1,[r7,#6]
        0x20003256:    f004010f    ....    AND      r1,r4,#0xf
        0x2000325a:    f8181001    ....    LDRB     r1,[r8,r1]
        0x2000325e:    f80a5006    ...P    STRB     r5,[r10,r6]
        0x20003262:    f88c1013    ....    STRB     r1,[r12,#0x13]
        0x20003266:    ea4f111e    O...    LSR      r1,lr,#4
        0x2000326a:    f8181001    ....    LDRB     r1,[r8,r1]
        0x2000326e:    eb0a0306    ....    ADD      r3,r10,r6
        0x20003272:    f887b008    ....    STRB     r11,[r7,#8]
        0x20003276:    2c20         ,      CMP      r4,#0x20
        0x20003278:    bf38        8.      IT       CC
        0x2000327a:    242e        .$      MOVCC    r4,#0x2e
        0x2000327c:    7279        yr      STRB     r1,[r7,#9]
        0x2000327e:    f00e010f    ....    AND      r1,lr,#0xf
        0x20003282:    705c        \p      STRB     r4,[r3,#1]
        0x20003284:    f1000415    ....    ADD      r4,r0,#0x15
        0x20003288:    f8181001    ....    LDRB     r1,[r8,r1]
        0x2000328c:    f0440402    D...    ORR      r4,r4,#2
        0x20003290:    f88c1016    ....    STRB     r1,[r12,#0x16]
        0x20003294:    f809b004    ....    STRB     r11,[r9,r4]
        0x20003298:    f1be0f20    .. .    CMP      lr,#0x20
        0x2000329c:    bf38        8.      IT       CC
        0x2000329e:    f04f0e2e    O...    MOVCC    lr,#0x2e
        0x200032a2:    9906        ..      LDR      r1,[sp,#0x18]
        0x200032a4:    3604        .6      ADDS     r6,#4
        0x200032a6:    42b1        .B      CMP      r1,r6
        0x200032a8:    f100000c    ....    ADD      r0,r0,#0xc
        0x200032ac:    f883e002    ....    STRB     lr,[r3,#2]
        0x200032b0:    d19e        ..      BNE      0x200031f0 ; hexdump + 524
        0x200032b2:    9c07        ..      LDR      r4,[sp,#0x1c]
        0x200032b4:    f8ddb00c    ....    LDR      r11,[sp,#0xc]
        0x200032b8:    9b04        ..      LDR      r3,[sp,#0x10]
        0x200032ba:    e9dd1201    ....    LDRD     r1,r2,[sp,#4]
        0x200032be:    eb040906    ....    ADD      r9,r4,r6
        0x200032c2:    f04f0a00    O...    MOV      r10,#0
        0x200032c6:    2900        .)      CMP      r1,#0
        0x200032c8:    d052        R.      BEQ      0x20003370 ; hexdump + 908
        0x200032ca:    f81b5009    ...P    LDRB     r5,[r11,r9]
        0x200032ce:    468c        .F      MOV      r12,r1
        0x200032d0:    0928        (.      LSRS     r0,r5,#4
        0x200032d2:    f8187000    ...p    LDRB     r7,[r8,r0]
        0x200032d6:    eb060146    ..F.    ADD      r1,r6,r6,LSL #1
        0x200032da:    f10d0022    ..".    ADD      r0,sp,#0x22
        0x200032de:    5447        GT      STRB     r7,[r0,r1]
        0x200032e0:    f005070f    ....    AND      r7,r5,#0xf
        0x200032e4:    f8187007    ...p    LDRB     r7,[r8,r7]
        0x200032e8:    4401        .D      ADD      r1,r1,r0
        0x200032ea:    f04f0e20    O. .    MOV      lr,#0x20
        0x200032ee:    704f        Op      STRB     r7,[r1,#1]
        0x200032f0:    f881e002    ....    STRB     lr,[r1,#2]
        0x200032f4:    4661        aF      MOV      r1,r12
        0x200032f6:    2d20         -      CMP      r5,#0x20
        0x200032f8:    bf38        8.      IT       CC
        0x200032fa:    252e        .%      MOVCC    r5,#0x2e
        0x200032fc:    f10d0c53    ..S.    ADD      r12,sp,#0x53
        0x20003300:    2901        .)      CMP      r1,#1
        0x20003302:    f80c5006    ...P    STRB     r5,[r12,r6]
        0x20003306:    d033        3.      BEQ      0x20003370 ; hexdump + 908
        0x20003308:    44d9        .D      ADD      r9,r9,r11
        0x2000330a:    f8995001    ...P    LDRB     r5,[r9,#1]
        0x2000330e:    9304        ..      STR      r3,[sp,#0x10]
        0x20003310:    460b        .F      MOV      r3,r1
        0x20003312:    0929        ).      LSRS     r1,r5,#4
        0x20003314:    9407        ..      STR      r4,[sp,#0x1c]
        0x20003316:    1c74        t.      ADDS     r4,r6,#1
        0x20003318:    f8181001    ....    LDRB     r1,[r8,r1]
        0x2000331c:    eb040744    ..D.    ADD      r7,r4,r4,LSL #1
        0x20003320:    55c1        .U      STRB     r1,[r0,r7]
        0x20003322:    f005010f    ....    AND      r1,r5,#0xf
        0x20003326:    f8181001    ....    LDRB     r1,[r8,r1]
        0x2000332a:    4407        .D      ADD      r7,r7,r0
        0x2000332c:    2d20         -      CMP      r5,#0x20
        0x2000332e:    7079        yp      STRB     r1,[r7,#1]
        0x20003330:    f887e002    ....    STRB     lr,[r7,#2]
        0x20003334:    bf38        8.      IT       CC
        0x20003336:    252e        .%      MOVCC    r5,#0x2e
        0x20003338:    2b02        .+      CMP      r3,#2
        0x2000333a:    f80c5004    ...P    STRB     r5,[r12,r4]
        0x2000333e:    d015        ..      BEQ      0x2000336c ; hexdump + 904
        0x20003340:    f8994002    ...@    LDRB     r4,[r9,#2]
        0x20003344:    1cb1        ..      ADDS     r1,r6,#2
        0x20003346:    0926        &.      LSRS     r6,r4,#4
        0x20003348:    f8186006    ...`    LDRB     r6,[r8,r6]
        0x2000334c:    f004050f    ....    AND      r5,r4,#0xf
        0x20003350:    eb010741    ..A.    ADD      r7,r1,r1,LSL #1
        0x20003354:    f8183005    ...0    LDRB     r3,[r8,r5]
        0x20003358:    19c5        ..      ADDS     r5,r0,r7
        0x2000335a:    55c6        .U      STRB     r6,[r0,r7]
        0x2000335c:    2020                MOVS     r0,#0x20
        0x2000335e:    706b        kp      STRB     r3,[r5,#1]
        0x20003360:    70a8        .p      STRB     r0,[r5,#2]
        0x20003362:    2c20         ,      CMP      r4,#0x20
        0x20003364:    bf38        8.      IT       CC
        0x20003366:    242e        .$      MOVCC    r4,#0x2e
        0x20003368:    f80c4001    ...@    STRB     r4,[r12,r1]
        0x2000336c:    9c07        ..      LDR      r4,[sp,#0x1c]
        0x2000336e:    9b04        ..      LDR      r3,[sp,#0x10]
        0x20003370:    eb020142    ..B.    ADD      r1,r2,r2,LSL #1
        0x20003374:    f10d0522    ..".    ADD      r5,sp,#0x22
        0x20003378:    1868        h.      ADDS     r0,r5,r1
        0x2000337a:    f805a001    ....    STRB     r10,[r5,r1]
        0x2000337e:    f10d0653    ..S.    ADD      r6,sp,#0x53
        0x20003382:    f1c10130    ..0.    RSB      r1,r1,#0x30
        0x20003386:    2220         "      MOVS     r2,#0x20
        0x20003388:    f806a003    ....    STRB     r10,[r6,r3]
        0x2000338c:    f7fcff0a    ....    BL       __aeabi_memset ; 0x200001a4
        0x20003390:    f6443160    D.`1    MOV      r1,#0x4b60
        0x20003394:    f2c20100    ....    MOVT     r1,#0x2000
        0x20003398:    2000        .       MOVS     r0,#0
        0x2000339a:    4622        "F      MOV      r2,r4
        0x2000339c:    462b        +F      MOV      r3,r5
        0x2000339e:    f88da052    ..R.    STRB     r10,[sp,#0x52]
        0x200033a2:    9600        ..      STR      r6,[sp,#0]
        0x200033a4:    f7fefb7c    ..|.    BL       SEGGER_RTT_printf ; 0x20001aa0
        0x200033a8:    f6443052    D.R0    MOV      r0,#0x4b52
        0x200033ac:    f2c20000    ....    MOVT     r0,#0x2000
        0x200033b0:    4621        !F      MOV      r1,r4
        0x200033b2:    462a        *F      MOV      r2,r5
        0x200033b4:    4633        3F      MOV      r3,r6
        0x200033b6:    f001f82d    ..-.    BL       __0printf$8 ; 0x20004414
        0x200033ba:    2000        .       MOVS     r0,#0
        0x200033bc:    b019        ..      ADD      sp,sp,#0x64
        0x200033be:    e8bd8ff0    ....    POP      {r4-r11,pc}
        0x200033c2:    0000        ..      MOVS     r0,r0
    init_all
        0x200033c4:    f7ffbcd4    ....    B.W      bsp_init ; 0x20002d70
    main
        0x200033c8:    f7fffffc    ....    BL       init_all ; 0x200033c4
        0x200033cc:    f7fffc7c    ..|.    BL       app ; 0x20002cc8
        0x200033d0:    e7fc        ..      B        0x200033cc ; main + 4
        0x200033d2:    0000        ..      MOVS     r0,r0
    memory_init
        0x200033d4:    b5b0        ..      PUSH     {r4,r5,r7,lr}
        0x200033d6:    f2400004    @...    MOVW     r0,#4
        0x200033da:    f2c20001    ....    MOVT     r0,#0x2001
        0x200033de:    f7fdff27    ..'.    BL       FIFO_IsDataEmpty ; 0x20001230
        0x200033e2:    2801        .(      CMP      r0,#1
        0x200033e4:    d01d        ..      BEQ      0x20003422 ; memory_init + 78
        0x200033e6:    f2400404    @...    MOVW     r4,#4
        0x200033ea:    f6442599    D..%    MOV      r5,#0x4a99
        0x200033ee:    f2c20401    ....    MOVT     r4,#0x2001
        0x200033f2:    f2c20500    ....    MOVT     r5,#0x2000
        0x200033f6:    bf00        ..      NOP      
        0x200033f8:    4620         F      MOV      r0,r4
        0x200033fa:    f7fdff11    ....    BL       FIFO_GetDataCount ; 0x20001220
        0x200033fe:    4602        .F      MOV      r2,r0
        0x20003400:    2000        .       MOVS     r0,#0
        0x20003402:    4629        )F      MOV      r1,r5
        0x20003404:    f7fefb4c    ..L.    BL       SEGGER_RTT_printf ; 0x20001aa0
        0x20003408:    4620         F      MOV      r0,r4
        0x2000340a:    f7fdff09    ....    BL       FIFO_GetDataCount ; 0x20001220
        0x2000340e:    4602        .F      MOV      r2,r0
        0x20003410:    2000        .       MOVS     r0,#0
        0x20003412:    4629        )F      MOV      r1,r5
        0x20003414:    f7fefb44    ..D.    BL       SEGGER_RTT_printf ; 0x20001aa0
        0x20003418:    4620         F      MOV      r0,r4
        0x2000341a:    f7fdff09    ....    BL       FIFO_IsDataEmpty ; 0x20001230
        0x2000341e:    2801        .(      CMP      r0,#1
        0x20003420:    d1ea        ..      BNE      0x200033f8 ; memory_init + 36
        0x20003422:    f2400004    @...    MOVW     r0,#4
        0x20003426:    f2c20001    ....    MOVT     r0,#0x2001
        0x2000342a:    f7fdfefb    ....    BL       FIFO_Init ; 0x20001224
        0x2000342e:    f24010e0    @...    MOVW     r0,#0x1e0
        0x20003432:    f2c20001    ....    MOVT     r0,#0x2001
        0x20003436:    f44f51fa    O..Q    MOV      r1,#0x1f40
        0x2000343a:    f7fcfeba    ....    BL       __aeabi_memclr ; 0x200001b2
        0x2000343e:    bdb0        ..      POP      {r4,r5,r7,pc}
    nr_ansi_common_char_slover
        0x20003440:    b5b0        ..      PUSH     {r4,r5,r7,lr}
        0x20003442:    6842        Bh      LDR      r2,[r0,#4]
        0x20003444:    2a61        a*      CMP      r2,#0x61
        0x20003446:    d825        %.      BHI      0x20003494 ; nr_ansi_common_char_slover + 84
        0x20003448:    460d        .F      MOV      r5,r1
        0x2000344a:    f9b01000    ....    LDRSH    r1,[r0,#0]
        0x2000344e:    428a        .B      CMP      r2,r1
        0x20003450:    d92c        ,.      BLS      0x200034ac ; nr_ansi_common_char_slover + 108
        0x20003452:    bf00        ..      NOP      
        0x20003454:    1881        ..      ADDS     r1,r0,r2
        0x20003456:    79cb        .y      LDRB     r3,[r1,#7]
        0x20003458:    1e54        T.      SUBS     r4,r2,#1
        0x2000345a:    720b        .r      STRB     r3,[r1,#8]
        0x2000345c:    f9b03000    ...0    LDRSH    r3,[r0,#0]
        0x20003460:    429c        .B      CMP      r4,r3
        0x20003462:    d925        %.      BLS      0x200034b0 ; nr_ansi_common_char_slover + 112
        0x20003464:    798b        .y      LDRB     r3,[r1,#6]
        0x20003466:    1e94        ..      SUBS     r4,r2,#2
        0x20003468:    71cb        .q      STRB     r3,[r1,#7]
        0x2000346a:    f9b03000    ...0    LDRSH    r3,[r0,#0]
        0x2000346e:    429c        .B      CMP      r4,r3
        0x20003470:    d91e        ..      BLS      0x200034b0 ; nr_ansi_common_char_slover + 112
        0x20003472:    794b        Ky      LDRB     r3,[r1,#5]
        0x20003474:    1ed4        ..      SUBS     r4,r2,#3
        0x20003476:    718b        .q      STRB     r3,[r1,#6]
        0x20003478:    f9b03000    ...0    LDRSH    r3,[r0,#0]
        0x2000347c:    429c        .B      CMP      r4,r3
        0x2000347e:    d917        ..      BLS      0x200034b0 ; nr_ansi_common_char_slover + 112
        0x20003480:    790b        .y      LDRB     r3,[r1,#4]
        0x20003482:    3a04        .:      SUBS     r2,#4
        0x20003484:    714b        Kq      STRB     r3,[r1,#5]
        0x20003486:    f9b01000    ....    LDRSH    r1,[r0,#0]
        0x2000348a:    428a        .B      CMP      r2,r1
        0x2000348c:    d8e2        ..      BHI      0x20003454 ; nr_ansi_common_char_slover + 20
        0x2000348e:    b289        ..      UXTH     r1,r1
        0x20003490:    e00f        ..      B        0x200034b2 ; nr_ansi_common_char_slover + 114
        0x20003492:    bf00        ..      NOP      
        0x20003494:    8801        ..      LDRH     r1,[r0,#0]
        0x20003496:    2261        a"      MOVS     r2,#0x61
        0x20003498:    2961        a)      CMP      r1,#0x61
        0x2000349a:    6042        B`      STR      r2,[r0,#4]
        0x2000349c:    bf24        $.      ITT      CS
        0x2000349e:    2160        `!      MOVCS    r1,#0x60
        0x200034a0:    8001        ..      STRHCS   r1,[r0,#0]
        0x200034a2:    2100        .!      MOVS     r1,#0
        0x200034a4:    f8801069    ..i.    STRB     r1,[r0,#0x69]
        0x200034a8:    bdb0        ..      POP      {r4,r5,r7,pc}
        0x200034aa:    bf00        ..      NOP      
        0x200034ac:    b289        ..      UXTH     r1,r1
        0x200034ae:    e001        ..      B        0x200034b4 ; nr_ansi_common_char_slover + 116
        0x200034b0:    b299        ..      UXTH     r1,r3
        0x200034b2:    6842        Bh      LDR      r2,[r0,#4]
        0x200034b4:    3101        .1      ADDS     r1,#1
        0x200034b6:    3201        .2      ADDS     r2,#1
        0x200034b8:    8001        ..      STRH     r1,[r0,#0]
        0x200034ba:    6042        B`      STR      r2,[r0,#4]
        0x200034bc:    b209        ..      SXTH     r1,r1
        0x200034be:    f1000208    ....    ADD      r2,r0,#8
        0x200034c2:    5455        UT      STRB     r5,[r2,r1]
        0x200034c4:    6841        Ah      LDR      r1,[r0,#4]
        0x200034c6:    2300        .#      MOVS     r3,#0
        0x200034c8:    5453        ST      STRB     r3,[r2,r1]
        0x200034ca:    f9b01000    ....    LDRSH    r1,[r0,#0]
        0x200034ce:    6840        @h      LDR      r0,[r0,#4]
        0x200034d0:    3101        .1      ADDS     r1,#1
        0x200034d2:    4281        .B      CMP      r1,r0
        0x200034d4:    d202        ..      BCS      0x200034dc ; nr_ansi_common_char_slover + 156
        0x200034d6:    a006        ..      ADR      r0,{pc}+0x1a ; 0x200034f0
        0x200034d8:    f000ff9c    ....    BL       __0printf$8 ; 0x20004414
        0x200034dc:    f2400100    @...    MOVW     r1,#0
        0x200034e0:    f2c20101    ....    MOVT     r1,#0x2001
        0x200034e4:    4628        (F      MOV      r0,r5
        0x200034e6:    e8bd40b0    ...@    POP      {r4,r5,r7,lr}
        0x200034ea:    f001b9e4    ....    B.W      putc ; 0x200048b6
        0x200034ee:    bf00        ..      NOP      
    $d.2
        0x200034f0:    40315b1b    .[1@    DCD    1076976411
        0x200034f4:    00000000    ....    DCD    0
    $t.3
    nr_ansi_ctrl_common_slover
        0x200034f8:    b5f0        ..      PUSH     {r4-r7,lr}
        0x200034fa:    b081        ..      SUB      sp,sp,#4
        0x200034fc:    4604        .F      MOV      r4,r0
        0x200034fe:    f8900080    ....    LDRB     r0,[r0,#0x80]
        0x20003502:    b180        ..      CBZ      r0,0x20003526 ; nr_ansi_ctrl_common_slover + 46
        0x20003504:    f2400500    @...    MOVW     r5,#0
        0x20003508:    f104066c    ..l.    ADD      r6,r4,#0x6c
        0x2000350c:    2700        .'      MOVS     r7,#0
        0x2000350e:    f2c20501    ....    MOVT     r5,#0x2001
        0x20003512:    bf00        ..      NOP      
        0x20003514:    5df0        .]      LDRB     r0,[r6,r7]
        0x20003516:    4629        )F      MOV      r1,r5
        0x20003518:    f001f9cd    ....    BL       putc ; 0x200048b6
        0x2000351c:    f8940080    ....    LDRB     r0,[r4,#0x80]
        0x20003520:    3701        .7      ADDS     r7,#1
        0x20003522:    4287        .B      CMP      r7,r0
        0x20003524:    d3f6        ..      BCC      0x20003514 ; nr_ansi_ctrl_common_slover + 28
        0x20003526:    b001        ..      ADD      sp,sp,#4
        0x20003528:    bdf0        ..      POP      {r4-r7,pc}
        0x2000352a:    0000        ..      MOVS     r0,r0
    nr_ansi_in__
        0x2000352c:    b510        ..      PUSH     {r4,lr}
        0x2000352e:    f890106e    ..n.    LDRB     r1,[r0,#0x6e]
        0x20003532:    2933        3)      CMP      r1,#0x33
        0x20003534:    bf18        ..      IT       NE
        0x20003536:    bd10        ..      POPNE    {r4,pc}
        0x20003538:    f9b04000    ...@    LDRSH    r4,[r0,#0]
        0x2000353c:    6842        Bh      LDR      r2,[r0,#4]
        0x2000353e:    1c61        a.      ADDS     r1,r4,#1
        0x20003540:    4291        .B      CMP      r1,r2
        0x20003542:    d21b        ..      BCS      0x2000357c ; nr_ansi_in__ + 80
        0x20003544:    1903        ..      ADDS     r3,r0,r4
        0x20003546:    7a99        .z      LDRB     r1,[r3,#0xa]
        0x20003548:    7259        Yr      STRB     r1,[r3,#9]
        0x2000354a:    6842        Bh      LDR      r2,[r0,#4]
        0x2000354c:    1ca1        ..      ADDS     r1,r4,#2
        0x2000354e:    4291        .B      CMP      r1,r2
        0x20003550:    d212        ..      BCS      0x20003578 ; nr_ansi_in__ + 76
        0x20003552:    7ad9        .z      LDRB     r1,[r3,#0xb]
        0x20003554:    7299        .r      STRB     r1,[r3,#0xa]
        0x20003556:    6842        Bh      LDR      r2,[r0,#4]
        0x20003558:    1ce1        ..      ADDS     r1,r4,#3
        0x2000355a:    4291        .B      CMP      r1,r2
        0x2000355c:    d20c        ..      BCS      0x20003578 ; nr_ansi_in__ + 76
        0x2000355e:    7b19        .{      LDRB     r1,[r3,#0xc]
        0x20003560:    72d9        .r      STRB     r1,[r3,#0xb]
        0x20003562:    6842        Bh      LDR      r2,[r0,#4]
        0x20003564:    1d21        !.      ADDS     r1,r4,#4
        0x20003566:    4291        .B      CMP      r1,r2
        0x20003568:    d206        ..      BCS      0x20003578 ; nr_ansi_in__ + 76
        0x2000356a:    7b5a        Z{      LDRB     r2,[r3,#0xd]
        0x2000356c:    731a        .s      STRB     r2,[r3,#0xc]
        0x2000356e:    6842        Bh      LDR      r2,[r0,#4]
        0x20003570:    1d63        c.      ADDS     r3,r4,#5
        0x20003572:    4293        .B      CMP      r3,r2
        0x20003574:    460c        .F      MOV      r4,r1
        0x20003576:    d3e5        ..      BCC      0x20003544 ; nr_ansi_in__ + 24
        0x20003578:    f9b04000    ...@    LDRSH    r4,[r0,#0]
        0x2000357c:    b211        ..      SXTH     r1,r2
        0x2000357e:    42a1        .B      CMP      r1,r4
        0x20003580:    dd18        ..      BLE      0x200035b4 ; nr_ansi_in__ + 136
        0x20003582:    f2400400    @...    MOVW     r4,#0
        0x20003586:    1e51        Q.      SUBS     r1,r2,#1
        0x20003588:    f2c20401    ....    MOVT     r4,#0x2001
        0x2000358c:    6041        A`      STR      r1,[r0,#4]
        0x2000358e:    201b        .       MOVS     r0,#0x1b
        0x20003590:    4621        !F      MOV      r1,r4
        0x20003592:    f001f990    ....    BL       putc ; 0x200048b6
        0x20003596:    205b        [       MOVS     r0,#0x5b
        0x20003598:    4621        !F      MOV      r1,r4
        0x2000359a:    f001f98c    ....    BL       putc ; 0x200048b6
        0x2000359e:    2031        1       MOVS     r0,#0x31
        0x200035a0:    4621        !F      MOV      r1,r4
        0x200035a2:    f001f988    ....    BL       putc ; 0x200048b6
        0x200035a6:    2050        P       MOVS     r0,#0x50
        0x200035a8:    4621        !F      MOV      r1,r4
        0x200035aa:    e8bd4010    ...@    POP      {r4,lr}
        0x200035ae:    f001b982    ....    B.W      putc ; 0x200048b6
        0x200035b2:    bf00        ..      NOP      
        0x200035b4:    bd10        ..      POP      {r4,pc}
        0x200035b6:    0000        ..      MOVS     r0,r0
    nr_ansi_in_backspace
        0x200035b8:    b580        ..      PUSH     {r7,lr}
        0x200035ba:    f8b0c000    ....    LDRH     r12,[r0,#0]
        0x200035be:    fa0ff38c    ....    SXTH     r3,r12
        0x200035c2:    2b00        .+      CMP      r3,#0
        0x200035c4:    bf48        H.      IT       MI
        0x200035c6:    bd80        ..      POPMI    {r7,pc}
        0x200035c8:    6842        Bh      LDR      r2,[r0,#4]
        0x200035ca:    4562        bE      CMP      r2,r12
        0x200035cc:    d91f        ..      BLS      0x2000360e ; nr_ansi_in_backspace + 86
        0x200035ce:    bf00        ..      NOP      
        0x200035d0:    eb00030c    ....    ADD      r3,r0,r12
        0x200035d4:    7a5a        Zz      LDRB     r2,[r3,#9]
        0x200035d6:    f10c0101    ....    ADD      r1,r12,#1
        0x200035da:    721a        .r      STRB     r2,[r3,#8]
        0x200035dc:    6842        Bh      LDR      r2,[r0,#4]
        0x200035de:    4291        .B      CMP      r1,r2
        0x200035e0:    d214        ..      BCS      0x2000360c ; nr_ansi_in_backspace + 84
        0x200035e2:    7a99        .z      LDRB     r1,[r3,#0xa]
        0x200035e4:    7259        Yr      STRB     r1,[r3,#9]
        0x200035e6:    6842        Bh      LDR      r2,[r0,#4]
        0x200035e8:    f10c0102    ....    ADD      r1,r12,#2
        0x200035ec:    4291        .B      CMP      r1,r2
        0x200035ee:    d20d        ..      BCS      0x2000360c ; nr_ansi_in_backspace + 84
        0x200035f0:    7ad9        .z      LDRB     r1,[r3,#0xb]
        0x200035f2:    7299        .r      STRB     r1,[r3,#0xa]
        0x200035f4:    6842        Bh      LDR      r2,[r0,#4]
        0x200035f6:    f10c0103    ....    ADD      r1,r12,#3
        0x200035fa:    4291        .B      CMP      r1,r2
        0x200035fc:    d206        ..      BCS      0x2000360c ; nr_ansi_in_backspace + 84
        0x200035fe:    7b19        .{      LDRB     r1,[r3,#0xc]
        0x20003600:    f10c0c04    ....    ADD      r12,r12,#4
        0x20003604:    72d9        .r      STRB     r1,[r3,#0xb]
        0x20003606:    6842        Bh      LDR      r2,[r0,#4]
        0x20003608:    4594        .E      CMP      r12,r2
        0x2000360a:    d3e1        ..      BCC      0x200035d0 ; nr_ansi_in_backspace + 24
        0x2000360c:    8803        ..      LDRH     r3,[r0,#0]
        0x2000360e:    1e59        Y.      SUBS     r1,r3,#1
        0x20003610:    8001        ..      STRH     r1,[r0,#0]
        0x20003612:    1e51        Q.      SUBS     r1,r2,#1
        0x20003614:    6041        A`      STR      r1,[r0,#4]
        0x20003616:    f2400100    @...    MOVW     r1,#0
        0x2000361a:    f2c20101    ....    MOVT     r1,#0x2001
        0x2000361e:    2008        .       MOVS     r0,#8
        0x20003620:    f001f949    ..I.    BL       putc ; 0x200048b6
        0x20003624:    a002        ..      ADR      r0,{pc}+0xc ; 0x20003630
        0x20003626:    e8bd4080    ...@    POP      {r7,lr}
        0x2000362a:    f000bef3    ....    B.W      __0printf$8 ; 0x20004414
        0x2000362e:    bf00        ..      NOP      
    $d.7
        0x20003630:    50315b1b    .[1P    DCD    1345411867
        0x20003634:    00000000    ....    DCD    0
    $t.9
    nr_ansi_in_down
        0x20003638:    b5f0        ..      PUSH     {r4-r7,lr}
        0x2000363a:    b081        ..      SUB      sp,sp,#4
        0x2000363c:    f2400620    @. .    MOVW     r6,#0x20
        0x20003640:    f2c20601    ....    MOVT     r6,#0x2001
        0x20003644:    8d71        q.      LDRH     r1,[r6,#0x2a]
        0x20003646:    b3a1        ..      CBZ      r1,0x200036b2 ; nr_ansi_in_down + 122
        0x20003648:    4604        .F      MOV      r4,r0
        0x2000364a:    f9b00000    ....    LDRSH    r0,[r0,#0]
        0x2000364e:    1c41        A.      ADDS     r1,r0,#1
        0x20003650:    f6443097    D..0    MOV      r0,#0x4b97
        0x20003654:    f2c20000    ....    MOVT     r0,#0x2000
        0x20003658:    f000fedc    ....    BL       __0printf$8 ; 0x20004414
        0x2000365c:    f644309d    D..0    MOV      r0,#0x4b9d
        0x20003660:    f2c20000    ....    MOVT     r0,#0x2000
        0x20003664:    f000fed6    ....    BL       __0printf$8 ; 0x20004414
        0x20003668:    8d71        q.      LDRH     r1,[r6,#0x2a]
        0x2000366a:    f1040508    ....    ADD      r5,r4,#8
        0x2000366e:    f1060024    ..$.    ADD      r0,r6,#0x24
        0x20003672:    462a        *F      MOV      r2,r5
        0x20003674:    f000fa18    ....    BL       shell_his_copy_queue_item ; 0x20003aa8
        0x20003678:    4628        (F      MOV      r0,r5
        0x2000367a:    f7fcfdb7    ....    BL       strlen ; 0x200001ec
        0x2000367e:    4605        .F      MOV      r5,r0
        0x20003680:    6060        ``      STR      r0,[r4,#4]
        0x20003682:    3801        .8      SUBS     r0,#1
        0x20003684:    8020         .      STRH     r0,[r4,#0]
        0x20003686:    b165        e.      CBZ      r5,0x200036a2 ; nr_ansi_in_down + 106
        0x20003688:    1de7        ..      ADDS     r7,r4,#7
        0x2000368a:    f2400400    @...    MOVW     r4,#0
        0x2000368e:    f2c20401    ....    MOVT     r4,#0x2001
        0x20003692:    bf00        ..      NOP      
        0x20003694:    f8170f01    ....    LDRB     r0,[r7,#1]!
        0x20003698:    4621        !F      MOV      r1,r4
        0x2000369a:    f001f90c    ....    BL       putc ; 0x200048b6
        0x2000369e:    3d01        .=      SUBS     r5,#1
        0x200036a0:    d1f8        ..      BNE      0x20003694 ; nr_ansi_in_down + 92
        0x200036a2:    8d70        p.      LDRH     r0,[r6,#0x2a]
        0x200036a4:    8d31        1.      LDRH     r1,[r6,#0x28]
        0x200036a6:    3001        .0      ADDS     r0,#1
        0x200036a8:    b282        ..      UXTH     r2,r0
        0x200036aa:    428a        .B      CMP      r2,r1
        0x200036ac:    bf88        ..      IT       HI
        0x200036ae:    2001        .       MOVHI    r0,#1
        0x200036b0:    8570        p.      STRH     r0,[r6,#0x2a]
        0x200036b2:    b001        ..      ADD      sp,sp,#4
        0x200036b4:    bdf0        ..      POP      {r4-r7,pc}
        0x200036b6:    0000        ..      MOVS     r0,r0
    nr_ansi_in_enter
        0x200036b8:    b510        ..      PUSH     {r4,lr}
        0x200036ba:    f2400220    @. .    MOVW     r2,#0x20
        0x200036be:    f64f71ff    O..q    MOV      r1,#0xffff
        0x200036c2:    f2c20201    ....    MOVT     r2,#0x2001
        0x200036c6:    f2400400    @...    MOVW     r4,#0
        0x200036ca:    8001        ..      STRH     r1,[r0,#0]
        0x200036cc:    2100        .!      MOVS     r1,#0
        0x200036ce:    8d13        ..      LDRH     r3,[r2,#0x28]
        0x200036d0:    f2c20401    ....    MOVT     r4,#0x2001
        0x200036d4:    6041        A`      STR      r1,[r0,#4]
        0x200036d6:    200d        .       MOVS     r0,#0xd
        0x200036d8:    4621        !F      MOV      r1,r4
        0x200036da:    8553        S.      STRH     r3,[r2,#0x2a]
        0x200036dc:    f001f8eb    ....    BL       putc ; 0x200048b6
        0x200036e0:    200a        .       MOVS     r0,#0xa
        0x200036e2:    4621        !F      MOV      r1,r4
        0x200036e4:    e8bd4010    ...@    POP      {r4,lr}
        0x200036e8:    f001b8e5    ....    B.W      putc ; 0x200048b6
    nr_ansi_in_left
        0x200036ec:    4601        .F      MOV      r1,r0
        0x200036ee:    f9b00000    ....    LDRSH    r0,[r0,#0]
        0x200036f2:    2800        .(      CMP      r0,#0
        0x200036f4:    bf48        H.      IT       MI
        0x200036f6:    4770        pG      BXMI     lr
        0x200036f8:    1e42        B.      SUBS     r2,r0,#1
        0x200036fa:    a002        ..      ADR      r0,{pc}+0xa ; 0x20003704
        0x200036fc:    800a        ..      STRH     r2,[r1,#0]
        0x200036fe:    f000be89    ....    B.W      __0printf$8 ; 0x20004414
        0x20003702:    bf00        ..      NOP      
    $d.11
        0x20003704:    44315b1b    .[1D    DCD    1144085275
        0x20003708:    00000000    ....    DCD    0
    $t.5
    nr_ansi_in_newline
        0x2000370c:    f64f71ff    O..q    MOV      r1,#0xffff
        0x20003710:    f2400220    @. .    MOVW     r2,#0x20
        0x20003714:    8001        ..      STRH     r1,[r0,#0]
        0x20003716:    2100        .!      MOVS     r1,#0
        0x20003718:    f2c20201    ....    MOVT     r2,#0x2001
        0x2000371c:    6041        A`      STR      r1,[r0,#4]
        0x2000371e:    8d13        ..      LDRH     r3,[r2,#0x28]
        0x20003720:    f2400100    @...    MOVW     r1,#0
        0x20003724:    f2c20101    ....    MOVT     r1,#0x2001
        0x20003728:    200a        .       MOVS     r0,#0xa
        0x2000372a:    8553        S.      STRH     r3,[r2,#0x2a]
        0x2000372c:    f001b8c3    ....    B.W      putc ; 0x200048b6
    nr_ansi_in_right
        0x20003730:    6842        Bh      LDR      r2,[r0,#4]
        0x20003732:    4601        .F      MOV      r1,r0
        0x20003734:    f9b00000    ....    LDRSH    r0,[r0,#0]
        0x20003738:    3a01        .:      SUBS     r2,#1
        0x2000373a:    4282        .B      CMP      r2,r0
        0x2000373c:    bfd8        ..      IT       LE
        0x2000373e:    4770        pG      BXLE     lr
        0x20003740:    b280        ..      UXTH     r0,r0
        0x20003742:    1c42        B.      ADDS     r2,r0,#1
        0x20003744:    a001        ..      ADR      r0,{pc}+8 ; 0x2000374c
        0x20003746:    800a        ..      STRH     r2,[r1,#0]
        0x20003748:    f000be64    ..d.    B.W      __0printf$8 ; 0x20004414
    $d.13
        0x2000374c:    43315b1b    .[1C    DCD    1127308059
        0x20003750:    00000000    ....    DCD    0
    $t.14
    nr_ansi_in_tab
        0x20003754:    b5f0        ..      PUSH     {r4-r7,lr}
        0x20003756:    b081        ..      SUB      sp,sp,#4
        0x20003758:    f2400420    @. .    MOVW     r4,#0x20
        0x2000375c:    f1000608    ....    ADD      r6,r0,#8
        0x20003760:    f2c20401    ....    MOVT     r4,#0x2001
        0x20003764:    4605        .F      MOV      r5,r0
        0x20003766:    4620         F      MOV      r0,r4
        0x20003768:    4631        1F      MOV      r1,r6
        0x2000376a:    f000f91d    ....    BL       shell_cmd_complete ; 0x200039a8
        0x2000376e:    b350        P.      CBZ      r0,0x200037c6 ; nr_ansi_in_tab + 114
        0x20003770:    4607        .F      MOV      r7,r0
        0x20003772:    6868        hh      LDR      r0,[r5,#4]
        0x20003774:    b350        P.      CBZ      r0,0x200037cc ; nr_ansi_in_tab + 120
        0x20003776:    f9b50000    ....    LDRSH    r0,[r5,#0]
        0x2000377a:    1c41        A.      ADDS     r1,r0,#1
        0x2000377c:    f6443097    D..0    MOV      r0,#0x4b97
        0x20003780:    f2c20000    ....    MOVT     r0,#0x2000
        0x20003784:    f000fe46    ..F.    BL       __0printf$8 ; 0x20004414
        0x20003788:    f644309d    D..0    MOV      r0,#0x4b9d
        0x2000378c:    f2c20000    ....    MOVT     r0,#0x2000
        0x20003790:    f000fe40    ..@.    BL       __0printf$8 ; 0x20004414
        0x20003794:    4638        8F      MOV      r0,r7
        0x20003796:    f7fcfd29    ..).    BL       strlen ; 0x200001ec
        0x2000379a:    6068        h`      STR      r0,[r5,#4]
        0x2000379c:    3801        .8      SUBS     r0,#1
        0x2000379e:    8028        (.      STRH     r0,[r5,#0]
        0x200037a0:    4630        0F      MOV      r0,r6
        0x200037a2:    4639        9F      MOV      r1,r7
        0x200037a4:    f7fcfd37    ..7.    BL       strcpy ; 0x20000216
        0x200037a8:    686e        nh      LDR      r6,[r5,#4]
        0x200037aa:    b166        f.      CBZ      r6,0x200037c6 ; nr_ansi_in_tab + 114
        0x200037ac:    f2400400    @...    MOVW     r4,#0
        0x200037b0:    3507        .5      ADDS     r5,#7
        0x200037b2:    f2c20401    ....    MOVT     r4,#0x2001
        0x200037b6:    bf00        ..      NOP      
        0x200037b8:    f8150f01    ....    LDRB     r0,[r5,#1]!
        0x200037bc:    4621        !F      MOV      r1,r4
        0x200037be:    f001f87a    ..z.    BL       putc ; 0x200048b6
        0x200037c2:    3e01        .>      SUBS     r6,#1
        0x200037c4:    d1f8        ..      BNE      0x200037b8 ; nr_ansi_in_tab + 100
        0x200037c6:    b001        ..      ADD      sp,sp,#4
        0x200037c8:    bdf0        ..      POP      {r4-r7,pc}
        0x200037ca:    bf00        ..      NOP      
        0x200037cc:    f6444098    D..@    MOV      r0,#0x4c98
        0x200037d0:    f2c20000    ....    MOVT     r0,#0x2000
        0x200037d4:    f001f872    ..r.    BL       puts ; 0x200048bc
        0x200037d8:    6a20         j      LDR      r0,[r4,#0x20]
        0x200037da:    68c1        .h      LDR      r1,[r0,#0xc]
        0x200037dc:    b1f1        ..      CBZ      r1,0x2000381c ; nr_ansi_in_tab + 200
        0x200037de:    f64435a1    D..5    MOV      r5,#0x4ba1
        0x200037e2:    f6444698    D..F    MOV      r6,#0x4c98
        0x200037e6:    2100        .!      MOVS     r1,#0
        0x200037e8:    f2c20500    ....    MOVT     r5,#0x2000
        0x200037ec:    f2c20600    ....    MOVT     r6,#0x2000
        0x200037f0:    2700        .'      MOVS     r7,#0
        0x200037f2:    bf00        ..      NOP      
        0x200037f4:    eb010181    ....    ADD      r1,r1,r1,LSL #2
        0x200037f8:    eb000181    ....    ADD      r1,r0,r1,LSL #2
        0x200037fc:    4628        (F      MOV      r0,r5
        0x200037fe:    f000fe09    ....    BL       __0printf$8 ; 0x20004414
        0x20003802:    4630        0F      MOV      r0,r6
        0x20003804:    f001f85a    ..Z.    BL       puts ; 0x200048bc
        0x20003808:    3701        .7      ADDS     r7,#1
        0x2000380a:    6a20         j      LDR      r0,[r4,#0x20]
        0x2000380c:    b2f9        ..      UXTB     r1,r7
        0x2000380e:    eb010281    ....    ADD      r2,r1,r1,LSL #2
        0x20003812:    eb000282    ....    ADD      r2,r0,r2,LSL #2
        0x20003816:    68d2        .h      LDR      r2,[r2,#0xc]
        0x20003818:    2a00        .*      CMP      r2,#0
        0x2000381a:    d1eb        ..      BNE      0x200037f4 ; nr_ansi_in_tab + 160
        0x2000381c:    f64430a1    D..0    MOV      r0,#0x4ba1
        0x20003820:    f2400120    @. .    MOVW     r1,#0x20
        0x20003824:    f2c20000    ....    MOVT     r0,#0x2000
        0x20003828:    f2c20101    ....    MOVT     r1,#0x2001
        0x2000382c:    b001        ..      ADD      sp,sp,#4
        0x2000382e:    e8bd40f0    ...@    POP      {r4-r7,lr}
        0x20003832:    f000bdef    ....    B.W      __0printf$8 ; 0x20004414
        0x20003836:    0000        ..      MOVS     r0,r0
    nr_ansi_in_up
        0x20003838:    b5f0        ..      PUSH     {r4-r7,lr}
        0x2000383a:    b081        ..      SUB      sp,sp,#4
        0x2000383c:    f2400620    @. .    MOVW     r6,#0x20
        0x20003840:    f2c20601    ....    MOVT     r6,#0x2001
        0x20003844:    8d71        q.      LDRH     r1,[r6,#0x2a]
        0x20003846:    b399        ..      CBZ      r1,0x200038b0 ; nr_ansi_in_up + 120
        0x20003848:    4604        .F      MOV      r4,r0
        0x2000384a:    f9b00000    ....    LDRSH    r0,[r0,#0]
        0x2000384e:    1c41        A.      ADDS     r1,r0,#1
        0x20003850:    f6443097    D..0    MOV      r0,#0x4b97
        0x20003854:    f2c20000    ....    MOVT     r0,#0x2000
        0x20003858:    f000fddc    ....    BL       __0printf$8 ; 0x20004414
        0x2000385c:    f644309d    D..0    MOV      r0,#0x4b9d
        0x20003860:    f2c20000    ....    MOVT     r0,#0x2000
        0x20003864:    f000fdd6    ....    BL       __0printf$8 ; 0x20004414
        0x20003868:    8d71        q.      LDRH     r1,[r6,#0x2a]
        0x2000386a:    f1040508    ....    ADD      r5,r4,#8
        0x2000386e:    f1060024    ..$.    ADD      r0,r6,#0x24
        0x20003872:    462a        *F      MOV      r2,r5
        0x20003874:    f000f918    ....    BL       shell_his_copy_queue_item ; 0x20003aa8
        0x20003878:    4628        (F      MOV      r0,r5
        0x2000387a:    f7fcfcb7    ....    BL       strlen ; 0x200001ec
        0x2000387e:    4605        .F      MOV      r5,r0
        0x20003880:    6060        ``      STR      r0,[r4,#4]
        0x20003882:    3801        .8      SUBS     r0,#1
        0x20003884:    8020         .      STRH     r0,[r4,#0]
        0x20003886:    b165        e.      CBZ      r5,0x200038a2 ; nr_ansi_in_up + 106
        0x20003888:    1de7        ..      ADDS     r7,r4,#7
        0x2000388a:    f2400400    @...    MOVW     r4,#0
        0x2000388e:    f2c20401    ....    MOVT     r4,#0x2001
        0x20003892:    bf00        ..      NOP      
        0x20003894:    f8170f01    ....    LDRB     r0,[r7,#1]!
        0x20003898:    4621        !F      MOV      r1,r4
        0x2000389a:    f001f80c    ....    BL       putc ; 0x200048b6
        0x2000389e:    3d01        .=      SUBS     r5,#1
        0x200038a0:    d1f8        ..      BNE      0x20003894 ; nr_ansi_in_up + 92
        0x200038a2:    8d70        p.      LDRH     r0,[r6,#0x2a]
        0x200038a4:    8d31        1.      LDRH     r1,[r6,#0x28]
        0x200038a6:    3801        .8      SUBS     r0,#1
        0x200038a8:    0402        ..      LSLS     r2,r0,#16
        0x200038aa:    bf18        ..      IT       NE
        0x200038ac:    4601        .F      MOVNE    r1,r0
        0x200038ae:    8571        q.      STRH     r1,[r6,#0x2a]
        0x200038b0:    b001        ..      ADD      sp,sp,#4
        0x200038b2:    bdf0        ..      POP      {r4-r7,pc}
    read_uid
        0x200038b4:    b5b0        ..      PUSH     {r4,r5,r7,lr}
        0x200038b6:    a133        3.      ADR      r1,{pc}+0xce ; 0x20003984
        0x200038b8:    a237        7.      ADR      r2,{pc}+0xe0 ; 0x20003998
        0x200038ba:    2000        .       MOVS     r0,#0
        0x200038bc:    f7fef8f0    ....    BL       SEGGER_RTT_printf ; 0x20001aa0
        0x200038c0:    f2410524    A.$.    MOV      r5,#0x1024
        0x200038c4:    f2c40502    ....    MOVT     r5,#0x4002
        0x200038c8:    f64424f8    D..$    MOV      r4,#0x4af8
        0x200038cc:    782a        *x      LDRB     r2,[r5,#0]
        0x200038ce:    f2c20400    ....    MOVT     r4,#0x2000
        0x200038d2:    2000        .       MOVS     r0,#0
        0x200038d4:    4621        !F      MOV      r1,r4
        0x200038d6:    f7fef8e3    ....    BL       SEGGER_RTT_printf ; 0x20001aa0
        0x200038da:    786a        jx      LDRB     r2,[r5,#1]
        0x200038dc:    2000        .       MOVS     r0,#0
        0x200038de:    4621        !F      MOV      r1,r4
        0x200038e0:    f7fef8de    ....    BL       SEGGER_RTT_printf ; 0x20001aa0
        0x200038e4:    78aa        .x      LDRB     r2,[r5,#2]
        0x200038e6:    2000        .       MOVS     r0,#0
        0x200038e8:    4621        !F      MOV      r1,r4
        0x200038ea:    f7fef8d9    ....    BL       SEGGER_RTT_printf ; 0x20001aa0
        0x200038ee:    78ea        .x      LDRB     r2,[r5,#3]
        0x200038f0:    2000        .       MOVS     r0,#0
        0x200038f2:    4621        !F      MOV      r1,r4
        0x200038f4:    f7fef8d4    ....    BL       SEGGER_RTT_printf ; 0x20001aa0
        0x200038f8:    792a        *y      LDRB     r2,[r5,#4]
        0x200038fa:    2000        .       MOVS     r0,#0
        0x200038fc:    4621        !F      MOV      r1,r4
        0x200038fe:    f7fef8cf    ....    BL       SEGGER_RTT_printf ; 0x20001aa0
        0x20003902:    796a        jy      LDRB     r2,[r5,#5]
        0x20003904:    2000        .       MOVS     r0,#0
        0x20003906:    4621        !F      MOV      r1,r4
        0x20003908:    f7fef8ca    ....    BL       SEGGER_RTT_printf ; 0x20001aa0
        0x2000390c:    79aa        .y      LDRB     r2,[r5,#6]
        0x2000390e:    2000        .       MOVS     r0,#0
        0x20003910:    4621        !F      MOV      r1,r4
        0x20003912:    f7fef8c5    ....    BL       SEGGER_RTT_printf ; 0x20001aa0
        0x20003916:    79ea        .y      LDRB     r2,[r5,#7]
        0x20003918:    2000        .       MOVS     r0,#0
        0x2000391a:    4621        !F      MOV      r1,r4
        0x2000391c:    f7fef8c0    ....    BL       SEGGER_RTT_printf ; 0x20001aa0
        0x20003920:    7a2a        *z      LDRB     r2,[r5,#8]
        0x20003922:    2000        .       MOVS     r0,#0
        0x20003924:    4621        !F      MOV      r1,r4
        0x20003926:    f7fef8bb    ....    BL       SEGGER_RTT_printf ; 0x20001aa0
        0x2000392a:    7a6a        jz      LDRB     r2,[r5,#9]
        0x2000392c:    2000        .       MOVS     r0,#0
        0x2000392e:    4621        !F      MOV      r1,r4
        0x20003930:    f7fef8b6    ....    BL       SEGGER_RTT_printf ; 0x20001aa0
        0x20003934:    7aaa        .z      LDRB     r2,[r5,#0xa]
        0x20003936:    2000        .       MOVS     r0,#0
        0x20003938:    4621        !F      MOV      r1,r4
        0x2000393a:    f7fef8b1    ....    BL       SEGGER_RTT_printf ; 0x20001aa0
        0x2000393e:    7aea        .z      LDRB     r2,[r5,#0xb]
        0x20003940:    2000        .       MOVS     r0,#0
        0x20003942:    4621        !F      MOV      r1,r4
        0x20003944:    f7fef8ac    ....    BL       SEGGER_RTT_printf ; 0x20001aa0
        0x20003948:    7b2a        *{      LDRB     r2,[r5,#0xc]
        0x2000394a:    2000        .       MOVS     r0,#0
        0x2000394c:    4621        !F      MOV      r1,r4
        0x2000394e:    f7fef8a7    ....    BL       SEGGER_RTT_printf ; 0x20001aa0
        0x20003952:    7b6a        j{      LDRB     r2,[r5,#0xd]
        0x20003954:    2000        .       MOVS     r0,#0
        0x20003956:    4621        !F      MOV      r1,r4
        0x20003958:    f7fef8a2    ....    BL       SEGGER_RTT_printf ; 0x20001aa0
        0x2000395c:    7baa        .{      LDRB     r2,[r5,#0xe]
        0x2000395e:    2000        .       MOVS     r0,#0
        0x20003960:    4621        !F      MOV      r1,r4
        0x20003962:    f7fef89d    ....    BL       SEGGER_RTT_printf ; 0x20001aa0
        0x20003966:    7bea        .{      LDRB     r2,[r5,#0xf]
        0x20003968:    2000        .       MOVS     r0,#0
        0x2000396a:    4621        !F      MOV      r1,r4
        0x2000396c:    f7fef898    ....    BL       SEGGER_RTT_printf ; 0x20001aa0
        0x20003970:    f64442c4    D..B    MOV      r2,#0x4cc4
        0x20003974:    a10a        ..      ADR      r1,{pc}+0x2c ; 0x200039a0
        0x20003976:    f2c20200    ....    MOVT     r2,#0x2000
        0x2000397a:    2000        .       MOVS     r0,#0
        0x2000397c:    e8bd40b0    ...@    POP      {r4,r5,r7,lr}
        0x20003980:    f7feb88e    ....    B        SEGGER_RTT_printf ; 0x20001aa0
    $d.7
        0x20003984:    636d7325    %smc    DCD    1668117285
        0x20003988:    68632075    u ch    DCD    1751326837
        0x2000398c:    75207069    ip u    DCD    1965060201
        0x20003990:    203a6469    id:     DCD    540697705
        0x20003994:    00000a0d    ....    DCD    2573
        0x20003998:    3b315b1b    .[1;    DCD    993090331
        0x2000399c:    006d3233    32m.    DCD    7156275
        0x200039a0:    0a0d7325    %s..    DCD    168653605
        0x200039a4:    00000000    ....    DCD    0
    $t.8
    shell_cmd_complete
        0x200039a8:    e92d43f0    -..C    PUSH     {r4-r9,lr}
        0x200039ac:    b081        ..      SUB      sp,sp,#4
        0x200039ae:    6a06        .j      LDR      r6,[r0,#0x20]
        0x200039b0:    7830        0x      LDRB     r0,[r6,#0]
        0x200039b2:    b328        (.      CBZ      r0,0x20003a00 ; shell_cmd_complete + 88
        0x200039b4:    4688        .F      MOV      r8,r1
        0x200039b6:    2500        .%      MOVS     r5,#0
        0x200039b8:    24ff        .$      MOVS     r4,#0xff
        0x200039ba:    4630        0F      MOV      r0,r6
        0x200039bc:    f04f0900    O...    MOV      r9,#0
        0x200039c0:    2700        .'      MOVS     r7,#0
        0x200039c2:    e009        ..      B        0x200039d8 ; shell_cmd_complete + 48
        0x200039c4:    4604        .F      MOV      r4,r0
        0x200039c6:    3701        .7      ADDS     r7,#1
        0x200039c8:    b2fd        ..      UXTB     r5,r7
        0x200039ca:    eb050085    ....    ADD      r0,r5,r5,LSL #2
        0x200039ce:    f8161020    .. .    LDRB     r1,[r6,r0,LSL #2]
        0x200039d2:    eb060080    ....    ADD      r0,r6,r0,LSL #2
        0x200039d6:    b179        y.      CBZ      r1,0x200039f8 ; shell_cmd_complete + 80
        0x200039d8:    4641        AF      MOV      r1,r8
        0x200039da:    f7fcfbf5    ....    BL       strstr ; 0x200001c8
        0x200039de:    2800        .(      CMP      r0,#0
        0x200039e0:    d0f1        ..      BEQ      0x200039c6 ; shell_cmd_complete + 30
        0x200039e2:    eb050185    ....    ADD      r1,r5,r5,LSL #2
        0x200039e6:    eb060181    ....    ADD      r1,r6,r1,LSL #2
        0x200039ea:    1a40        @.      SUBS     r0,r0,r1
        0x200039ec:    b2e2        ..      UXTB     r2,r4
        0x200039ee:    4290        .B      CMP      r0,r2
        0x200039f0:    d2e9        ..      BCS      0x200039c6 ; shell_cmd_complete + 30
        0x200039f2:    0602        ..      LSLS     r2,r0,#24
        0x200039f4:    4689        .F      MOV      r9,r1
        0x200039f6:    d1e5        ..      BNE      0x200039c4 ; shell_cmd_complete + 28
        0x200039f8:    4648        HF      MOV      r0,r9
        0x200039fa:    b001        ..      ADD      sp,sp,#4
        0x200039fc:    e8bd83f0    ....    POP      {r4-r9,pc}
        0x20003a00:    f04f0900    O...    MOV      r9,#0
        0x20003a04:    4648        HF      MOV      r0,r9
        0x20003a06:    b001        ..      ADD      sp,sp,#4
        0x20003a08:    e8bd83f0    ....    POP      {r4-r9,pc}
    shell_hexdump_cmd
        0x20003a0c:    b5f0        ..      PUSH     {r4-r7,lr}
        0x20003a0e:    b081        ..      SUB      sp,sp,#4
        0x20003a10:    b1c0        ..      CBZ      r0,0x20003a44 ; shell_hexdump_cmd + 56
        0x20003a12:    f6443743    D.C7    MOV      r7,#0x4b43
        0x20003a16:    4604        .F      MOV      r4,r0
        0x20003a18:    460d        .F      MOV      r5,r1
        0x20003a1a:    2600        .&      MOVS     r6,#0
        0x20003a1c:    f2c20700    ....    MOVT     r7,#0x2000
        0x20003a20:    5da8        .]      LDRB     r0,[r5,r6]
        0x20003a22:    4631        1F      MOV      r1,r6
        0x20003a24:    182a        *.      ADDS     r2,r5,r0
        0x20003a26:    4638        8F      MOV      r0,r7
        0x20003a28:    f000fcf4    ....    BL       __0printf$8 ; 0x20004414
        0x20003a2c:    3601        .6      ADDS     r6,#1
        0x20003a2e:    42b4        .B      CMP      r4,r6
        0x20003a30:    d1f6        ..      BNE      0x20003a20 ; shell_hexdump_cmd + 20
        0x20003a32:    2c03        .,      CMP      r4,#3
        0x20003a34:    d106        ..      BNE      0x20003a44 ; shell_hexdump_cmd + 56
        0x20003a36:    2000        .       MOVS     r0,#0
        0x20003a38:    2180        .!      MOVS     r1,#0x80
        0x20003a3a:    b001        ..      ADD      sp,sp,#4
        0x20003a3c:    e8bd40f0    ...@    POP      {r4-r7,lr}
        0x20003a40:    f7ffbad0    ....    B        hexdump ; 0x20002fe4
        0x20003a44:    a005        ..      ADR      r0,{pc}+0x18 ; 0x20003a5c
        0x20003a46:    f000ff39    ..9.    BL       puts ; 0x200048bc
        0x20003a4a:    a00b        ..      ADR      r0,{pc}+0x2e ; 0x20003a78
        0x20003a4c:    f000ff36    ..6.    BL       puts ; 0x200048bc
        0x20003a50:    a00f        ..      ADR      r0,{pc}+0x40 ; 0x20003a90
        0x20003a52:    b001        ..      ADD      sp,sp,#4
        0x20003a54:    e8bd40f0    ...@    POP      {r4-r7,lr}
        0x20003a58:    f000bf30    ..0.    B.W      puts ; 0x200048bc
    $d.6
        0x20003a5c:    61657375    usea    DCD    1634038645
        0x20003a60:    203a6567    ge:     DCD    540697959
        0x20003a64:    64786568    hexd    DCD    1685611880
        0x20003a68:    20706d75    ump     DCD    544238965
        0x20003a6c:    72646461    addr    DCD    1919181921
        0x20003a70:    6e656c20     len    DCD    1852140576
        0x20003a74:    0000000d    ....    DCD    13
        0x20003a78:    64646109    .add    DCD    1684300041
        0x20003a7c:    6d203a72    r: m    DCD    1830828658
        0x20003a80:    726f6d65    emor    DCD    1919905125
        0x20003a84:    64612079    y ad    DCD    1684086905
        0x20003a88:    73657264    dres    DCD    1936028260
        0x20003a8c:    00000d73    s...    DCD    3443
        0x20003a90:    6e656c09    .len    DCD    1852140553
        0x20003a94:    6964203a    : di    DCD    1768169530
        0x20003a98:    616c7073    spla    DCD    1634496627
        0x20003a9c:    6f682079    y ho    DCD    1869095033
        0x20003aa0:    616d2077    w ma    DCD    1634541687
        0x20003aa4:    000d796e    ny..    DCD    883054
    $t.9
    shell_his_copy_queue_item
        0x20003aa8:    e92d41f0    -..A    PUSH     {r4-r8,lr}
        0x20003aac:    8883        ..      LDRH     r3,[r0,#4]
        0x20003aae:    428b        .B      CMP      r3,r1
        0x20003ab0:    bf38        8.      IT       CC
        0x20003ab2:    e8bd81f0    ....    POPCC    {r4-r8,pc}
        0x20003ab6:    4603        .F      MOV      r3,r0
        0x20003ab8:    f8335b0e    3..[    LDRH     r5,[r3],#0xe
        0x20003abc:    4429        )D      ADD      r1,r1,r5
        0x20003abe:    1e4d        M.      SUBS     r5,r1,#1
        0x20003ac0:    b2ac        ..      UXTH     r4,r5
        0x20003ac2:    2c03        .,      CMP      r4,#3
        0x20003ac4:    bf88        ..      IT       HI
        0x20003ac6:    1f4d        M.      SUBHI    r5,r1,#5
        0x20003ac8:    b2a9        ..      UXTH     r1,r5
        0x20003aca:    f813c001    ....    LDRB     r12,[r3,r1]
        0x20003ace:    1c69        i.      ADDS     r1,r5,#1
        0x20003ad0:    b28d        ..      UXTH     r5,r1
        0x20003ad2:    2d03        .-      CMP      r5,#3
        0x20003ad4:    bf88        ..      IT       HI
        0x20003ad6:    2100        .!      MOVHI    r1,#0
        0x20003ad8:    b289        ..      UXTH     r1,r1
        0x20003ada:    f813e001    ....    LDRB     lr,[r3,r1]
        0x20003ade:    45f4        .E      CMP      r12,lr
        0x20003ae0:    d22c        ,.      BCS      0x20003b3c ; shell_his_copy_queue_item + 148
        0x20003ae2:    4661        aF      MOV      r1,r12
        0x20003ae4:    4663        cF      MOV      r3,r12
        0x20003ae6:    bf00        ..      NOP      
        0x20003ae8:    1844        D.      ADDS     r4,r0,r1
        0x20003aea:    eba1050c    ....    SUB      r5,r1,r12
        0x20003aee:    1c59        Y.      ADDS     r1,r3,#1
        0x20003af0:    7ca4        .|      LDRB     r4,[r4,#0x12]
        0x20003af2:    b289        ..      UXTH     r1,r1
        0x20003af4:    4571        qE      CMP      r1,lr
        0x20003af6:    5554        TU      STRB     r4,[r2,r5]
        0x20003af8:    d21a        ..      BCS      0x20003b30 ; shell_his_copy_queue_item + 136
        0x20003afa:    1844        D.      ADDS     r4,r0,r1
        0x20003afc:    eba1050c    ....    SUB      r5,r1,r12
        0x20003b00:    1c99        ..      ADDS     r1,r3,#2
        0x20003b02:    7ca4        .|      LDRB     r4,[r4,#0x12]
        0x20003b04:    b289        ..      UXTH     r1,r1
        0x20003b06:    4571        qE      CMP      r1,lr
        0x20003b08:    5554        TU      STRB     r4,[r2,r5]
        0x20003b0a:    d211        ..      BCS      0x20003b30 ; shell_his_copy_queue_item + 136
        0x20003b0c:    1844        D.      ADDS     r4,r0,r1
        0x20003b0e:    eba1050c    ....    SUB      r5,r1,r12
        0x20003b12:    1cd9        ..      ADDS     r1,r3,#3
        0x20003b14:    7ca4        .|      LDRB     r4,[r4,#0x12]
        0x20003b16:    b289        ..      UXTH     r1,r1
        0x20003b18:    4571        qE      CMP      r1,lr
        0x20003b1a:    5554        TU      STRB     r4,[r2,r5]
        0x20003b1c:    d208        ..      BCS      0x20003b30 ; shell_his_copy_queue_item + 136
        0x20003b1e:    1844        D.      ADDS     r4,r0,r1
        0x20003b20:    3304        .3      ADDS     r3,#4
        0x20003b22:    7ca4        .|      LDRB     r4,[r4,#0x12]
        0x20003b24:    eba1050c    ....    SUB      r5,r1,r12
        0x20003b28:    b299        ..      UXTH     r1,r3
        0x20003b2a:    4571        qE      CMP      r1,lr
        0x20003b2c:    5554        TU      STRB     r4,[r2,r5]
        0x20003b2e:    d3db        ..      BCC      0x20003ae8 ; shell_his_copy_queue_item + 64
        0x20003b30:    eba1000c    ....    SUB      r0,r1,r12
        0x20003b34:    2100        .!      MOVS     r1,#0
        0x20003b36:    5411        .T      STRB     r1,[r2,r0]
        0x20003b38:    e8bd81f0    ....    POP      {r4-r8,pc}
        0x20003b3c:    f1bc0ffd    ....    CMP      r12,#0xfd
        0x20003b40:    d836        6.      BHI      0x20003bb0 ; shell_his_copy_queue_item + 264
        0x20003b42:    f1cc0102    ....    RSB      r1,r12,#2
        0x20003b46:    f1cc03fd    ....    RSB      r3,r12,#0xfd
        0x20003b4a:    f0110403    ....    ANDS     r4,r1,#3
        0x20003b4e:    46e0        .F      MOV      r8,r12
        0x20003b50:    d015        ..      BEQ      0x20003b7e ; shell_his_copy_queue_item + 214
        0x20003b52:    eb00010c    ....    ADD      r1,r0,r12
        0x20003b56:    7c89        .|      LDRB     r1,[r1,#0x12]
        0x20003b58:    2c01        .,      CMP      r4,#1
        0x20003b5a:    f10c0801    ....    ADD      r8,r12,#1
        0x20003b5e:    7011        .p      STRB     r1,[r2,#0]
        0x20003b60:    d00d        ..      BEQ      0x20003b7e ; shell_his_copy_queue_item + 214
        0x20003b62:    eb000108    ....    ADD      r1,r0,r8
        0x20003b66:    7c89        .|      LDRB     r1,[r1,#0x12]
        0x20003b68:    2c02        .,      CMP      r4,#2
        0x20003b6a:    f10c0802    ....    ADD      r8,r12,#2
        0x20003b6e:    7051        Qp      STRB     r1,[r2,#1]
        0x20003b70:    d005        ..      BEQ      0x20003b7e ; shell_his_copy_queue_item + 214
        0x20003b72:    eb000108    ....    ADD      r1,r0,r8
        0x20003b76:    7c89        .|      LDRB     r1,[r1,#0x12]
        0x20003b78:    f10c0803    ....    ADD      r8,r12,#3
        0x20003b7c:    7091        .p      STRB     r1,[r2,#2]
        0x20003b7e:    2b03        .+      CMP      r3,#3
        0x20003b80:    d316        ..      BCC      0x20003bb0 ; shell_his_copy_queue_item + 264
        0x20003b82:    eba2040c    ....    SUB      r4,r2,r12
        0x20003b86:    1f03        ..      SUBS     r3,r0,#4
        0x20003b88:    3c04        .<      SUBS     r4,#4
        0x20003b8a:    25fe        .%      MOVS     r5,#0xfe
        0x20003b8c:    eb030608    ....    ADD      r6,r3,r8
        0x20003b90:    7db7        .}      LDRB     r7,[r6,#0x16]
        0x20003b92:    eb040108    ....    ADD      r1,r4,r8
        0x20003b96:    710f        .q      STRB     r7,[r1,#4]
        0x20003b98:    7df7        .}      LDRB     r7,[r6,#0x17]
        0x20003b9a:    3d04        .=      SUBS     r5,#4
        0x20003b9c:    714f        Oq      STRB     r7,[r1,#5]
        0x20003b9e:    7e37        7~      LDRB     r7,[r6,#0x18]
        0x20003ba0:    3304        .3      ADDS     r3,#4
        0x20003ba2:    718f        .q      STRB     r7,[r1,#6]
        0x20003ba4:    7e76        v~      LDRB     r6,[r6,#0x19]
        0x20003ba6:    45a8        .E      CMP      r8,r5
        0x20003ba8:    f1040404    ....    ADD      r4,r4,#4
        0x20003bac:    71ce        .q      STRB     r6,[r1,#7]
        0x20003bae:    d1ed        ..      BNE      0x20003b8c ; shell_his_copy_queue_item + 228
        0x20003bb0:    f1be0f00    ....    CMP      lr,#0
        0x20003bb4:    d03a        :.      BEQ      0x20003c2c ; shell_his_copy_queue_item + 388
        0x20003bb6:    2300        .#      MOVS     r3,#0
        0x20003bb8:    2100        .!      MOVS     r1,#0
        0x20003bba:    bf00        ..      NOP      
        0x20003bbc:    18c4        ..      ADDS     r4,r0,r3
        0x20003bbe:    eba3030c    ....    SUB      r3,r3,r12
        0x20003bc2:    189d        ..      ADDS     r5,r3,r2
        0x20003bc4:    f0410301    A...    ORR      r3,r1,#1
        0x20003bc8:    7ca4        .|      LDRB     r4,[r4,#0x12]
        0x20003bca:    b29b        ..      UXTH     r3,r3
        0x20003bcc:    4573        sE      CMP      r3,lr
        0x20003bce:    f88540fe    ...@    STRB     r4,[r5,#0xfe]
        0x20003bd2:    d222        ".      BCS      0x20003c1a ; shell_his_copy_queue_item + 370
        0x20003bd4:    18c4        ..      ADDS     r4,r0,r3
        0x20003bd6:    eba3030c    ....    SUB      r3,r3,r12
        0x20003bda:    189d        ..      ADDS     r5,r3,r2
        0x20003bdc:    f0410302    A...    ORR      r3,r1,#2
        0x20003be0:    7ca4        .|      LDRB     r4,[r4,#0x12]
        0x20003be2:    b29b        ..      UXTH     r3,r3
        0x20003be4:    4573        sE      CMP      r3,lr
        0x20003be6:    f88540fe    ...@    STRB     r4,[r5,#0xfe]
        0x20003bea:    d216        ..      BCS      0x20003c1a ; shell_his_copy_queue_item + 370
        0x20003bec:    18c4        ..      ADDS     r4,r0,r3
        0x20003bee:    eba3030c    ....    SUB      r3,r3,r12
        0x20003bf2:    189d        ..      ADDS     r5,r3,r2
        0x20003bf4:    f0410303    A...    ORR      r3,r1,#3
        0x20003bf8:    7ca4        .|      LDRB     r4,[r4,#0x12]
        0x20003bfa:    b29b        ..      UXTH     r3,r3
        0x20003bfc:    4573        sE      CMP      r3,lr
        0x20003bfe:    f88540fe    ...@    STRB     r4,[r5,#0xfe]
        0x20003c02:    d20a        ..      BCS      0x20003c1a ; shell_his_copy_queue_item + 370
        0x20003c04:    18c4        ..      ADDS     r4,r0,r3
        0x20003c06:    eba3030c    ....    SUB      r3,r3,r12
        0x20003c0a:    3104        .1      ADDS     r1,#4
        0x20003c0c:    7ca4        .|      LDRB     r4,[r4,#0x12]
        0x20003c0e:    189d        ..      ADDS     r5,r3,r2
        0x20003c10:    b28b        ..      UXTH     r3,r1
        0x20003c12:    4573        sE      CMP      r3,lr
        0x20003c14:    f88540fe    ...@    STRB     r4,[r5,#0xfe]
        0x20003c18:    d3d0        ..      BCC      0x20003bbc ; shell_his_copy_queue_item + 276
        0x20003c1a:    f10301fe    ....    ADD      r1,r3,#0xfe
        0x20003c1e:    eba1000c    ....    SUB      r0,r1,r12
        0x20003c22:    2100        .!      MOVS     r1,#0
        0x20003c24:    5411        .T      STRB     r1,[r2,r0]
        0x20003c26:    e8bd81f0    ....    POP      {r4-r8,pc}
        0x20003c2a:    bf00        ..      NOP      
        0x20003c2c:    21fe        .!      MOVS     r1,#0xfe
        0x20003c2e:    eba1000c    ....    SUB      r0,r1,r12
        0x20003c32:    2100        .!      MOVS     r1,#0
        0x20003c34:    5411        .T      STRB     r1,[r2,r0]
        0x20003c36:    e8bd81f0    ....    POP      {r4-r8,pc}
        0x20003c3a:    0000        ..      MOVS     r0,r0
    shell_his_queue_add_cmd
        0x20003c3c:    b5f0        ..      PUSH     {r4-r7,lr}
        0x20003c3e:    b081        ..      SUB      sp,sp,#4
        0x20003c40:    4604        .F      MOV      r4,r0
        0x20003c42:    4608        .F      MOV      r0,r1
        0x20003c44:    460f        .F      MOV      r7,r1
        0x20003c46:    f7fcfad1    ....    BL       strlen ; 0x200001ec
        0x20003c4a:    b280        ..      UXTH     r0,r0
        0x20003c4c:    28fd        .(      CMP      r0,#0xfd
        0x20003c4e:    d847        G.      BHI      0x20003ce0 ; shell_his_queue_add_cmd + 164
        0x20003c50:    89a1        ..      LDRH     r1,[r4,#0xc]
        0x20003c52:    e013        ..      B        0x20003c7c ; shell_his_queue_add_cmd + 64
        0x20003c54:    8822        ".      LDRH     r2,[r4,#0]
        0x20003c56:    3b01        .;      SUBS     r3,#1
        0x20003c58:    3201        .2      ADDS     r2,#1
        0x20003c5a:    b295        ..      UXTH     r5,r2
        0x20003c5c:    2d03        .-      CMP      r5,#3
        0x20003c5e:    bf88        ..      IT       HI
        0x20003c60:    2200        ."      MOVHI    r2,#0
        0x20003c62:    8022        ".      STRH     r2,[r4,#0]
        0x20003c64:    b292        ..      UXTH     r2,r2
        0x20003c66:    4422        "D      ADD      r2,r2,r4
        0x20003c68:    8925        %.      LDRH     r5,[r4,#8]
        0x20003c6a:    7b92        .{      LDRB     r2,[r2,#0xe]
        0x20003c6c:    80a3        ..      STRH     r3,[r4,#4]
        0x20003c6e:    4295        .B      CMP      r5,r2
        0x20003c70:    bf88        ..      IT       HI
        0x20003c72:    3dfe        .=      SUBHI    r5,r5,#0xfe
        0x20003c74:    1aab        ..      SUBS     r3,r5,r2
        0x20003c76:    4419        .D      ADD      r1,r1,r3
        0x20003c78:    81a1        ..      STRH     r1,[r4,#0xc]
        0x20003c7a:    8122        ".      STRH     r2,[r4,#8]
        0x20003c7c:    b28a        ..      UXTH     r2,r1
        0x20003c7e:    f1c202fd    ....    RSB      r2,r2,#0xfd
        0x20003c82:    88a3        ..      LDRH     r3,[r4,#4]
        0x20003c84:    4290        .B      CMP      r0,r2
        0x20003c86:    dce5        ..      BGT      0x20003c54 ; shell_his_queue_add_cmd + 24
        0x20003c88:    2b03        .+      CMP      r3,#3
        0x20003c8a:    d0e3        ..      BEQ      0x20003c54 ; shell_his_queue_add_cmd + 24
        0x20003c8c:    f8b4c002    ....    LDRH     r12,[r4,#2]
        0x20003c90:    8962        b.      LDRH     r2,[r4,#0xa]
        0x20003c92:    eb04050c    ....    ADD      r5,r4,r12
        0x20003c96:    f10c0c01    ....    ADD      r12,r12,#1
        0x20003c9a:    73aa        .s      STRB     r2,[r5,#0xe]
        0x20003c9c:    fa1ff58c    ....    UXTH     r5,r12
        0x20003ca0:    2d03        .-      CMP      r5,#3
        0x20003ca2:    bf88        ..      IT       HI
        0x20003ca4:    f04f0c00    O...    MOVHI    r12,#0
        0x20003ca8:    3301        .3      ADDS     r3,#1
        0x20003caa:    f8a4c002    ....    STRH     r12,[r4,#2]
        0x20003cae:    80a3        ..      STRH     r3,[r4,#4]
        0x20003cb0:    b190        ..      CBZ      r0,0x20003cd8 ; shell_his_queue_add_cmd + 156
        0x20003cb2:    2500        .%      MOVS     r5,#0
        0x20003cb4:    2300        .#      MOVS     r3,#0
        0x20003cb6:    bf00        ..      NOP      
        0x20003cb8:    5d7d        }]      LDRB     r5,[r7,r5]
        0x20003cba:    b296        ..      UXTH     r6,r2
        0x20003cbc:    4426        &D      ADD      r6,r6,r4
        0x20003cbe:    3201        .2      ADDS     r2,#1
        0x20003cc0:    74b5        .t      STRB     r5,[r6,#0x12]
        0x20003cc2:    b296        ..      UXTH     r6,r2
        0x20003cc4:    3301        .3      ADDS     r3,#1
        0x20003cc6:    2efd        ..      CMP      r6,#0xfd
        0x20003cc8:    b29d        ..      UXTH     r5,r3
        0x20003cca:    bf88        ..      IT       HI
        0x20003ccc:    2200        ."      MOVHI    r2,#0
        0x20003cce:    3101        .1      ADDS     r1,#1
        0x20003cd0:    42a8        .B      CMP      r0,r5
        0x20003cd2:    8162        b.      STRH     r2,[r4,#0xa]
        0x20003cd4:    81a1        ..      STRH     r1,[r4,#0xc]
        0x20003cd6:    d8ef        ..      BHI      0x20003cb8 ; shell_his_queue_add_cmd + 124
        0x20003cd8:    fa1ff08c    ....    UXTH     r0,r12
        0x20003cdc:    4420         D      ADD      r0,r0,r4
        0x20003cde:    7382        .s      STRB     r2,[r0,#0xe]
        0x20003ce0:    b001        ..      ADD      sp,sp,#4
        0x20003ce2:    bdf0        ..      POP      {r4-r7,pc}
    shell_his_queue_search_cmd
        0x20003ce4:    e92d41f0    -..A    PUSH     {r4-r8,lr}
        0x20003ce8:    f8b08004    ....    LDRH     r8,[r0,#4]
        0x20003cec:    f1b80f00    ....    CMP      r8,#0
        0x20003cf0:    d04b        K.      BEQ      0x20003d8a ; shell_his_queue_search_cmd + 166
        0x20003cf2:    4604        .F      MOV      r4,r0
        0x20003cf4:    8807        ..      LDRH     r7,[r0,#0]
        0x20003cf6:    4608        .F      MOV      r0,r1
        0x20003cf8:    460d        .F      MOV      r5,r1
        0x20003cfa:    f7fcfa77    ..w.    BL       strlen ; 0x200001ec
        0x20003cfe:    19e1        ..      ADDS     r1,r4,r7
        0x20003d00:    b280        ..      UXTH     r0,r0
        0x20003d02:    7b8a        .{      LDRB     r2,[r1,#0xe]
        0x20003d04:    b370        p.      CBZ      r0,0x20003d64 ; shell_his_queue_search_cmd + 128
        0x20003d06:    f04f0e00    O...    MOV      lr,#0
        0x20003d0a:    e004        ..      B        0x20003d16 ; shell_his_queue_search_cmd + 50
        0x20003d0c:    f10e0e01    ....    ADD      lr,lr,#1
        0x20003d10:    45c6        .E      CMP      lr,r8
        0x20003d12:    4662        bF      MOV      r2,r12
        0x20003d14:    d239        9.      BCS      0x20003d8a ; shell_his_queue_search_cmd + 166
        0x20003d16:    3701        .7      ADDS     r7,#1
        0x20003d18:    b2bb        ..      UXTH     r3,r7
        0x20003d1a:    2b03        .+      CMP      r3,#3
        0x20003d1c:    bf88        ..      IT       HI
        0x20003d1e:    2700        .'      MOVHI    r7,#0
        0x20003d20:    b2bb        ..      UXTH     r3,r7
        0x20003d22:    4423        #D      ADD      r3,r3,r4
        0x20003d24:    f893c00e    ....    LDRB     r12,[r3,#0xe]
        0x20003d28:    ebbc0302    ....    SUBS     r3,r12,r2
        0x20003d2c:    bf38        8.      IT       CC
        0x20003d2e:    33fe        .3      ADDCC    r3,r3,#0xfe
        0x20003d30:    b29b        ..      UXTH     r3,r3
        0x20003d32:    4283        .B      CMP      r3,r0
        0x20003d34:    d1ea        ..      BNE      0x20003d0c ; shell_his_queue_search_cmd + 40
        0x20003d36:    b2d2        ..      UXTB     r2,r2
        0x20003d38:    2300        .#      MOVS     r3,#0
        0x20003d3a:    2600        .&      MOVS     r6,#0
        0x20003d3c:    b291        ..      UXTH     r1,r2
        0x20003d3e:    4421        !D      ADD      r1,r1,r4
        0x20003d40:    7c89        .|      LDRB     r1,[r1,#0x12]
        0x20003d42:    5ceb        .\      LDRB     r3,[r5,r3]
        0x20003d44:    4299        .B      CMP      r1,r3
        0x20003d46:    d1e1        ..      BNE      0x20003d0c ; shell_his_queue_search_cmd + 40
        0x20003d48:    3201        .2      ADDS     r2,#1
        0x20003d4a:    b291        ..      UXTH     r1,r2
        0x20003d4c:    3601        .6      ADDS     r6,#1
        0x20003d4e:    29fd        .)      CMP      r1,#0xfd
        0x20003d50:    b2b3        ..      UXTH     r3,r6
        0x20003d52:    bf88        ..      IT       HI
        0x20003d54:    2200        ."      MOVHI    r2,#0
        0x20003d56:    4298        .B      CMP      r0,r3
        0x20003d58:    d8f0        ..      BHI      0x20003d3c ; shell_his_queue_search_cmd + 88
        0x20003d5a:    f10e0001    ....    ADD      r0,lr,#1
        0x20003d5e:    b280        ..      UXTH     r0,r0
        0x20003d60:    e8bd81f0    ....    POP      {r4-r8,pc}
        0x20003d64:    2000        .       MOVS     r0,#0
        0x20003d66:    bf00        ..      NOP      
        0x20003d68:    3701        .7      ADDS     r7,#1
        0x20003d6a:    b2b9        ..      UXTH     r1,r7
        0x20003d6c:    2903        .)      CMP      r1,#3
        0x20003d6e:    bf88        ..      IT       HI
        0x20003d70:    2700        .'      MOVHI    r7,#0
        0x20003d72:    b2b9        ..      UXTH     r1,r7
        0x20003d74:    4421        !D      ADD      r1,r1,r4
        0x20003d76:    7b89        .{      LDRB     r1,[r1,#0xe]
        0x20003d78:    3001        .0      ADDS     r0,#1
        0x20003d7a:    1a8a        ..      SUBS     r2,r1,r2
        0x20003d7c:    bf38        8.      IT       CC
        0x20003d7e:    32fe        .2      ADDCC    r2,r2,#0xfe
        0x20003d80:    0412        ..      LSLS     r2,r2,#16
        0x20003d82:    d0ec        ..      BEQ      0x20003d5e ; shell_his_queue_search_cmd + 122
        0x20003d84:    4540        @E      CMP      r0,r8
        0x20003d86:    460a        .F      MOV      r2,r1
        0x20003d88:    d3ee        ..      BCC      0x20003d68 ; shell_his_queue_search_cmd + 132
        0x20003d8a:    2000        .       MOVS     r0,#0
        0x20003d8c:    b280        ..      UXTH     r0,r0
        0x20003d8e:    e8bd81f0    ....    POP      {r4-r8,pc}
        0x20003d92:    0000        ..      MOVS     r0,r0
    shell_ls_cmd
        0x20003d94:    b5f0        ..      PUSH     {r4-r7,lr}
        0x20003d96:    b081        ..      SUB      sp,sp,#4
        0x20003d98:    2802        .(      CMP      r0,#2
        0x20003d9a:    d323        #.      BCC      0x20003de4 ; shell_ls_cmd + 80
        0x20003d9c:    7848        Hx      LDRB     r0,[r1,#1]
        0x20003d9e:    180c        ..      ADDS     r4,r1,r0
        0x20003da0:    a02d        -.      ADR      r0,{pc}+0xb8 ; 0x20003e58
        0x20003da2:    4621        !F      MOV      r1,r4
        0x20003da4:    f7fcfa29    ..).    BL       strcmp ; 0x200001fa
        0x20003da8:    b310        ..      CBZ      r0,0x20003df0 ; shell_ls_cmd + 92
        0x20003daa:    a02c        ,.      ADR      r0,{pc}+0xb2 ; 0x20003e5c
        0x20003dac:    4621        !F      MOV      r1,r4
        0x20003dae:    f7fcfa24    ..$.    BL       strcmp ; 0x200001fa
        0x20003db2:    b3c8        ..      CBZ      r0,0x20003e28 ; shell_ls_cmd + 148
        0x20003db4:    a02a        *.      ADR      r0,{pc}+0xac ; 0x20003e60
        0x20003db6:    4621        !F      MOV      r1,r4
        0x20003db8:    f7fcfa1f    ....    BL       strcmp ; 0x200001fa
        0x20003dbc:    bb88        ..      CBNZ     r0,0x20003e22 ; shell_ls_cmd + 142
        0x20003dbe:    a029        ).      ADR      r0,{pc}+0xa6 ; 0x20003e64
        0x20003dc0:    f000fd7c    ..|.    BL       puts ; 0x200048bc
        0x20003dc4:    a02d        -.      ADR      r0,{pc}+0xb8 ; 0x20003e7c
        0x20003dc6:    f000fd79    ..y.    BL       puts ; 0x200048bc
        0x20003dca:    a02f        /.      ADR      r0,{pc}+0xbe ; 0x20003e88
        0x20003dcc:    f000fd76    ..v.    BL       puts ; 0x200048bc
        0x20003dd0:    a032        2.      ADR      r0,{pc}+0xcc ; 0x20003e9c
        0x20003dd2:    f000fd73    ..s.    BL       puts ; 0x200048bc
        0x20003dd6:    a037        7.      ADR      r0,{pc}+0xde ; 0x20003eb4
        0x20003dd8:    b001        ..      ADD      sp,sp,#4
        0x20003dda:    e8bd40f0    ...@    POP      {r4-r7,lr}
        0x20003dde:    f000bd6d    ..m.    B.W      puts ; 0x200048bc
        0x20003de2:    bf00        ..      NOP      
        0x20003de4:    a015        ..      ADR      r0,{pc}+0x58 ; 0x20003e3c
        0x20003de6:    b001        ..      ADD      sp,sp,#4
        0x20003de8:    e8bd40f0    ...@    POP      {r4-r7,lr}
        0x20003dec:    f000bd66    ..f.    B.W      puts ; 0x200048bc
        0x20003df0:    f2400620    @. .    MOVW     r6,#0x20
        0x20003df4:    f2c20601    ....    MOVT     r6,#0x2001
        0x20003df8:    6a30        0j      LDR      r0,[r6,#0x20]
        0x20003dfa:    68c1        .h      LDR      r1,[r0,#0xc]
        0x20003dfc:    b189        ..      CBZ      r1,0x20003e22 ; shell_ls_cmd + 142
        0x20003dfe:    270c        .'      MOVS     r7,#0xc
        0x20003e00:    a433        3.      ADR      r4,{pc}+0xd0 ; 0x20003ed0
        0x20003e02:    a534        4.      ADR      r5,{pc}+0xd2 ; 0x20003ed4
        0x20003e04:    4438        8D      ADD      r0,r0,r7
        0x20003e06:    f1a0010c    ....    SUB      r1,r0,#0xc
        0x20003e0a:    4620         F      MOV      r0,r4
        0x20003e0c:    f000fb02    ....    BL       __0printf$8 ; 0x20004414
        0x20003e10:    4628        (F      MOV      r0,r5
        0x20003e12:    f000fd53    ..S.    BL       puts ; 0x200048bc
        0x20003e16:    6a30        0j      LDR      r0,[r6,#0x20]
        0x20003e18:    19c1        ..      ADDS     r1,r0,r7
        0x20003e1a:    6949        Ii      LDR      r1,[r1,#0x14]
        0x20003e1c:    3714        .7      ADDS     r7,r7,#0x14
        0x20003e1e:    2900        .)      CMP      r1,#0
        0x20003e20:    d1f0        ..      BNE      0x20003e04 ; shell_ls_cmd + 112
        0x20003e22:    b001        ..      ADD      sp,sp,#4
        0x20003e24:    bdf0        ..      POP      {r4-r7,pc}
        0x20003e26:    bf00        ..      NOP      
        0x20003e28:    f644306d    D.m0    MOV      r0,#0x4b6d
        0x20003e2c:    f2c20000    ....    MOVT     r0,#0x2000
        0x20003e30:    b001        ..      ADD      sp,sp,#4
        0x20003e32:    e8bd40f0    ...@    POP      {r4-r7,lr}
        0x20003e36:    f000bd41    ..A.    B.W      puts ; 0x200048bc
        0x20003e3a:    bf00        ..      NOP      
    $d.1
        0x20003e3c:    6e20736c    ls n    DCD    1847620460
        0x20003e40:    20646565    eed     DCD    543450469
        0x20003e44:    65726f6d    more    DCD    1701998445
        0x20003e48:    67726120     arg    DCD    1735549216
        0x20003e4c:    6e656d75    umen    DCD    1852140917
        0x20003e50:    0d217374    ts!.    DCD    220296052
        0x20003e54:    00000000    ....    DCD    0
        0x20003e58:    00646d63    cmd.    DCD    6581603
        0x20003e5c:    0000762d    -v..    DCD    30253
        0x20003e60:    0000682d    -h..    DCD    26669
        0x20003e64:    61657375    usea    DCD    1634038645
        0x20003e68:    203a6567    ge:     DCD    540697959
        0x20003e6c:    5b20736c    ls [    DCD    1528853356
        0x20003e70:    6974706f    opti    DCD    1769238639
        0x20003e74:    5d736e6f    ons]    DCD    1567845999
        0x20003e78:    0000000d    ....    DCD    13
        0x20003e7c:    6974706f    opti    DCD    1769238639
        0x20003e80:    3a736e6f    ons:    DCD    980643439
        0x20003e84:    00000d20     ...    DCD    3360
        0x20003e88:    682d2009    . -h    DCD    1747787785
        0x20003e8c:    203a0920     .:     DCD    540674336
        0x20003e90:    776f6873    show    DCD    2003789939
        0x20003e94:    6c656820     hel    DCD    1818585120
        0x20003e98:    00000d70    p...    DCD    3440
        0x20003e9c:    762d2009    . -v    DCD    1982668809
        0x20003ea0:    203a0920     .:     DCD    540674336
        0x20003ea4:    776f6873    show    DCD    2003789939
        0x20003ea8:    72657620     ver    DCD    1919252000
        0x20003eac:    6e6f6973    sion    DCD    1852795251
        0x20003eb0:    0000000d    ....    DCD    13
        0x20003eb4:    6d632009    . cm    DCD    1835212809
        0x20003eb8:    3a092064    d .:    DCD    973676644
        0x20003ebc:    6f687320     sho    DCD    1869116192
        0x20003ec0:    6c612077    w al    DCD    1818304631
        0x20003ec4:    6f63206c    l co    DCD    1868767340
        0x20003ec8:    6e616d6d    mman    DCD    1851878765
        0x20003ecc:    000d7364    ds..    DCD    881508
        0x20003ed0:    00007325    %s..    DCD    29477
        0x20003ed4:    0000000d    ....    DCD    13
    $t.5
    shell_parser
        0x20003ed8:    e92d4ff0    -..O    PUSH     {r4-r11,lr}
        0x20003edc:    b0a7        ..      SUB      sp,sp,#0x9c
        0x20003ede:    f1000624    ..$.    ADD      r6,r0,#0x24
        0x20003ee2:    4682        .F      MOV      r10,r0
        0x20003ee4:    4630        0F      MOV      r0,r6
        0x20003ee6:    4688        .F      MOV      r8,r1
        0x20003ee8:    f7fffefc    ....    BL       shell_his_queue_search_cmd ; 0x20003ce4
        0x20003eec:    b930        0.      CBNZ     r0,0x20003efc ; shell_parser + 36
        0x20003eee:    f8980000    ....    LDRB     r0,[r8,#0]
        0x20003ef2:    b118        ..      CBZ      r0,0x20003efc ; shell_parser + 36
        0x20003ef4:    4630        0F      MOV      r0,r6
        0x20003ef6:    4641        AF      MOV      r1,r8
        0x20003ef8:    f7fffea0    ....    BL       shell_his_queue_add_cmd ; 0x20003c3c
        0x20003efc:    4640        @F      MOV      r0,r8
        0x20003efe:    f7fcf975    ..u.    BL       strlen ; 0x200001ec
        0x20003f02:    2865        e(      CMP      r0,#0x65
        0x20003f04:    d304        ..      BCC      0x20003f10 ; shell_parser + 56
        0x20003f06:    f20f404c    ..L@    ADR.W    r0,{pc}+0x44e ; 0x20004354
        0x20003f0a:    f000fcd7    ....    BL       puts ; 0x200048bc
        0x20003f0e:    e1f5        ..      B        0x200042fc ; shell_parser + 1060
        0x20003f10:    2000        .       MOVS     r0,#0
        0x20003f12:    f8cd007d    ..}.    STR      r0,[sp,#0x7d]
        0x20003f16:    9026        &.      STR      r0,[sp,#0x98]
        0x20003f18:    f8cd0095    ....    STR      r0,[sp,#0x95]
        0x20003f1c:    f8cd0091    ....    STR      r0,[sp,#0x91]
        0x20003f20:    f8cd008d    ....    STR      r0,[sp,#0x8d]
        0x20003f24:    f8cd0089    ....    STR      r0,[sp,#0x89]
        0x20003f28:    f8cd0085    ....    STR      r0,[sp,#0x85]
        0x20003f2c:    f8cd0081    ....    STR      r0,[sp,#0x81]
        0x20003f30:    f6463028    F.(0    MOV      r0,#0x6b28
        0x20003f34:    f2c20001    ....    MOVT     r0,#0x2001
        0x20003f38:    ac1f        ..      ADD      r4,sp,#0x7c
        0x20003f3a:    2201        ."      MOVS     r2,#1
        0x20003f3c:    6800        .h      LDR      r0,[r0,#0]
        0x20003f3e:    1c66        f.      ADDS     r6,r4,#1
        0x20003f40:    f88d2080    ...     STRB     r2,[sp,#0x80]
        0x20003f44:    f88d207c    ..|     STRB     r2,[sp,#0x7c]
        0x20003f48:    f1b80f00    ....    CMP      r8,#0
        0x20003f4c:    bf18        ..      IT       NE
        0x20003f4e:    4640        @F      MOVNE    r0,r8
        0x20003f50:    1cc1        ..      ADDS     r1,r0,#3
        0x20003f52:    f8110c03    ....    LDRB     r0,[r1,#-3]
        0x20003f56:    2800        .(      CMP      r0,#0
        0x20003f58:    bf1f        ..      ITTTT    NE
        0x20003f5a:    08c3        ..      LSRNE    r3,r0,#3
        0x20003f5c:    5ce3        .\      LDRBNE   r3,[r4,r3]
        0x20003f5e:    f0000707    ....    ANDNE    r7,r0,#7
        0x20003f62:    fa02f707    ....    LSLNE    r7,r2,r7
        0x20003f66:    bf18        ..      IT       NE
        0x20003f68:    ea130307    ....    ANDSNE   r3,r3,r7
        0x20003f6c:    f00081d0    ....    BEQ.W    0x20004310 ; shell_parser + 1080
        0x20003f70:    f8110c02    ....    LDRB     r0,[r1,#-2]
        0x20003f74:    2800        .(      CMP      r0,#0
        0x20003f76:    bf1f        ..      ITTTT    NE
        0x20003f78:    08c3        ..      LSRNE    r3,r0,#3
        0x20003f7a:    5ce3        .\      LDRBNE   r3,[r4,r3]
        0x20003f7c:    f0000707    ....    ANDNE    r7,r0,#7
        0x20003f80:    fa02f707    ....    LSLNE    r7,r2,r7
        0x20003f84:    bf18        ..      IT       NE
        0x20003f86:    ea130307    ....    ANDSNE   r3,r3,r7
        0x20003f8a:    d01f        ..      BEQ      0x20003fcc ; shell_parser + 244
        0x20003f8c:    f8110c01    ....    LDRB     r0,[r1,#-1]
        0x20003f90:    2800        .(      CMP      r0,#0
        0x20003f92:    bf1f        ..      ITTTT    NE
        0x20003f94:    08c3        ..      LSRNE    r3,r0,#3
        0x20003f96:    5ce3        .\      LDRBNE   r3,[r4,r3]
        0x20003f98:    f0000707    ....    ANDNE    r7,r0,#7
        0x20003f9c:    fa02f707    ....    LSLNE    r7,r2,r7
        0x20003fa0:    bf18        ..      IT       NE
        0x20003fa2:    ea130307    ....    ANDSNE   r3,r3,r7
        0x20003fa6:    d019        ..      BEQ      0x20003fdc ; shell_parser + 260
        0x20003fa8:    f8110b04    ....    LDRB     r0,[r1],#4
        0x20003fac:    b138        8.      CBZ      r0,0x20003fbe ; shell_parser + 230
        0x20003fae:    08c3        ..      LSRS     r3,r0,#3
        0x20003fb0:    5ce3        .\      LDRB     r3,[r4,r3]
        0x20003fb2:    f0000707    ....    AND      r7,r0,#7
        0x20003fb6:    fa02f707    ....    LSL      r7,r2,r7
        0x20003fba:    403b        ;@      ANDS     r3,r3,r7
        0x20003fbc:    d1c9        ..      BNE      0x20003f52 ; shell_parser + 122
        0x20003fbe:    fab0f280    ....    CLZ      r2,r0
        0x20003fc2:    0952        R.      LSRS     r2,r2,#5
        0x20003fc4:    3904        .9      SUBS     r1,#4
        0x20003fc6:    460d        .F      MOV      r5,r1
        0x20003fc8:    b172        r.      CBZ      r2,0x20003fe8 ; shell_parser + 272
        0x20003fca:    e022        ".      B        0x20004012 ; shell_parser + 314
        0x20003fcc:    fab0f280    ....    CLZ      r2,r0
        0x20003fd0:    0952        R.      LSRS     r2,r2,#5
        0x20003fd2:    3902        .9      SUBS     r1,#2
        0x20003fd4:    460d        .F      MOV      r5,r1
        0x20003fd6:    b13a        :.      CBZ      r2,0x20003fe8 ; shell_parser + 272
        0x20003fd8:    e01b        ..      B        0x20004012 ; shell_parser + 314
        0x20003fda:    bf00        ..      NOP      
        0x20003fdc:    fab0f280    ....    CLZ      r2,r0
        0x20003fe0:    0952        R.      LSRS     r2,r2,#5
        0x20003fe2:    3901        .9      SUBS     r1,#1
        0x20003fe4:    460d        .F      MOV      r5,r1
        0x20003fe6:    b9a2        ..      CBNZ     r2,0x20004012 ; shell_parser + 314
        0x20003fe8:    1c4a        J.      ADDS     r2,r1,#1
        0x20003fea:    bf00        ..      NOP      
        0x20003fec:    08c3        ..      LSRS     r3,r0,#3
        0x20003fee:    5ce3        .\      LDRB     r3,[r4,r3]
        0x20003ff0:    f0000007    ....    AND      r0,r0,#7
        0x20003ff4:    fa23f000    #...    LSR      r0,r3,r0
        0x20003ff8:    07c0        ..      LSLS     r0,r0,#31
        0x20003ffa:    4615        .F      MOV      r5,r2
        0x20003ffc:    d106        ..      BNE      0x2000400c ; shell_parser + 308
        0x20003ffe:    462a        *F      MOV      r2,r5
        0x20004000:    f8120b01    ....    LDRB     r0,[r2],#1
        0x20004004:    2800        .(      CMP      r0,#0
        0x20004006:    d1f1        ..      BNE      0x20003fec ; shell_parser + 276
        0x20004008:    e003        ..      B        0x20004012 ; shell_parser + 314
        0x2000400a:    bf00        ..      NOP      
        0x2000400c:    2000        .       MOVS     r0,#0
        0x2000400e:    f8050c01    ....    STRB     r0,[r5,#-1]
        0x20004012:    f8da7020    .. p    LDR      r7,[r10,#0x20]
        0x20004016:    9602        ..      STR      r6,[sp,#8]
        0x20004018:    68fe        .h      LDR      r6,[r7,#0xc]
        0x2000401a:    ebb10905    ....    SUBS     r9,r1,r5
        0x2000401e:    f6463028    F.(0    MOV      r0,#0x6b28
        0x20004022:    bf18        ..      IT       NE
        0x20004024:    4689        .F      MOVNE    r9,r1
        0x20004026:    2e00        ..      CMP      r6,#0
        0x20004028:    f2c20001    ....    MOVT     r0,#0x2001
        0x2000402c:    6005        .`      STR      r5,[r0,#0]
        0x2000402e:    d06f        o.      BEQ      0x20004110 ; shell_parser + 568
        0x20004030:    4640        @F      MOV      r0,r8
        0x20004032:    4639        9F      MOV      r1,r7
        0x20004034:    f7fcf8e1    ....    BL       strcmp ; 0x200001fa
        0x20004038:    b160        `.      CBZ      r0,0x20004054 ; shell_parser + 380
        0x2000403a:    3720         7      ADDS     r7,r7,#0x20
        0x2000403c:    683e        >h      LDR      r6,[r7,#0]
        0x2000403e:    2e00        ..      CMP      r6,#0
        0x20004040:    d066        f.      BEQ      0x20004110 ; shell_parser + 568
        0x20004042:    f1a7010c    ....    SUB      r1,r7,#0xc
        0x20004046:    4640        @F      MOV      r0,r8
        0x20004048:    f7fcf8d7    ....    BL       strcmp ; 0x200001fa
        0x2000404c:    2800        .(      CMP      r0,#0
        0x2000404e:    f1070714    ....    ADD      r7,r7,#0x14
        0x20004052:    d1f3        ..      BNE      0x2000403c ; shell_parser + 356
        0x20004054:    200a        .       MOVS     r0,#0xa
        0x20004056:    f88d000e    ....    STRB     r0,[sp,#0xe]
        0x2000405a:    f10d000e    ....    ADD      r0,sp,#0xe
        0x2000405e:    300a        .0      ADDS     r0,r0,#0xa
        0x20004060:    4641        AF      MOV      r1,r8
        0x20004062:    f7fcf8d8    ....    BL       strcpy ; 0x20000216
        0x20004066:    4640        @F      MOV      r0,r8
        0x20004068:    f7fcf8c0    ....    BL       strlen ; 0x200001ec
        0x2000406c:    9a02        ..      LDR      r2,[sp,#8]
        0x2000406e:    2100        .!      MOVS     r1,#0
        0x20004070:    f8c2101b    ....    STR      r1,[r2,#0x1b]
        0x20004074:    6191        .a      STR      r1,[r2,#0x18]
        0x20004076:    6151        Qa      STR      r1,[r2,#0x14]
        0x20004078:    6111        .a      STR      r1,[r2,#0x10]
        0x2000407a:    60d1        .`      STR      r1,[r2,#0xc]
        0x2000407c:    6091        .`      STR      r1,[r2,#8]
        0x2000407e:    6051        Q`      STR      r1,[r2,#4]
        0x20004080:    6011        .`      STR      r1,[r2,#0]
        0x20004082:    2301        .#      MOVS     r3,#1
        0x20004084:    1cea        ..      ADDS     r2,r5,#3
        0x20004086:    f88d3080    ...0    STRB     r3,[sp,#0x80]
        0x2000408a:    f88d307c    ..|0    STRB     r3,[sp,#0x7c]
        0x2000408e:    9600        ..      STR      r6,[sp,#0]
        0x20004090:    f8121c03    ....    LDRB     r1,[r2,#-3]
        0x20004094:    2900        .)      CMP      r1,#0
        0x20004096:    bf1f        ..      ITTTT    NE
        0x20004098:    08cf        ..      LSRNE    r7,r1,#3
        0x2000409a:    5de7        .]      LDRBNE   r7,[r4,r7]
        0x2000409c:    f0010507    ....    ANDNE    r5,r1,#7
        0x200040a0:    fa03f505    ....    LSLNE    r5,r3,r5
        0x200040a4:    bf18        ..      IT       NE
        0x200040a6:    ea170705    ....    ANDSNE   r7,r7,r5
        0x200040aa:    f000813b    ..;.    BEQ.W    0x20004324 ; shell_parser + 1100
        0x200040ae:    f8121c02    ....    LDRB     r1,[r2,#-2]
        0x200040b2:    2900        .)      CMP      r1,#0
        0x200040b4:    bf1f        ..      ITTTT    NE
        0x200040b6:    08cf        ..      LSRNE    r7,r1,#3
        0x200040b8:    5de7        .]      LDRBNE   r7,[r4,r7]
        0x200040ba:    f0010507    ....    ANDNE    r5,r1,#7
        0x200040be:    fa03f505    ....    LSLNE    r5,r3,r5
        0x200040c2:    bf18        ..      IT       NE
        0x200040c4:    ea170705    ....    ANDSNE   r7,r7,r5
        0x200040c8:    d032        2.      BEQ      0x20004130 ; shell_parser + 600
        0x200040ca:    f8121c01    ....    LDRB     r1,[r2,#-1]
        0x200040ce:    2900        .)      CMP      r1,#0
        0x200040d0:    bf1f        ..      ITTTT    NE
        0x200040d2:    08cf        ..      LSRNE    r7,r1,#3
        0x200040d4:    5de7        .]      LDRBNE   r7,[r4,r7]
        0x200040d6:    f0010507    ....    ANDNE    r5,r1,#7
        0x200040da:    fa03f505    ....    LSLNE    r5,r3,r5
        0x200040de:    bf18        ..      IT       NE
        0x200040e0:    ea170705    ....    ANDSNE   r7,r7,r5
        0x200040e4:    d02e        ..      BEQ      0x20004144 ; shell_parser + 620
        0x200040e6:    f8121b04    ....    LDRB     r1,[r2],#4
        0x200040ea:    b139        9.      CBZ      r1,0x200040fc ; shell_parser + 548
        0x200040ec:    08cf        ..      LSRS     r7,r1,#3
        0x200040ee:    5de7        .]      LDRB     r7,[r4,r7]
        0x200040f0:    f0010507    ....    AND      r5,r1,#7
        0x200040f4:    fa03f505    ....    LSL      r5,r3,r5
        0x200040f8:    402f        /@      ANDS     r7,r7,r5
        0x200040fa:    d1c9        ..      BNE      0x20004090 ; shell_parser + 440
        0x200040fc:    fab1f381    ....    CLZ      r3,r1
        0x20004100:    095b        [.      LSRS     r3,r3,#5
        0x20004102:    f1a20b04    ....    SUB      r11,r2,#4
        0x20004106:    9e02        ..      LDR      r6,[sp,#8]
        0x20004108:    465d        ]F      MOV      r5,r11
        0x2000410a:    b31b        ..      CBZ      r3,0x20004154 ; shell_parser + 636
        0x2000410c:    e037        7.      B        0x2000417e ; shell_parser + 678
        0x2000410e:    bf00        ..      NOP      
        0x20004110:    f7fcf832    ..2.    BL       __rt_ctype_table ; 0x20000178
        0x20004114:    6800        .h      LDR      r0,[r0,#0]
        0x20004116:    f8981000    ....    LDRB     r1,[r8,#0]
        0x2000411a:    5c40        @\      LDRB     r0,[r0,r1]
        0x2000411c:    f0100f98    ....    TST      r0,#0x98
        0x20004120:    f00080ec    ....    BEQ.W    0x200042fc ; shell_parser + 1060
        0x20004124:    a085        ..      ADR      r0,{pc}+0x218 ; 0x2000433c
        0x20004126:    4649        IF      MOV      r1,r9
        0x20004128:    f000f974    ..t.    BL       __0printf$8 ; 0x20004414
        0x2000412c:    e0e6        ..      B        0x200042fc ; shell_parser + 1060
        0x2000412e:    bf00        ..      NOP      
        0x20004130:    fab1f381    ....    CLZ      r3,r1
        0x20004134:    095b        [.      LSRS     r3,r3,#5
        0x20004136:    f1a20b02    ....    SUB      r11,r2,#2
        0x2000413a:    9e02        ..      LDR      r6,[sp,#8]
        0x2000413c:    465d        ]F      MOV      r5,r11
        0x2000413e:    b14b        K.      CBZ      r3,0x20004154 ; shell_parser + 636
        0x20004140:    e01d        ..      B        0x2000417e ; shell_parser + 678
        0x20004142:    bf00        ..      NOP      
        0x20004144:    fab1f381    ....    CLZ      r3,r1
        0x20004148:    095b        [.      LSRS     r3,r3,#5
        0x2000414a:    f1a20b01    ....    SUB      r11,r2,#1
        0x2000414e:    9e02        ..      LDR      r6,[sp,#8]
        0x20004150:    465d        ]F      MOV      r5,r11
        0x20004152:    b9a3        ..      CBNZ     r3,0x2000417e ; shell_parser + 678
        0x20004154:    f10b0201    ....    ADD      r2,r11,#1
        0x20004158:    08cb        ..      LSRS     r3,r1,#3
        0x2000415a:    5ce3        .\      LDRB     r3,[r4,r3]
        0x2000415c:    f0010107    ....    AND      r1,r1,#7
        0x20004160:    fa23f101    #...    LSR      r1,r3,r1
        0x20004164:    07c9        ..      LSLS     r1,r1,#31
        0x20004166:    4615        .F      MOV      r5,r2
        0x20004168:    d106        ..      BNE      0x20004178 ; shell_parser + 672
        0x2000416a:    462a        *F      MOV      r2,r5
        0x2000416c:    f8121b01    ....    LDRB     r1,[r2],#1
        0x20004170:    2900        .)      CMP      r1,#0
        0x20004172:    d1f1        ..      BNE      0x20004158 ; shell_parser + 640
        0x20004174:    e003        ..      B        0x2000417e ; shell_parser + 678
        0x20004176:    bf00        ..      NOP      
        0x20004178:    2100        .!      MOVS     r1,#0
        0x2000417a:    f8051c01    ....    STRB     r1,[r5,#-1]
        0x2000417e:    f6463128    F.(1    MOV      r1,#0x6b28
        0x20004182:    f2c20101    ....    MOVT     r1,#0x2001
        0x20004186:    45ab        .E      CMP      r11,r5
        0x20004188:    f04f0701    O...    MOV      r7,#1
        0x2000418c:    600d        .`      STR      r5,[r1,#0]
        0x2000418e:    f8cda004    ....    STR      r10,[sp,#4]
        0x20004192:    f00080a9    ....    BEQ.W    0x200042e8 ; shell_parser + 1040
        0x20004196:    f1000a0b    ....    ADD      r10,r0,#0xb
        0x2000419a:    f04f0900    O...    MOV      r9,#0
        0x2000419e:    f04f0801    O...    MOV      r8,#1
        0x200041a2:    e00b        ..      B        0x200041bc ; shell_parser + 740
        0x200041a4:    f8059c01    ....    STRB     r9,[r5,#-1]
        0x200041a8:    f6463028    F.(0    MOV      r0,#0x6b28
        0x200041ac:    f1080801    ....    ADD      r8,r8,#1
        0x200041b0:    45ab        .E      CMP      r11,r5
        0x200041b2:    f2c20001    ....    MOVT     r0,#0x2001
        0x200041b6:    6005        .`      STR      r5,[r0,#0]
        0x200041b8:    f0008098    ....    BEQ.W    0x200042ec ; shell_parser + 1044
        0x200041bc:    fa5ff088    _...    UXTB     r0,r8
        0x200041c0:    f10d010e    ....    ADD      r1,sp,#0xe
        0x200041c4:    f801a000    ....    STRB     r10,[r1,r0]
        0x200041c8:    fa5ff08a    _...    UXTB     r0,r10
        0x200041cc:    4408        .D      ADD      r0,r0,r1
        0x200041ce:    4659        YF      MOV      r1,r11
        0x200041d0:    f7fcf821    ..!.    BL       strcpy ; 0x20000216
        0x200041d4:    4658        XF      MOV      r0,r11
        0x200041d6:    f7fcf809    ....    BL       strlen ; 0x200001ec
        0x200041da:    4450        PD      ADD      r0,r0,r10
        0x200041dc:    f1000a01    ....    ADD      r10,r0,#1
        0x200041e0:    1ce9        ..      ADDS     r1,r5,#3
        0x200041e2:    f8c6901b    ....    STR      r9,[r6,#0x1b]
        0x200041e6:    f8c69018    ....    STR      r9,[r6,#0x18]
        0x200041ea:    f8c69014    ....    STR      r9,[r6,#0x14]
        0x200041ee:    f8c69010    ....    STR      r9,[r6,#0x10]
        0x200041f2:    f8c6900c    ....    STR      r9,[r6,#0xc]
        0x200041f6:    f8c69008    ....    STR      r9,[r6,#8]
        0x200041fa:    f8c69004    ....    STR      r9,[r6,#4]
        0x200041fe:    f8c69000    ....    STR      r9,[r6,#0]
        0x20004202:    f88d7080    ...p    STRB     r7,[sp,#0x80]
        0x20004206:    f88d707c    ..|p    STRB     r7,[sp,#0x7c]
        0x2000420a:    f8110c03    ....    LDRB     r0,[r1,#-3]
        0x2000420e:    2800        .(      CMP      r0,#0
        0x20004210:    bf1f        ..      ITTTT    NE
        0x20004212:    08c2        ..      LSRNE    r2,r0,#3
        0x20004214:    5ca2        .\      LDRBNE   r2,[r4,r2]
        0x20004216:    f0000307    ....    ANDNE    r3,r0,#7
        0x2000421a:    fa07f303    ....    LSLNE    r3,r7,r3
        0x2000421e:    bf18        ..      IT       NE
        0x20004220:    ea120203    ....    ANDSNE   r2,r2,r3
        0x20004224:    d056        V.      BEQ      0x200042d4 ; shell_parser + 1020
        0x20004226:    f8110c02    ....    LDRB     r0,[r1,#-2]
        0x2000422a:    2800        .(      CMP      r0,#0
        0x2000422c:    bf1f        ..      ITTTT    NE
        0x2000422e:    08c2        ..      LSRNE    r2,r0,#3
        0x20004230:    5ca2        .\      LDRBNE   r2,[r4,r2]
        0x20004232:    f0000307    ....    ANDNE    r3,r0,#7
        0x20004236:    fa07f303    ....    LSLNE    r3,r7,r3
        0x2000423a:    bf18        ..      IT       NE
        0x2000423c:    ea120203    ....    ANDSNE   r2,r2,r3
        0x20004240:    d022        ".      BEQ      0x20004288 ; shell_parser + 944
        0x20004242:    f8110c01    ....    LDRB     r0,[r1,#-1]
        0x20004246:    2800        .(      CMP      r0,#0
        0x20004248:    bf1f        ..      ITTTT    NE
        0x2000424a:    08c2        ..      LSRNE    r2,r0,#3
        0x2000424c:    5ca2        .\      LDRBNE   r2,[r4,r2]
        0x2000424e:    f0000307    ....    ANDNE    r3,r0,#7
        0x20004252:    fa07f303    ....    LSLNE    r3,r7,r3
        0x20004256:    bf18        ..      IT       NE
        0x20004258:    ea120203    ....    ANDSNE   r2,r2,r3
        0x2000425c:    d01e        ..      BEQ      0x2000429c ; shell_parser + 964
        0x2000425e:    f8110b04    ....    LDRB     r0,[r1],#4
        0x20004262:    b138        8.      CBZ      r0,0x20004274 ; shell_parser + 924
        0x20004264:    08c2        ..      LSRS     r2,r0,#3
        0x20004266:    5ca2        .\      LDRB     r2,[r4,r2]
        0x20004268:    f0000307    ....    AND      r3,r0,#7
        0x2000426c:    fa07f303    ....    LSL      r3,r7,r3
        0x20004270:    401a        .@      ANDS     r2,r2,r3
        0x20004272:    d1ca        ..      BNE      0x2000420a ; shell_parser + 818
        0x20004274:    fab0f280    ....    CLZ      r2,r0
        0x20004278:    0952        R.      LSRS     r2,r2,#5
        0x2000427a:    f1a10b04    ....    SUB      r11,r1,#4
        0x2000427e:    2a00        .*      CMP      r2,#0
        0x20004280:    465d        ]F      MOV      r5,r11
        0x20004282:    d191        ..      BNE      0x200041a8 ; shell_parser + 720
        0x20004284:    e013        ..      B        0x200042ae ; shell_parser + 982
        0x20004286:    bf00        ..      NOP      
        0x20004288:    fab0f280    ....    CLZ      r2,r0
        0x2000428c:    0952        R.      LSRS     r2,r2,#5
        0x2000428e:    f1a10b02    ....    SUB      r11,r1,#2
        0x20004292:    2a00        .*      CMP      r2,#0
        0x20004294:    465d        ]F      MOV      r5,r11
        0x20004296:    f47faf87    ....    BNE.W    0x200041a8 ; shell_parser + 720
        0x2000429a:    e008        ..      B        0x200042ae ; shell_parser + 982
        0x2000429c:    fab0f280    ....    CLZ      r2,r0
        0x200042a0:    0952        R.      LSRS     r2,r2,#5
        0x200042a2:    f1a10b01    ....    SUB      r11,r1,#1
        0x200042a6:    2a00        .*      CMP      r2,#0
        0x200042a8:    465d        ]F      MOV      r5,r11
        0x200042aa:    f47faf7d    ..}.    BNE      0x200041a8 ; shell_parser + 720
        0x200042ae:    f10b0101    ....    ADD      r1,r11,#1
        0x200042b2:    bf00        ..      NOP      
        0x200042b4:    08c2        ..      LSRS     r2,r0,#3
        0x200042b6:    5ca2        .\      LDRB     r2,[r4,r2]
        0x200042b8:    f0000007    ....    AND      r0,r0,#7
        0x200042bc:    fa22f000    "...    LSR      r0,r2,r0
        0x200042c0:    07c0        ..      LSLS     r0,r0,#31
        0x200042c2:    460d        .F      MOV      r5,r1
        0x200042c4:    f47faf6e    ..n.    BNE      0x200041a4 ; shell_parser + 716
        0x200042c8:    4629        )F      MOV      r1,r5
        0x200042ca:    f8110b01    ....    LDRB     r0,[r1],#1
        0x200042ce:    2800        .(      CMP      r0,#0
        0x200042d0:    d1f0        ..      BNE      0x200042b4 ; shell_parser + 988
        0x200042d2:    e769        i.      B        0x200041a8 ; shell_parser + 720
        0x200042d4:    fab0f280    ....    CLZ      r2,r0
        0x200042d8:    0952        R.      LSRS     r2,r2,#5
        0x200042da:    f1a10b03    ....    SUB      r11,r1,#3
        0x200042de:    2a00        .*      CMP      r2,#0
        0x200042e0:    465d        ]F      MOV      r5,r11
        0x200042e2:    f47faf61    ..a.    BNE      0x200041a8 ; shell_parser + 720
        0x200042e6:    e7e2        ..      B        0x200042ae ; shell_parser + 982
        0x200042e8:    f04f0801    O...    MOV      r8,#1
        0x200042ec:    9a00        ..      LDR      r2,[sp,#0]
        0x200042ee:    fa5ff088    _...    UXTB     r0,r8
        0x200042f2:    f10d010e    ....    ADD      r1,sp,#0xe
        0x200042f6:    4790        .G      BLX      r2
        0x200042f8:    f8dda004    ....    LDR      r10,[sp,#4]
        0x200042fc:    f64430a1    D..0    MOV      r0,#0x4ba1
        0x20004300:    f2c20000    ....    MOVT     r0,#0x2000
        0x20004304:    4651        QF      MOV      r1,r10
        0x20004306:    f000f885    ....    BL       __0printf$8 ; 0x20004414
        0x2000430a:    b027        '.      ADD      sp,sp,#0x9c
        0x2000430c:    e8bd8ff0    ....    POP      {r4-r11,pc}
        0x20004310:    fab0f280    ....    CLZ      r2,r0
        0x20004314:    0952        R.      LSRS     r2,r2,#5
        0x20004316:    3903        .9      SUBS     r1,#3
        0x20004318:    2a00        .*      CMP      r2,#0
        0x2000431a:    460d        .F      MOV      r5,r1
        0x2000431c:    f43fae64    ?.d.    BEQ      0x20003fe8 ; shell_parser + 272
        0x20004320:    e677        w.      B        0x20004012 ; shell_parser + 314
        0x20004322:    bf00        ..      NOP      
        0x20004324:    fab1f381    ....    CLZ      r3,r1
        0x20004328:    095b        [.      LSRS     r3,r3,#5
        0x2000432a:    f1a20b03    ....    SUB      r11,r2,#3
        0x2000432e:    9e02        ..      LDR      r6,[sp,#8]
        0x20004330:    2b00        .+      CMP      r3,#0
        0x20004332:    465d        ]F      MOV      r5,r11
        0x20004334:    f43faf0e    ?...    BEQ      0x20004154 ; shell_parser + 636
        0x20004338:    e721        !.      B        0x2000417e ; shell_parser + 678
        0x2000433a:    bf00        ..      NOP      
    $d.6
        0x2000433c:    63206f6e    no c    DCD    1663070062
        0x20004340:    616d6d6f    omma    DCD    1634561391
        0x20004344:    6e20646e    nd n    DCD    1847616622
        0x20004348:    64656d61    amed    DCD    1684368737
        0x2000434c:    7325203a    : %s    DCD    1931812922
        0x20004350:    00000a0d    ....    DCD    2573
        0x20004354:    73696874    this    DCD    1936287860
        0x20004358:    6d6f6320     com    DCD    1836016416
        0x2000435c:    646e616d    mand    DCD    1684955501
        0x20004360:    20736920     is     DCD    544434464
        0x20004364:    206f6f74    too     DCD    544173940
        0x20004368:    676e6f6c    long    DCD    1735290732
        0x2000436c:    00000d2e    ....    DCD    3374
    $t.7
    shell_quit_cmd
        0x20004370:    b5f0        ..      PUSH     {r4-r7,lr}
        0x20004372:    b081        ..      SUB      sp,sp,#4
        0x20004374:    b188        ..      CBZ      r0,0x2000439a ; shell_quit_cmd + 42
        0x20004376:    f6443743    D.C7    MOV      r7,#0x4b43
        0x2000437a:    4604        .F      MOV      r4,r0
        0x2000437c:    460d        .F      MOV      r5,r1
        0x2000437e:    2600        .&      MOVS     r6,#0
        0x20004380:    f2c20700    ....    MOVT     r7,#0x2000
        0x20004384:    5da8        .]      LDRB     r0,[r5,r6]
        0x20004386:    4631        1F      MOV      r1,r6
        0x20004388:    182a        *.      ADDS     r2,r5,r0
        0x2000438a:    4638        8F      MOV      r0,r7
        0x2000438c:    f000f842    ..B.    BL       __0printf$8 ; 0x20004414
        0x20004390:    3601        .6      ADDS     r6,#1
        0x20004392:    42b4        .B      CMP      r4,r6
        0x20004394:    d1f6        ..      BNE      0x20004384 ; shell_quit_cmd + 20
        0x20004396:    2c01        .,      CMP      r4,#1
        0x20004398:    d006        ..      BEQ      0x200043a8 ; shell_quit_cmd + 56
        0x2000439a:    a004        ..      ADR      r0,{pc}+0x12 ; 0x200043ac
        0x2000439c:    b001        ..      ADD      sp,sp,#4
        0x2000439e:    e8bd40f0    ...@    POP      {r4-r7,lr}
        0x200043a2:    f000ba8b    ....    B.W      puts ; 0x200048bc
        0x200043a6:    bf00        ..      NOP      
        0x200043a8:    f7fefb30    ..0.    BL       __NVIC_SystemReset ; 0x20002a0c
    $d.8
        0x200043ac:    61657375    usea    DCD    1634038645
        0x200043b0:    203a6567    ge:     DCD    540697959
        0x200043b4:    74697571    quit    DCD    1953068401
        0x200043b8:    0000000d    ....    DCD    13
    $t.2
    shell_test_cmd
        0x200043bc:    b5f0        ..      PUSH     {r4-r7,lr}
        0x200043be:    b081        ..      SUB      sp,sp,#4
        0x200043c0:    4605        .F      MOV      r5,r0
        0x200043c2:    a00b        ..      ADR      r0,{pc}+0x2e ; 0x200043f0
        0x200043c4:    460c        .F      MOV      r4,r1
        0x200043c6:    f000fa79    ..y.    BL       puts ; 0x200048bc
        0x200043ca:    b175        u.      CBZ      r5,0x200043ea ; shell_test_cmd + 46
        0x200043cc:    f6443743    D.C7    MOV      r7,#0x4b43
        0x200043d0:    2600        .&      MOVS     r6,#0
        0x200043d2:    f2c20700    ....    MOVT     r7,#0x2000
        0x200043d6:    bf00        ..      NOP      
        0x200043d8:    5da0        .]      LDRB     r0,[r4,r6]
        0x200043da:    4631        1F      MOV      r1,r6
        0x200043dc:    1822        ".      ADDS     r2,r4,r0
        0x200043de:    4638        8F      MOV      r0,r7
        0x200043e0:    f000f818    ....    BL       __0printf$8 ; 0x20004414
        0x200043e4:    3601        .6      ADDS     r6,#1
        0x200043e6:    42b5        .B      CMP      r5,r6
        0x200043e8:    d1f6        ..      BNE      0x200043d8 ; shell_test_cmd + 28
        0x200043ea:    b001        ..      ADD      sp,sp,#4
        0x200043ec:    bdf0        ..      POP      {r4-r7,pc}
        0x200043ee:    bf00        ..      NOP      
    $d.3
        0x200043f0:    74736574    test    DCD    1953719668
        0x200043f4:    6d6f6320     com    DCD    1836016416
        0x200043f8:    646e616d    mand    DCD    1684955501
        0x200043fc:    00000d3a    :...    DCD    3386
    $t
    OSKERNEL
    HardFault_Handler
        0x20004400:    f01e0f04    ....    TST      lr,#4
        0x20004404:    bf0c        ..      ITE      EQ
        0x20004406:    f3ef8008    ....    MRSEQ    r0,MSP
        0x2000440a:    f3ef8009    ....    MRSNE    r0,PSP
        0x2000440e:    f7fcbfc5    ....    B        HardFaultHandler ; 0x2000139c
        0x20004412:    0000        ..      MOVS     r0,r0
    i.__0printf$8
    __0printf$8
    __1printf$8
    __2printf
        0x20004414:    b40f        ..      PUSH     {r0-r3}
        0x20004416:    4b05        .K      LDR      r3,[pc,#20] ; [0x2000442c] = 0x20002fd9
        0x20004418:    b510        ..      PUSH     {r4,lr}
        0x2000441a:    a903        ..      ADD      r1,sp,#0xc
        0x2000441c:    4a04        .J      LDR      r2,[pc,#16] ; [0x20004430] = 0x20010000
        0x2000441e:    9802        ..      LDR      r0,[sp,#8]
        0x20004420:    f000f818    ....    BL       _printf_core ; 0x20004454
        0x20004424:    bc10        ..      POP      {r4}
        0x20004426:    f85dfb14    ]...    LDR      pc,[sp],#0x14
    $d
        0x2000442a:    0000        ..      DCW    0
        0x2000442c:    20002fd9    ./.     DCD    536883161
        0x20004430:    20010000    ...     DCD    536936448
    $t
    i.__scatterload_copy
    __scatterload_copy
        0x20004434:    e002        ..      B        0x2000443c ; __scatterload_copy + 8
        0x20004436:    c808        ..      LDM      r0!,{r3}
        0x20004438:    1f12        ..      SUBS     r2,r2,#4
        0x2000443a:    c108        ..      STM      r1!,{r3}
        0x2000443c:    2a00        .*      CMP      r2,#0
        0x2000443e:    d1fa        ..      BNE      0x20004436 ; __scatterload_copy + 2
        0x20004440:    4770        pG      BX       lr
    i.__scatterload_null
    __scatterload_null
        0x20004442:    4770        pG      BX       lr
    i.__scatterload_zeroinit
    __scatterload_zeroinit
        0x20004444:    2000        .       MOVS     r0,#0
        0x20004446:    e001        ..      B        0x2000444c ; __scatterload_zeroinit + 8
        0x20004448:    c101        ..      STM      r1!,{r0}
        0x2000444a:    1f12        ..      SUBS     r2,r2,#4
        0x2000444c:    2a00        .*      CMP      r2,#0
        0x2000444e:    d1fb        ..      BNE      0x20004448 ; __scatterload_zeroinit + 4
        0x20004450:    4770        pG      BX       lr
        0x20004452:    0000        ..      MOVS     r0,r0
    i._printf_core
    _printf_core
        0x20004454:    e92d4fff    -..O    PUSH     {r0-r11,lr}
        0x20004458:    b08d        ..      SUB      sp,sp,#0x34
        0x2000445a:    460f        .F      MOV      r7,r1
        0x2000445c:    4605        .F      MOV      r5,r0
        0x2000445e:    2600        .&      MOVS     r6,#0
        0x20004460:    e006        ..      B        0x20004470 ; _printf_core + 28
        0x20004462:    2825        %(      CMP      r0,#0x25
        0x20004464:    d00b        ..      BEQ      0x2000447e ; _printf_core + 42
        0x20004466:    e9dd120f    ....    LDRD     r1,r2,[sp,#0x3c]
        0x2000446a:    4790        .G      BLX      r2
        0x2000446c:    1c6d        m.      ADDS     r5,r5,#1
        0x2000446e:    1c76        v.      ADDS     r6,r6,#1
        0x20004470:    7828        (x      LDRB     r0,[r5,#0]
        0x20004472:    2800        .(      CMP      r0,#0
        0x20004474:    d1f5        ..      BNE      0x20004462 ; _printf_core + 14
        0x20004476:    b011        ..      ADD      sp,sp,#0x44
        0x20004478:    4630        0F      MOV      r0,r6
        0x2000447a:    e8bd8ff0    ....    POP      {r4-r11,pc}
        0x2000447e:    2400        .$      MOVS     r4,#0
        0x20004480:    46a2        .F      MOV      r10,r4
        0x20004482:    46a1        .F      MOV      r9,r4
        0x20004484:    2201        ."      MOVS     r2,#1
        0x20004486:    49ec        .I      LDR      r1,[pc,#944] ; [0x20004838] = 0x12809
        0x20004488:    e000        ..      B        0x2000448c ; _printf_core + 56
        0x2000448a:    4304        .C      ORRS     r4,r4,r0
        0x2000448c:    f8153f01    ...?    LDRB     r3,[r5,#1]!
        0x20004490:    3b20         ;      SUBS     r3,r3,#0x20
        0x20004492:    fa02f003    ....    LSL      r0,r2,r3
        0x20004496:    4208        .B      TST      r0,r1
        0x20004498:    d1f7        ..      BNE      0x2000448a ; _printf_core + 54
        0x2000449a:    7828        (x      LDRB     r0,[r5,#0]
        0x2000449c:    282a        *(      CMP      r0,#0x2a
        0x2000449e:    d010        ..      BEQ      0x200044c2 ; _printf_core + 110
        0x200044a0:    f06f022f    o./.    MVN      r2,#0x2f
        0x200044a4:    7828        (x      LDRB     r0,[r5,#0]
        0x200044a6:    f1a00130    ..0.    SUB      r1,r0,#0x30
        0x200044aa:    2909        .)      CMP      r1,#9
        0x200044ac:    d814        ..      BHI      0x200044d8 ; _printf_core + 132
        0x200044ae:    eb0a018a    ....    ADD      r1,r10,r10,LSL #2
        0x200044b2:    eb020141    ..A.    ADD      r1,r2,r1,LSL #1
        0x200044b6:    f0440402    D...    ORR      r4,r4,#2
        0x200044ba:    eb000a01    ....    ADD      r10,r0,r1
        0x200044be:    1c6d        m.      ADDS     r5,r5,#1
        0x200044c0:    e7f0        ..      B        0x200044a4 ; _printf_core + 80
        0x200044c2:    cf01        ..      LDM      r7!,{r0}
        0x200044c4:    ea5f0a00    _...    MOVS     r10,r0
        0x200044c8:    d503        ..      BPL      0x200044d2 ; _printf_core + 126
        0x200044ca:    f4445400    D..T    ORR      r4,r4,#0x2000
        0x200044ce:    f1ca0a00    ....    RSB      r10,r10,#0
        0x200044d2:    f0440402    D...    ORR      r4,r4,#2
        0x200044d6:    1c6d        m.      ADDS     r5,r5,#1
        0x200044d8:    7828        (x      LDRB     r0,[r5,#0]
        0x200044da:    282e        .(      CMP      r0,#0x2e
        0x200044dc:    d117        ..      BNE      0x2000450e ; _printf_core + 186
        0x200044de:    f8150f01    ....    LDRB     r0,[r5,#1]!
        0x200044e2:    f0440404    D...    ORR      r4,r4,#4
        0x200044e6:    282a        *(      CMP      r0,#0x2a
        0x200044e8:    d00e        ..      BEQ      0x20004508 ; _printf_core + 180
        0x200044ea:    f06f022f    o./.    MVN      r2,#0x2f
        0x200044ee:    7828        (x      LDRB     r0,[r5,#0]
        0x200044f0:    f1a00130    ..0.    SUB      r1,r0,#0x30
        0x200044f4:    2909        .)      CMP      r1,#9
        0x200044f6:    d80a        ..      BHI      0x2000450e ; _printf_core + 186
        0x200044f8:    eb090189    ....    ADD      r1,r9,r9,LSL #2
        0x200044fc:    eb020141    ..A.    ADD      r1,r2,r1,LSL #1
        0x20004500:    eb000901    ....    ADD      r9,r0,r1
        0x20004504:    1c6d        m.      ADDS     r5,r5,#1
        0x20004506:    e7f2        ..      B        0x200044ee ; _printf_core + 154
        0x20004508:    f8579b04    W...    LDR      r9,[r7],#4
        0x2000450c:    1c6d        m.      ADDS     r5,r5,#1
        0x2000450e:    7828        (x      LDRB     r0,[r5,#0]
        0x20004510:    286c        l(      CMP      r0,#0x6c
        0x20004512:    d00f        ..      BEQ      0x20004534 ; _printf_core + 224
        0x20004514:    dc06        ..      BGT      0x20004524 ; _printf_core + 208
        0x20004516:    284c        L(      CMP      r0,#0x4c
        0x20004518:    d017        ..      BEQ      0x2000454a ; _printf_core + 246
        0x2000451a:    2868        h(      CMP      r0,#0x68
        0x2000451c:    d00d        ..      BEQ      0x2000453a ; _printf_core + 230
        0x2000451e:    286a        j(      CMP      r0,#0x6a
        0x20004520:    d114        ..      BNE      0x2000454c ; _printf_core + 248
        0x20004522:    e004        ..      B        0x2000452e ; _printf_core + 218
        0x20004524:    2874        t(      CMP      r0,#0x74
        0x20004526:    d010        ..      BEQ      0x2000454a ; _printf_core + 246
        0x20004528:    287a        z(      CMP      r0,#0x7a
        0x2000452a:    d10f        ..      BNE      0x2000454c ; _printf_core + 248
        0x2000452c:    e00d        ..      B        0x2000454a ; _printf_core + 246
        0x2000452e:    f4441400    D...    ORR      r4,r4,#0x200000
        0x20004532:    e00a        ..      B        0x2000454a ; _printf_core + 246
        0x20004534:    f4441480    D...    ORR      r4,r4,#0x100000
        0x20004538:    e001        ..      B        0x2000453e ; _printf_core + 234
        0x2000453a:    f4441440    D.@.    ORR      r4,r4,#0x300000
        0x2000453e:    7869        ix      LDRB     r1,[r5,#1]
        0x20004540:    4281        .B      CMP      r1,r0
        0x20004542:    d102        ..      BNE      0x2000454a ; _printf_core + 246
        0x20004544:    f5041480    ....    ADD      r4,r4,#0x100000
        0x20004548:    1c6d        m.      ADDS     r5,r5,#1
        0x2000454a:    1c6d        m.      ADDS     r5,r5,#1
        0x2000454c:    782a        *x      LDRB     r2,[r5,#0]
        0x2000454e:    2a6e        n*      CMP      r2,#0x6e
        0x20004550:    d01f        ..      BEQ      0x20004592 ; _printf_core + 318
        0x20004552:    dc0c        ..      BGT      0x2000456e ; _printf_core + 282
        0x20004554:    2a63        c*      CMP      r2,#0x63
        0x20004556:    d031        1.      BEQ      0x200045bc ; _printf_core + 360
        0x20004558:    dc04        ..      BGT      0x20004564 ; _printf_core + 272
        0x2000455a:    2a00        .*      CMP      r2,#0
        0x2000455c:    d08b        ..      BEQ      0x20004476 ; _printf_core + 34
        0x2000455e:    2a58        X*      CMP      r2,#0x58
        0x20004560:    d111        ..      BNE      0x20004586 ; _printf_core + 306
        0x20004562:    e0a3        ..      B        0x200046ac ; _printf_core + 600
        0x20004564:    2a64        d*      CMP      r2,#0x64
        0x20004566:    d068        h.      BEQ      0x2000463a ; _printf_core + 486
        0x20004568:    2a69        i*      CMP      r2,#0x69
        0x2000456a:    d10c        ..      BNE      0x20004586 ; _printf_core + 306
        0x2000456c:    e065        e.      B        0x2000463a ; _printf_core + 486
        0x2000456e:    2a73        s*      CMP      r2,#0x73
        0x20004570:    d02e        ..      BEQ      0x200045d0 ; _printf_core + 380
        0x20004572:    dc04        ..      BGT      0x2000457e ; _printf_core + 298
        0x20004574:    2a6f        o*      CMP      r2,#0x6f
        0x20004576:    d073        s.      BEQ      0x20004660 ; _printf_core + 524
        0x20004578:    2a70        p*      CMP      r2,#0x70
        0x2000457a:    d104        ..      BNE      0x20004586 ; _printf_core + 306
        0x2000457c:    e09b        ..      B        0x200046b6 ; _printf_core + 610
        0x2000457e:    2a75        u*      CMP      r2,#0x75
        0x20004580:    d06f        o.      BEQ      0x20004662 ; _printf_core + 526
        0x20004582:    2a78        x*      CMP      r2,#0x78
        0x20004584:    d06e        n.      BEQ      0x20004664 ; _printf_core + 528
        0x20004586:    4610        .F      MOV      r0,r2
        0x20004588:    e9dd120f    ....    LDRD     r1,r2,[sp,#0x3c]
        0x2000458c:    4790        .G      BLX      r2
        0x2000458e:    1c76        v.      ADDS     r6,r6,#1
        0x20004590:    e150        P.      B        0x20004834 ; _printf_core + 992
        0x20004592:    f3c45002    ...P    UBFX     r0,r4,#20,#3
        0x20004596:    2802        .(      CMP      r0,#2
        0x20004598:    d006        ..      BEQ      0x200045a8 ; _printf_core + 340
        0x2000459a:    2803        .(      CMP      r0,#3
        0x2000459c:    d009        ..      BEQ      0x200045b2 ; _printf_core + 350
        0x2000459e:    2804        .(      CMP      r0,#4
        0x200045a0:    cf01        ..      LDM      r7!,{r0}
        0x200045a2:    d009        ..      BEQ      0x200045b8 ; _printf_core + 356
        0x200045a4:    6006        .`      STR      r6,[r0,#0]
        0x200045a6:    e145        E.      B        0x20004834 ; _printf_core + 992
        0x200045a8:    cf01        ..      LDM      r7!,{r0}
        0x200045aa:    17f1        ..      ASRS     r1,r6,#31
        0x200045ac:    e9c06100    ...a    STRD     r6,r1,[r0,#0]
        0x200045b0:    e140        @.      B        0x20004834 ; _printf_core + 992
        0x200045b2:    cf01        ..      LDM      r7!,{r0}
        0x200045b4:    8006        ..      STRH     r6,[r0,#0]
        0x200045b6:    e13d        =.      B        0x20004834 ; _printf_core + 992
        0x200045b8:    7006        .p      STRB     r6,[r0,#0]
        0x200045ba:    e13b        ;.      B        0x20004834 ; _printf_core + 992
        0x200045bc:    f8170b04    ....    LDRB     r0,[r7],#4
        0x200045c0:    f88d0000    ....    STRB     r0,[sp,#0]
        0x200045c4:    2000        .       MOVS     r0,#0
        0x200045c6:    f88d0001    ....    STRB     r0,[sp,#1]
        0x200045ca:    46eb        .F      MOV      r11,sp
        0x200045cc:    2001        .       MOVS     r0,#1
        0x200045ce:    e003        ..      B        0x200045d8 ; _printf_core + 388
        0x200045d0:    f857bb04    W...    LDR      r11,[r7],#4
        0x200045d4:    f04f30ff    O..0    MOV      r0,#0xffffffff
        0x200045d8:    0761        a.      LSLS     r1,r4,#29
        0x200045da:    f04f0100    O...    MOV      r1,#0
        0x200045de:    d402        ..      BMI      0x200045e6 ; _printf_core + 402
        0x200045e0:    e00d        ..      B        0x200045fe ; _printf_core + 426
        0x200045e2:    f1080101    ....    ADD      r1,r8,#1
        0x200045e6:    4688        .F      MOV      r8,r1
        0x200045e8:    4549        IE      CMP      r1,r9
        0x200045ea:    da0f        ..      BGE      0x2000460c ; _printf_core + 440
        0x200045ec:    4580        .E      CMP      r8,r0
        0x200045ee:    dbf8        ..      BLT      0x200045e2 ; _printf_core + 398
        0x200045f0:    f81b1008    ....    LDRB     r1,[r11,r8]
        0x200045f4:    2900        .)      CMP      r1,#0
        0x200045f6:    d1f4        ..      BNE      0x200045e2 ; _printf_core + 398
        0x200045f8:    e008        ..      B        0x2000460c ; _printf_core + 440
        0x200045fa:    f1080101    ....    ADD      r1,r8,#1
        0x200045fe:    4688        .F      MOV      r8,r1
        0x20004600:    4281        .B      CMP      r1,r0
        0x20004602:    dbfa        ..      BLT      0x200045fa ; _printf_core + 422
        0x20004604:    f81b1008    ....    LDRB     r1,[r11,r8]
        0x20004608:    2900        .)      CMP      r1,#0
        0x2000460a:    d1f6        ..      BNE      0x200045fa ; _printf_core + 422
        0x2000460c:    e9dd230f    ...#    LDRD     r2,r3,[sp,#0x3c]
        0x20004610:    ebaa0008    ....    SUB      r0,r10,r8
        0x20004614:    4681        .F      MOV      r9,r0
        0x20004616:    4621        !F      MOV      r1,r4
        0x20004618:    f000f936    ..6.    BL       _printf_pre_padding ; 0x20004888
        0x2000461c:    4430        0D      ADD      r0,r0,r6
        0x2000461e:    eb000608    ....    ADD      r6,r0,r8
        0x20004622:    e004        ..      B        0x2000462e ; _printf_core + 474
        0x20004624:    e9dd120f    ....    LDRD     r1,r2,[sp,#0x3c]
        0x20004628:    f81b0b01    ....    LDRB     r0,[r11],#1
        0x2000462c:    4790        .G      BLX      r2
        0x2000462e:    f1b80801    ....    SUBS     r8,r8,#1
        0x20004632:    d2f7        ..      BCS      0x20004624 ; _printf_core + 464
        0x20004634:    4621        !F      MOV      r1,r4
        0x20004636:    4648        HF      MOV      r0,r9
        0x20004638:    e0f7        ..      B        0x2000482a ; _printf_core + 982
        0x2000463a:    210a        .!      MOVS     r1,#0xa
        0x2000463c:    f3c45302    ...S    UBFX     r3,r4,#20,#3
        0x20004640:    f04f0b00    O...    MOV      r11,#0
        0x20004644:    9108        ..      STR      r1,[sp,#0x20]
        0x20004646:    2b02        .+      CMP      r3,#2
        0x20004648:    d004        ..      BEQ      0x20004654 ; _printf_core + 512
        0x2000464a:    cf01        ..      LDM      r7!,{r0}
        0x2000464c:    17c1        ..      ASRS     r1,r0,#31
        0x2000464e:    2b03        .+      CMP      r3,#3
        0x20004650:    d009        ..      BEQ      0x20004666 ; _printf_core + 530
        0x20004652:    e00a        ..      B        0x2000466a ; _printf_core + 534
        0x20004654:    1dff        ..      ADDS     r7,r7,#7
        0x20004656:    f0270707    '...    BIC      r7,r7,#7
        0x2000465a:    e8f70102    ....    LDRD     r0,r1,[r7],#8
        0x2000465e:    e008        ..      B        0x20004672 ; _printf_core + 542
        0x20004660:    e032        2.      B        0x200046c8 ; _printf_core + 628
        0x20004662:    e01f        ..      B        0x200046a4 ; _printf_core + 592
        0x20004664:    e020         .      B        0x200046a8 ; _printf_core + 596
        0x20004666:    b200        ..      SXTH     r0,r0
        0x20004668:    17c1        ..      ASRS     r1,r0,#31
        0x2000466a:    2b04        .+      CMP      r3,#4
        0x2000466c:    d101        ..      BNE      0x20004672 ; _printf_core + 542
        0x2000466e:    b240        @.      SXTB     r0,r0
        0x20004670:    17c1        ..      ASRS     r1,r0,#31
        0x20004672:    1e03        ..      SUBS     r3,r0,#0
        0x20004674:    f1710300    q...    SBCS     r3,r1,#0
        0x20004678:    da07        ..      BGE      0x2000468a ; _printf_core + 566
        0x2000467a:    f04f0c00    O...    MOV      r12,#0
        0x2000467e:    ebd0000c    ....    RSBS     r0,r0,r12
        0x20004682:    eb6c0101    l...    SBC      r1,r12,r1
        0x20004686:    232d        -#      MOVS     r3,#0x2d
        0x20004688:    e002        ..      B        0x20004690 ; _printf_core + 572
        0x2000468a:    0523        #.      LSLS     r3,r4,#20
        0x2000468c:    d504        ..      BPL      0x20004698 ; _printf_core + 580
        0x2000468e:    232b        +#      MOVS     r3,#0x2b
        0x20004690:    f88d3024    ..$0    STRB     r3,[sp,#0x24]
        0x20004694:    2301        .#      MOVS     r3,#1
        0x20004696:    e003        ..      B        0x200046a0 ; _printf_core + 588
        0x20004698:    07e3        ..      LSLS     r3,r4,#31
        0x2000469a:    d001        ..      BEQ      0x200046a0 ; _printf_core + 588
        0x2000469c:    2320         #      MOVS     r3,#0x20
        0x2000469e:    e7f7        ..      B        0x20004690 ; _printf_core + 572
        0x200046a0:    4698        .F      MOV      r8,r3
        0x200046a2:    e058        X.      B        0x20004756 ; _printf_core + 770
        0x200046a4:    210a        .!      MOVS     r1,#0xa
        0x200046a6:    e010        ..      B        0x200046ca ; _printf_core + 630
        0x200046a8:    2110        .!      MOVS     r1,#0x10
        0x200046aa:    e00e        ..      B        0x200046ca ; _printf_core + 630
        0x200046ac:    2010        .       MOVS     r0,#0x10
        0x200046ae:    f04f0b00    O...    MOV      r11,#0
        0x200046b2:    9008        ..      STR      r0,[sp,#0x20]
        0x200046b4:    e00c        ..      B        0x200046d0 ; _printf_core + 636
        0x200046b6:    2110        .!      MOVS     r1,#0x10
        0x200046b8:    f04f0b00    O...    MOV      r11,#0
        0x200046bc:    f0440404    D...    ORR      r4,r4,#4
        0x200046c0:    f04f0908    O...    MOV      r9,#8
        0x200046c4:    9108        ..      STR      r1,[sp,#0x20]
        0x200046c6:    e003        ..      B        0x200046d0 ; _printf_core + 636
        0x200046c8:    2108        .!      MOVS     r1,#8
        0x200046ca:    f04f0b00    O...    MOV      r11,#0
        0x200046ce:    9108        ..      STR      r1,[sp,#0x20]
        0x200046d0:    f3c45302    ...S    UBFX     r3,r4,#20,#3
        0x200046d4:    2b02        .+      CMP      r3,#2
        0x200046d6:    d004        ..      BEQ      0x200046e2 ; _printf_core + 654
        0x200046d8:    cf01        ..      LDM      r7!,{r0}
        0x200046da:    2100        .!      MOVS     r1,#0
        0x200046dc:    2b03        .+      CMP      r3,#3
        0x200046de:    d006        ..      BEQ      0x200046ee ; _printf_core + 666
        0x200046e0:    e006        ..      B        0x200046f0 ; _printf_core + 668
        0x200046e2:    1dff        ..      ADDS     r7,r7,#7
        0x200046e4:    f0270707    '...    BIC      r7,r7,#7
        0x200046e8:    e8f70102    ....    LDRD     r0,r1,[r7],#8
        0x200046ec:    e003        ..      B        0x200046f6 ; _printf_core + 674
        0x200046ee:    b280        ..      UXTH     r0,r0
        0x200046f0:    2b04        .+      CMP      r3,#4
        0x200046f2:    d100        ..      BNE      0x200046f6 ; _printf_core + 674
        0x200046f4:    b2c0        ..      UXTB     r0,r0
        0x200046f6:    f04f0800    O...    MOV      r8,#0
        0x200046fa:    0723        #.      LSLS     r3,r4,#28
        0x200046fc:    d52b        +.      BPL      0x20004756 ; _printf_core + 770
        0x200046fe:    2a70        p*      CMP      r2,#0x70
        0x20004700:    d007        ..      BEQ      0x20004712 ; _printf_core + 702
        0x20004702:    f8ddc020    .. .    LDR      r12,[sp,#0x20]
        0x20004706:    f08c0c10    ....    EOR      r12,r12,#0x10
        0x2000470a:    ea5c0c0b    \...    ORRS     r12,r12,r11
        0x2000470e:    d005        ..      BEQ      0x2000471c ; _printf_core + 712
        0x20004710:    e00e        ..      B        0x20004730 ; _printf_core + 732
        0x20004712:    2340        @#      MOVS     r3,#0x40
        0x20004714:    f88d3024    ..$0    STRB     r3,[sp,#0x24]
        0x20004718:    2301        .#      MOVS     r3,#1
        0x2000471a:    e008        ..      B        0x2000472e ; _printf_core + 730
        0x2000471c:    ea500301    P...    ORRS     r3,r0,r1
        0x20004720:    d006        ..      BEQ      0x20004730 ; _printf_core + 732
        0x20004722:    2330        0#      MOVS     r3,#0x30
        0x20004724:    f88d3024    ..$0    STRB     r3,[sp,#0x24]
        0x20004728:    f88d2025    ..%     STRB     r2,[sp,#0x25]
        0x2000472c:    2302        .#      MOVS     r3,#2
        0x2000472e:    4698        .F      MOV      r8,r3
        0x20004730:    f8ddc020    .. .    LDR      r12,[sp,#0x20]
        0x20004734:    f08c0c08    ....    EOR      r12,r12,#8
        0x20004738:    ea5c0c0b    \...    ORRS     r12,r12,r11
        0x2000473c:    d10b        ..      BNE      0x20004756 ; _printf_core + 770
        0x2000473e:    ea500301    P...    ORRS     r3,r0,r1
        0x20004742:    d101        ..      BNE      0x20004748 ; _printf_core + 756
        0x20004744:    0763        c.      LSLS     r3,r4,#29
        0x20004746:    d506        ..      BPL      0x20004756 ; _printf_core + 770
        0x20004748:    2330        0#      MOVS     r3,#0x30
        0x2000474a:    f88d3024    ..$0    STRB     r3,[sp,#0x24]
        0x2000474e:    f04f0801    O...    MOV      r8,#1
        0x20004752:    f1a90901    ....    SUB      r9,r9,#1
        0x20004756:    2a58        X*      CMP      r2,#0x58
        0x20004758:    d004        ..      BEQ      0x20004764 ; _printf_core + 784
        0x2000475a:    a238        8.      ADR      r2,{pc}+0xe2 ; 0x2000483c
        0x2000475c:    920b        ..      STR      r2,[sp,#0x2c]
        0x2000475e:    aa08        ..      ADD      r2,sp,#0x20
        0x20004760:    920a        ..      STR      r2,[sp,#0x28]
        0x20004762:    e00b        ..      B        0x2000477c ; _printf_core + 808
        0x20004764:    a23a        :.      ADR      r2,{pc}+0xec ; 0x20004850
        0x20004766:    e7f9        ..      B        0x2000475c ; _printf_core + 776
        0x20004768:    465b        [F      MOV      r3,r11
        0x2000476a:    9a08        ..      LDR      r2,[sp,#0x20]
        0x2000476c:    f7fbfd5c    ..\.    BL       __aeabi_uldivmod ; 0x20000228
        0x20004770:    9b0b        ..      LDR      r3,[sp,#0x2c]
        0x20004772:    5c9b        .\      LDRB     r3,[r3,r2]
        0x20004774:    9a0a        ..      LDR      r2,[sp,#0x28]
        0x20004776:    1e52        R.      SUBS     r2,r2,#1
        0x20004778:    920a        ..      STR      r2,[sp,#0x28]
        0x2000477a:    7013        .p      STRB     r3,[r2,#0]
        0x2000477c:    ea500201    P...    ORRS     r2,r0,r1
        0x20004780:    d1f2        ..      BNE      0x20004768 ; _printf_core + 788
        0x20004782:    980a        ..      LDR      r0,[sp,#0x28]
        0x20004784:    ebad0000    ....    SUB      r0,sp,r0
        0x20004788:    f1000b20    .. .    ADD      r11,r0,#0x20
        0x2000478c:    0760        `.      LSLS     r0,r4,#29
        0x2000478e:    d502        ..      BPL      0x20004796 ; _printf_core + 834
        0x20004790:    f4243480    $..4    BIC      r4,r4,#0x10000
        0x20004794:    e001        ..      B        0x2000479a ; _printf_core + 838
        0x20004796:    f04f0901    O...    MOV      r9,#1
        0x2000479a:    45d9        .E      CMP      r9,r11
        0x2000479c:    dd02        ..      BLE      0x200047a4 ; _printf_core + 848
        0x2000479e:    eba9000b    ....    SUB      r0,r9,r11
        0x200047a2:    e000        ..      B        0x200047a6 ; _printf_core + 850
        0x200047a4:    2000        .       MOVS     r0,#0
        0x200047a6:    eb00010b    ....    ADD      r1,r0,r11
        0x200047aa:    4441        AD      ADD      r1,r1,r8
        0x200047ac:    9008        ..      STR      r0,[sp,#0x20]
        0x200047ae:    ebaa0a01    ....    SUB      r10,r10,r1
        0x200047b2:    03e0        ..      LSLS     r0,r4,#15
        0x200047b4:    d406        ..      BMI      0x200047c4 ; _printf_core + 880
        0x200047b6:    e9dd230f    ...#    LDRD     r2,r3,[sp,#0x3c]
        0x200047ba:    4621        !F      MOV      r1,r4
        0x200047bc:    4650        PF      MOV      r0,r10
        0x200047be:    f000f863    ..c.    BL       _printf_pre_padding ; 0x20004888
        0x200047c2:    4406        .D      ADD      r6,r6,r0
        0x200047c4:    f04f0900    O...    MOV      r9,#0
        0x200047c8:    e008        ..      B        0x200047dc ; _printf_core + 904
        0x200047ca:    a909        ..      ADD      r1,sp,#0x24
        0x200047cc:    f8110009    ....    LDRB     r0,[r1,r9]
        0x200047d0:    e9dd120f    ....    LDRD     r1,r2,[sp,#0x3c]
        0x200047d4:    4790        .G      BLX      r2
        0x200047d6:    f1090901    ....    ADD      r9,r9,#1
        0x200047da:    1c76        v.      ADDS     r6,r6,#1
        0x200047dc:    45c1        .E      CMP      r9,r8
        0x200047de:    dbf4        ..      BLT      0x200047ca ; _printf_core + 886
        0x200047e0:    03e0        ..      LSLS     r0,r4,#15
        0x200047e2:    d50c        ..      BPL      0x200047fe ; _printf_core + 938
        0x200047e4:    e9dd230f    ...#    LDRD     r2,r3,[sp,#0x3c]
        0x200047e8:    4621        !F      MOV      r1,r4
        0x200047ea:    4650        PF      MOV      r0,r10
        0x200047ec:    f000f84c    ..L.    BL       _printf_pre_padding ; 0x20004888
        0x200047f0:    4406        .D      ADD      r6,r6,r0
        0x200047f2:    e004        ..      B        0x200047fe ; _printf_core + 938
        0x200047f4:    e9dd120f    ....    LDRD     r1,r2,[sp,#0x3c]
        0x200047f8:    2030        0       MOVS     r0,#0x30
        0x200047fa:    4790        .G      BLX      r2
        0x200047fc:    1c76        v.      ADDS     r6,r6,#1
        0x200047fe:    9908        ..      LDR      r1,[sp,#0x20]
        0x20004800:    1e48        H.      SUBS     r0,r1,#1
        0x20004802:    9008        ..      STR      r0,[sp,#0x20]
        0x20004804:    2900        .)      CMP      r1,#0
        0x20004806:    dcf5        ..      BGT      0x200047f4 ; _printf_core + 928
        0x20004808:    e008        ..      B        0x2000481c ; _printf_core + 968
        0x2000480a:    980a        ..      LDR      r0,[sp,#0x28]
        0x2000480c:    990a        ..      LDR      r1,[sp,#0x28]
        0x2000480e:    7800        .x      LDRB     r0,[r0,#0]
        0x20004810:    1c49        I.      ADDS     r1,r1,#1
        0x20004812:    910a        ..      STR      r1,[sp,#0x28]
        0x20004814:    e9dd120f    ....    LDRD     r1,r2,[sp,#0x3c]
        0x20004818:    4790        .G      BLX      r2
        0x2000481a:    1c76        v.      ADDS     r6,r6,#1
        0x2000481c:    f1bb0100    ....    SUBS     r1,r11,#0
        0x20004820:    f1ab0b01    ....    SUB      r11,r11,#1
        0x20004824:    dcf1        ..      BGT      0x2000480a ; _printf_core + 950
        0x20004826:    4621        !F      MOV      r1,r4
        0x20004828:    4650        PF      MOV      r0,r10
        0x2000482a:    e9dd230f    ...#    LDRD     r2,r3,[sp,#0x3c]
        0x2000482e:    f000f819    ....    BL       _printf_post_padding ; 0x20004864
        0x20004832:    4406        .D      ADD      r6,r6,r0
        0x20004834:    1c6d        m.      ADDS     r5,r5,#1
        0x20004836:    e61b        ..      B        0x20004470 ; _printf_core + 28
    $d
        0x20004838:    00012809    .(..    DCD    75785
        0x2000483c:    33323130    0123    DCD    858927408
        0x20004840:    37363534    4567    DCD    926299444
        0x20004844:    62613938    89ab    DCD    1650538808
        0x20004848:    66656463    cdef    DCD    1717920867
        0x2000484c:    00000000    ....    DCD    0
        0x20004850:    33323130    0123    DCD    858927408
        0x20004854:    37363534    4567    DCD    926299444
        0x20004858:    42413938    89AB    DCD    1111570744
        0x2000485c:    46454443    CDEF    DCD    1178944579
        0x20004860:    00000000    ....    DCD    0
    $t
    i._printf_post_padding
    _printf_post_padding
        0x20004864:    e92d41f0    -..A    PUSH     {r4-r8,lr}
        0x20004868:    4604        .F      MOV      r4,r0
        0x2000486a:    2500        .%      MOVS     r5,#0
        0x2000486c:    461e        .F      MOV      r6,r3
        0x2000486e:    4617        .F      MOV      r7,r2
        0x20004870:    0488        ..      LSLS     r0,r1,#18
        0x20004872:    d404        ..      BMI      0x2000487e ; _printf_post_padding + 26
        0x20004874:    e005        ..      B        0x20004882 ; _printf_post_padding + 30
        0x20004876:    4639        9F      MOV      r1,r7
        0x20004878:    2020                MOVS     r0,#0x20
        0x2000487a:    47b0        .G      BLX      r6
        0x2000487c:    1c6d        m.      ADDS     r5,r5,#1
        0x2000487e:    1e64        d.      SUBS     r4,r4,#1
        0x20004880:    d5f9        ..      BPL      0x20004876 ; _printf_post_padding + 18
        0x20004882:    4628        (F      MOV      r0,r5
        0x20004884:    e8bd81f0    ....    POP      {r4-r8,pc}
    i._printf_pre_padding
    _printf_pre_padding
        0x20004888:    e92d41f0    -..A    PUSH     {r4-r8,lr}
        0x2000488c:    4604        .F      MOV      r4,r0
        0x2000488e:    2500        .%      MOVS     r5,#0
        0x20004890:    461e        .F      MOV      r6,r3
        0x20004892:    4690        .F      MOV      r8,r2
        0x20004894:    03c8        ..      LSLS     r0,r1,#15
        0x20004896:    d501        ..      BPL      0x2000489c ; _printf_pre_padding + 20
        0x20004898:    2730        0'      MOVS     r7,#0x30
        0x2000489a:    e000        ..      B        0x2000489e ; _printf_pre_padding + 22
        0x2000489c:    2720         '      MOVS     r7,#0x20
        0x2000489e:    0488        ..      LSLS     r0,r1,#18
        0x200048a0:    d504        ..      BPL      0x200048ac ; _printf_pre_padding + 36
        0x200048a2:    e005        ..      B        0x200048b0 ; _printf_pre_padding + 40
        0x200048a4:    4641        AF      MOV      r1,r8
        0x200048a6:    4638        8F      MOV      r0,r7
        0x200048a8:    47b0        .G      BLX      r6
        0x200048aa:    1c6d        m.      ADDS     r5,r5,#1
        0x200048ac:    1e64        d.      SUBS     r4,r4,#1
        0x200048ae:    d5f9        ..      BPL      0x200048a4 ; _printf_pre_padding + 28
        0x200048b0:    4628        (F      MOV      r0,r5
        0x200048b2:    e8bd81f0    ....    POP      {r4-r8,pc}
    i.putc
    putc
        0x200048b6:    f7febb8f    ....    B        fputc ; 0x20002fd8
        0x200048ba:    0000        ..      MOVS     r0,r0
    i.puts
    puts
        0x200048bc:    b510        ..      PUSH     {r4,lr}
        0x200048be:    4604        .F      MOV      r4,r0
        0x200048c0:    e001        ..      B        0x200048c6 ; puts + 10
        0x200048c2:    f7fefb89    ....    BL       fputc ; 0x20002fd8
        0x200048c6:    f8140b01    ....    LDRB     r0,[r4],#1
        0x200048ca:    4904        .I      LDR      r1,[pc,#16] ; [0x200048dc] = 0x20010000
        0x200048cc:    2800        .(      CMP      r0,#0
        0x200048ce:    d1f8        ..      BNE      0x200048c2 ; puts + 6
        0x200048d0:    e8bd4010    ...@    POP      {r4,lr}
        0x200048d4:    200a        .       MOVS     r0,#0xa
        0x200048d6:    f7febb7f    ....    B        fputc ; 0x20002fd8
    $d
        0x200048da:    0000        ..      DCW    0
        0x200048dc:    20010000    ...     DCD    536936448
    $d.realdata
    .constdata
    __ctype_table
        0x200048e0:    40404000    .@@@    DCD    1077952512
        0x200048e4:    40404040    @@@@    DCD    1077952576
        0x200048e8:    41414040    @@AA    DCD    1094795328
        0x200048ec:    40414141    AAA@    DCD    1078018369
        0x200048f0:    40404040    @@@@    DCD    1077952576
        0x200048f4:    40404040    @@@@    DCD    1077952576
        0x200048f8:    40404040    @@@@    DCD    1077952576
        0x200048fc:    40404040    @@@@    DCD    1077952576
        0x20004900:    02020540    @...    DCD    33686848
        0x20004904:    02020202    ....    DCD    33686018
        0x20004908:    02020202    ....    DCD    33686018
        0x2000490c:    02020202    ....    DCD    33686018
        0x20004910:    20202002    .       DCD    538976258
        0x20004914:    20202020            DCD    538976288
        0x20004918:    02202020       .    DCD    35659808
        0x2000491c:    02020202    ....    DCD    33686018
        0x20004920:    90900202    ....    DCD    2425356802
        0x20004924:    90909090    ....    DCD    2425393296
        0x20004928:    10101010    ....    DCD    269488144
        0x2000492c:    10101010    ....    DCD    269488144
        0x20004930:    10101010    ....    DCD    269488144
        0x20004934:    10101010    ....    DCD    269488144
        0x20004938:    10101010    ....    DCD    269488144
        0x2000493c:    02020202    ....    DCD    33686018
        0x20004940:    88880202    ....    DCD    2290614786
        0x20004944:    88888888    ....    DCD    2290649224
        0x20004948:    08080808    ....    DCD    134744072
        0x2000494c:    08080808    ....    DCD    134744072
        0x20004950:    08080808    ....    DCD    134744072
        0x20004954:    08080808    ....    DCD    134744072
        0x20004958:    08080808    ....    DCD    134744072
        0x2000495c:    02020202    ....    DCD    33686018
        0x20004960:    00000040    @...    DCD    64
    .constdata
    table
        0x20004964:    200048e1    .H.     DCD    536889569
    __tagsym$$used.0
    EventRecorderInfo
        0x20004968:    01010001    ....    DCD    16842753
        0x2000496c:    00000040    @...    DCD    64
        0x20004970:    20016600    .f.     DCD    536962560
        0x20004974:    20016a00    .j.     DCD    536963584
        0x20004978:    20016a80    .j.     DCD    536963712
        0x2000497c:    00000000    ....    DCD    0
    nr_ansi_in_cmd
        0x20004980:    4241496d    mIAB    DCD    1111574893
        0x20004984:    4b584443    CDXK    DCD    1264075843
        0x20004988:    404a504d    MPJ@    DCD    1078612045
        0x2000498c:    6e686c4c    Llhn    DCD    1852337228
        0x20004990:    7e757348    Hsu~    DCD    2121626440
        0x20004994:    00000000    ....    DCD    0
    nr_ansi_in_cmd_fun
        0x20004998:    200034f9    .4.     DCD    536884473
        0x2000499c:    200034f9    .4.     DCD    536884473
        0x200049a0:    20003839    98.     DCD    536885305
        0x200049a4:    20003639    96.     DCD    536884793
        0x200049a8:    20003731    17.     DCD    536885041
        0x200049ac:    200036ed    .6.     DCD    536884973
        0x200049b0:    200034f9    .4.     DCD    536884473
        0x200049b4:    200034f9    .4.     DCD    536884473
        0x200049b8:    200034f9    .4.     DCD    536884473
        0x200049bc:    200034f9    .4.     DCD    536884473
        0x200049c0:    200034f9    .4.     DCD    536884473
        0x200049c4:    200034f9    .4.     DCD    536884473
        0x200049c8:    200034f9    .4.     DCD    536884473
        0x200049cc:    200034f9    .4.     DCD    536884473
        0x200049d0:    200034f9    .4.     DCD    536884473
        0x200049d4:    200034f9    .4.     DCD    536884473
        0x200049d8:    200034f9    .4.     DCD    536884473
        0x200049dc:    200034f9    .4.     DCD    536884473
        0x200049e0:    200034f9    .4.     DCD    536884473
        0x200049e4:    2000352d    -5.     DCD    536884525
    nr_ansi_in_special_symbol_fun
        0x200049e8:    200035b9    .5.     DCD    536884665
        0x200049ec:    2000370d    .7.     DCD    536885005
        0x200049f0:    200036b9    .6.     DCD    536884921
        0x200049f4:    20003755    U7.     DCD    536885077
    __tagsym$$used.0
    _nr_cmd_start_
        0x200049f8:    00000030    0...    DCD    48
        0x200049fc:    00000000    ....    DCD    0
        0x20004a00:    00000000    ....    DCD    0
        0x20004a04:    00000000    ....    DCD    0
        0x20004a08:    00000000    ....    DCD    0
    __tagsym$$used.1
    _nr_cmd_end_
        0x20004a0c:    0000006e    n...    DCD    110
        0x20004a10:    00000000    ....    DCD    0
        0x20004a14:    00000000    ....    DCD    0
        0x20004a18:    00000000    ....    DCD    0
        0x20004a1c:    00000000    ....    DCD    0
    static_cmd
        0x20004a20:    0000736c    ls..    DCD    29548
        0x20004a24:    00000000    ....    DCD    0
        0x20004a28:    00000000    ....    DCD    0
        0x20004a2c:    20003d95    .=.     DCD    536886677
        0x20004a30:    00000000    ....    DCD    0
        0x20004a34:    74736574    test    DCD    1953719668
        0x20004a38:    00000000    ....    DCD    0
        0x20004a3c:    00000000    ....    DCD    0
        0x20004a40:    200043bd    .C.     DCD    536888253
        0x20004a44:    00000000    ....    DCD    0
        0x20004a48:    64786568    hexd    DCD    1685611880
        0x20004a4c:    00706d75    ump.    DCD    7368053
        0x20004a50:    00000000    ....    DCD    0
        0x20004a54:    20003a0d    .:.     DCD    536885773
        0x20004a58:    00000000    ....    DCD    0
        0x20004a5c:    74697571    quit    DCD    1953068401
        0x20004a60:    00000000    ....    DCD    0
        0x20004a64:    00000000    ....    DCD    0
        0x20004a68:    20004371    qC.     DCD    536888177
        0x20004a6c:    00000000    ....    DCD    0
        0x20004a70:    00000000    ....    DCD    0
        0x20004a74:    00000000    ....    DCD    0
        0x20004a78:    00000000    ....    DCD    0
        0x20004a7c:    00000000    ....    DCD    0
        0x20004a80:    00000000    ....    DCD    0
    .L.str
        0x20004a84:    6f727265    erro    DCD    1869771365
        0x20004a88:    21212172    r!!!    DCD    555819378
        0x20004a8c:    0a0d        ..      DCW    2573
        0x20004a8e:    00          .       DCB    0
    .Lstr
        0x20004a8f:    65          e       DCB    101
        0x20004a90:    726f7272    rror    DCD    1919906418
        0x20004a94:    0d212121    !!!.    DCD    220274977
        0x20004a98:    00          .       DCB    0
    .L.str
        0x20004a99:    666966      fif     DCB    102,105,102
        0x20004a9c:    6e20306f    o0 n    DCD    1847603311
        0x20004aa0:    65626d75    umbe    DCD    1700949365
        0x20004aa4:    73752072    r us    DCD    1937055858
        0x20004aa8:    73656c65    eles    DCD    1936026725
        0x20004aac:    25203a73    s: %    DCD    622869107
        0x20004ab0:    000a0d64    d...    DCD    658788
    .L.str.5
        0x20004ab4:    706d6f63    comp    DCD    1886220131
        0x20004ab8:    64656c69    iled    DCD    1684368489
        0x20004abc:    6d697420     tim    DCD    1835627552
        0x20004ac0:    25203a65    e: %    DCD    622869093
        0x20004ac4:    73252073    s %s    DCD    1931812979
        0x20004ac8:    0a0d        ..      DCW    2573
        0x20004aca:    00          .       DCB    0
    .L.str.2
        0x20004acb:    25          %       DCB    37
        0x20004acc:    44415273    sRAD    DCD    1145131635
        0x20004ad0:    4d205241    AR M    DCD    1293963841
        0x20004ad4:    4c55444f    ODUL    DCD    1280656463
        0x20004ad8:    50203a45    E: P    DCD    1344289349
        0x20004adc:    5a323354    T32Z    DCD    1513239380
        0x20004ae0:    20323931    192     DCD    540162353
        0x20004ae4:    5f434441    ADC_    DCD    1598243905
        0x20004ae8:    504d4153    SAMP    DCD    1347240275
        0x20004aec:    4420454c    LE D    DCD    1142965580
        0x20004af0:    254f4d45    EMO%    DCD    625954117
        0x20004af4:    000a0d73    s...    DCD    658803
    .L.str.10
        0x20004af8:    58323025    %02X    DCD    1479684133
        0x20004afc:    0020         .      DCW    32
    .L.str.6
        0x20004afe:    6546        Fe      DCW    25926
        0x20004b00:    38322062    b 28    DCD    942809186
        0x20004b04:    32303220     202    DCD    842019360
        0x20004b08:    0032        2.      DCW    50
    .L.str.1
        0x20004b0a:    534a        JS      DCW    21322
        0x20004b0c:    65706f63    cope    DCD    1701867363
        0x20004b10:    5532555f    _U2U    DCD    1429362015
        0x20004b14:    0032        2.      DCW    50
    .L.str.7
        0x20004b16:    3031        10      DCW    12337
        0x20004b18:    3a37333a    :37:    DCD    976696122
        0x20004b1c:    3634        46      DCW    13876
        0x20004b1e:    00          .       DCB    0
    .L.str.3
        0x20004b1f:    1b          .       DCB    27
        0x20004b20:    343b345b    [4;4    DCD    876295259
        0x20004b24:    6d31        1m      DCW    27953
        0x20004b26:    00          .       DCB    0
    .L.str
        0x20004b27:    54          T       DCB    84
        0x20004b28:    696d7265    ermi    DCD    1768780389
        0x20004b2c:    006c616e    nal.    DCD    7102830
    .L.str.14
        0x20004b30:    5d73255b    [%s]    DCD    1567827291
        0x20004b34:    7830203a    : 0x    DCD    2016419898
        0x20004b38:    58383025    %08X    DCD    1480077349
        0x20004b3c:    6425202c    , %d    DCD    1680154668
        0x20004b40:    0a0d        ..      DCW    2573
        0x20004b42:    00          .       DCB    0
    .L.str.13
        0x20004b43:    70          p       DCB    112
        0x20004b44:    73617261    aras    DCD    1935766113
        0x20004b48:    3a642520     %d:    DCD    979641632
        0x20004b4c:    0d732520     %s.    DCD    225649952
        0x20004b50:    000a        ..      DCW    10
    .L.str.17
        0x20004b52:    3025        %0      DCW    12325
        0x20004b54:    20207834    4x      DCD    538998836
        0x20004b58:    25207325    %s %    DCD    622883621
        0x20004b5c:    000a0d73    s...    DCD    658803
    .L.str.16
        0x20004b60:    78343025    %04x    DCD    2016686117
        0x20004b64:    73252020      %s    DCD    1931812896
        0x20004b68:    0a732520     %s.    DCD    175318304
        0x20004b6c:    00          .       DCB    0
    .Lstr.23
        0x20004b6d:    6c7320      ls      DCB    108,115,32
        0x20004b70:    73726576    vers    DCD    1936876918
        0x20004b74:    206e6f69    ion     DCD    544108393
        0x20004b78:    2e302e31    1.0.    DCD    774909489
        0x20004b7c:    000d        ..      DCW    13
    .L.str.15
        0x20004b7e:    3130        01      DCW    12592
        0x20004b80:    35343332    2345    DCD    892613426
        0x20004b84:    39383736    6789    DCD    959985462
        0x20004b88:    44434241    ABCD    DCD    1145258561
        0x20004b8c:    4645        EF      DCW    17989
        0x20004b8e:    00          .       DCB    0
    .L__FUNCTION__.hexdump
        0x20004b8f:    68          h       DCB    104
        0x20004b90:    75647865    exdu    DCD    1969518693
        0x20004b94:    706d        mp      DCW    28781
        0x20004b96:    00          .       DCB    0
    .L.str.2
        0x20004b97:    1b          .       DCB    27
        0x20004b98:    4464255b    [%dD    DCD    1147413851
        0x20004b9c:    00          .       DCB    0
    .L.str.3
        0x20004b9d:    1b5b4b      .[K     DCB    27,91,75
        0x20004ba0:    00          .       DCB    0
    .L.str.7
    .L.str.15
        0x20004ba1:    257300      %s.     DCB    37,115,0
    .Lstr
        0x20004ba4:    5f5f5f20     ___    DCD    1600085792
        0x20004ba8:    20205f5f    __      DCD    538992479
        0x20004bac:    2020205f    _       DCD    538976351
        0x20004bb0:    20205f20     _      DCD    538992416
        0x20004bb4:    5f5f5f5f    ____    DCD    1600085855
        0x20004bb8:    5f202020       _    DCD    1595940896
        0x20004bbc:    20205f5f    __      DCD    538992479
        0x20004bc0:    20205f5f    __      DCD    538992479
        0x20004bc4:    205f5f20     __     DCD    543121184
        0x20004bc8:    0d205f5f    __ .    DCD    220225375
        0x20004bcc:    00          .       DCB    0
    .Lstr.20
        0x20004bcd:    7c2020      |       DCB    124,32,32
        0x20004bd0:    5c205f5f    __ \    DCD    1545625439
        0x20004bd4:    207c207c    | |     DCD    545005692
        0x20004bd8:    7c207c20     | |    DCD    2082503712
        0x20004bdc:    5f5f202f    / __    DCD    1600069679
        0x20004be0:    2f205c20     \ /    DCD    790649888
        0x20004be4:    5c205f20     _ \    DCD    1545625376
        0x20004be8:    7c205f2f    /_ |    DCD    2082496303
        0x20004bec:    2f202f20     / /    DCD    790638368
        0x20004bf0:    7c205f2f    /_ |    DCD    2082496303
        0x20004bf4:    000d        ..      DCW    13
    .Lstr.23
        0x20004bf6:    207c        |       DCW    8316
        0x20004bf8:    2020207c    |       DCD    538976380
        0x20004bfc:    7c207c20     | |    DCD    2082503712
        0x20004c00:    207c2020      |     DCD    545005600
        0x20004c04:    5f7c207c    | |_    DCD    1601970300
        0x20004c08:    7c207c5f    _| |    DCD    2082503775
        0x20004c0c:    295f2820     (_)    DCD    694102048
        0x20004c10:    207c7c20     ||     DCD    545029152
        0x20004c14:    5f28207c    | (_    DCD    1596465276
        0x20004c18:    207c2029    ) |     DCD    545005609
        0x20004c1c:    0d7c        |.      DCW    3452
        0x20004c1e:    00          .       DCB    0
    .Lstr.21
        0x20004c1f:    7c          |       DCB    124
        0x20004c20:    5f5f7c20     |__    DCD    1600093216
        0x20004c24:    207c2029    ) |     DCD    545005609
        0x20004c28:    7c5f5f7c    |__|    DCD    2086625148
        0x20004c2c:    7c207c20     | |    DCD    2082503712
        0x20004c30:    207c2020      |     DCD    545005600
        0x20004c34:    5f28207c    | (_    DCD    1596465276
        0x20004c38:    7c7c2029    ) ||    DCD    2088509481
        0x20004c3c:    202f7c20     |/     DCD    539982880
        0x20004c40:    7c205f2f    /_ |    DCD    2082496303
        0x20004c44:    000d7c20     |..    DCD    883744
    .Lstr.22
        0x20004c48:    5f20207c    |  _    DCD    1595940988
        0x20004c4c:    7c2f5f5f    __/|    DCD    2083479391
        0x20004c50:    5f5f2020      __    DCD    1600069664
        0x20004c54:    207c2020      |     DCD    545005600
        0x20004c58:    7c20207c    |  |    DCD    2082480252
        0x20004c5c:    203e7c20     |>     DCD    540965920
        0x20004c60:    203c205f    _ <     DCD    540811359
        0x20004c64:    207c207c    | |     DCD    545005692
        0x20004c68:    5c205f27    '_ \    DCD    1545625383
        0x20004c6c:    0d7c207c    | |.    DCD    226238588
        0x20004c70:    00          .       DCB    0
    .Lstr.24
        0x20004c71:    7c5f7c      |_|     DCB    124,95,124
        0x20004c74:    20202020            DCD    538976288
        0x20004c78:    207c5f7c    |_|     DCD    545021820
        0x20004c7c:    7c5f7c20     |_|    DCD    2086632480
        0x20004c80:    5f5f5f5c    \___    DCD    1600085852
        0x20004c84:    5c202f5f    _/ \    DCD    1545613151
        0x20004c88:    2f5f5f5f    ___/    DCD    794779487
        0x20004c8c:    7c5f7c20     |_|    DCD    2086632480
        0x20004c90:    5f5f5f5c    \___    DCD    1600085852
        0x20004c94:    7c5f7c2f    /|_|    DCD    2086632495
    .Lstr.8
        0x20004c98:    000d        ..      DCW    13
    .L.str.8
        0x20004c9a:    5b1b        .[      DCW    23323
        0x20004c9c:    313b3733    37;1    DCD    825964339
        0x20004ca0:    6975426d    mBui    DCD    1769292397
        0x20004ca4:    203a646c    ld:     DCD    540697708
        0x20004ca8:    20202020            DCD    538976288
        0x20004cac:    65462020      Fe    DCD    1699094560
        0x20004cb0:    38322062    b 28    DCD    942809186
        0x20004cb4:    32303220     202    DCD    842019360
        0x20004cb8:    30312032    2 10    DCD    808525874
        0x20004cbc:    3a37333a    :37:    DCD    976696122
        0x20004cc0:    0a0d3834    48..    DCD    168638516
    .L.str.4
        0x20004cc4:    6d305b1b    .[0m    DCD    1831885595
        0x20004cc8:    00000000    ....    DCD    0
    Region$$Table$$Base
        0x20004ccc:    20004d00    .M.     DCD    536890624
        0x20004cd0:    20010000    ...     DCD    536936448
        0x20004cd4:    00000180    ....    DCD    384
        0x20004cd8:    200002ee    ...     DCD    536871662
        0x20004cdc:    20004d40    @M.     DCD    536890688
        0x20004ce0:    20010180    ...     DCD    536936832
        0x20004ce4:    000079b0    .y..    DCD    31152
        0x20004ce8:    20004444    DD.     DCD    536888388
    Region$$Table$$Limit

** Section #2 'RW_IRAM1' (SHT_PROGBITS) [SHF_ALLOC + SHF_WRITE]
    Size   : 64 bytes (alignment 64)
    Address: 0x20010000


** Section #3 'RW_IRAM1' (SHT_NOBITS) [SHF_ALLOC + SHF_WRITE]
    Size   : 31152 bytes (alignment 64)
    Address: 0x20010180


** Section #4 '.debug_abbrev' (SHT_PROGBITS)
    Size   : 8066 bytes


** Section #5 '.debug_frame' (SHT_PROGBITS)
    Size   : 6696 bytes


** Section #6 '.debug_info' (SHT_PROGBITS)
    Size   : 39065 bytes


** Section #7 '.debug_line' (SHT_PROGBITS)
    Size   : 29062 bytes


** Section #8 '.debug_loc' (SHT_PROGBITS)
    Size   : 37168 bytes


** Section #9 '.debug_str' (SHT_PROGBITS)
    Size   : 19260 bytes


** Section #10 '.debug_ranges' (SHT_PROGBITS)
    Size   : 4264 bytes


** Section #11 '.symtab' (SHT_SYMTAB)
    Size   : 7888 bytes (alignment 4)
    String table #12 '.strtab'
    Last local symbol no. 265


** Section #12 '.strtab' (SHT_STRTAB)
    Size   : 5916 bytes


** Section #13 '.note' (SHT_NOTE)
    Size   : 28 bytes (alignment 4)


** Section #14 '.comment' (SHT_PROGBITS)
    Size   : 1880 bytes


** Section #15 '.shstrtab' (SHT_STRTAB)
    Size   : 148 bytes


