
========================================================================

** ELF Header Information

    File Name: D:\cccc2020\CODE\workspace\bfsk_pt32\embedded\test_gpio\MDK\output\flashcode\flashcode.axf

    Machine class: ELFCLASS32 (32-bit)
    Data encoding: ELFDATA2LSB (Little endian)
    Header version: EV_CURRENT (Current version)
    Operating System ABI: none
    ABI Version: 0
    File Type: ET_EXEC (Executable) (2)
    Machine: EM_ARM (ARM)

    Image Entry point: 0x00000131
    Flags: EF_ARM_HASENTRY + EF_ARM_ABI_FLOAT_SOFT (0x05000202)

    ARM ELF revision: 5 (ABI version 2)

    Conforms to Soft float procedure-call standard

    Built with
    Component: ARM Compiler 6.14.1 Tool: armasm [5db06d00]
    Component: ARM Compiler 6.14.1 Tool: armlink [5db06d00]

    Header size: 52 bytes (0x34)
    Program header entry size: 32 bytes (0x20)
    Section header entry size: 40 bytes (0x28)

    Program header entries: 1
    Section header entries: 15

    Program header offset: 46132 (0x0000b434)
    Section header offset: 46164 (0x0000b454)

    Section header string table index: 14

========================================================================

** Program header #0 (PT_LOAD) [PF_X + PF_W + PF_R + PF_ARM_ENTRY]
    Size : 11016 bytes (5752 bytes in file)
    Virtual address: 0x00000000 (Alignment 8)


========================================================================

** Section #1 'ER_IROM1' (SHT_PROGBITS) [SHF_ALLOC + SHF_EXECINSTR]
    Size   : 5740 bytes (alignment 4)
    Address: 0x00000000

    $d.realdata
    RESET
    __Vectors
        0x00000000:    20001498    ...     DCD    536876184
        0x00000004:    00000145    E...    DCD    325
        0x00000008:    0000065d    ]...    DCD    1629
        0x0000000c:    000005ed    ....    DCD    1517
        0x00000010:    00000151    Q...    DCD    337
        0x00000014:    00000153    S...    DCD    339
        0x00000018:    00000155    U...    DCD    341
        0x0000001c:    00000000    ....    DCD    0
        0x00000020:    00000000    ....    DCD    0
        0x00000024:    00000000    ....    DCD    0
        0x00000028:    00000000    ....    DCD    0
        0x0000002c:    00000bcd    ....    DCD    3021
        0x00000030:    00000159    Y...    DCD    345
        0x00000034:    00000000    ....    DCD    0
        0x00000038:    00000671    q...    DCD    1649
        0x0000003c:    00000bd1    ....    DCD    3025
        0x00000040:    0000015f    _...    DCD    351
        0x00000044:    00000000    ....    DCD    0
        0x00000048:    00000000    ....    DCD    0
        0x0000004c:    00000675    u...    DCD    1653
        0x00000050:    0000051d    ....    DCD    1309
        0x00000054:    0000015f    _...    DCD    351
        0x00000058:    00000661    a...    DCD    1633
        0x0000005c:    00000665    e...    DCD    1637
        0x00000060:    00000669    i...    DCD    1641
        0x00000064:    0000066d    m...    DCD    1645
        0x00000068:    00000000    ....    DCD    0
        0x0000006c:    000004fd    ....    DCD    1277
        0x00000070:    00000000    ....    DCD    0
        0x00000074:    00000000    ....    DCD    0
        0x00000078:    00000000    ....    DCD    0
        0x0000007c:    00000000    ....    DCD    0
        0x00000080:    00000000    ....    DCD    0
        0x00000084:    00000000    ....    DCD    0
        0x00000088:    000004f9    ....    DCD    1273
        0x0000008c:    00000000    ....    DCD    0
        0x00000090:    00000000    ....    DCD    0
        0x00000094:    00000000    ....    DCD    0
        0x00000098:    00000000    ....    DCD    0
        0x0000009c:    00000000    ....    DCD    0
        0x000000a0:    00000cb5    ....    DCD    3253
        0x000000a4:    00000cb9    ....    DCD    3257
        0x000000a8:    00000000    ....    DCD    0
        0x000000ac:    00000000    ....    DCD    0
        0x000000b0:    00000cbd    ....    DCD    3261
        0x000000b4:    00000cc1    ....    DCD    3265
        0x000000b8:    00000cc5    ....    DCD    3269
        0x000000bc:    0000015f    _...    DCD    351
        0x000000c0:    00000000    ....    DCD    0
        0x000000c4:    00000000    ....    DCD    0
        0x000000c8:    00000000    ....    DCD    0
        0x000000cc:    00000bc5    ....    DCD    3013
        0x000000d0:    00000bc9    ....    DCD    3017
        0x000000d4:    00000ccd    ....    DCD    3277
        0x000000d8:    00000cd1    ....    DCD    3281
        0x000000dc:    00000cd5    ....    DCD    3285
        0x000000e0:    00000000    ....    DCD    0
        0x000000e4:    00000000    ....    DCD    0
        0x000000e8:    00000000    ....    DCD    0
        0x000000ec:    00000000    ....    DCD    0
        0x000000f0:    00000000    ....    DCD    0
        0x000000f4:    00000000    ....    DCD    0
        0x000000f8:    00000000    ....    DCD    0
        0x000000fc:    00000000    ....    DCD    0
        0x00000100:    00000000    ....    DCD    0
        0x00000104:    0000015f    _...    DCD    351
        0x00000108:    00000000    ....    DCD    0
        0x0000010c:    0000015f    _...    DCD    351
        0x00000110:    00000000    ....    DCD    0
        0x00000114:    00000000    ....    DCD    0
        0x00000118:    00000000    ....    DCD    0
        0x0000011c:    00000000    ....    DCD    0
        0x00000120:    00000000    ....    DCD    0
        0x00000124:    00000cc9    ....    DCD    3273
        0x00000128:    00000000    ....    DCD    0
        0x0000012c:    0000015f    _...    DCD    351
    $t
    .ARM.Collect$$$$00000000
    .ARM.Collect$$$$00000001
    __Vectors_End
    __main
    _main_stk
        0x00000130:    f8dfd00c    ....    LDR      sp,__lit__00000000 ; [0x140] = 0x20001498
    .ARM.Collect$$$$00000004
    _main_scatterload
        0x00000134:    f000f9be    ....    BL       __scatterload ; 0x4b4
    .ARM.Collect$$$$00000008
    .ARM.Collect$$$$0000000A
    .ARM.Collect$$$$0000000B
    __main_after_scatterload
    _main_clock
    _main_cpp_init
    _main_init
        0x00000138:    4800        .H      LDR      r0,[pc,#0] ; [0x13c] = 0x1509
        0x0000013a:    4700        .G      BX       r0
    $d
        0x0000013c:    00001509    ....    DCD    5385
    .ARM.Collect$$$$00002712
    __lit__00000000
    .ARM.Collect$$$$0000000D
    .ARM.Collect$$$$0000000F
    __rt_final_cpp
    __rt_final_exit
        0x00000140:    20001498    ...     DCD    536876184
    $t
    .text
    Reset_Handler
        0x00000144:    4806        .H      LDR      r0,[pc,#24] ; [0x160] = 0xbd5
        0x00000146:    4780        .G      BLX      r0
        0x00000148:    4806        .H      LDR      r0,[pc,#24] ; [0x164] = 0x131
        0x0000014a:    4700        .G      BX       r0
        0x0000014c:    e7fe        ..      B        0x14c ; Reset_Handler + 8
        0x0000014e:    e7fe        ..      B        0x14e ; Reset_Handler + 10
    MemManage_Handler
        0x00000150:    e7fe        ..      B        MemManage_Handler ; 0x150
    BusFault_Handler
        0x00000152:    e7fe        ..      B        BusFault_Handler ; 0x152
    UsageFault_Handler
        0x00000154:    e7fe        ..      B        UsageFault_Handler ; 0x154
        0x00000156:    e7fe        ..      B        0x156 ; UsageFault_Handler + 2
    DebugMon_Handler
        0x00000158:    e7fe        ..      B        DebugMon_Handler ; 0x158
        0x0000015a:    e7fe        ..      B        0x15a ; DebugMon_Handler + 2
        0x0000015c:    e7fe        ..      B        0x15c ; DebugMon_Handler + 4
    AES_Handler
    I2C_Handler
    QSPI_Handler
    RCC_Handler
    USB11_Handler
    WDG_Handler
        0x0000015e:    e7fe        ..      B        AES_Handler ; 0x15e
    $d
        0x00000160:    00000bd5    ....    DCD    3029
        0x00000164:    00000131    1...    DCD    305
    $t
    .text
    __aeabi_memcpy
    __aeabi_memcpy4
    __aeabi_memcpy8
        0x00000168:    ea400301    @...    ORR      r3,r0,r1
        0x0000016c:    079b        ..      LSLS     r3,r3,#30
        0x0000016e:    d003        ..      BEQ      0x178 ; __aeabi_memcpy + 16
        0x00000170:    e009        ..      B        0x186 ; __aeabi_memcpy + 30
        0x00000172:    c908        ..      LDM      r1!,{r3}
        0x00000174:    1f12        ..      SUBS     r2,r2,#4
        0x00000176:    c008        ..      STM      r0!,{r3}
        0x00000178:    2a04        .*      CMP      r2,#4
        0x0000017a:    d2fa        ..      BCS      0x172 ; __aeabi_memcpy + 10
        0x0000017c:    e003        ..      B        0x186 ; __aeabi_memcpy + 30
        0x0000017e:    f8113b01    ...;    LDRB     r3,[r1],#1
        0x00000182:    f8003b01    ...;    STRB     r3,[r0],#1
        0x00000186:    1e52        R.      SUBS     r2,r2,#1
        0x00000188:    d2f9        ..      BCS      0x17e ; __aeabi_memcpy + 22
        0x0000018a:    4770        pG      BX       lr
    .text
    strcpy
        0x0000018c:    4603        .F      MOV      r3,r0
        0x0000018e:    f8112b01    ...+    LDRB     r2,[r1],#1
        0x00000192:    f8002b01    ...+    STRB     r2,[r0],#1
        0x00000196:    2a00        .*      CMP      r2,#0
        0x00000198:    d1f9        ..      BNE      0x18e ; strcpy + 2
        0x0000019a:    4618        .F      MOV      r0,r3
        0x0000019c:    4770        pG      BX       lr
    .text
    __aeabi_dadd
        0x0000019e:    e92d4ffe    -..O    PUSH     {r1-r11,lr}
        0x000001a2:    4680        .F      MOV      r8,r0
        0x000001a4:    ea810003    ....    EOR      r0,r1,r3
        0x000001a8:    0fc0        ..      LSRS     r0,r0,#31
        0x000001aa:    460c        .F      MOV      r4,r1
        0x000001ac:    9000        ..      STR      r0,[sp,#0]
        0x000001ae:    f0214100    !..A    BIC      r1,r1,#0x80000000
        0x000001b2:    f0234500    #..E    BIC      r5,r3,#0x80000000
        0x000001b6:    ebb80002    ....    SUBS     r0,r8,r2
        0x000001ba:    41a9        .A      SBCS     r1,r1,r5
        0x000001bc:    d205        ..      BCS      0x1ca ; __aeabi_dadd + 44
        0x000001be:    4640        @F      MOV      r0,r8
        0x000001c0:    4621        !F      MOV      r1,r4
        0x000001c2:    4690        .F      MOV      r8,r2
        0x000001c4:    461c        .F      MOV      r4,r3
        0x000001c6:    460b        .F      MOV      r3,r1
        0x000001c8:    4602        .F      MOV      r2,r0
        0x000001ca:    f0234000    #..@    BIC      r0,r3,#0x80000000
        0x000001ce:    4310        .C      ORRS     r0,r0,r2
        0x000001d0:    d047        G.      BEQ      0x262 ; __aeabi_dadd + 196
        0x000001d2:    0d27        '.      LSRS     r7,r4,#20
        0x000001d4:    f3c7000a    ....    UBFX     r0,r7,#0,#11
        0x000001d8:    f3c3510a    ...Q    UBFX     r1,r3,#20,#11
        0x000001dc:    9002        ..      STR      r0,[sp,#8]
        0x000001de:    1a40        @.      SUBS     r0,r0,r1
        0x000001e0:    9001        ..      STR      r0,[sp,#4]
        0x000001e2:    2840        @(      CMP      r0,#0x40
        0x000001e4:    da6b        k.      BGE      0x2be ; __aeabi_dadd + 288
        0x000001e6:    f3c30013    ....    UBFX     r0,r3,#0,#20
        0x000001ea:    f4401b80    @...    ORR      r11,r0,#0x100000
        0x000001ee:    9800        ..      LDR      r0,[sp,#0]
        0x000001f0:    4692        .F      MOV      r10,r2
        0x000001f2:    b120         .      CBZ      r0,0x1fe ; __aeabi_dadd + 96
        0x000001f4:    2300        .#      MOVS     r3,#0
        0x000001f6:    ebd20a03    ....    RSBS     r10,r2,r3
        0x000001fa:    eb630b0b    c...    SBC      r11,r3,r11
        0x000001fe:    9801        ..      LDR      r0,[sp,#4]
        0x00000200:    4659        YF      MOV      r1,r11
        0x00000202:    f1c00240    ..@.    RSB      r2,r0,#0x40
        0x00000206:    4650        PF      MOV      r0,r10
        0x00000208:    f000f89f    ....    BL       __aeabi_llsl ; 0x34a
        0x0000020c:    4606        .F      MOV      r6,r0
        0x0000020e:    460d        .F      MOV      r5,r1
        0x00000210:    4650        PF      MOV      r0,r10
        0x00000212:    4659        YF      MOV      r1,r11
        0x00000214:    9a01        ..      LDR      r2,[sp,#4]
        0x00000216:    f000f8a7    ....    BL       __aeabi_lasr ; 0x368
        0x0000021a:    eb100008    ....    ADDS     r0,r0,r8
        0x0000021e:    4161        aA      ADCS     r1,r1,r4
        0x00000220:    2400        .$      MOVS     r4,#0
        0x00000222:    ea875211    ...R    EOR      r2,r7,r1,LSR #20
        0x00000226:    ea8473e7    ...s    EOR      r3,r4,r7,ASR #31
        0x0000022a:    431a        .C      ORRS     r2,r2,r3
        0x0000022c:    d040        @.      BEQ      0x2b0 ; __aeabi_dadd + 274
        0x0000022e:    9a00        ..      LDR      r2,[sp,#0]
        0x00000230:    b362        b.      CBZ      r2,0x28c ; __aeabi_dadd + 238
        0x00000232:    9a01        ..      LDR      r2,[sp,#4]
        0x00000234:    2a01        .*      CMP      r2,#1
        0x00000236:    ea4f5207    O..R    LSL      r2,r7,#20
        0x0000023a:    dc15        ..      BGT      0x268 ; __aeabi_dadd + 202
        0x0000023c:    1b00        ..      SUBS     r0,r0,r4
        0x0000023e:    eb610102    a...    SBC      r1,r1,r2
        0x00000242:    f04f4200    O..B    MOV      r2,#0x80000000
        0x00000246:    ea025207    ...R    AND      r2,r2,r7,LSL #20
        0x0000024a:    e9cd4200    ...B    STRD     r4,r2,[sp,#0]
        0x0000024e:    1c00        ..      ADDS     r0,r0,#0
        0x00000250:    f5411180    A...    ADC      r1,r1,#0x100000
        0x00000254:    4632        2F      MOV      r2,r6
        0x00000256:    462b        +F      MOV      r3,r5
        0x00000258:    f000f8de    ....    BL       _double_epilogue ; 0x418
        0x0000025c:    b003        ..      ADD      sp,sp,#0xc
        0x0000025e:    e8bd8ff0    ....    POP      {r4-r11,pc}
        0x00000262:    4640        @F      MOV      r0,r8
        0x00000264:    4621        !F      MOV      r1,r4
        0x00000266:    e7f9        ..      B        0x25c ; __aeabi_dadd + 190
        0x00000268:    1b00        ..      SUBS     r0,r0,r4
        0x0000026a:    eb610102    a...    SBC      r1,r1,r2
        0x0000026e:    1c00        ..      ADDS     r0,r0,#0
        0x00000270:    f5411380    A...    ADC      r3,r1,#0x100000
        0x00000274:    1800        ..      ADDS     r0,r0,r0
        0x00000276:    415b        [A      ADCS     r3,r3,r3
        0x00000278:    1820         .      ADDS     r0,r4,r0
        0x0000027a:    f5a21700    ....    SUB      r7,r2,#0x200000
        0x0000027e:    eb470103    G...    ADC      r1,r7,r3
        0x00000282:    ea4070d5    @..p    ORR      r0,r0,r5,LSR #31
        0x00000286:    19b6        ..      ADDS     r6,r6,r6
        0x00000288:    416d        mA      ADCS     r5,r5,r5
        0x0000028a:    e011        ..      B        0x2b0 ; __aeabi_dadd + 274
        0x0000028c:    086d        m.      LSRS     r5,r5,#1
        0x0000028e:    ea4f0636    O.6.    RRX      r6,r6
        0x00000292:    ea4575c0    E..u    ORR      r5,r5,r0,LSL #31
        0x00000296:    ea4f5207    O..R    LSL      r2,r7,#20
        0x0000029a:    1b00        ..      SUBS     r0,r0,r4
        0x0000029c:    eb610102    a...    SBC      r1,r1,r2
        0x000002a0:    1c00        ..      ADDS     r0,r0,#0
        0x000002a2:    f5411180    A...    ADC      r1,r1,#0x100000
        0x000002a6:    0849        I.      LSRS     r1,r1,#1
        0x000002a8:    ea4f0030    O.0.    RRX      r0,r0
        0x000002ac:    1900        ..      ADDS     r0,r0,r4
        0x000002ae:    4151        QA      ADCS     r1,r1,r2
        0x000002b0:    4632        2F      MOV      r2,r6
        0x000002b2:    462b        +F      MOV      r3,r5
        0x000002b4:    b003        ..      ADD      sp,sp,#0xc
        0x000002b6:    e8bd4ff0    ...O    POP      {r4-r11,lr}
        0x000002ba:    f000b89e    ....    B.W      _double_round ; 0x3fa
        0x000002be:    9800        ..      LDR      r0,[sp,#0]
        0x000002c0:    2201        ."      MOVS     r2,#1
        0x000002c2:    0040        @.      LSLS     r0,r0,#1
        0x000002c4:    2300        .#      MOVS     r3,#0
        0x000002c6:    ebd00202    ....    RSBS     r2,r0,r2
        0x000002ca:    eb6373e0    c..s    SBC      r3,r3,r0,ASR #31
        0x000002ce:    9800        ..      LDR      r0,[sp,#0]
        0x000002d0:    4621        !F      MOV      r1,r4
        0x000002d2:    ea4f74e0    O..t    ASR      r4,r0,#31
        0x000002d6:    ebb80000    ....    SUBS     r0,r8,r0
        0x000002da:    eb610104    a...    SBC      r1,r1,r4
        0x000002de:    e7e9        ..      B        0x2b4 ; __aeabi_dadd + 278
    __aeabi_dsub
        0x000002e0:    f0834300    ...C    EOR      r3,r3,#0x80000000
        0x000002e4:    e75b        [.      B        __aeabi_dadd ; 0x19e
    __aeabi_drsub
        0x000002e6:    f0814100    ...A    EOR      r1,r1,#0x80000000
        0x000002ea:    e758        X.      B        __aeabi_dadd ; 0x19e
    .text
    __aeabi_f2d
        0x000002ec:    f0004200    ...B    AND      r2,r0,#0x80000000
        0x000002f0:    f0304000    0..@    BICS     r0,r0,#0x80000000
        0x000002f4:    d00a        ..      BEQ      0x30c ; __aeabi_f2d + 32
        0x000002f6:    0dc1        ..      LSRS     r1,r0,#23
        0x000002f8:    f5017160    ..`q    ADD      r1,r1,#0x380
        0x000002fc:    f3c00016    ....    UBFX     r0,r0,#0,#23
        0x00000300:    ea425101    B..Q    ORR      r1,r2,r1,LSL #20
        0x00000304:    08c2        ..      LSRS     r2,r0,#3
        0x00000306:    0740        @.      LSLS     r0,r0,#29
        0x00000308:    4311        .C      ORRS     r1,r1,r2
        0x0000030a:    4770        pG      BX       lr
        0x0000030c:    2000        .       MOVS     r0,#0
        0x0000030e:    4601        .F      MOV      r1,r0
        0x00000310:    4770        pG      BX       lr
    .text
    __aeabi_d2f
        0x00000312:    f0014300    ...C    AND      r3,r1,#0x80000000
        0x00000316:    b430        0.      PUSH     {r4,r5}
        0x00000318:    f0214100    !..A    BIC      r1,r1,#0x80000000
        0x0000031c:    ea500201    P...    ORRS     r2,r0,r1
        0x00000320:    d006        ..      BEQ      0x330 ; __aeabi_d2f + 30
        0x00000322:    0d0a        ..      LSRS     r2,r1,#20
        0x00000324:    f5a27260    ..`r    SUB      r2,r2,#0x380
        0x00000328:    f3c10113    ....    UBFX     r1,r1,#0,#20
        0x0000032c:    2a00        .*      CMP      r2,#0
        0x0000032e:    dc02        ..      BGT      0x336 ; __aeabi_d2f + 36
        0x00000330:    bc30        0.      POP      {r4,r5}
        0x00000332:    2000        .       MOVS     r0,#0
        0x00000334:    4770        pG      BX       lr
        0x00000336:    0f44        D.      LSRS     r4,r0,#29
        0x00000338:    ea4404c1    D...    ORR      r4,r4,r1,LSL #3
        0x0000033c:    00c1        ..      LSLS     r1,r0,#3
        0x0000033e:    18e0        ..      ADDS     r0,r4,r3
        0x00000340:    bc30        0.      POP      {r4,r5}
        0x00000342:    eb0050c2    ...P    ADD      r0,r0,r2,LSL #23
        0x00000346:    f000b821    ..!.    B.W      __I$use$fp ; 0x38c
    .text
    __aeabi_llsl
    _ll_shift_l
        0x0000034a:    2a20         *      CMP      r2,#0x20
        0x0000034c:    db04        ..      BLT      0x358 ; __aeabi_llsl + 14
        0x0000034e:    3a20         :      SUBS     r2,r2,#0x20
        0x00000350:    fa00f102    ....    LSL      r1,r0,r2
        0x00000354:    2000        .       MOVS     r0,#0
        0x00000356:    4770        pG      BX       lr
        0x00000358:    4091        .@      LSLS     r1,r1,r2
        0x0000035a:    f1c20320    .. .    RSB      r3,r2,#0x20
        0x0000035e:    fa20f303     ...    LSR      r3,r0,r3
        0x00000362:    4319        .C      ORRS     r1,r1,r3
        0x00000364:    4090        .@      LSLS     r0,r0,r2
        0x00000366:    4770        pG      BX       lr
    .text
    __aeabi_lasr
    _ll_sshift_r
        0x00000368:    2a20         *      CMP      r2,#0x20
        0x0000036a:    db06        ..      BLT      0x37a ; __aeabi_lasr + 18
        0x0000036c:    17cb        ..      ASRS     r3,r1,#31
        0x0000036e:    3a20         :      SUBS     r2,r2,#0x20
        0x00000370:    fa41f002    A...    ASR      r0,r1,r2
        0x00000374:    ea4373e0    C..s    ORR      r3,r3,r0,ASR #31
        0x00000378:    e006        ..      B        0x388 ; __aeabi_lasr + 32
        0x0000037a:    fa41f302    A...    ASR      r3,r1,r2
        0x0000037e:    40d0        .@      LSRS     r0,r0,r2
        0x00000380:    f1c20220    .. .    RSB      r2,r2,#0x20
        0x00000384:    4091        .@      LSLS     r1,r1,r2
        0x00000386:    4308        .C      ORRS     r0,r0,r1
        0x00000388:    4619        .F      MOV      r1,r3
        0x0000038a:    4770        pG      BX       lr
    .text
    .text
    __I$use$fp
    _float_round
        0x0000038c:    2900        .)      CMP      r1,#0
        0x0000038e:    bfa8        ..      IT       GE
        0x00000390:    4770        pG      BXGE     lr
        0x00000392:    1c40        @.      ADDS     r0,r0,#1
        0x00000394:    0049        I.      LSLS     r1,r1,#1
        0x00000396:    bf08        ..      IT       EQ
        0x00000398:    f0200001     ...    BICEQ    r0,r0,#1
        0x0000039c:    4770        pG      BX       lr
    _float_epilogue
        0x0000039e:    b410        ..      PUSH     {r4}
        0x000003a0:    fab0fc80    ....    CLZ      r12,r0
        0x000003a4:    fa00f00c    ....    LSL      r0,r0,r12
        0x000003a8:    ea500401    P...    ORRS     r4,r0,r1
        0x000003ac:    bf04        ..      ITT      EQ
        0x000003ae:    bc10        ..      POPEQ    {r4}
        0x000003b0:    4770        pG      BXEQ     lr
        0x000003b2:    b149        I.      CBZ      r1,0x3c8 ; _float_epilogue + 42
        0x000003b4:    f1cc0420    .. .    RSB      r4,r12,#0x20
        0x000003b8:    fa21f404    !...    LSR      r4,r1,r4
        0x000003bc:    fa11f10c    ....    LSLS     r1,r1,r12
        0x000003c0:    bf18        ..      IT       NE
        0x000003c2:    2101        .!      MOVNE    r1,#1
        0x000003c4:    4321        !C      ORRS     r1,r1,r4
        0x000003c6:    4308        .C      ORRS     r0,r0,r1
        0x000003c8:    eba3010c    ....    SUB      r1,r3,r12
        0x000003cc:    1dcb        ..      ADDS     r3,r1,#7
        0x000003ce:    ea4f6100    O..a    LSL      r1,r0,#24
        0x000003d2:    ea4f2010    O..     LSR      r0,r0,#8
        0x000003d6:    bf42        B.      ITTT     MI
        0x000003d8:    2000        .       MOVMI    r0,#0
        0x000003da:    bc10        ..      POPMI    {r4}
        0x000003dc:    4770        pG      BXMI     lr
        0x000003de:    eb0050c3    ...P    ADD      r0,r0,r3,LSL #23
        0x000003e2:    4410        .D      ADD      r0,r0,r2
        0x000003e4:    2900        .)      CMP      r1,#0
        0x000003e6:    bfa4        ..      ITT      GE
        0x000003e8:    bc10        ..      POPGE    {r4}
        0x000003ea:    4770        pG      BXGE     lr
        0x000003ec:    1c40        @.      ADDS     r0,r0,#1
        0x000003ee:    0049        I.      LSLS     r1,r1,#1
        0x000003f0:    bf08        ..      IT       EQ
        0x000003f2:    f0200001     ...    BICEQ    r0,r0,#1
        0x000003f6:    bc10        ..      POP      {r4}
        0x000003f8:    4770        pG      BX       lr
    .text
    _double_round
        0x000003fa:    b510        ..      PUSH     {r4,lr}
        0x000003fc:    1e14        ..      SUBS     r4,r2,#0
        0x000003fe:    f1730400    s...    SBCS     r4,r3,#0
        0x00000402:    da08        ..      BGE      0x416 ; _double_round + 28
        0x00000404:    1c40        @.      ADDS     r0,r0,#1
        0x00000406:    f1410100    A...    ADC      r1,r1,#0
        0x0000040a:    1892        ..      ADDS     r2,r2,r2
        0x0000040c:    415b        [A      ADCS     r3,r3,r3
        0x0000040e:    431a        .C      ORRS     r2,r2,r3
        0x00000410:    d101        ..      BNE      0x416 ; _double_round + 28
        0x00000412:    f0200001     ...    BIC      r0,r0,#1
        0x00000416:    bd10        ..      POP      {r4,pc}
    _double_epilogue
        0x00000418:    e92d4df0    -..M    PUSH     {r4-r8,r10,r11,lr}
        0x0000041c:    4692        .F      MOV      r10,r2
        0x0000041e:    469b        .F      MOV      r11,r3
        0x00000420:    b111        ..      CBZ      r1,0x428 ; _double_epilogue + 16
        0x00000422:    fab1f281    ....    CLZ      r2,r1
        0x00000426:    e002        ..      B        0x42e ; _double_epilogue + 22
        0x00000428:    fab0f280    ....    CLZ      r2,r0
        0x0000042c:    3220         2      ADDS     r2,r2,#0x20
        0x0000042e:    4690        .F      MOV      r8,r2
        0x00000430:    f7ffff8b    ....    BL       __aeabi_llsl ; 0x34a
        0x00000434:    4604        .F      MOV      r4,r0
        0x00000436:    460f        .F      MOV      r7,r1
        0x00000438:    ea40000a    @...    ORR      r0,r0,r10
        0x0000043c:    ea41010b    A...    ORR      r1,r1,r11
        0x00000440:    4653        SF      MOV      r3,r10
        0x00000442:    465a        ZF      MOV      r2,r11
        0x00000444:    4308        .C      ORRS     r0,r0,r1
        0x00000446:    d013        ..      BEQ      0x470 ; _double_epilogue + 88
        0x00000448:    4611        .F      MOV      r1,r2
        0x0000044a:    ea530001    S...    ORRS     r0,r3,r1
        0x0000044e:    d019        ..      BEQ      0x484 ; _double_epilogue + 108
        0x00000450:    f1c80240    ..@.    RSB      r2,r8,#0x40
        0x00000454:    4650        PF      MOV      r0,r10
        0x00000456:    f000f83f    ..?.    BL       __aeabi_llsr ; 0x4d8
        0x0000045a:    4605        .F      MOV      r5,r0
        0x0000045c:    460e        .F      MOV      r6,r1
        0x0000045e:    4650        PF      MOV      r0,r10
        0x00000460:    4659        YF      MOV      r1,r11
        0x00000462:    4642        BF      MOV      r2,r8
        0x00000464:    f7ffff71    ..q.    BL       __aeabi_llsl ; 0x34a
        0x00000468:    4308        .C      ORRS     r0,r0,r1
        0x0000046a:    d005        ..      BEQ      0x478 ; _double_epilogue + 96
        0x0000046c:    2001        .       MOVS     r0,#1
        0x0000046e:    e004        ..      B        0x47a ; _double_epilogue + 98
        0x00000470:    4620         F      MOV      r0,r4
        0x00000472:    4639        9F      MOV      r1,r7
        0x00000474:    e8bd8df0    ....    POP      {r4-r8,r10,r11,pc}
        0x00000478:    2000        .       MOVS     r0,#0
        0x0000047a:    4305        .C      ORRS     r5,r5,r0
        0x0000047c:    ea4676e0    F..v    ORR      r6,r6,r0,ASR #31
        0x00000480:    432c        ,C      ORRS     r4,r4,r5
        0x00000482:    4337        7C      ORRS     r7,r7,r6
        0x00000484:    980a        ..      LDR      r0,[sp,#0x28]
        0x00000486:    0563        c.      LSLS     r3,r4,#21
        0x00000488:    0ae4        ..      LSRS     r4,r4,#11
        0x0000048a:    eba00008    ....    SUB      r0,r0,r8
        0x0000048e:    2200        ."      MOVS     r2,#0
        0x00000490:    0afd        ..      LSRS     r5,r7,#11
        0x00000492:    ea445447    D.GT    ORR      r4,r4,r7,LSL #21
        0x00000496:    300a        .0      ADDS     r0,r0,#0xa
        0x00000498:    d502        ..      BPL      0x4a0 ; _double_epilogue + 136
        0x0000049a:    2000        .       MOVS     r0,#0
        0x0000049c:    4601        .F      MOV      r1,r0
        0x0000049e:    e7e9        ..      B        0x474 ; _double_epilogue + 92
        0x000004a0:    0501        ..      LSLS     r1,r0,#20
        0x000004a2:    1910        ..      ADDS     r0,r2,r4
        0x000004a4:    4169        iA      ADCS     r1,r1,r5
        0x000004a6:    e9dd4508    ...E    LDRD     r4,r5,[sp,#0x20]
        0x000004aa:    1900        ..      ADDS     r0,r0,r4
        0x000004ac:    4169        iA      ADCS     r1,r1,r5
        0x000004ae:    e8bd4df0    ...M    POP      {r4-r8,r10,r11,lr}
        0x000004b2:    e7a2        ..      B        _double_round ; 0x3fa
    .text
    __scatterload
    __scatterload_rt2
        0x000004b4:    4c06        .L      LDR      r4,[pc,#24] ; [0x4d0] = 0x164c
        0x000004b6:    4d07        .M      LDR      r5,[pc,#28] ; [0x4d4] = 0x166c
        0x000004b8:    e006        ..      B        0x4c8 ; __scatterload + 20
        0x000004ba:    68e0        .h      LDR      r0,[r4,#0xc]
        0x000004bc:    f0400301    @...    ORR      r3,r0,#1
        0x000004c0:    e8940007    ....    LDM      r4,{r0-r2}
        0x000004c4:    4798        .G      BLX      r3
        0x000004c6:    3410        .4      ADDS     r4,r4,#0x10
        0x000004c8:    42ac        .B      CMP      r4,r5
        0x000004ca:    d3f6        ..      BCC      0x4ba ; __scatterload + 6
        0x000004cc:    f7fffe34    ..4.    BL       __main_after_scatterload ; 0x138
    $d
        0x000004d0:    0000164c    L...    DCD    5708
        0x000004d4:    0000166c    l...    DCD    5740
    $t
    .text
    __aeabi_llsr
    _ll_ushift_r
        0x000004d8:    2a20         *      CMP      r2,#0x20
        0x000004da:    db04        ..      BLT      0x4e6 ; __aeabi_llsr + 14
        0x000004dc:    3a20         :      SUBS     r2,r2,#0x20
        0x000004de:    fa21f002    !...    LSR      r0,r1,r2
        0x000004e2:    2100        .!      MOVS     r1,#0
        0x000004e4:    4770        pG      BX       lr
        0x000004e6:    fa21f302    !...    LSR      r3,r1,r2
        0x000004ea:    40d0        .@      LSRS     r0,r0,r2
        0x000004ec:    f1c20220    .. .    RSB      r2,r2,#0x20
        0x000004f0:    4091        .@      LSLS     r1,r1,r2
        0x000004f2:    4308        .C      ORRS     r0,r0,r1
        0x000004f4:    4619        .F      MOV      r1,r3
        0x000004f6:    4770        pG      BX       lr
    $t.14
    ADC_Handler
        0x000004f8:    4770        pG      BX       lr
        0x000004fa:    0000        ..      MOVS     r0,r0
    DMA_Handler
        0x000004fc:    4770        pG      BX       lr
        0x000004fe:    0000        ..      MOVS     r0,r0
    Delay
        0x00000500:    b081        ..      SUB      sp,sp,#4
        0x00000502:    9000        ..      STR      r0,[sp,#0]
        0x00000504:    e7ff        ..      B        0x506 ; Delay + 6
        0x00000506:    9800        ..      LDR      r0,[sp,#0]
        0x00000508:    2800        .(      CMP      r0,#0
        0x0000050a:    d005        ..      BEQ      0x518 ; Delay + 24
        0x0000050c:    e7ff        ..      B        0x50e ; Delay + 14
        0x0000050e:    e7ff        ..      B        0x510 ; Delay + 16
        0x00000510:    9800        ..      LDR      r0,[sp,#0]
        0x00000512:    3801        .8      SUBS     r0,#1
        0x00000514:    9000        ..      STR      r0,[sp,#0]
        0x00000516:    e7f6        ..      B        0x506 ; Delay + 6
        0x00000518:    b001        ..      ADD      sp,sp,#4
        0x0000051a:    4770        pG      BX       lr
    FLASH_Handler
        0x0000051c:    4770        pG      BX       lr
        0x0000051e:    0000        ..      MOVS     r0,r0
    GPIO_Init
        0x00000520:    b084        ..      SUB      sp,sp,#0x10
        0x00000522:    9003        ..      STR      r0,[sp,#0xc]
        0x00000524:    9102        ..      STR      r1,[sp,#8]
        0x00000526:    2000        .       MOVS     r0,#0
        0x00000528:    9001        ..      STR      r0,[sp,#4]
        0x0000052a:    9802        ..      LDR      r0,[sp,#8]
        0x0000052c:    6800        .h      LDR      r0,[r0,#0]
        0x0000052e:    9001        ..      STR      r0,[sp,#4]
        0x00000530:    9802        ..      LDR      r0,[sp,#8]
        0x00000532:    7900        .y      LDRB     r0,[r0,#4]
        0x00000534:    2801        .(      CMP      r0,#1
        0x00000536:    d005        ..      BEQ      0x544 ; GPIO_Init + 36
        0x00000538:    e7ff        ..      B        0x53a ; GPIO_Init + 26
        0x0000053a:    9802        ..      LDR      r0,[sp,#8]
        0x0000053c:    7900        .y      LDRB     r0,[r0,#4]
        0x0000053e:    2802        .(      CMP      r0,#2
        0x00000540:    d111        ..      BNE      0x566 ; GPIO_Init + 70
        0x00000542:    e7ff        ..      B        0x544 ; GPIO_Init + 36
        0x00000544:    9801        ..      LDR      r0,[sp,#4]
        0x00000546:    9903        ..      LDR      r1,[sp,#0xc]
        0x00000548:    6108        .a      STR      r0,[r1,#0x10]
        0x0000054a:    9802        ..      LDR      r0,[sp,#8]
        0x0000054c:    7900        .y      LDRB     r0,[r0,#4]
        0x0000054e:    2802        .(      CMP      r0,#2
        0x00000550:    d104        ..      BNE      0x55c ; GPIO_Init + 60
        0x00000552:    e7ff        ..      B        0x554 ; GPIO_Init + 52
        0x00000554:    9801        ..      LDR      r0,[sp,#4]
        0x00000556:    9903        ..      LDR      r1,[sp,#0xc]
        0x00000558:    6448        Hd      STR      r0,[r1,#0x44]
        0x0000055a:    e003        ..      B        0x564 ; GPIO_Init + 68
        0x0000055c:    9801        ..      LDR      r0,[sp,#4]
        0x0000055e:    9903        ..      LDR      r1,[sp,#0xc]
        0x00000560:    6488        .d      STR      r0,[r1,#0x48]
        0x00000562:    e7ff        ..      B        0x564 ; GPIO_Init + 68
        0x00000564:    e031        1.      B        0x5ca ; GPIO_Init + 170
        0x00000566:    9802        ..      LDR      r0,[sp,#8]
        0x00000568:    7900        .y      LDRB     r0,[r0,#4]
        0x0000056a:    2803        .(      CMP      r0,#3
        0x0000056c:    d104        ..      BNE      0x578 ; GPIO_Init + 88
        0x0000056e:    e7ff        ..      B        0x570 ; GPIO_Init + 80
        0x00000570:    9801        ..      LDR      r0,[sp,#4]
        0x00000572:    9903        ..      LDR      r1,[sp,#0xc]
        0x00000574:    6148        Ha      STR      r0,[r1,#0x14]
        0x00000576:    e027        '.      B        0x5c8 ; GPIO_Init + 168
        0x00000578:    9801        ..      LDR      r0,[sp,#4]
        0x0000057a:    9903        ..      LDR      r1,[sp,#0xc]
        0x0000057c:    6148        Ha      STR      r0,[r1,#0x14]
        0x0000057e:    9802        ..      LDR      r0,[sp,#8]
        0x00000580:    7940        @y      LDRB     r0,[r0,#5]
        0x00000582:    4601        .F      MOV      r1,r0
        0x00000584:    2800        .(      CMP      r0,#0
        0x00000586:    9100        ..      STR      r1,[sp,#0]
        0x00000588:    d008        ..      BEQ      0x59c ; GPIO_Init + 124
        0x0000058a:    e7ff        ..      B        0x58c ; GPIO_Init + 108
        0x0000058c:    9800        ..      LDR      r0,[sp,#0]
        0x0000058e:    2801        .(      CMP      r0,#1
        0x00000590:    d00b        ..      BEQ      0x5aa ; GPIO_Init + 138
        0x00000592:    e7ff        ..      B        0x594 ; GPIO_Init + 116
        0x00000594:    9800        ..      LDR      r0,[sp,#0]
        0x00000596:    2802        .(      CMP      r0,#2
        0x00000598:    d00e        ..      BEQ      0x5b8 ; GPIO_Init + 152
        0x0000059a:    e014        ..      B        0x5c6 ; GPIO_Init + 166
        0x0000059c:    9801        ..      LDR      r0,[sp,#4]
        0x0000059e:    9903        ..      LDR      r1,[sp,#0xc]
        0x000005a0:    6508        .e      STR      r0,[r1,#0x50]
        0x000005a2:    9801        ..      LDR      r0,[sp,#4]
        0x000005a4:    9903        ..      LDR      r1,[sp,#0xc]
        0x000005a6:    6408        .d      STR      r0,[r1,#0x40]
        0x000005a8:    e00d        ..      B        0x5c6 ; GPIO_Init + 166
        0x000005aa:    9801        ..      LDR      r0,[sp,#4]
        0x000005ac:    9903        ..      LDR      r1,[sp,#0xc]
        0x000005ae:    63c8        .c      STR      r0,[r1,#0x3c]
        0x000005b0:    9801        ..      LDR      r0,[sp,#4]
        0x000005b2:    9903        ..      LDR      r1,[sp,#0xc]
        0x000005b4:    6508        .e      STR      r0,[r1,#0x50]
        0x000005b6:    e006        ..      B        0x5c6 ; GPIO_Init + 166
        0x000005b8:    9801        ..      LDR      r0,[sp,#4]
        0x000005ba:    9903        ..      LDR      r1,[sp,#0xc]
        0x000005bc:    64c8        .d      STR      r0,[r1,#0x4c]
        0x000005be:    9801        ..      LDR      r0,[sp,#4]
        0x000005c0:    9903        ..      LDR      r1,[sp,#0xc]
        0x000005c2:    6408        .d      STR      r0,[r1,#0x40]
        0x000005c4:    e7ff        ..      B        0x5c6 ; GPIO_Init + 166
        0x000005c6:    e7ff        ..      B        0x5c8 ; GPIO_Init + 168
        0x000005c8:    e7ff        ..      B        0x5ca ; GPIO_Init + 170
        0x000005ca:    b004        ..      ADD      sp,sp,#0x10
        0x000005cc:    4770        pG      BX       lr
        0x000005ce:    0000        ..      MOVS     r0,r0
    GPIO_SetBits
        0x000005d0:    b082        ..      SUB      sp,sp,#8
        0x000005d2:    460a        .F      MOV      r2,r1
        0x000005d4:    9001        ..      STR      r0,[sp,#4]
        0x000005d6:    f8ad1002    ....    STRH     r1,[sp,#2]
        0x000005da:    f8bd0002    ....    LDRH     r0,[sp,#2]
        0x000005de:    9901        ..      LDR      r1,[sp,#4]
        0x000005e0:    684b        Kh      LDR      r3,[r1,#4]
        0x000005e2:    4318        .C      ORRS     r0,r0,r3
        0x000005e4:    6048        H`      STR      r0,[r1,#4]
        0x000005e6:    b002        ..      ADD      sp,sp,#8
        0x000005e8:    4770        pG      BX       lr
        0x000005ea:    0000        ..      MOVS     r0,r0
    HardFault_Handler
        0x000005ec:    e7ff        ..      B        0x5ee ; HardFault_Handler + 2
        0x000005ee:    e7fe        ..      B        0x5ee ; HardFault_Handler + 2
    LED_GPIO_Config
        0x000005f0:    b580        ..      PUSH     {r7,lr}
        0x000005f2:    b088        ..      SUB      sp,sp,#0x20
        0x000005f4:    2040        @       MOVS     r0,#0x40
        0x000005f6:    9006        ..      STR      r0,[sp,#0x18]
        0x000005f8:    2101        .!      MOVS     r1,#1
        0x000005fa:    f88d101c    ....    STRB     r1,[sp,#0x1c]
        0x000005fe:    2100        .!      MOVS     r1,#0
        0x00000600:    f88d101d    ....    STRB     r1,[sp,#0x1d]
        0x00000604:    f2420100    B...    MOVW     r1,#0x2000
        0x00000608:    f2c40101    ....    MOVT     r1,#0x4001
        0x0000060c:    aa06        ..      ADD      r2,sp,#0x18
        0x0000060e:    9005        ..      STR      r0,[sp,#0x14]
        0x00000610:    4608        .F      MOV      r0,r1
        0x00000612:    9104        ..      STR      r1,[sp,#0x10]
        0x00000614:    4611        .F      MOV      r1,r2
        0x00000616:    9203        ..      STR      r2,[sp,#0xc]
        0x00000618:    f7ffff82    ....    BL       GPIO_Init ; 0x520
        0x0000061c:    2080        .       MOVS     r0,#0x80
        0x0000061e:    9006        ..      STR      r0,[sp,#0x18]
        0x00000620:    9904        ..      LDR      r1,[sp,#0x10]
        0x00000622:    9002        ..      STR      r0,[sp,#8]
        0x00000624:    4608        .F      MOV      r0,r1
        0x00000626:    9903        ..      LDR      r1,[sp,#0xc]
        0x00000628:    f7ffff7a    ..z.    BL       GPIO_Init ; 0x520
        0x0000062c:    f44f7080    O..p    MOV      r0,#0x100
        0x00000630:    9006        ..      STR      r0,[sp,#0x18]
        0x00000632:    9904        ..      LDR      r1,[sp,#0x10]
        0x00000634:    9001        ..      STR      r0,[sp,#4]
        0x00000636:    4608        .F      MOV      r0,r1
        0x00000638:    9903        ..      LDR      r1,[sp,#0xc]
        0x0000063a:    f7ffff71    ..q.    BL       GPIO_Init ; 0x520
        0x0000063e:    9804        ..      LDR      r0,[sp,#0x10]
        0x00000640:    9905        ..      LDR      r1,[sp,#0x14]
        0x00000642:    f7ffffc5    ....    BL       GPIO_SetBits ; 0x5d0
        0x00000646:    9804        ..      LDR      r0,[sp,#0x10]
        0x00000648:    9902        ..      LDR      r1,[sp,#8]
        0x0000064a:    f7ffffc1    ....    BL       GPIO_SetBits ; 0x5d0
        0x0000064e:    9804        ..      LDR      r0,[sp,#0x10]
        0x00000650:    9901        ..      LDR      r1,[sp,#4]
        0x00000652:    f7ffffbd    ....    BL       GPIO_SetBits ; 0x5d0
        0x00000656:    b008        ..      ADD      sp,sp,#0x20
        0x00000658:    bd80        ..      POP      {r7,pc}
        0x0000065a:    0000        ..      MOVS     r0,r0
    NMI_Handler
        0x0000065c:    4770        pG      BX       lr
        0x0000065e:    0000        ..      MOVS     r0,r0
    PA_Handler
        0x00000660:    4770        pG      BX       lr
        0x00000662:    0000        ..      MOVS     r0,r0
    PB_Handler
        0x00000664:    4770        pG      BX       lr
        0x00000666:    0000        ..      MOVS     r0,r0
    PC_Handler
        0x00000668:    4770        pG      BX       lr
        0x0000066a:    0000        ..      MOVS     r0,r0
    PD_Handler
        0x0000066c:    4770        pG      BX       lr
        0x0000066e:    0000        ..      MOVS     r0,r0
    PendSV_Handler
        0x00000670:    4770        pG      BX       lr
        0x00000672:    0000        ..      MOVS     r0,r0
    RTC_Handler
        0x00000674:    4770        pG      BX       lr
        0x00000676:    0000        ..      MOVS     r0,r0
    SEGGER_RTT_Init
        0x00000678:    b580        ..      PUSH     {r7,lr}
        0x0000067a:    f000fb41    ..A.    BL       _DoInit ; 0xd00
        0x0000067e:    bd80        ..      POP      {r7,pc}
    SEGGER_RTT_Write
        0x00000680:    b580        ..      PUSH     {r7,lr}
        0x00000682:    b086        ..      SUB      sp,sp,#0x18
        0x00000684:    9005        ..      STR      r0,[sp,#0x14]
        0x00000686:    9104        ..      STR      r1,[sp,#0x10]
        0x00000688:    9203        ..      STR      r2,[sp,#0xc]
        0x0000068a:    f2400008    @...    MOVW     r0,#8
        0x0000068e:    f2c20000    ....    MOVT     r0,#0x2000
        0x00000692:    9001        ..      STR      r0,[sp,#4]
        0x00000694:    e7ff        ..      B        0x696 ; SEGGER_RTT_Write + 22
        0x00000696:    9801        ..      LDR      r0,[sp,#4]
        0x00000698:    7800        .x      LDRB     r0,[r0,#0]
        0x0000069a:    2800        .(      CMP      r0,#0
        0x0000069c:    d103        ..      BNE      0x6a6 ; SEGGER_RTT_Write + 38
        0x0000069e:    e7ff        ..      B        0x6a0 ; SEGGER_RTT_Write + 32
        0x000006a0:    f000fb2e    ....    BL       _DoInit ; 0xd00
        0x000006a4:    e7ff        ..      B        0x6a6 ; SEGGER_RTT_Write + 38
        0x000006a6:    e7ff        ..      B        0x6a8 ; SEGGER_RTT_Write + 40
        0x000006a8:    f3ef8011    ....    MRS      r0,BASEPRI
        0x000006ac:    f04f0120    O. .    MOV      r1,#0x20
        0x000006b0:    f3818811    ....    MSR      BASEPRI,r1
        0x000006b4:    9000        ..      STR      r0,[sp,#0]
        0x000006b6:    9805        ..      LDR      r0,[sp,#0x14]
        0x000006b8:    9904        ..      LDR      r1,[sp,#0x10]
        0x000006ba:    9a03        ..      LDR      r2,[sp,#0xc]
        0x000006bc:    f000f808    ....    BL       SEGGER_RTT_WriteNoLock ; 0x6d0
        0x000006c0:    9002        ..      STR      r0,[sp,#8]
        0x000006c2:    9800        ..      LDR      r0,[sp,#0]
        0x000006c4:    f3808811    ....    MSR      BASEPRI,r0
        0x000006c8:    9802        ..      LDR      r0,[sp,#8]
        0x000006ca:    b006        ..      ADD      sp,sp,#0x18
        0x000006cc:    bd80        ..      POP      {r7,pc}
        0x000006ce:    0000        ..      MOVS     r0,r0
    SEGGER_RTT_WriteNoLock
        0x000006d0:    b580        ..      PUSH     {r7,lr}
        0x000006d2:    b08a        ..      SUB      sp,sp,#0x28
        0x000006d4:    9009        ..      STR      r0,[sp,#0x24]
        0x000006d6:    9108        ..      STR      r1,[sp,#0x20]
        0x000006d8:    9207        ..      STR      r2,[sp,#0x1c]
        0x000006da:    9808        ..      LDR      r0,[sp,#0x20]
        0x000006dc:    9004        ..      STR      r0,[sp,#0x10]
        0x000006de:    9809        ..      LDR      r0,[sp,#0x24]
        0x000006e0:    eb000040    ..@.    ADD      r0,r0,r0,LSL #1
        0x000006e4:    f2400108    @...    MOVW     r1,#8
        0x000006e8:    f2c20100    ....    MOVT     r1,#0x2000
        0x000006ec:    eb0100c0    ....    ADD      r0,r1,r0,LSL #3
        0x000006f0:    3018        .0      ADDS     r0,r0,#0x18
        0x000006f2:    9003        ..      STR      r0,[sp,#0xc]
        0x000006f4:    9803        ..      LDR      r0,[sp,#0xc]
        0x000006f6:    6940        @i      LDR      r0,[r0,#0x14]
        0x000006f8:    2800        .(      CMP      r0,#0
        0x000006fa:    9002        ..      STR      r0,[sp,#8]
        0x000006fc:    d008        ..      BEQ      0x710 ; SEGGER_RTT_WriteNoLock + 64
        0x000006fe:    e7ff        ..      B        0x700 ; SEGGER_RTT_WriteNoLock + 48
        0x00000700:    9802        ..      LDR      r0,[sp,#8]
        0x00000702:    2801        .(      CMP      r0,#1
        0x00000704:    d019        ..      BEQ      0x73a ; SEGGER_RTT_WriteNoLock + 106
        0x00000706:    e7ff        ..      B        0x708 ; SEGGER_RTT_WriteNoLock + 56
        0x00000708:    9802        ..      LDR      r0,[sp,#8]
        0x0000070a:    2802        .(      CMP      r0,#2
        0x0000070c:    d02c        ,.      BEQ      0x768 ; SEGGER_RTT_WriteNoLock + 152
        0x0000070e:    e032        2.      B        0x776 ; SEGGER_RTT_WriteNoLock + 166
        0x00000710:    9803        ..      LDR      r0,[sp,#0xc]
        0x00000712:    f000fb41    ..A.    BL       _GetAvailWriteSpace ; 0xd98
        0x00000716:    9005        ..      STR      r0,[sp,#0x14]
        0x00000718:    9805        ..      LDR      r0,[sp,#0x14]
        0x0000071a:    9907        ..      LDR      r1,[sp,#0x1c]
        0x0000071c:    4288        .B      CMP      r0,r1
        0x0000071e:    d203        ..      BCS      0x728 ; SEGGER_RTT_WriteNoLock + 88
        0x00000720:    e7ff        ..      B        0x722 ; SEGGER_RTT_WriteNoLock + 82
        0x00000722:    2000        .       MOVS     r0,#0
        0x00000724:    9006        ..      STR      r0,[sp,#0x18]
        0x00000726:    e007        ..      B        0x738 ; SEGGER_RTT_WriteNoLock + 104
        0x00000728:    9807        ..      LDR      r0,[sp,#0x1c]
        0x0000072a:    9006        ..      STR      r0,[sp,#0x18]
        0x0000072c:    9803        ..      LDR      r0,[sp,#0xc]
        0x0000072e:    9904        ..      LDR      r1,[sp,#0x10]
        0x00000730:    9a07        ..      LDR      r2,[sp,#0x1c]
        0x00000732:    f000fdcf    ....    BL       _WriteNoCheck ; 0x12d4
        0x00000736:    e7ff        ..      B        0x738 ; SEGGER_RTT_WriteNoLock + 104
        0x00000738:    e020         .      B        0x77c ; SEGGER_RTT_WriteNoLock + 172
        0x0000073a:    9803        ..      LDR      r0,[sp,#0xc]
        0x0000073c:    f000fb2c    ..,.    BL       _GetAvailWriteSpace ; 0xd98
        0x00000740:    9005        ..      STR      r0,[sp,#0x14]
        0x00000742:    9805        ..      LDR      r0,[sp,#0x14]
        0x00000744:    9907        ..      LDR      r1,[sp,#0x1c]
        0x00000746:    4288        .B      CMP      r0,r1
        0x00000748:    d203        ..      BCS      0x752 ; SEGGER_RTT_WriteNoLock + 130
        0x0000074a:    e7ff        ..      B        0x74c ; SEGGER_RTT_WriteNoLock + 124
        0x0000074c:    9805        ..      LDR      r0,[sp,#0x14]
        0x0000074e:    9001        ..      STR      r0,[sp,#4]
        0x00000750:    e002        ..      B        0x758 ; SEGGER_RTT_WriteNoLock + 136
        0x00000752:    9807        ..      LDR      r0,[sp,#0x1c]
        0x00000754:    9001        ..      STR      r0,[sp,#4]
        0x00000756:    e7ff        ..      B        0x758 ; SEGGER_RTT_WriteNoLock + 136
        0x00000758:    9801        ..      LDR      r0,[sp,#4]
        0x0000075a:    9006        ..      STR      r0,[sp,#0x18]
        0x0000075c:    9803        ..      LDR      r0,[sp,#0xc]
        0x0000075e:    9904        ..      LDR      r1,[sp,#0x10]
        0x00000760:    9a06        ..      LDR      r2,[sp,#0x18]
        0x00000762:    f000fdb7    ....    BL       _WriteNoCheck ; 0x12d4
        0x00000766:    e009        ..      B        0x77c ; SEGGER_RTT_WriteNoLock + 172
        0x00000768:    9803        ..      LDR      r0,[sp,#0xc]
        0x0000076a:    9904        ..      LDR      r1,[sp,#0x10]
        0x0000076c:    9a07        ..      LDR      r2,[sp,#0x1c]
        0x0000076e:    f000fd41    ..A.    BL       _WriteBlocking ; 0x11f4
        0x00000772:    9006        ..      STR      r0,[sp,#0x18]
        0x00000774:    e002        ..      B        0x77c ; SEGGER_RTT_WriteNoLock + 172
        0x00000776:    2000        .       MOVS     r0,#0
        0x00000778:    9006        ..      STR      r0,[sp,#0x18]
        0x0000077a:    e7ff        ..      B        0x77c ; SEGGER_RTT_WriteNoLock + 172
        0x0000077c:    9806        ..      LDR      r0,[sp,#0x18]
        0x0000077e:    b00a        ..      ADD      sp,sp,#0x28
        0x00000780:    bd80        ..      POP      {r7,pc}
        0x00000782:    0000        ..      MOVS     r0,r0
    SEGGER_RTT_printf
        0x00000784:    b082        ..      SUB      sp,sp,#8
        0x00000786:    b580        ..      PUSH     {r7,lr}
        0x00000788:    b084        ..      SUB      sp,sp,#0x10
        0x0000078a:    9307        ..      STR      r3,[sp,#0x1c]
        0x0000078c:    9206        ..      STR      r2,[sp,#0x18]
        0x0000078e:    9003        ..      STR      r0,[sp,#0xc]
        0x00000790:    9102        ..      STR      r1,[sp,#8]
        0x00000792:    a806        ..      ADD      r0,sp,#0x18
        0x00000794:    9000        ..      STR      r0,[sp,#0]
        0x00000796:    9803        ..      LDR      r0,[sp,#0xc]
        0x00000798:    9902        ..      LDR      r1,[sp,#8]
        0x0000079a:    466a        jF      MOV      r2,sp
        0x0000079c:    f000f808    ....    BL       SEGGER_RTT_vprintf ; 0x7b0
        0x000007a0:    9001        ..      STR      r0,[sp,#4]
        0x000007a2:    9801        ..      LDR      r0,[sp,#4]
        0x000007a4:    b004        ..      ADD      sp,sp,#0x10
        0x000007a6:    e8bd4080    ...@    POP      {r7,lr}
        0x000007aa:    b002        ..      ADD      sp,sp,#8
        0x000007ac:    4770        pG      BX       lr
        0x000007ae:    0000        ..      MOVS     r0,r0
    SEGGER_RTT_vprintf
        0x000007b0:    b580        ..      PUSH     {r7,lr}
        0x000007b2:    f5ad6d8a    ...m    SUB      sp,sp,#0x450
        0x000007b6:    f8cd044c    ..L.    STR      r0,[sp,#0x44c]
        0x000007ba:    f8cd1448    ..H.    STR      r1,[sp,#0x448]
        0x000007be:    f8cd2444    ..D$    STR      r2,[sp,#0x444]
        0x000007c2:    a807        ..      ADD      r0,sp,#0x1c
        0x000007c4:    f8cd042c    ..,.    STR      r0,[sp,#0x42c]
        0x000007c8:    f44f6080    O..`    MOV      r0,#0x400
        0x000007cc:    f8cd0430    ..0.    STR      r0,[sp,#0x430]
        0x000007d0:    2000        .       MOVS     r0,#0
        0x000007d2:    f8cd0434    ..4.    STR      r0,[sp,#0x434]
        0x000007d6:    f8dd144c    ..L.    LDR      r1,[sp,#0x44c]
        0x000007da:    f8cd143c    ..<.    STR      r1,[sp,#0x43c]
        0x000007de:    f8cd0438    ..8.    STR      r0,[sp,#0x438]
        0x000007e2:    e7ff        ..      B        0x7e4 ; SEGGER_RTT_vprintf + 52
        0x000007e4:    f8dd0448    ..H.    LDR      r0,[sp,#0x448]
        0x000007e8:    7800        .x      LDRB     r0,[r0,#0]
        0x000007ea:    f88d0443    ..C.    STRB     r0,[sp,#0x443]
        0x000007ee:    f8dd0448    ..H.    LDR      r0,[sp,#0x448]
        0x000007f2:    3001        .0      ADDS     r0,#1
        0x000007f4:    f8cd0448    ..H.    STR      r0,[sp,#0x448]
        0x000007f8:    f89d0443    ..C.    LDRB     r0,[sp,#0x443]
        0x000007fc:    2800        .(      CMP      r0,#0
        0x000007fe:    d101        ..      BNE      0x804 ; SEGGER_RTT_vprintf + 84
        0x00000800:    e7ff        ..      B        0x802 ; SEGGER_RTT_vprintf + 82
        0x00000802:    e1bf        ..      B        0xb84 ; SEGGER_RTT_vprintf + 980
        0x00000804:    f89d0443    ..C.    LDRB     r0,[sp,#0x443]
        0x00000808:    2825        %(      CMP      r0,#0x25
        0x0000080a:    f04081ac    @...    BNE.W    0xb66 ; SEGGER_RTT_vprintf + 950
        0x0000080e:    e7ff        ..      B        0x810 ; SEGGER_RTT_vprintf + 96
        0x00000810:    2000        .       MOVS     r0,#0
        0x00000812:    f8cd0420    .. .    STR      r0,[sp,#0x420]
        0x00000816:    2001        .       MOVS     r0,#1
        0x00000818:    f8cd0428    ..(.    STR      r0,[sp,#0x428]
        0x0000081c:    e7ff        ..      B        0x81e ; SEGGER_RTT_vprintf + 110
        0x0000081e:    f8dd0448    ..H.    LDR      r0,[sp,#0x448]
        0x00000822:    7800        .x      LDRB     r0,[r0,#0]
        0x00000824:    f88d0443    ..C.    STRB     r0,[sp,#0x443]
        0x00000828:    f89d0443    ..C.    LDRB     r0,[sp,#0x443]
        0x0000082c:    3823        #8      SUBS     r0,r0,#0x23
        0x0000082e:    4601        .F      MOV      r1,r0
        0x00000830:    280d        .(      CMP      r0,#0xd
        0x00000832:    9104        ..      STR      r1,[sp,#0x10]
        0x00000834:    d839        9.      BHI      0x8aa ; SEGGER_RTT_vprintf + 250
        0x00000836:    9904        ..      LDR      r1,[sp,#0x10]
        0x00000838:    e8dff001    ....    TBB      [pc,r1]
    $d.1
        0x0000083c:    3737372b    +777    DCD    926365483
        0x00000840:    37373737    7777    DCD    926365495
        0x00000844:    3707371f    .7.7    DCD    923219743
        0x00000848:    1337        7.      DCW    4919
    $t.2
        0x0000084a:    f8dd0420    .. .    LDR      r0,[sp,#0x420]
        0x0000084e:    f0400001    @...    ORR      r0,r0,#1
        0x00000852:    f8cd0420    .. .    STR      r0,[sp,#0x420]
        0x00000856:    f8dd0448    ..H.    LDR      r0,[sp,#0x448]
        0x0000085a:    3001        .0      ADDS     r0,#1
        0x0000085c:    f8cd0448    ..H.    STR      r0,[sp,#0x448]
        0x00000860:    e027        '.      B        0x8b2 ; SEGGER_RTT_vprintf + 258
        0x00000862:    f8dd0420    .. .    LDR      r0,[sp,#0x420]
        0x00000866:    f0400002    @...    ORR      r0,r0,#2
        0x0000086a:    f8cd0420    .. .    STR      r0,[sp,#0x420]
        0x0000086e:    f8dd0448    ..H.    LDR      r0,[sp,#0x448]
        0x00000872:    3001        .0      ADDS     r0,#1
        0x00000874:    f8cd0448    ..H.    STR      r0,[sp,#0x448]
        0x00000878:    e01b        ..      B        0x8b2 ; SEGGER_RTT_vprintf + 258
        0x0000087a:    f8dd0420    .. .    LDR      r0,[sp,#0x420]
        0x0000087e:    f0400004    @...    ORR      r0,r0,#4
        0x00000882:    f8cd0420    .. .    STR      r0,[sp,#0x420]
        0x00000886:    f8dd0448    ..H.    LDR      r0,[sp,#0x448]
        0x0000088a:    3001        .0      ADDS     r0,#1
        0x0000088c:    f8cd0448    ..H.    STR      r0,[sp,#0x448]
        0x00000890:    e00f        ..      B        0x8b2 ; SEGGER_RTT_vprintf + 258
        0x00000892:    f8dd0420    .. .    LDR      r0,[sp,#0x420]
        0x00000896:    f0400008    @...    ORR      r0,r0,#8
        0x0000089a:    f8cd0420    .. .    STR      r0,[sp,#0x420]
        0x0000089e:    f8dd0448    ..H.    LDR      r0,[sp,#0x448]
        0x000008a2:    3001        .0      ADDS     r0,#1
        0x000008a4:    f8cd0448    ..H.    STR      r0,[sp,#0x448]
        0x000008a8:    e003        ..      B        0x8b2 ; SEGGER_RTT_vprintf + 258
        0x000008aa:    2000        .       MOVS     r0,#0
        0x000008ac:    f8cd0428    ..(.    STR      r0,[sp,#0x428]
        0x000008b0:    e7ff        ..      B        0x8b2 ; SEGGER_RTT_vprintf + 258
        0x000008b2:    e7ff        ..      B        0x8b4 ; SEGGER_RTT_vprintf + 260
        0x000008b4:    f8dd0428    ..(.    LDR      r0,[sp,#0x428]
        0x000008b8:    2800        .(      CMP      r0,#0
        0x000008ba:    d1b0        ..      BNE      0x81e ; SEGGER_RTT_vprintf + 110
        0x000008bc:    e7ff        ..      B        0x8be ; SEGGER_RTT_vprintf + 270
        0x000008be:    2000        .       MOVS     r0,#0
        0x000008c0:    f8cd041c    ....    STR      r0,[sp,#0x41c]
        0x000008c4:    e7ff        ..      B        0x8c6 ; SEGGER_RTT_vprintf + 278
        0x000008c6:    f8dd0448    ..H.    LDR      r0,[sp,#0x448]
        0x000008ca:    7800        .x      LDRB     r0,[r0,#0]
        0x000008cc:    f88d0443    ..C.    STRB     r0,[sp,#0x443]
        0x000008d0:    f89d0443    ..C.    LDRB     r0,[sp,#0x443]
        0x000008d4:    2830        0(      CMP      r0,#0x30
        0x000008d6:    db05        ..      BLT      0x8e4 ; SEGGER_RTT_vprintf + 308
        0x000008d8:    e7ff        ..      B        0x8da ; SEGGER_RTT_vprintf + 298
        0x000008da:    f89d0443    ..C.    LDRB     r0,[sp,#0x443]
        0x000008de:    283a        :(      CMP      r0,#0x3a
        0x000008e0:    db01        ..      BLT      0x8e6 ; SEGGER_RTT_vprintf + 310
        0x000008e2:    e7ff        ..      B        0x8e4 ; SEGGER_RTT_vprintf + 308
        0x000008e4:    e014        ..      B        0x910 ; SEGGER_RTT_vprintf + 352
        0x000008e6:    f8dd0448    ..H.    LDR      r0,[sp,#0x448]
        0x000008ea:    3001        .0      ADDS     r0,#1
        0x000008ec:    f8cd0448    ..H.    STR      r0,[sp,#0x448]
        0x000008f0:    f8dd041c    ....    LDR      r0,[sp,#0x41c]
        0x000008f4:    eb000080    ....    ADD      r0,r0,r0,LSL #2
        0x000008f8:    f89d1443    ..C.    LDRB     r1,[sp,#0x443]
        0x000008fc:    eb010040    ..@.    ADD      r0,r1,r0,LSL #1
        0x00000900:    3830        08      SUBS     r0,r0,#0x30
        0x00000902:    f8cd041c    ....    STR      r0,[sp,#0x41c]
        0x00000906:    e7ff        ..      B        0x908 ; SEGGER_RTT_vprintf + 344
        0x00000908:    2001        .       MOVS     r0,#1
        0x0000090a:    2800        .(      CMP      r0,#0
        0x0000090c:    d1db        ..      BNE      0x8c6 ; SEGGER_RTT_vprintf + 278
        0x0000090e:    e7ff        ..      B        0x910 ; SEGGER_RTT_vprintf + 352
        0x00000910:    2000        .       MOVS     r0,#0
        0x00000912:    f8cd0424    ..$.    STR      r0,[sp,#0x424]
        0x00000916:    f8dd0448    ..H.    LDR      r0,[sp,#0x448]
        0x0000091a:    7800        .x      LDRB     r0,[r0,#0]
        0x0000091c:    f88d0443    ..C.    STRB     r0,[sp,#0x443]
        0x00000920:    f89d0443    ..C.    LDRB     r0,[sp,#0x443]
        0x00000924:    282e        .(      CMP      r0,#0x2e
        0x00000926:    d12c        ,.      BNE      0x982 ; SEGGER_RTT_vprintf + 466
        0x00000928:    e7ff        ..      B        0x92a ; SEGGER_RTT_vprintf + 378
        0x0000092a:    f8dd0448    ..H.    LDR      r0,[sp,#0x448]
        0x0000092e:    3001        .0      ADDS     r0,#1
        0x00000930:    f8cd0448    ..H.    STR      r0,[sp,#0x448]
        0x00000934:    e7ff        ..      B        0x936 ; SEGGER_RTT_vprintf + 390
        0x00000936:    f8dd0448    ..H.    LDR      r0,[sp,#0x448]
        0x0000093a:    7800        .x      LDRB     r0,[r0,#0]
        0x0000093c:    f88d0443    ..C.    STRB     r0,[sp,#0x443]
        0x00000940:    f89d0443    ..C.    LDRB     r0,[sp,#0x443]
        0x00000944:    2830        0(      CMP      r0,#0x30
        0x00000946:    db05        ..      BLT      0x954 ; SEGGER_RTT_vprintf + 420
        0x00000948:    e7ff        ..      B        0x94a ; SEGGER_RTT_vprintf + 410
        0x0000094a:    f89d0443    ..C.    LDRB     r0,[sp,#0x443]
        0x0000094e:    283a        :(      CMP      r0,#0x3a
        0x00000950:    db01        ..      BLT      0x956 ; SEGGER_RTT_vprintf + 422
        0x00000952:    e7ff        ..      B        0x954 ; SEGGER_RTT_vprintf + 420
        0x00000954:    e014        ..      B        0x980 ; SEGGER_RTT_vprintf + 464
        0x00000956:    f8dd0448    ..H.    LDR      r0,[sp,#0x448]
        0x0000095a:    3001        .0      ADDS     r0,#1
        0x0000095c:    f8cd0448    ..H.    STR      r0,[sp,#0x448]
        0x00000960:    f8dd0424    ..$.    LDR      r0,[sp,#0x424]
        0x00000964:    eb000080    ....    ADD      r0,r0,r0,LSL #2
        0x00000968:    f89d1443    ..C.    LDRB     r1,[sp,#0x443]
        0x0000096c:    eb010040    ..@.    ADD      r0,r1,r0,LSL #1
        0x00000970:    3830        08      SUBS     r0,r0,#0x30
        0x00000972:    f8cd0424    ..$.    STR      r0,[sp,#0x424]
        0x00000976:    e7ff        ..      B        0x978 ; SEGGER_RTT_vprintf + 456
        0x00000978:    2001        .       MOVS     r0,#1
        0x0000097a:    2800        .(      CMP      r0,#0
        0x0000097c:    d1db        ..      BNE      0x936 ; SEGGER_RTT_vprintf + 390
        0x0000097e:    e7ff        ..      B        0x980 ; SEGGER_RTT_vprintf + 464
        0x00000980:    e7ff        ..      B        0x982 ; SEGGER_RTT_vprintf + 466
        0x00000982:    f8dd0448    ..H.    LDR      r0,[sp,#0x448]
        0x00000986:    7800        .x      LDRB     r0,[r0,#0]
        0x00000988:    f88d0443    ..C.    STRB     r0,[sp,#0x443]
        0x0000098c:    e7ff        ..      B        0x98e ; SEGGER_RTT_vprintf + 478
        0x0000098e:    f89d0443    ..C.    LDRB     r0,[sp,#0x443]
        0x00000992:    286c        l(      CMP      r0,#0x6c
        0x00000994:    d005        ..      BEQ      0x9a2 ; SEGGER_RTT_vprintf + 498
        0x00000996:    e7ff        ..      B        0x998 ; SEGGER_RTT_vprintf + 488
        0x00000998:    f89d0443    ..C.    LDRB     r0,[sp,#0x443]
        0x0000099c:    2868        h(      CMP      r0,#0x68
        0x0000099e:    d10b        ..      BNE      0x9b8 ; SEGGER_RTT_vprintf + 520
        0x000009a0:    e7ff        ..      B        0x9a2 ; SEGGER_RTT_vprintf + 498
        0x000009a2:    f8dd0448    ..H.    LDR      r0,[sp,#0x448]
        0x000009a6:    3001        .0      ADDS     r0,#1
        0x000009a8:    f8cd0448    ..H.    STR      r0,[sp,#0x448]
        0x000009ac:    f8dd0448    ..H.    LDR      r0,[sp,#0x448]
        0x000009b0:    7800        .x      LDRB     r0,[r0,#0]
        0x000009b2:    f88d0443    ..C.    STRB     r0,[sp,#0x443]
        0x000009b6:    e000        ..      B        0x9ba ; SEGGER_RTT_vprintf + 522
        0x000009b8:    e004        ..      B        0x9c4 ; SEGGER_RTT_vprintf + 532
        0x000009ba:    e7ff        ..      B        0x9bc ; SEGGER_RTT_vprintf + 524
        0x000009bc:    2001        .       MOVS     r0,#1
        0x000009be:    2800        .(      CMP      r0,#0
        0x000009c0:    d1e5        ..      BNE      0x98e ; SEGGER_RTT_vprintf + 478
        0x000009c2:    e7ff        ..      B        0x9c4 ; SEGGER_RTT_vprintf + 532
        0x000009c4:    f89d0443    ..C.    LDRB     r0,[sp,#0x443]
        0x000009c8:    4601        .F      MOV      r1,r0
        0x000009ca:    2825        %(      CMP      r0,#0x25
        0x000009cc:    9103        ..      STR      r1,[sp,#0xc]
        0x000009ce:    f00080bd    ....    BEQ.W    0xb4c ; SEGGER_RTT_vprintf + 924
        0x000009d2:    e7ff        ..      B        0x9d4 ; SEGGER_RTT_vprintf + 548
        0x000009d4:    9803        ..      LDR      r0,[sp,#0xc]
        0x000009d6:    2858        X(      CMP      r0,#0x58
        0x000009d8:    d062        b.      BEQ      0xaa0 ; SEGGER_RTT_vprintf + 752
        0x000009da:    e7ff        ..      B        0x9dc ; SEGGER_RTT_vprintf + 556
        0x000009dc:    9803        ..      LDR      r0,[sp,#0xc]
        0x000009de:    2863        c(      CMP      r0,#0x63
        0x000009e0:    d015        ..      BEQ      0xa0e ; SEGGER_RTT_vprintf + 606
        0x000009e2:    e7ff        ..      B        0x9e4 ; SEGGER_RTT_vprintf + 564
        0x000009e4:    9803        ..      LDR      r0,[sp,#0xc]
        0x000009e6:    2864        d(      CMP      r0,#0x64
        0x000009e8:    d024        $.      BEQ      0xa34 ; SEGGER_RTT_vprintf + 644
        0x000009ea:    e7ff        ..      B        0x9ec ; SEGGER_RTT_vprintf + 572
        0x000009ec:    9803        ..      LDR      r0,[sp,#0xc]
        0x000009ee:    2870        p(      CMP      r0,#0x70
        0x000009f0:    f0008094    ....    BEQ.W    0xb1c ; SEGGER_RTT_vprintf + 876
        0x000009f4:    e7ff        ..      B        0x9f6 ; SEGGER_RTT_vprintf + 582
        0x000009f6:    9803        ..      LDR      r0,[sp,#0xc]
        0x000009f8:    2873        s(      CMP      r0,#0x73
        0x000009fa:    d06c        l.      BEQ      0xad6 ; SEGGER_RTT_vprintf + 806
        0x000009fc:    e7ff        ..      B        0x9fe ; SEGGER_RTT_vprintf + 590
        0x000009fe:    9803        ..      LDR      r0,[sp,#0xc]
        0x00000a00:    2875        u(      CMP      r0,#0x75
        0x00000a02:    d032        2.      BEQ      0xa6a ; SEGGER_RTT_vprintf + 698
        0x00000a04:    e7ff        ..      B        0xa06 ; SEGGER_RTT_vprintf + 598
        0x00000a06:    9803        ..      LDR      r0,[sp,#0xc]
        0x00000a08:    2878        x(      CMP      r0,#0x78
        0x00000a0a:    d049        I.      BEQ      0xaa0 ; SEGGER_RTT_vprintf + 752
        0x00000a0c:    e0a4        ..      B        0xb58 ; SEGGER_RTT_vprintf + 936
        0x00000a0e:    f8dd0444    ..D.    LDR      r0,[sp,#0x444]
        0x00000a12:    6801        .h      LDR      r1,[r0,#0]
        0x00000a14:    1d0a        ..      ADDS     r2,r1,#4
        0x00000a16:    6002        .`      STR      r2,[r0,#0]
        0x00000a18:    6808        .h      LDR      r0,[r1,#0]
        0x00000a1a:    f8cd0428    ..(.    STR      r0,[sp,#0x428]
        0x00000a1e:    f8dd0428    ..(.    LDR      r0,[sp,#0x428]
        0x00000a22:    f88d001b    ....    STRB     r0,[sp,#0x1b]
        0x00000a26:    f89d101b    ....    LDRB     r1,[sp,#0x1b]
        0x00000a2a:    f20d402c    ..,@    ADD      r0,sp,#0x42c
        0x00000a2e:    f000fba5    ....    BL       _StoreChar ; 0x117c
        0x00000a32:    e092        ..      B        0xb5a ; SEGGER_RTT_vprintf + 938
        0x00000a34:    f8dd0444    ..D.    LDR      r0,[sp,#0x444]
        0x00000a38:    6801        .h      LDR      r1,[r0,#0]
        0x00000a3a:    1d0a        ..      ADDS     r2,r1,#4
        0x00000a3c:    6002        .`      STR      r2,[r0,#0]
        0x00000a3e:    6808        .h      LDR      r0,[r1,#0]
        0x00000a40:    f8cd0428    ..(.    STR      r0,[sp,#0x428]
        0x00000a44:    f8dd1428    ..(.    LDR      r1,[sp,#0x428]
        0x00000a48:    f8dd3424    ..$4    LDR      r3,[sp,#0x424]
        0x00000a4c:    f8dd041c    ....    LDR      r0,[sp,#0x41c]
        0x00000a50:    f8dd2420    .. $    LDR      r2,[sp,#0x420]
        0x00000a54:    46ec        .F      MOV      r12,sp
        0x00000a56:    f8cc2004    ...     STR      r2,[r12,#4]
        0x00000a5a:    f8cc0000    ....    STR      r0,[r12,#0]
        0x00000a5e:    f20d402c    ..,@    ADD      r0,sp,#0x42c
        0x00000a62:    220a        ."      MOVS     r2,#0xa
        0x00000a64:    f000f9b8    ....    BL       _PrintInt ; 0xdd8
        0x00000a68:    e077        w.      B        0xb5a ; SEGGER_RTT_vprintf + 938
        0x00000a6a:    f8dd0444    ..D.    LDR      r0,[sp,#0x444]
        0x00000a6e:    6801        .h      LDR      r1,[r0,#0]
        0x00000a70:    1d0a        ..      ADDS     r2,r1,#4
        0x00000a72:    6002        .`      STR      r2,[r0,#0]
        0x00000a74:    6808        .h      LDR      r0,[r1,#0]
        0x00000a76:    f8cd0428    ..(.    STR      r0,[sp,#0x428]
        0x00000a7a:    f8dd1428    ..(.    LDR      r1,[sp,#0x428]
        0x00000a7e:    f8dd3424    ..$4    LDR      r3,[sp,#0x424]
        0x00000a82:    f8dd041c    ....    LDR      r0,[sp,#0x41c]
        0x00000a86:    f8dd2420    .. $    LDR      r2,[sp,#0x420]
        0x00000a8a:    46ec        .F      MOV      r12,sp
        0x00000a8c:    f8cc2004    ...     STR      r2,[r12,#4]
        0x00000a90:    f8cc0000    ....    STR      r0,[r12,#0]
        0x00000a94:    f20d402c    ..,@    ADD      r0,sp,#0x42c
        0x00000a98:    220a        ."      MOVS     r2,#0xa
        0x00000a9a:    f000fa8f    ....    BL       _PrintUnsigned ; 0xfbc
        0x00000a9e:    e05c        \.      B        0xb5a ; SEGGER_RTT_vprintf + 938
        0x00000aa0:    f8dd0444    ..D.    LDR      r0,[sp,#0x444]
        0x00000aa4:    6801        .h      LDR      r1,[r0,#0]
        0x00000aa6:    1d0a        ..      ADDS     r2,r1,#4
        0x00000aa8:    6002        .`      STR      r2,[r0,#0]
        0x00000aaa:    6808        .h      LDR      r0,[r1,#0]
        0x00000aac:    f8cd0428    ..(.    STR      r0,[sp,#0x428]
        0x00000ab0:    f8dd1428    ..(.    LDR      r1,[sp,#0x428]
        0x00000ab4:    f8dd3424    ..$4    LDR      r3,[sp,#0x424]
        0x00000ab8:    f8dd041c    ....    LDR      r0,[sp,#0x41c]
        0x00000abc:    f8dd2420    .. $    LDR      r2,[sp,#0x420]
        0x00000ac0:    46ec        .F      MOV      r12,sp
        0x00000ac2:    f8cc2004    ...     STR      r2,[r12,#4]
        0x00000ac6:    f8cc0000    ....    STR      r0,[r12,#0]
        0x00000aca:    f20d402c    ..,@    ADD      r0,sp,#0x42c
        0x00000ace:    2210        ."      MOVS     r2,#0x10
        0x00000ad0:    f000fa74    ..t.    BL       _PrintUnsigned ; 0xfbc
        0x00000ad4:    e041        A.      B        0xb5a ; SEGGER_RTT_vprintf + 938
        0x00000ad6:    f8dd0444    ..D.    LDR      r0,[sp,#0x444]
        0x00000ada:    6801        .h      LDR      r1,[r0,#0]
        0x00000adc:    1d0a        ..      ADDS     r2,r1,#4
        0x00000ade:    6002        .`      STR      r2,[r0,#0]
        0x00000ae0:    6808        .h      LDR      r0,[r1,#0]
        0x00000ae2:    9005        ..      STR      r0,[sp,#0x14]
        0x00000ae4:    e7ff        ..      B        0xae6 ; SEGGER_RTT_vprintf + 822
        0x00000ae6:    9805        ..      LDR      r0,[sp,#0x14]
        0x00000ae8:    7800        .x      LDRB     r0,[r0,#0]
        0x00000aea:    f88d0443    ..C.    STRB     r0,[sp,#0x443]
        0x00000aee:    9805        ..      LDR      r0,[sp,#0x14]
        0x00000af0:    3001        .0      ADDS     r0,#1
        0x00000af2:    9005        ..      STR      r0,[sp,#0x14]
        0x00000af4:    f89d0443    ..C.    LDRB     r0,[sp,#0x443]
        0x00000af8:    2800        .(      CMP      r0,#0
        0x00000afa:    d101        ..      BNE      0xb00 ; SEGGER_RTT_vprintf + 848
        0x00000afc:    e7ff        ..      B        0xafe ; SEGGER_RTT_vprintf + 846
        0x00000afe:    e00c        ..      B        0xb1a ; SEGGER_RTT_vprintf + 874
        0x00000b00:    f89d1443    ..C.    LDRB     r1,[sp,#0x443]
        0x00000b04:    f20d402c    ..,@    ADD      r0,sp,#0x42c
        0x00000b08:    f000fb38    ..8.    BL       _StoreChar ; 0x117c
        0x00000b0c:    e7ff        ..      B        0xb0e ; SEGGER_RTT_vprintf + 862
        0x00000b0e:    f8dd0438    ..8.    LDR      r0,[sp,#0x438]
        0x00000b12:    f1b03fff    ...?    CMP      r0,#0xffffffff
        0x00000b16:    dce6        ..      BGT      0xae6 ; SEGGER_RTT_vprintf + 822
        0x00000b18:    e7ff        ..      B        0xb1a ; SEGGER_RTT_vprintf + 874
        0x00000b1a:    e01e        ..      B        0xb5a ; SEGGER_RTT_vprintf + 938
        0x00000b1c:    f8dd0444    ..D.    LDR      r0,[sp,#0x444]
        0x00000b20:    6801        .h      LDR      r1,[r0,#0]
        0x00000b22:    1d0a        ..      ADDS     r2,r1,#4
        0x00000b24:    6002        .`      STR      r2,[r0,#0]
        0x00000b26:    6808        .h      LDR      r0,[r1,#0]
        0x00000b28:    f8cd0428    ..(.    STR      r0,[sp,#0x428]
        0x00000b2c:    f8dd1428    ..(.    LDR      r1,[sp,#0x428]
        0x00000b30:    4668        hF      MOV      r0,sp
        0x00000b32:    2200        ."      MOVS     r2,#0
        0x00000b34:    6042        B`      STR      r2,[r0,#4]
        0x00000b36:    2208        ."      MOVS     r2,#8
        0x00000b38:    6002        .`      STR      r2,[r0,#0]
        0x00000b3a:    f20d402c    ..,@    ADD      r0,sp,#0x42c
        0x00000b3e:    2310        .#      MOVS     r3,#0x10
        0x00000b40:    9202        ..      STR      r2,[sp,#8]
        0x00000b42:    461a        .F      MOV      r2,r3
        0x00000b44:    9b02        ..      LDR      r3,[sp,#8]
        0x00000b46:    f000fa39    ..9.    BL       _PrintUnsigned ; 0xfbc
        0x00000b4a:    e006        ..      B        0xb5a ; SEGGER_RTT_vprintf + 938
        0x00000b4c:    f20d402c    ..,@    ADD      r0,sp,#0x42c
        0x00000b50:    2125        %!      MOVS     r1,#0x25
        0x00000b52:    f000fb13    ....    BL       _StoreChar ; 0x117c
        0x00000b56:    e000        ..      B        0xb5a ; SEGGER_RTT_vprintf + 938
        0x00000b58:    e7ff        ..      B        0xb5a ; SEGGER_RTT_vprintf + 938
        0x00000b5a:    f8dd0448    ..H.    LDR      r0,[sp,#0x448]
        0x00000b5e:    3001        .0      ADDS     r0,#1
        0x00000b60:    f8cd0448    ..H.    STR      r0,[sp,#0x448]
        0x00000b64:    e006        ..      B        0xb74 ; SEGGER_RTT_vprintf + 964
        0x00000b66:    f89d1443    ..C.    LDRB     r1,[sp,#0x443]
        0x00000b6a:    f20d402c    ..,@    ADD      r0,sp,#0x42c
        0x00000b6e:    f000fb05    ....    BL       _StoreChar ; 0x117c
        0x00000b72:    e7ff        ..      B        0xb74 ; SEGGER_RTT_vprintf + 964
        0x00000b74:    e7ff        ..      B        0xb76 ; SEGGER_RTT_vprintf + 966
        0x00000b76:    f8dd0438    ..8.    LDR      r0,[sp,#0x438]
        0x00000b7a:    f1b03fff    ...?    CMP      r0,#0xffffffff
        0x00000b7e:    f73fae31    ?.1.    BGT      0x7e4 ; SEGGER_RTT_vprintf + 52
        0x00000b82:    e7ff        ..      B        0xb84 ; SEGGER_RTT_vprintf + 980
        0x00000b84:    f8dd0438    ..8.    LDR      r0,[sp,#0x438]
        0x00000b88:    2801        .(      CMP      r0,#1
        0x00000b8a:    db15        ..      BLT      0xbb8 ; SEGGER_RTT_vprintf + 1032
        0x00000b8c:    e7ff        ..      B        0xb8e ; SEGGER_RTT_vprintf + 990
        0x00000b8e:    f8dd0434    ..4.    LDR      r0,[sp,#0x434]
        0x00000b92:    2800        .(      CMP      r0,#0
        0x00000b94:    d008        ..      BEQ      0xba8 ; SEGGER_RTT_vprintf + 1016
        0x00000b96:    e7ff        ..      B        0xb98 ; SEGGER_RTT_vprintf + 1000
        0x00000b98:    f8dd044c    ..L.    LDR      r0,[sp,#0x44c]
        0x00000b9c:    f8dd2434    ..4$    LDR      r2,[sp,#0x434]
        0x00000ba0:    a907        ..      ADD      r1,sp,#0x1c
        0x00000ba2:    f7fffd6d    ..m.    BL       SEGGER_RTT_Write ; 0x680
        0x00000ba6:    e7ff        ..      B        0xba8 ; SEGGER_RTT_vprintf + 1016
        0x00000ba8:    f8dd0434    ..4.    LDR      r0,[sp,#0x434]
        0x00000bac:    f8dd1438    ..8.    LDR      r1,[sp,#0x438]
        0x00000bb0:    4408        .D      ADD      r0,r0,r1
        0x00000bb2:    f8cd0438    ..8.    STR      r0,[sp,#0x438]
        0x00000bb6:    e7ff        ..      B        0xbb8 ; SEGGER_RTT_vprintf + 1032
        0x00000bb8:    f8dd0438    ..8.    LDR      r0,[sp,#0x438]
        0x00000bbc:    f50d6d8a    ...m    ADD      sp,sp,#0x450
        0x00000bc0:    bd80        ..      POP      {r7,pc}
        0x00000bc2:    0000        ..      MOVS     r0,r0
    SPI0_Handler
        0x00000bc4:    4770        pG      BX       lr
        0x00000bc6:    0000        ..      MOVS     r0,r0
    SPI1_Handler
        0x00000bc8:    4770        pG      BX       lr
        0x00000bca:    0000        ..      MOVS     r0,r0
    SVC_Handler
        0x00000bcc:    4770        pG      BX       lr
        0x00000bce:    0000        ..      MOVS     r0,r0
    SysTick_Handler
        0x00000bd0:    4770        pG      BX       lr
        0x00000bd2:    0000        ..      MOVS     r0,r0
    SystemInit
        0x00000bd4:    b580        ..      PUSH     {r7,lr}
        0x00000bd6:    b082        ..      SUB      sp,sp,#8
        0x00000bd8:    f6450038    E.8.    MOV      r0,#0x5838
        0x00000bdc:    f2c40000    ....    MOVT     r0,#0x4000
        0x00000be0:    6801        .h      LDR      r1,[r0,#0]
        0x00000be2:    f0210101    !...    BIC      r1,r1,#1
        0x00000be6:    6001        .`      STR      r1,[r0,#0]
        0x00000be8:    f6450034    E.4.    MOV      r0,#0x5834
        0x00000bec:    f2c40000    ....    MOVT     r0,#0x4000
        0x00000bf0:    6801        .h      LDR      r1,[r0,#0]
        0x00000bf2:    f0210101    !...    BIC      r1,r1,#1
        0x00000bf6:    6001        .`      STR      r1,[r0,#0]
        0x00000bf8:    f241000c    A...    MOV      r0,#0x100c
        0x00000bfc:    f2c40002    ....    MOVT     r0,#0x4002
        0x00000c00:    6801        .h      LDR      r1,[r0,#0]
        0x00000c02:    f0210140    !.@.    BIC      r1,r1,#0x40
        0x00000c06:    6001        .`      STR      r1,[r0,#0]
        0x00000c08:    f2400000    @...    MOVW     r0,#0
        0x00000c0c:    f2c20000    ....    MOVT     r0,#0x2000
        0x00000c10:    f2436100    C..a    MOVW     r1,#0x3600
        0x00000c14:    f2c0116e    ..n.    MOVT     r1,#0x16e
        0x00000c18:    6001        .`      STR      r1,[r0,#0]
        0x00000c1a:    f6450014    E...    MOV      r0,#0x5814
        0x00000c1e:    f2c40000    ....    MOVT     r0,#0x4000
        0x00000c22:    f24a0118    J...    MOV      r1,#0xa018
        0x00000c26:    f2c00101    ....    MOVT     r1,#1
        0x00000c2a:    6001        .`      STR      r1,[r0,#0]
        0x00000c2c:    f6450010    E...    MOV      r0,#0x5810
        0x00000c30:    f2c40000    ....    MOVT     r0,#0x4000
        0x00000c34:    f6405111    @..Q    MOV      r1,#0xd11
        0x00000c38:    6001        .`      STR      r1,[r0,#0]
        0x00000c3a:    6801        .h      LDR      r1,[r0,#0]
        0x00000c3c:    f0410110    A...    ORR      r1,r1,#0x10
        0x00000c40:    6001        .`      STR      r1,[r0,#0]
        0x00000c42:    e7ff        ..      B        0xc44 ; SystemInit + 112
        0x00000c44:    f6450010    E...    MOV      r0,#0x5810
        0x00000c48:    f2c40000    ....    MOVT     r0,#0x4000
        0x00000c4c:    6800        .h      LDR      r0,[r0,#0]
        0x00000c4e:    0fc0        ..      LSRS     r0,r0,#31
        0x00000c50:    2800        .(      CMP      r0,#0
        0x00000c52:    d101        ..      BNE      0xc58 ; SystemInit + 132
        0x00000c54:    e7ff        ..      B        0xc56 ; SystemInit + 130
        0x00000c56:    e7f5        ..      B        0xc44 ; SystemInit + 112
        0x00000c58:    f64f0000    O...    MOVW     r0,#0xf800
        0x00000c5c:    f2c40000    ....    MOVT     r0,#0x4000
        0x00000c60:    21f0        .!      MOVS     r1,#0xf0
        0x00000c62:    f2ca51a5    ...Q    MOVT     r1,#0xa5a5
        0x00000c66:    6001        .`      STR      r1,[r0,#0]
        0x00000c68:    f000f836    ..6.    BL       Wait_ClockReady ; 0xcd8
        0x00000c6c:    f241000c    A...    MOV      r0,#0x100c
        0x00000c70:    f2c40002    ....    MOVT     r0,#0x4002
        0x00000c74:    6801        .h      LDR      r1,[r0,#0]
        0x00000c76:    f64f72fc    O..r    MOV      r2,#0xfffc
        0x00000c7a:    4011        .@      ANDS     r1,r1,r2
        0x00000c7c:    3102        .1      ADDS     r1,#2
        0x00000c7e:    6001        .`      STR      r1,[r0,#0]
        0x00000c80:    9001        ..      STR      r0,[sp,#4]
        0x00000c82:    f000f829    ..).    BL       Wait_ClockReady ; 0xcd8
        0x00000c86:    9801        ..      LDR      r0,[sp,#4]
        0x00000c88:    6801        .h      LDR      r1,[r0,#0]
        0x00000c8a:    f4416180    A..a    ORR      r1,r1,#0x400
        0x00000c8e:    6001        .`      STR      r1,[r0,#0]
        0x00000c90:    6801        .h      LDR      r1,[r0,#0]
        0x00000c92:    f64f427f    O..B    MOV      r2,#0xfc7f
        0x00000c96:    4011        .@      ANDS     r1,r1,r2
        0x00000c98:    6001        .`      STR      r1,[r0,#0]
        0x00000c9a:    f000f81d    ....    BL       Wait_ClockReady ; 0xcd8
        0x00000c9e:    f6450008    E...    MOV      r0,#0x5808
        0x00000ca2:    f2c40000    ....    MOVT     r0,#0x4000
        0x00000ca6:    6801        .h      LDR      r1,[r0,#0]
        0x00000ca8:    f0410101    A...    ORR      r1,r1,#1
        0x00000cac:    6001        .`      STR      r1,[r0,#0]
        0x00000cae:    b002        ..      ADD      sp,sp,#8
        0x00000cb0:    bd80        ..      POP      {r7,pc}
        0x00000cb2:    0000        ..      MOVS     r0,r0
    TMR0_Handler
        0x00000cb4:    4770        pG      BX       lr
        0x00000cb6:    0000        ..      MOVS     r0,r0
    TMR1_Handler
        0x00000cb8:    4770        pG      BX       lr
        0x00000cba:    0000        ..      MOVS     r0,r0
    TMR2_Handler
        0x00000cbc:    4770        pG      BX       lr
        0x00000cbe:    0000        ..      MOVS     r0,r0
    TMR3_Handler
        0x00000cc0:    4770        pG      BX       lr
        0x00000cc2:    0000        ..      MOVS     r0,r0
    TMR4_Handler
        0x00000cc4:    4770        pG      BX       lr
        0x00000cc6:    0000        ..      MOVS     r0,r0
    TMR5_Handler
        0x00000cc8:    4770        pG      BX       lr
        0x00000cca:    0000        ..      MOVS     r0,r0
    UART0_Handler
        0x00000ccc:    4770        pG      BX       lr
        0x00000cce:    0000        ..      MOVS     r0,r0
    UART1_Handler
        0x00000cd0:    4770        pG      BX       lr
        0x00000cd2:    0000        ..      MOVS     r0,r0
    UART2_Handler
        0x00000cd4:    4770        pG      BX       lr
        0x00000cd6:    0000        ..      MOVS     r0,r0
    Wait_ClockReady
        0x00000cd8:    b081        ..      SUB      sp,sp,#4
        0x00000cda:    2000        .       MOVS     r0,#0
        0x00000cdc:    9000        ..      STR      r0,[sp,#0]
        0x00000cde:    e7ff        ..      B        0xce0 ; Wait_ClockReady + 8
        0x00000ce0:    9800        ..      LDR      r0,[sp,#0]
        0x00000ce2:    f643017f    C...    MOV      r1,#0x387f
        0x00000ce6:    f2c00101    ....    MOVT     r1,#1
        0x00000cea:    4288        .B      CMP      r0,r1
        0x00000cec:    dc05        ..      BGT      0xcfa ; Wait_ClockReady + 34
        0x00000cee:    e7ff        ..      B        0xcf0 ; Wait_ClockReady + 24
        0x00000cf0:    e7ff        ..      B        0xcf2 ; Wait_ClockReady + 26
        0x00000cf2:    9800        ..      LDR      r0,[sp,#0]
        0x00000cf4:    3001        .0      ADDS     r0,#1
        0x00000cf6:    9000        ..      STR      r0,[sp,#0]
        0x00000cf8:    e7f2        ..      B        0xce0 ; Wait_ClockReady + 8
        0x00000cfa:    b001        ..      ADD      sp,sp,#4
        0x00000cfc:    4770        pG      BX       lr
        0x00000cfe:    0000        ..      MOVS     r0,r0
    _DoInit
        0x00000d00:    b580        ..      PUSH     {r7,lr}
        0x00000d02:    b082        ..      SUB      sp,sp,#8
        0x00000d04:    f2400008    @...    MOVW     r0,#8
        0x00000d08:    f2c20000    ....    MOVT     r0,#0x2000
        0x00000d0c:    9001        ..      STR      r0,[sp,#4]
        0x00000d0e:    9801        ..      LDR      r0,[sp,#4]
        0x00000d10:    2102        .!      MOVS     r1,#2
        0x00000d12:    6101        .a      STR      r1,[r0,#0x10]
        0x00000d14:    9801        ..      LDR      r0,[sp,#4]
        0x00000d16:    6141        Aa      STR      r1,[r0,#0x14]
        0x00000d18:    9801        ..      LDR      r0,[sp,#4]
        0x00000d1a:    f2416143    A.Ca    MOV      r1,#0x1643
        0x00000d1e:    f2c00100    ....    MOVT     r1,#0
        0x00000d22:    6181        .a      STR      r1,[r0,#0x18]
        0x00000d24:    9801        ..      LDR      r0,[sp,#4]
        0x00000d26:    f2400290    @...    MOVW     r2,#0x90
        0x00000d2a:    f2c20200    ....    MOVT     r2,#0x2000
        0x00000d2e:    61c2        .a      STR      r2,[r0,#0x1c]
        0x00000d30:    9801        ..      LDR      r0,[sp,#4]
        0x00000d32:    f44f5280    O..R    MOV      r2,#0x1000
        0x00000d36:    6202        .b      STR      r2,[r0,#0x20]
        0x00000d38:    9801        ..      LDR      r0,[sp,#4]
        0x00000d3a:    2200        ."      MOVS     r2,#0
        0x00000d3c:    6282        .b      STR      r2,[r0,#0x28]
        0x00000d3e:    9801        ..      LDR      r0,[sp,#4]
        0x00000d40:    6242        Bb      STR      r2,[r0,#0x24]
        0x00000d42:    9801        ..      LDR      r0,[sp,#4]
        0x00000d44:    62c2        .b      STR      r2,[r0,#0x2c]
        0x00000d46:    9801        ..      LDR      r0,[sp,#4]
        0x00000d48:    6481        .d      STR      r1,[r0,#0x48]
        0x00000d4a:    9801        ..      LDR      r0,[sp,#4]
        0x00000d4c:    f2400180    @...    MOVW     r1,#0x80
        0x00000d50:    f2c20100    ....    MOVT     r1,#0x2000
        0x00000d54:    64c1        .d      STR      r1,[r0,#0x4c]
        0x00000d56:    9801        ..      LDR      r0,[sp,#4]
        0x00000d58:    2110        .!      MOVS     r1,#0x10
        0x00000d5a:    6501        .e      STR      r1,[r0,#0x50]
        0x00000d5c:    9801        ..      LDR      r0,[sp,#4]
        0x00000d5e:    6582        .e      STR      r2,[r0,#0x58]
        0x00000d60:    9801        ..      LDR      r0,[sp,#4]
        0x00000d62:    6542        Be      STR      r2,[r0,#0x54]
        0x00000d64:    9801        ..      LDR      r0,[sp,#4]
        0x00000d66:    65c2        .e      STR      r2,[r0,#0x5c]
        0x00000d68:    9801        ..      LDR      r0,[sp,#4]
        0x00000d6a:    3007        .0      ADDS     r0,#7
        0x00000d6c:    f241613f    A.?a    MOV      r1,#0x163f
        0x00000d70:    f2c00100    ....    MOVT     r1,#0
        0x00000d74:    f7fffa0a    ....    BL       strcpy ; 0x18c
        0x00000d78:    9901        ..      LDR      r1,[sp,#4]
        0x00000d7a:    f2416238    A.8b    MOV      r2,#0x1638
        0x00000d7e:    f2c00200    ....    MOVT     r2,#0
        0x00000d82:    9000        ..      STR      r0,[sp,#0]
        0x00000d84:    4608        .F      MOV      r0,r1
        0x00000d86:    4611        .F      MOV      r1,r2
        0x00000d88:    f7fffa00    ....    BL       strcpy ; 0x18c
        0x00000d8c:    9901        ..      LDR      r1,[sp,#4]
        0x00000d8e:    2220         "      MOVS     r2,#0x20
        0x00000d90:    718a        .q      STRB     r2,[r1,#6]
        0x00000d92:    b002        ..      ADD      sp,sp,#8
        0x00000d94:    bd80        ..      POP      {r7,pc}
        0x00000d96:    0000        ..      MOVS     r0,r0
    _GetAvailWriteSpace
        0x00000d98:    b084        ..      SUB      sp,sp,#0x10
        0x00000d9a:    9003        ..      STR      r0,[sp,#0xc]
        0x00000d9c:    9803        ..      LDR      r0,[sp,#0xc]
        0x00000d9e:    6900        .i      LDR      r0,[r0,#0x10]
        0x00000da0:    9002        ..      STR      r0,[sp,#8]
        0x00000da2:    9803        ..      LDR      r0,[sp,#0xc]
        0x00000da4:    68c0        .h      LDR      r0,[r0,#0xc]
        0x00000da6:    9001        ..      STR      r0,[sp,#4]
        0x00000da8:    9802        ..      LDR      r0,[sp,#8]
        0x00000daa:    9901        ..      LDR      r1,[sp,#4]
        0x00000dac:    4288        .B      CMP      r0,r1
        0x00000dae:    d809        ..      BHI      0xdc4 ; _GetAvailWriteSpace + 44
        0x00000db0:    e7ff        ..      B        0xdb2 ; _GetAvailWriteSpace + 26
        0x00000db2:    9803        ..      LDR      r0,[sp,#0xc]
        0x00000db4:    6880        .h      LDR      r0,[r0,#8]
        0x00000db6:    9901        ..      LDR      r1,[sp,#4]
        0x00000db8:    1a40        @.      SUBS     r0,r0,r1
        0x00000dba:    9902        ..      LDR      r1,[sp,#8]
        0x00000dbc:    4408        .D      ADD      r0,r0,r1
        0x00000dbe:    3801        .8      SUBS     r0,#1
        0x00000dc0:    9000        ..      STR      r0,[sp,#0]
        0x00000dc2:    e005        ..      B        0xdd0 ; _GetAvailWriteSpace + 56
        0x00000dc4:    9802        ..      LDR      r0,[sp,#8]
        0x00000dc6:    9901        ..      LDR      r1,[sp,#4]
        0x00000dc8:    43c9        .C      MVNS     r1,r1
        0x00000dca:    4408        .D      ADD      r0,r0,r1
        0x00000dcc:    9000        ..      STR      r0,[sp,#0]
        0x00000dce:    e7ff        ..      B        0xdd0 ; _GetAvailWriteSpace + 56
        0x00000dd0:    9800        ..      LDR      r0,[sp,#0]
        0x00000dd2:    b004        ..      ADD      sp,sp,#0x10
        0x00000dd4:    4770        pG      BX       lr
        0x00000dd6:    0000        ..      MOVS     r0,r0
    _PrintInt
        0x00000dd8:    b510        ..      PUSH     {r4,lr}
        0x00000dda:    b08c        ..      SUB      sp,sp,#0x30
        0x00000ddc:    f8ddc03c    ..<.    LDR      r12,[sp,#0x3c]
        0x00000de0:    f8dde038    ..8.    LDR      lr,[sp,#0x38]
        0x00000de4:    900b        ..      STR      r0,[sp,#0x2c]
        0x00000de6:    910a        ..      STR      r1,[sp,#0x28]
        0x00000de8:    9209        ..      STR      r2,[sp,#0x24]
        0x00000dea:    9308        ..      STR      r3,[sp,#0x20]
        0x00000dec:    980a        ..      LDR      r0,[sp,#0x28]
        0x00000dee:    f1b03fff    ...?    CMP      r0,#0xffffffff
        0x00000df2:    dc04        ..      BGT      0xdfe ; _PrintInt + 38
        0x00000df4:    e7ff        ..      B        0xdf6 ; _PrintInt + 30
        0x00000df6:    980a        ..      LDR      r0,[sp,#0x28]
        0x00000df8:    4240        @B      RSBS     r0,r0,#0
        0x00000dfa:    9005        ..      STR      r0,[sp,#0x14]
        0x00000dfc:    e002        ..      B        0xe04 ; _PrintInt + 44
        0x00000dfe:    980a        ..      LDR      r0,[sp,#0x28]
        0x00000e00:    9005        ..      STR      r0,[sp,#0x14]
        0x00000e02:    e7ff        ..      B        0xe04 ; _PrintInt + 44
        0x00000e04:    9805        ..      LDR      r0,[sp,#0x14]
        0x00000e06:    9006        ..      STR      r0,[sp,#0x18]
        0x00000e08:    2001        .       MOVS     r0,#1
        0x00000e0a:    9007        ..      STR      r0,[sp,#0x1c]
        0x00000e0c:    e7ff        ..      B        0xe0e ; _PrintInt + 54
        0x00000e0e:    9806        ..      LDR      r0,[sp,#0x18]
        0x00000e10:    9909        ..      LDR      r1,[sp,#0x24]
        0x00000e12:    4288        .B      CMP      r0,r1
        0x00000e14:    db09        ..      BLT      0xe2a ; _PrintInt + 82
        0x00000e16:    e7ff        ..      B        0xe18 ; _PrintInt + 64
        0x00000e18:    9806        ..      LDR      r0,[sp,#0x18]
        0x00000e1a:    9909        ..      LDR      r1,[sp,#0x24]
        0x00000e1c:    fb90f0f1    ....    SDIV     r0,r0,r1
        0x00000e20:    9006        ..      STR      r0,[sp,#0x18]
        0x00000e22:    9807        ..      LDR      r0,[sp,#0x1c]
        0x00000e24:    3001        .0      ADDS     r0,#1
        0x00000e26:    9007        ..      STR      r0,[sp,#0x1c]
        0x00000e28:    e7f1        ..      B        0xe0e ; _PrintInt + 54
        0x00000e2a:    9808        ..      LDR      r0,[sp,#0x20]
        0x00000e2c:    9907        ..      LDR      r1,[sp,#0x1c]
        0x00000e2e:    4288        .B      CMP      r0,r1
        0x00000e30:    d903        ..      BLS      0xe3a ; _PrintInt + 98
        0x00000e32:    e7ff        ..      B        0xe34 ; _PrintInt + 92
        0x00000e34:    9808        ..      LDR      r0,[sp,#0x20]
        0x00000e36:    9007        ..      STR      r0,[sp,#0x1c]
        0x00000e38:    e7ff        ..      B        0xe3a ; _PrintInt + 98
        0x00000e3a:    980e        ..      LDR      r0,[sp,#0x38]
        0x00000e3c:    2800        .(      CMP      r0,#0
        0x00000e3e:    d00e        ..      BEQ      0xe5e ; _PrintInt + 134
        0x00000e40:    e7ff        ..      B        0xe42 ; _PrintInt + 106
        0x00000e42:    980a        ..      LDR      r0,[sp,#0x28]
        0x00000e44:    2800        .(      CMP      r0,#0
        0x00000e46:    d406        ..      BMI      0xe56 ; _PrintInt + 126
        0x00000e48:    e7ff        ..      B        0xe4a ; _PrintInt + 114
        0x00000e4a:    f89d003c    ..<.    LDRB     r0,[sp,#0x3c]
        0x00000e4e:    0740        @.      LSLS     r0,r0,#29
        0x00000e50:    2800        .(      CMP      r0,#0
        0x00000e52:    d504        ..      BPL      0xe5e ; _PrintInt + 134
        0x00000e54:    e7ff        ..      B        0xe56 ; _PrintInt + 126
        0x00000e56:    980e        ..      LDR      r0,[sp,#0x38]
        0x00000e58:    3801        .8      SUBS     r0,#1
        0x00000e5a:    900e        ..      STR      r0,[sp,#0x38]
        0x00000e5c:    e7ff        ..      B        0xe5e ; _PrintInt + 134
        0x00000e5e:    f89d003c    ..<.    LDRB     r0,[sp,#0x3c]
        0x00000e62:    0780        ..      LSLS     r0,r0,#30
        0x00000e64:    2800        .(      CMP      r0,#0
        0x00000e66:    d504        ..      BPL      0xe72 ; _PrintInt + 154
        0x00000e68:    e7ff        ..      B        0xe6a ; _PrintInt + 146
        0x00000e6a:    9808        ..      LDR      r0,[sp,#0x20]
        0x00000e6c:    2800        .(      CMP      r0,#0
        0x00000e6e:    d02f        /.      BEQ      0xed0 ; _PrintInt + 248
        0x00000e70:    e7ff        ..      B        0xe72 ; _PrintInt + 154
        0x00000e72:    f89d003c    ..<.    LDRB     r0,[sp,#0x3c]
        0x00000e76:    07c0        ..      LSLS     r0,r0,#31
        0x00000e78:    2800        .(      CMP      r0,#0
        0x00000e7a:    d129        ).      BNE      0xed0 ; _PrintInt + 248
        0x00000e7c:    e7ff        ..      B        0xe7e ; _PrintInt + 166
        0x00000e7e:    980e        ..      LDR      r0,[sp,#0x38]
        0x00000e80:    2800        .(      CMP      r0,#0
        0x00000e82:    d024        $.      BEQ      0xece ; _PrintInt + 246
        0x00000e84:    e7ff        ..      B        0xe86 ; _PrintInt + 174
        0x00000e86:    e7ff        ..      B        0xe88 ; _PrintInt + 176
        0x00000e88:    980e        ..      LDR      r0,[sp,#0x38]
        0x00000e8a:    2100        .!      MOVS     r1,#0
        0x00000e8c:    2800        .(      CMP      r0,#0
        0x00000e8e:    9104        ..      STR      r1,[sp,#0x10]
        0x00000e90:    d008        ..      BEQ      0xea4 ; _PrintInt + 204
        0x00000e92:    e7ff        ..      B        0xe94 ; _PrintInt + 188
        0x00000e94:    9807        ..      LDR      r0,[sp,#0x1c]
        0x00000e96:    990e        ..      LDR      r1,[sp,#0x38]
        0x00000e98:    2200        ."      MOVS     r2,#0
        0x00000e9a:    4288        .B      CMP      r0,r1
        0x00000e9c:    bf38        8.      IT       CC
        0x00000e9e:    2201        ."      MOVCC    r2,#1
        0x00000ea0:    9204        ..      STR      r2,[sp,#0x10]
        0x00000ea2:    e7ff        ..      B        0xea4 ; _PrintInt + 204
        0x00000ea4:    9804        ..      LDR      r0,[sp,#0x10]
        0x00000ea6:    07c0        ..      LSLS     r0,r0,#31
        0x00000ea8:    2800        .(      CMP      r0,#0
        0x00000eaa:    d00f        ..      BEQ      0xecc ; _PrintInt + 244
        0x00000eac:    e7ff        ..      B        0xeae ; _PrintInt + 214
        0x00000eae:    980e        ..      LDR      r0,[sp,#0x38]
        0x00000eb0:    3801        .8      SUBS     r0,#1
        0x00000eb2:    900e        ..      STR      r0,[sp,#0x38]
        0x00000eb4:    980b        ..      LDR      r0,[sp,#0x2c]
        0x00000eb6:    2120         !      MOVS     r1,#0x20
        0x00000eb8:    f000f960    ..`.    BL       _StoreChar ; 0x117c
        0x00000ebc:    980b        ..      LDR      r0,[sp,#0x2c]
        0x00000ebe:    68c0        .h      LDR      r0,[r0,#0xc]
        0x00000ec0:    f1b03fff    ...?    CMP      r0,#0xffffffff
        0x00000ec4:    dc01        ..      BGT      0xeca ; _PrintInt + 242
        0x00000ec6:    e7ff        ..      B        0xec8 ; _PrintInt + 240
        0x00000ec8:    e000        ..      B        0xecc ; _PrintInt + 244
        0x00000eca:    e7dd        ..      B        0xe88 ; _PrintInt + 176
        0x00000ecc:    e7ff        ..      B        0xece ; _PrintInt + 246
        0x00000ece:    e7ff        ..      B        0xed0 ; _PrintInt + 248
        0x00000ed0:    980b        ..      LDR      r0,[sp,#0x2c]
        0x00000ed2:    68c0        .h      LDR      r0,[r0,#0xc]
        0x00000ed4:    2800        .(      CMP      r0,#0
        0x00000ed6:    d46f        o.      BMI      0xfb8 ; _PrintInt + 480
        0x00000ed8:    e7ff        ..      B        0xeda ; _PrintInt + 258
        0x00000eda:    980a        ..      LDR      r0,[sp,#0x28]
        0x00000edc:    f1b03fff    ...?    CMP      r0,#0xffffffff
        0x00000ee0:    dc08        ..      BGT      0xef4 ; _PrintInt + 284
        0x00000ee2:    e7ff        ..      B        0xee4 ; _PrintInt + 268
        0x00000ee4:    980a        ..      LDR      r0,[sp,#0x28]
        0x00000ee6:    4240        @B      RSBS     r0,r0,#0
        0x00000ee8:    900a        ..      STR      r0,[sp,#0x28]
        0x00000eea:    980b        ..      LDR      r0,[sp,#0x2c]
        0x00000eec:    212d        -!      MOVS     r1,#0x2d
        0x00000eee:    f000f945    ..E.    BL       _StoreChar ; 0x117c
        0x00000ef2:    e00c        ..      B        0xf0e ; _PrintInt + 310
        0x00000ef4:    f89d003c    ..<.    LDRB     r0,[sp,#0x3c]
        0x00000ef8:    0740        @.      LSLS     r0,r0,#29
        0x00000efa:    2800        .(      CMP      r0,#0
        0x00000efc:    d505        ..      BPL      0xf0a ; _PrintInt + 306
        0x00000efe:    e7ff        ..      B        0xf00 ; _PrintInt + 296
        0x00000f00:    980b        ..      LDR      r0,[sp,#0x2c]
        0x00000f02:    212b        +!      MOVS     r1,#0x2b
        0x00000f04:    f000f93a    ..:.    BL       _StoreChar ; 0x117c
        0x00000f08:    e000        ..      B        0xf0c ; _PrintInt + 308
        0x00000f0a:    e7ff        ..      B        0xf0c ; _PrintInt + 308
        0x00000f0c:    e7ff        ..      B        0xf0e ; _PrintInt + 310
        0x00000f0e:    980b        ..      LDR      r0,[sp,#0x2c]
        0x00000f10:    68c0        .h      LDR      r0,[r0,#0xc]
        0x00000f12:    2800        .(      CMP      r0,#0
        0x00000f14:    d44f        O.      BMI      0xfb6 ; _PrintInt + 478
        0x00000f16:    e7ff        ..      B        0xf18 ; _PrintInt + 320
        0x00000f18:    f89d003c    ..<.    LDRB     r0,[sp,#0x3c]
        0x00000f1c:    0780        ..      LSLS     r0,r0,#30
        0x00000f1e:    2800        .(      CMP      r0,#0
        0x00000f20:    d533        3.      BPL      0xf8a ; _PrintInt + 434
        0x00000f22:    e7ff        ..      B        0xf24 ; _PrintInt + 332
        0x00000f24:    f89d003c    ..<.    LDRB     r0,[sp,#0x3c]
        0x00000f28:    07c0        ..      LSLS     r0,r0,#31
        0x00000f2a:    2800        .(      CMP      r0,#0
        0x00000f2c:    d12d        -.      BNE      0xf8a ; _PrintInt + 434
        0x00000f2e:    e7ff        ..      B        0xf30 ; _PrintInt + 344
        0x00000f30:    9808        ..      LDR      r0,[sp,#0x20]
        0x00000f32:    2800        .(      CMP      r0,#0
        0x00000f34:    d129        ).      BNE      0xf8a ; _PrintInt + 434
        0x00000f36:    e7ff        ..      B        0xf38 ; _PrintInt + 352
        0x00000f38:    980e        ..      LDR      r0,[sp,#0x38]
        0x00000f3a:    2800        .(      CMP      r0,#0
        0x00000f3c:    d024        $.      BEQ      0xf88 ; _PrintInt + 432
        0x00000f3e:    e7ff        ..      B        0xf40 ; _PrintInt + 360
        0x00000f40:    e7ff        ..      B        0xf42 ; _PrintInt + 362
        0x00000f42:    980e        ..      LDR      r0,[sp,#0x38]
        0x00000f44:    2100        .!      MOVS     r1,#0
        0x00000f46:    2800        .(      CMP      r0,#0
        0x00000f48:    9103        ..      STR      r1,[sp,#0xc]
        0x00000f4a:    d008        ..      BEQ      0xf5e ; _PrintInt + 390
        0x00000f4c:    e7ff        ..      B        0xf4e ; _PrintInt + 374
        0x00000f4e:    9807        ..      LDR      r0,[sp,#0x1c]
        0x00000f50:    990e        ..      LDR      r1,[sp,#0x38]
        0x00000f52:    2200        ."      MOVS     r2,#0
        0x00000f54:    4288        .B      CMP      r0,r1
        0x00000f56:    bf38        8.      IT       CC
        0x00000f58:    2201        ."      MOVCC    r2,#1
        0x00000f5a:    9203        ..      STR      r2,[sp,#0xc]
        0x00000f5c:    e7ff        ..      B        0xf5e ; _PrintInt + 390
        0x00000f5e:    9803        ..      LDR      r0,[sp,#0xc]
        0x00000f60:    07c0        ..      LSLS     r0,r0,#31
        0x00000f62:    2800        .(      CMP      r0,#0
        0x00000f64:    d00f        ..      BEQ      0xf86 ; _PrintInt + 430
        0x00000f66:    e7ff        ..      B        0xf68 ; _PrintInt + 400
        0x00000f68:    980e        ..      LDR      r0,[sp,#0x38]
        0x00000f6a:    3801        .8      SUBS     r0,#1
        0x00000f6c:    900e        ..      STR      r0,[sp,#0x38]
        0x00000f6e:    980b        ..      LDR      r0,[sp,#0x2c]
        0x00000f70:    2130        0!      MOVS     r1,#0x30
        0x00000f72:    f000f903    ....    BL       _StoreChar ; 0x117c
        0x00000f76:    980b        ..      LDR      r0,[sp,#0x2c]
        0x00000f78:    68c0        .h      LDR      r0,[r0,#0xc]
        0x00000f7a:    f1b03fff    ...?    CMP      r0,#0xffffffff
        0x00000f7e:    dc01        ..      BGT      0xf84 ; _PrintInt + 428
        0x00000f80:    e7ff        ..      B        0xf82 ; _PrintInt + 426
        0x00000f82:    e000        ..      B        0xf86 ; _PrintInt + 430
        0x00000f84:    e7dd        ..      B        0xf42 ; _PrintInt + 362
        0x00000f86:    e7ff        ..      B        0xf88 ; _PrintInt + 432
        0x00000f88:    e7ff        ..      B        0xf8a ; _PrintInt + 434
        0x00000f8a:    980b        ..      LDR      r0,[sp,#0x2c]
        0x00000f8c:    68c0        .h      LDR      r0,[r0,#0xc]
        0x00000f8e:    2800        .(      CMP      r0,#0
        0x00000f90:    d410        ..      BMI      0xfb4 ; _PrintInt + 476
        0x00000f92:    e7ff        ..      B        0xf94 ; _PrintInt + 444
        0x00000f94:    980b        ..      LDR      r0,[sp,#0x2c]
        0x00000f96:    990a        ..      LDR      r1,[sp,#0x28]
        0x00000f98:    9a09        ..      LDR      r2,[sp,#0x24]
        0x00000f9a:    9b08        ..      LDR      r3,[sp,#0x20]
        0x00000f9c:    f8ddc038    ..8.    LDR      r12,[sp,#0x38]
        0x00000fa0:    f8dde03c    ..<.    LDR      lr,[sp,#0x3c]
        0x00000fa4:    466c        lF      MOV      r4,sp
        0x00000fa6:    f8c4e004    ....    STR      lr,[r4,#4]
        0x00000faa:    f8c4c000    ....    STR      r12,[r4,#0]
        0x00000fae:    f000f805    ....    BL       _PrintUnsigned ; 0xfbc
        0x00000fb2:    e7ff        ..      B        0xfb4 ; _PrintInt + 476
        0x00000fb4:    e7ff        ..      B        0xfb6 ; _PrintInt + 478
        0x00000fb6:    e7ff        ..      B        0xfb8 ; _PrintInt + 480
        0x00000fb8:    b00c        ..      ADD      sp,sp,#0x30
        0x00000fba:    bd10        ..      POP      {r4,pc}
    _PrintUnsigned
        0x00000fbc:    b580        ..      PUSH     {r7,lr}
        0x00000fbe:    b08c        ..      SUB      sp,sp,#0x30
        0x00000fc0:    f8ddc03c    ..<.    LDR      r12,[sp,#0x3c]
        0x00000fc4:    f8dde038    ..8.    LDR      lr,[sp,#0x38]
        0x00000fc8:    900b        ..      STR      r0,[sp,#0x2c]
        0x00000fca:    910a        ..      STR      r1,[sp,#0x28]
        0x00000fcc:    9209        ..      STR      r2,[sp,#0x24]
        0x00000fce:    9308        ..      STR      r3,[sp,#0x20]
        0x00000fd0:    980a        ..      LDR      r0,[sp,#0x28]
        0x00000fd2:    9005        ..      STR      r0,[sp,#0x14]
        0x00000fd4:    2001        .       MOVS     r0,#1
        0x00000fd6:    9006        ..      STR      r0,[sp,#0x18]
        0x00000fd8:    9004        ..      STR      r0,[sp,#0x10]
        0x00000fda:    e7ff        ..      B        0xfdc ; _PrintUnsigned + 32
        0x00000fdc:    9805        ..      LDR      r0,[sp,#0x14]
        0x00000fde:    9909        ..      LDR      r1,[sp,#0x24]
        0x00000fe0:    4288        .B      CMP      r0,r1
        0x00000fe2:    d309        ..      BCC      0xff8 ; _PrintUnsigned + 60
        0x00000fe4:    e7ff        ..      B        0xfe6 ; _PrintUnsigned + 42
        0x00000fe6:    9805        ..      LDR      r0,[sp,#0x14]
        0x00000fe8:    9909        ..      LDR      r1,[sp,#0x24]
        0x00000fea:    fbb0f0f1    ....    UDIV     r0,r0,r1
        0x00000fee:    9005        ..      STR      r0,[sp,#0x14]
        0x00000ff0:    9804        ..      LDR      r0,[sp,#0x10]
        0x00000ff2:    3001        .0      ADDS     r0,#1
        0x00000ff4:    9004        ..      STR      r0,[sp,#0x10]
        0x00000ff6:    e7f1        ..      B        0xfdc ; _PrintUnsigned + 32
        0x00000ff8:    9808        ..      LDR      r0,[sp,#0x20]
        0x00000ffa:    9904        ..      LDR      r1,[sp,#0x10]
        0x00000ffc:    4288        .B      CMP      r0,r1
        0x00000ffe:    d903        ..      BLS      0x1008 ; _PrintUnsigned + 76
        0x00001000:    e7ff        ..      B        0x1002 ; _PrintUnsigned + 70
        0x00001002:    9808        ..      LDR      r0,[sp,#0x20]
        0x00001004:    9004        ..      STR      r0,[sp,#0x10]
        0x00001006:    e7ff        ..      B        0x1008 ; _PrintUnsigned + 76
        0x00001008:    f89d003c    ..<.    LDRB     r0,[sp,#0x3c]
        0x0000100c:    07c0        ..      LSLS     r0,r0,#31
        0x0000100e:    2800        .(      CMP      r0,#0
        0x00001010:    d13c        <.      BNE      0x108c ; _PrintUnsigned + 208
        0x00001012:    e7ff        ..      B        0x1014 ; _PrintUnsigned + 88
        0x00001014:    980e        ..      LDR      r0,[sp,#0x38]
        0x00001016:    2800        .(      CMP      r0,#0
        0x00001018:    d037        7.      BEQ      0x108a ; _PrintUnsigned + 206
        0x0000101a:    e7ff        ..      B        0x101c ; _PrintUnsigned + 96
        0x0000101c:    f89d003c    ..<.    LDRB     r0,[sp,#0x3c]
        0x00001020:    0780        ..      LSLS     r0,r0,#30
        0x00001022:    2800        .(      CMP      r0,#0
        0x00001024:    d508        ..      BPL      0x1038 ; _PrintUnsigned + 124
        0x00001026:    e7ff        ..      B        0x1028 ; _PrintUnsigned + 108
        0x00001028:    9808        ..      LDR      r0,[sp,#0x20]
        0x0000102a:    2800        .(      CMP      r0,#0
        0x0000102c:    d104        ..      BNE      0x1038 ; _PrintUnsigned + 124
        0x0000102e:    e7ff        ..      B        0x1030 ; _PrintUnsigned + 116
        0x00001030:    2030        0       MOVS     r0,#0x30
        0x00001032:    f88d000f    ....    STRB     r0,[sp,#0xf]
        0x00001036:    e003        ..      B        0x1040 ; _PrintUnsigned + 132
        0x00001038:    2020                MOVS     r0,#0x20
        0x0000103a:    f88d000f    ....    STRB     r0,[sp,#0xf]
        0x0000103e:    e7ff        ..      B        0x1040 ; _PrintUnsigned + 132
        0x00001040:    e7ff        ..      B        0x1042 ; _PrintUnsigned + 134
        0x00001042:    980e        ..      LDR      r0,[sp,#0x38]
        0x00001044:    2100        .!      MOVS     r1,#0
        0x00001046:    2800        .(      CMP      r0,#0
        0x00001048:    9102        ..      STR      r1,[sp,#8]
        0x0000104a:    d008        ..      BEQ      0x105e ; _PrintUnsigned + 162
        0x0000104c:    e7ff        ..      B        0x104e ; _PrintUnsigned + 146
        0x0000104e:    9804        ..      LDR      r0,[sp,#0x10]
        0x00001050:    990e        ..      LDR      r1,[sp,#0x38]
        0x00001052:    2200        ."      MOVS     r2,#0
        0x00001054:    4288        .B      CMP      r0,r1
        0x00001056:    bf38        8.      IT       CC
        0x00001058:    2201        ."      MOVCC    r2,#1
        0x0000105a:    9202        ..      STR      r2,[sp,#8]
        0x0000105c:    e7ff        ..      B        0x105e ; _PrintUnsigned + 162
        0x0000105e:    9802        ..      LDR      r0,[sp,#8]
        0x00001060:    07c0        ..      LSLS     r0,r0,#31
        0x00001062:    2800        .(      CMP      r0,#0
        0x00001064:    d010        ..      BEQ      0x1088 ; _PrintUnsigned + 204
        0x00001066:    e7ff        ..      B        0x1068 ; _PrintUnsigned + 172
        0x00001068:    980e        ..      LDR      r0,[sp,#0x38]
        0x0000106a:    3801        .8      SUBS     r0,#1
        0x0000106c:    900e        ..      STR      r0,[sp,#0x38]
        0x0000106e:    980b        ..      LDR      r0,[sp,#0x2c]
        0x00001070:    f89d100f    ....    LDRB     r1,[sp,#0xf]
        0x00001074:    f000f882    ....    BL       _StoreChar ; 0x117c
        0x00001078:    980b        ..      LDR      r0,[sp,#0x2c]
        0x0000107a:    68c0        .h      LDR      r0,[r0,#0xc]
        0x0000107c:    f1b03fff    ...?    CMP      r0,#0xffffffff
        0x00001080:    dc01        ..      BGT      0x1086 ; _PrintUnsigned + 202
        0x00001082:    e7ff        ..      B        0x1084 ; _PrintUnsigned + 200
        0x00001084:    e000        ..      B        0x1088 ; _PrintUnsigned + 204
        0x00001086:    e7dc        ..      B        0x1042 ; _PrintUnsigned + 134
        0x00001088:    e7ff        ..      B        0x108a ; _PrintUnsigned + 206
        0x0000108a:    e7ff        ..      B        0x108c ; _PrintUnsigned + 208
        0x0000108c:    980b        ..      LDR      r0,[sp,#0x2c]
        0x0000108e:    68c0        .h      LDR      r0,[r0,#0xc]
        0x00001090:    2800        .(      CMP      r0,#0
        0x00001092:    d470        p.      BMI      0x1176 ; _PrintUnsigned + 442
        0x00001094:    e7ff        ..      B        0x1096 ; _PrintUnsigned + 218
        0x00001096:    e7ff        ..      B        0x1098 ; _PrintUnsigned + 220
        0x00001098:    9808        ..      LDR      r0,[sp,#0x20]
        0x0000109a:    2802        .(      CMP      r0,#2
        0x0000109c:    d304        ..      BCC      0x10a8 ; _PrintUnsigned + 236
        0x0000109e:    e7ff        ..      B        0x10a0 ; _PrintUnsigned + 228
        0x000010a0:    9808        ..      LDR      r0,[sp,#0x20]
        0x000010a2:    3801        .8      SUBS     r0,#1
        0x000010a4:    9008        ..      STR      r0,[sp,#0x20]
        0x000010a6:    e00b        ..      B        0x10c0 ; _PrintUnsigned + 260
        0x000010a8:    980a        ..      LDR      r0,[sp,#0x28]
        0x000010aa:    9906        ..      LDR      r1,[sp,#0x18]
        0x000010ac:    fbb0f0f1    ....    UDIV     r0,r0,r1
        0x000010b0:    9007        ..      STR      r0,[sp,#0x1c]
        0x000010b2:    9807        ..      LDR      r0,[sp,#0x1c]
        0x000010b4:    9909        ..      LDR      r1,[sp,#0x24]
        0x000010b6:    4288        .B      CMP      r0,r1
        0x000010b8:    d201        ..      BCS      0x10be ; _PrintUnsigned + 258
        0x000010ba:    e7ff        ..      B        0x10bc ; _PrintUnsigned + 256
        0x000010bc:    e005        ..      B        0x10ca ; _PrintUnsigned + 270
        0x000010be:    e7ff        ..      B        0x10c0 ; _PrintUnsigned + 260
        0x000010c0:    9809        ..      LDR      r0,[sp,#0x24]
        0x000010c2:    9906        ..      LDR      r1,[sp,#0x18]
        0x000010c4:    4348        HC      MULS     r0,r1,r0
        0x000010c6:    9006        ..      STR      r0,[sp,#0x18]
        0x000010c8:    e7e6        ..      B        0x1098 ; _PrintUnsigned + 220
        0x000010ca:    e7ff        ..      B        0x10cc ; _PrintUnsigned + 272
        0x000010cc:    980a        ..      LDR      r0,[sp,#0x28]
        0x000010ce:    9906        ..      LDR      r1,[sp,#0x18]
        0x000010d0:    fbb0f0f1    ....    UDIV     r0,r0,r1
        0x000010d4:    9007        ..      STR      r0,[sp,#0x1c]
        0x000010d6:    9807        ..      LDR      r0,[sp,#0x1c]
        0x000010d8:    9906        ..      LDR      r1,[sp,#0x18]
        0x000010da:    9a0a        ..      LDR      r2,[sp,#0x28]
        0x000010dc:    fb002011    ...     MLS      r0,r0,r1,r2
        0x000010e0:    900a        ..      STR      r0,[sp,#0x28]
        0x000010e2:    980b        ..      LDR      r0,[sp,#0x2c]
        0x000010e4:    9907        ..      LDR      r1,[sp,#0x1c]
        0x000010e6:    f24152be    A..R    MOV      r2,#0x15be
        0x000010ea:    f2c00200    ....    MOVT     r2,#0
        0x000010ee:    5c51        Q\      LDRB     r1,[r2,r1]
        0x000010f0:    f000f844    ..D.    BL       _StoreChar ; 0x117c
        0x000010f4:    980b        ..      LDR      r0,[sp,#0x2c]
        0x000010f6:    68c0        .h      LDR      r0,[r0,#0xc]
        0x000010f8:    f1b03fff    ...?    CMP      r0,#0xffffffff
        0x000010fc:    dc01        ..      BGT      0x1102 ; _PrintUnsigned + 326
        0x000010fe:    e7ff        ..      B        0x1100 ; _PrintUnsigned + 324
        0x00001100:    e009        ..      B        0x1116 ; _PrintUnsigned + 346
        0x00001102:    9809        ..      LDR      r0,[sp,#0x24]
        0x00001104:    9906        ..      LDR      r1,[sp,#0x18]
        0x00001106:    fbb1f0f0    ....    UDIV     r0,r1,r0
        0x0000110a:    9006        ..      STR      r0,[sp,#0x18]
        0x0000110c:    e7ff        ..      B        0x110e ; _PrintUnsigned + 338
        0x0000110e:    9806        ..      LDR      r0,[sp,#0x18]
        0x00001110:    2800        .(      CMP      r0,#0
        0x00001112:    d1db        ..      BNE      0x10cc ; _PrintUnsigned + 272
        0x00001114:    e7ff        ..      B        0x1116 ; _PrintUnsigned + 346
        0x00001116:    f89d003c    ..<.    LDRB     r0,[sp,#0x3c]
        0x0000111a:    07c0        ..      LSLS     r0,r0,#31
        0x0000111c:    2800        .(      CMP      r0,#0
        0x0000111e:    d029        ).      BEQ      0x1174 ; _PrintUnsigned + 440
        0x00001120:    e7ff        ..      B        0x1122 ; _PrintUnsigned + 358
        0x00001122:    980e        ..      LDR      r0,[sp,#0x38]
        0x00001124:    2800        .(      CMP      r0,#0
        0x00001126:    d024        $.      BEQ      0x1172 ; _PrintUnsigned + 438
        0x00001128:    e7ff        ..      B        0x112a ; _PrintUnsigned + 366
        0x0000112a:    e7ff        ..      B        0x112c ; _PrintUnsigned + 368
        0x0000112c:    980e        ..      LDR      r0,[sp,#0x38]
        0x0000112e:    2100        .!      MOVS     r1,#0
        0x00001130:    2800        .(      CMP      r0,#0
        0x00001132:    9101        ..      STR      r1,[sp,#4]
        0x00001134:    d008        ..      BEQ      0x1148 ; _PrintUnsigned + 396
        0x00001136:    e7ff        ..      B        0x1138 ; _PrintUnsigned + 380
        0x00001138:    9804        ..      LDR      r0,[sp,#0x10]
        0x0000113a:    990e        ..      LDR      r1,[sp,#0x38]
        0x0000113c:    2200        ."      MOVS     r2,#0
        0x0000113e:    4288        .B      CMP      r0,r1
        0x00001140:    bf38        8.      IT       CC
        0x00001142:    2201        ."      MOVCC    r2,#1
        0x00001144:    9201        ..      STR      r2,[sp,#4]
        0x00001146:    e7ff        ..      B        0x1148 ; _PrintUnsigned + 396
        0x00001148:    9801        ..      LDR      r0,[sp,#4]
        0x0000114a:    07c0        ..      LSLS     r0,r0,#31
        0x0000114c:    2800        .(      CMP      r0,#0
        0x0000114e:    d00f        ..      BEQ      0x1170 ; _PrintUnsigned + 436
        0x00001150:    e7ff        ..      B        0x1152 ; _PrintUnsigned + 406
        0x00001152:    980e        ..      LDR      r0,[sp,#0x38]
        0x00001154:    3801        .8      SUBS     r0,#1
        0x00001156:    900e        ..      STR      r0,[sp,#0x38]
        0x00001158:    980b        ..      LDR      r0,[sp,#0x2c]
        0x0000115a:    2120         !      MOVS     r1,#0x20
        0x0000115c:    f000f80e    ....    BL       _StoreChar ; 0x117c
        0x00001160:    980b        ..      LDR      r0,[sp,#0x2c]
        0x00001162:    68c0        .h      LDR      r0,[r0,#0xc]
        0x00001164:    f1b03fff    ...?    CMP      r0,#0xffffffff
        0x00001168:    dc01        ..      BGT      0x116e ; _PrintUnsigned + 434
        0x0000116a:    e7ff        ..      B        0x116c ; _PrintUnsigned + 432
        0x0000116c:    e000        ..      B        0x1170 ; _PrintUnsigned + 436
        0x0000116e:    e7dd        ..      B        0x112c ; _PrintUnsigned + 368
        0x00001170:    e7ff        ..      B        0x1172 ; _PrintUnsigned + 438
        0x00001172:    e7ff        ..      B        0x1174 ; _PrintUnsigned + 440
        0x00001174:    e7ff        ..      B        0x1176 ; _PrintUnsigned + 442
        0x00001176:    b00c        ..      ADD      sp,sp,#0x30
        0x00001178:    bd80        ..      POP      {r7,pc}
        0x0000117a:    0000        ..      MOVS     r0,r0
    _StoreChar
        0x0000117c:    b580        ..      PUSH     {r7,lr}
        0x0000117e:    b084        ..      SUB      sp,sp,#0x10
        0x00001180:    460a        .F      MOV      r2,r1
        0x00001182:    9003        ..      STR      r0,[sp,#0xc]
        0x00001184:    f88d100b    ....    STRB     r1,[sp,#0xb]
        0x00001188:    9803        ..      LDR      r0,[sp,#0xc]
        0x0000118a:    6880        .h      LDR      r0,[r0,#8]
        0x0000118c:    9001        ..      STR      r0,[sp,#4]
        0x0000118e:    9801        ..      LDR      r0,[sp,#4]
        0x00001190:    3001        .0      ADDS     r0,#1
        0x00001192:    9903        ..      LDR      r1,[sp,#0xc]
        0x00001194:    6849        Ih      LDR      r1,[r1,#4]
        0x00001196:    4288        .B      CMP      r0,r1
        0x00001198:    d80f        ..      BHI      0x11ba ; _StoreChar + 62
        0x0000119a:    e7ff        ..      B        0x119c ; _StoreChar + 32
        0x0000119c:    f89d000b    ....    LDRB     r0,[sp,#0xb]
        0x000011a0:    9903        ..      LDR      r1,[sp,#0xc]
        0x000011a2:    6809        .h      LDR      r1,[r1,#0]
        0x000011a4:    9a01        ..      LDR      r2,[sp,#4]
        0x000011a6:    5488        .T      STRB     r0,[r1,r2]
        0x000011a8:    9801        ..      LDR      r0,[sp,#4]
        0x000011aa:    3001        .0      ADDS     r0,#1
        0x000011ac:    9903        ..      LDR      r1,[sp,#0xc]
        0x000011ae:    6088        .`      STR      r0,[r1,#8]
        0x000011b0:    9803        ..      LDR      r0,[sp,#0xc]
        0x000011b2:    68c1        .h      LDR      r1,[r0,#0xc]
        0x000011b4:    3101        .1      ADDS     r1,#1
        0x000011b6:    60c1        .`      STR      r1,[r0,#0xc]
        0x000011b8:    e7ff        ..      B        0x11ba ; _StoreChar + 62
        0x000011ba:    9803        ..      LDR      r0,[sp,#0xc]
        0x000011bc:    6841        Ah      LDR      r1,[r0,#4]
        0x000011be:    6880        .h      LDR      r0,[r0,#8]
        0x000011c0:    4288        .B      CMP      r0,r1
        0x000011c2:    d115        ..      BNE      0x11f0 ; _StoreChar + 116
        0x000011c4:    e7ff        ..      B        0x11c6 ; _StoreChar + 74
        0x000011c6:    9803        ..      LDR      r0,[sp,#0xc]
        0x000011c8:    6801        .h      LDR      r1,[r0,#0]
        0x000011ca:    6882        .h      LDR      r2,[r0,#8]
        0x000011cc:    6900        .i      LDR      r0,[r0,#0x10]
        0x000011ce:    f7fffa57    ..W.    BL       SEGGER_RTT_Write ; 0x680
        0x000011d2:    9903        ..      LDR      r1,[sp,#0xc]
        0x000011d4:    6889        .h      LDR      r1,[r1,#8]
        0x000011d6:    4288        .B      CMP      r0,r1
        0x000011d8:    d005        ..      BEQ      0x11e6 ; _StoreChar + 106
        0x000011da:    e7ff        ..      B        0x11dc ; _StoreChar + 96
        0x000011dc:    9803        ..      LDR      r0,[sp,#0xc]
        0x000011de:    f04f31ff    O..1    MOV      r1,#0xffffffff
        0x000011e2:    60c1        .`      STR      r1,[r0,#0xc]
        0x000011e4:    e003        ..      B        0x11ee ; _StoreChar + 114
        0x000011e6:    9803        ..      LDR      r0,[sp,#0xc]
        0x000011e8:    2100        .!      MOVS     r1,#0
        0x000011ea:    6081        .`      STR      r1,[r0,#8]
        0x000011ec:    e7ff        ..      B        0x11ee ; _StoreChar + 114
        0x000011ee:    e7ff        ..      B        0x11f0 ; _StoreChar + 116
        0x000011f0:    b004        ..      ADD      sp,sp,#0x10
        0x000011f2:    bd80        ..      POP      {r7,pc}
    _WriteBlocking
        0x000011f4:    b580        ..      PUSH     {r7,lr}
        0x000011f6:    b08a        ..      SUB      sp,sp,#0x28
        0x000011f8:    9009        ..      STR      r0,[sp,#0x24]
        0x000011fa:    9108        ..      STR      r1,[sp,#0x20]
        0x000011fc:    9207        ..      STR      r2,[sp,#0x1c]
        0x000011fe:    2000        .       MOVS     r0,#0
        0x00001200:    9005        ..      STR      r0,[sp,#0x14]
        0x00001202:    9809        ..      LDR      r0,[sp,#0x24]
        0x00001204:    68c0        .h      LDR      r0,[r0,#0xc]
        0x00001206:    9003        ..      STR      r0,[sp,#0xc]
        0x00001208:    e7ff        ..      B        0x120a ; _WriteBlocking + 22
        0x0000120a:    9809        ..      LDR      r0,[sp,#0x24]
        0x0000120c:    6900        .i      LDR      r0,[r0,#0x10]
        0x0000120e:    9004        ..      STR      r0,[sp,#0x10]
        0x00001210:    9804        ..      LDR      r0,[sp,#0x10]
        0x00001212:    9903        ..      LDR      r1,[sp,#0xc]
        0x00001214:    4288        .B      CMP      r0,r1
        0x00001216:    d906        ..      BLS      0x1226 ; _WriteBlocking + 50
        0x00001218:    e7ff        ..      B        0x121a ; _WriteBlocking + 38
        0x0000121a:    9804        ..      LDR      r0,[sp,#0x10]
        0x0000121c:    9903        ..      LDR      r1,[sp,#0xc]
        0x0000121e:    43c9        .C      MVNS     r1,r1
        0x00001220:    4408        .D      ADD      r0,r0,r1
        0x00001222:    9006        ..      STR      r0,[sp,#0x18]
        0x00001224:    e008        ..      B        0x1238 ; _WriteBlocking + 68
        0x00001226:    9809        ..      LDR      r0,[sp,#0x24]
        0x00001228:    6880        .h      LDR      r0,[r0,#8]
        0x0000122a:    9903        ..      LDR      r1,[sp,#0xc]
        0x0000122c:    9a04        ..      LDR      r2,[sp,#0x10]
        0x0000122e:    1a89        ..      SUBS     r1,r1,r2
        0x00001230:    43c9        .C      MVNS     r1,r1
        0x00001232:    4408        .D      ADD      r0,r0,r1
        0x00001234:    9006        ..      STR      r0,[sp,#0x18]
        0x00001236:    e7ff        ..      B        0x1238 ; _WriteBlocking + 68
        0x00001238:    9806        ..      LDR      r0,[sp,#0x18]
        0x0000123a:    9909        ..      LDR      r1,[sp,#0x24]
        0x0000123c:    6889        .h      LDR      r1,[r1,#8]
        0x0000123e:    9a03        ..      LDR      r2,[sp,#0xc]
        0x00001240:    1a89        ..      SUBS     r1,r1,r2
        0x00001242:    4288        .B      CMP      r0,r1
        0x00001244:    d203        ..      BCS      0x124e ; _WriteBlocking + 90
        0x00001246:    e7ff        ..      B        0x1248 ; _WriteBlocking + 84
        0x00001248:    9806        ..      LDR      r0,[sp,#0x18]
        0x0000124a:    9001        ..      STR      r0,[sp,#4]
        0x0000124c:    e005        ..      B        0x125a ; _WriteBlocking + 102
        0x0000124e:    9809        ..      LDR      r0,[sp,#0x24]
        0x00001250:    6880        .h      LDR      r0,[r0,#8]
        0x00001252:    9903        ..      LDR      r1,[sp,#0xc]
        0x00001254:    1a40        @.      SUBS     r0,r0,r1
        0x00001256:    9001        ..      STR      r0,[sp,#4]
        0x00001258:    e7ff        ..      B        0x125a ; _WriteBlocking + 102
        0x0000125a:    9801        ..      LDR      r0,[sp,#4]
        0x0000125c:    9006        ..      STR      r0,[sp,#0x18]
        0x0000125e:    9806        ..      LDR      r0,[sp,#0x18]
        0x00001260:    9907        ..      LDR      r1,[sp,#0x1c]
        0x00001262:    4288        .B      CMP      r0,r1
        0x00001264:    d203        ..      BCS      0x126e ; _WriteBlocking + 122
        0x00001266:    e7ff        ..      B        0x1268 ; _WriteBlocking + 116
        0x00001268:    9806        ..      LDR      r0,[sp,#0x18]
        0x0000126a:    9000        ..      STR      r0,[sp,#0]
        0x0000126c:    e002        ..      B        0x1274 ; _WriteBlocking + 128
        0x0000126e:    9807        ..      LDR      r0,[sp,#0x1c]
        0x00001270:    9000        ..      STR      r0,[sp,#0]
        0x00001272:    e7ff        ..      B        0x1274 ; _WriteBlocking + 128
        0x00001274:    9800        ..      LDR      r0,[sp,#0]
        0x00001276:    9006        ..      STR      r0,[sp,#0x18]
        0x00001278:    9809        ..      LDR      r0,[sp,#0x24]
        0x0000127a:    6840        @h      LDR      r0,[r0,#4]
        0x0000127c:    9903        ..      LDR      r1,[sp,#0xc]
        0x0000127e:    4408        .D      ADD      r0,r0,r1
        0x00001280:    9002        ..      STR      r0,[sp,#8]
        0x00001282:    9802        ..      LDR      r0,[sp,#8]
        0x00001284:    9908        ..      LDR      r1,[sp,#0x20]
        0x00001286:    9a06        ..      LDR      r2,[sp,#0x18]
        0x00001288:    f7feff6e    ..n.    BL       __aeabi_memcpy ; 0x168
        0x0000128c:    9906        ..      LDR      r1,[sp,#0x18]
        0x0000128e:    9a05        ..      LDR      r2,[sp,#0x14]
        0x00001290:    4411        .D      ADD      r1,r1,r2
        0x00001292:    9105        ..      STR      r1,[sp,#0x14]
        0x00001294:    9906        ..      LDR      r1,[sp,#0x18]
        0x00001296:    9a08        ..      LDR      r2,[sp,#0x20]
        0x00001298:    4411        .D      ADD      r1,r1,r2
        0x0000129a:    9108        ..      STR      r1,[sp,#0x20]
        0x0000129c:    9906        ..      LDR      r1,[sp,#0x18]
        0x0000129e:    9a07        ..      LDR      r2,[sp,#0x1c]
        0x000012a0:    1a51        Q.      SUBS     r1,r2,r1
        0x000012a2:    9107        ..      STR      r1,[sp,#0x1c]
        0x000012a4:    9906        ..      LDR      r1,[sp,#0x18]
        0x000012a6:    9a03        ..      LDR      r2,[sp,#0xc]
        0x000012a8:    4411        .D      ADD      r1,r1,r2
        0x000012aa:    9103        ..      STR      r1,[sp,#0xc]
        0x000012ac:    9903        ..      LDR      r1,[sp,#0xc]
        0x000012ae:    9a09        ..      LDR      r2,[sp,#0x24]
        0x000012b0:    6892        .h      LDR      r2,[r2,#8]
        0x000012b2:    4291        .B      CMP      r1,r2
        0x000012b4:    d103        ..      BNE      0x12be ; _WriteBlocking + 202
        0x000012b6:    e7ff        ..      B        0x12b8 ; _WriteBlocking + 196
        0x000012b8:    2000        .       MOVS     r0,#0
        0x000012ba:    9003        ..      STR      r0,[sp,#0xc]
        0x000012bc:    e7ff        ..      B        0x12be ; _WriteBlocking + 202
        0x000012be:    9803        ..      LDR      r0,[sp,#0xc]
        0x000012c0:    9909        ..      LDR      r1,[sp,#0x24]
        0x000012c2:    60c8        .`      STR      r0,[r1,#0xc]
        0x000012c4:    e7ff        ..      B        0x12c6 ; _WriteBlocking + 210
        0x000012c6:    9807        ..      LDR      r0,[sp,#0x1c]
        0x000012c8:    2800        .(      CMP      r0,#0
        0x000012ca:    d19e        ..      BNE      0x120a ; _WriteBlocking + 22
        0x000012cc:    e7ff        ..      B        0x12ce ; _WriteBlocking + 218
        0x000012ce:    9805        ..      LDR      r0,[sp,#0x14]
        0x000012d0:    b00a        ..      ADD      sp,sp,#0x28
        0x000012d2:    bd80        ..      POP      {r7,pc}
    _WriteNoCheck
        0x000012d4:    b580        ..      PUSH     {r7,lr}
        0x000012d6:    b088        ..      SUB      sp,sp,#0x20
        0x000012d8:    9007        ..      STR      r0,[sp,#0x1c]
        0x000012da:    9106        ..      STR      r1,[sp,#0x18]
        0x000012dc:    9205        ..      STR      r2,[sp,#0x14]
        0x000012de:    9807        ..      LDR      r0,[sp,#0x1c]
        0x000012e0:    68c0        .h      LDR      r0,[r0,#0xc]
        0x000012e2:    9003        ..      STR      r0,[sp,#0xc]
        0x000012e4:    9807        ..      LDR      r0,[sp,#0x1c]
        0x000012e6:    6880        .h      LDR      r0,[r0,#8]
        0x000012e8:    9903        ..      LDR      r1,[sp,#0xc]
        0x000012ea:    1a40        @.      SUBS     r0,r0,r1
        0x000012ec:    9002        ..      STR      r0,[sp,#8]
        0x000012ee:    9802        ..      LDR      r0,[sp,#8]
        0x000012f0:    9905        ..      LDR      r1,[sp,#0x14]
        0x000012f2:    4288        .B      CMP      r0,r1
        0x000012f4:    d910        ..      BLS      0x1318 ; _WriteNoCheck + 68
        0x000012f6:    e7ff        ..      B        0x12f8 ; _WriteNoCheck + 36
        0x000012f8:    9807        ..      LDR      r0,[sp,#0x1c]
        0x000012fa:    6840        @h      LDR      r0,[r0,#4]
        0x000012fc:    9903        ..      LDR      r1,[sp,#0xc]
        0x000012fe:    4408        .D      ADD      r0,r0,r1
        0x00001300:    9001        ..      STR      r0,[sp,#4]
        0x00001302:    9801        ..      LDR      r0,[sp,#4]
        0x00001304:    9906        ..      LDR      r1,[sp,#0x18]
        0x00001306:    9a05        ..      LDR      r2,[sp,#0x14]
        0x00001308:    f7feff2e    ....    BL       __aeabi_memcpy ; 0x168
        0x0000130c:    9903        ..      LDR      r1,[sp,#0xc]
        0x0000130e:    9a05        ..      LDR      r2,[sp,#0x14]
        0x00001310:    4411        .D      ADD      r1,r1,r2
        0x00001312:    9a07        ..      LDR      r2,[sp,#0x1c]
        0x00001314:    60d1        .`      STR      r1,[r2,#0xc]
        0x00001316:    e021        !.      B        0x135c ; _WriteNoCheck + 136
        0x00001318:    9802        ..      LDR      r0,[sp,#8]
        0x0000131a:    9004        ..      STR      r0,[sp,#0x10]
        0x0000131c:    9807        ..      LDR      r0,[sp,#0x1c]
        0x0000131e:    6840        @h      LDR      r0,[r0,#4]
        0x00001320:    9903        ..      LDR      r1,[sp,#0xc]
        0x00001322:    4408        .D      ADD      r0,r0,r1
        0x00001324:    9001        ..      STR      r0,[sp,#4]
        0x00001326:    9801        ..      LDR      r0,[sp,#4]
        0x00001328:    9906        ..      LDR      r1,[sp,#0x18]
        0x0000132a:    9a04        ..      LDR      r2,[sp,#0x10]
        0x0000132c:    f7feff1c    ....    BL       __aeabi_memcpy ; 0x168
        0x00001330:    9905        ..      LDR      r1,[sp,#0x14]
        0x00001332:    9a02        ..      LDR      r2,[sp,#8]
        0x00001334:    1a89        ..      SUBS     r1,r1,r2
        0x00001336:    9104        ..      STR      r1,[sp,#0x10]
        0x00001338:    9907        ..      LDR      r1,[sp,#0x1c]
        0x0000133a:    6849        Ih      LDR      r1,[r1,#4]
        0x0000133c:    9101        ..      STR      r1,[sp,#4]
        0x0000133e:    9901        ..      LDR      r1,[sp,#4]
        0x00001340:    9a06        ..      LDR      r2,[sp,#0x18]
        0x00001342:    9b02        ..      LDR      r3,[sp,#8]
        0x00001344:    441a        .D      ADD      r2,r2,r3
        0x00001346:    9b04        ..      LDR      r3,[sp,#0x10]
        0x00001348:    9000        ..      STR      r0,[sp,#0]
        0x0000134a:    4608        .F      MOV      r0,r1
        0x0000134c:    4611        .F      MOV      r1,r2
        0x0000134e:    461a        .F      MOV      r2,r3
        0x00001350:    f7feff0a    ....    BL       __aeabi_memcpy ; 0x168
        0x00001354:    9904        ..      LDR      r1,[sp,#0x10]
        0x00001356:    9a07        ..      LDR      r2,[sp,#0x1c]
        0x00001358:    60d1        .`      STR      r1,[r2,#0xc]
        0x0000135a:    e7ff        ..      B        0x135c ; _WriteNoCheck + 136
        0x0000135c:    b008        ..      ADD      sp,sp,#0x20
        0x0000135e:    bd80        ..      POP      {r7,pc}
    app
        0x00001360:    b580        ..      PUSH     {r7,lr}
        0x00001362:    b082        ..      SUB      sp,sp,#8
        0x00001364:    f2410090    A...    MOV      r0,#0x1090
        0x00001368:    f2c20000    ....    MOVT     r0,#0x2000
        0x0000136c:    6801        .h      LDR      r1,[r0,#0]
        0x0000136e:    3101        .1      ADDS     r1,#1
        0x00001370:    6001        .`      STR      r1,[r0,#0]
        0x00001372:    f2400004    @...    MOVW     r0,#4
        0x00001376:    f2c20000    ....    MOVT     r0,#0x2000
        0x0000137a:    6801        .h      LDR      r1,[r0,#0]
        0x0000137c:    9001        ..      STR      r0,[sp,#4]
        0x0000137e:    4608        .F      MOV      r0,r1
        0x00001380:    f7feffb4    ....    BL       __aeabi_f2d ; 0x2ec
        0x00001384:    f649129a    I...    MOV      r2,#0x999a
        0x00001388:    f6c91299    ....    MOVT     r2,#0x9999
        0x0000138c:    f6491399    I...    MOV      r3,#0x9999
        0x00001390:    f6c373c9    ...s    MOVT     r3,#0x3fc9
        0x00001394:    f7feff03    ....    BL       __aeabi_dadd ; 0x19e
        0x00001398:    f7feffbb    ....    BL       __aeabi_d2f ; 0x312
        0x0000139c:    9901        ..      LDR      r1,[sp,#4]
        0x0000139e:    6008        .`      STR      r0,[r1,#0]
        0x000013a0:    b002        ..      ADD      sp,sp,#8
        0x000013a2:    bd80        ..      POP      {r7,pc}
    app2
        0x000013a4:    b580        ..      PUSH     {r7,lr}
        0x000013a6:    b082        ..      SUB      sp,sp,#8
        0x000013a8:    f2420004    B...    MOV      r0,#0x2004
        0x000013ac:    f2c40001    ....    MOVT     r0,#0x4001
        0x000013b0:    6801        .h      LDR      r1,[r0,#0]
        0x000013b2:    f0210140    !.@.    BIC      r1,r1,#0x40
        0x000013b6:    6001        .`      STR      r1,[r0,#0]
        0x000013b8:    f64f71ff    O..q    MOV      r1,#0xffff
        0x000013bc:    f2c0010f    ....    MOVT     r1,#0xf
        0x000013c0:    9001        ..      STR      r0,[sp,#4]
        0x000013c2:    4608        .F      MOV      r0,r1
        0x000013c4:    9100        ..      STR      r1,[sp,#0]
        0x000013c6:    f7fff89b    ....    BL       Delay ; 0x500
        0x000013ca:    9801        ..      LDR      r0,[sp,#4]
        0x000013cc:    6801        .h      LDR      r1,[r0,#0]
        0x000013ce:    f0410140    A.@.    ORR      r1,r1,#0x40
        0x000013d2:    6001        .`      STR      r1,[r0,#0]
        0x000013d4:    6801        .h      LDR      r1,[r0,#0]
        0x000013d6:    f0210180    !...    BIC      r1,r1,#0x80
        0x000013da:    6001        .`      STR      r1,[r0,#0]
        0x000013dc:    9800        ..      LDR      r0,[sp,#0]
        0x000013de:    f7fff88f    ....    BL       Delay ; 0x500
        0x000013e2:    9801        ..      LDR      r0,[sp,#4]
        0x000013e4:    6801        .h      LDR      r1,[r0,#0]
        0x000013e6:    f0410180    A...    ORR      r1,r1,#0x80
        0x000013ea:    6001        .`      STR      r1,[r0,#0]
        0x000013ec:    6801        .h      LDR      r1,[r0,#0]
        0x000013ee:    f4217180    !..q    BIC      r1,r1,#0x100
        0x000013f2:    6001        .`      STR      r1,[r0,#0]
        0x000013f4:    9800        ..      LDR      r0,[sp,#0]
        0x000013f6:    f7fff883    ....    BL       Delay ; 0x500
        0x000013fa:    9801        ..      LDR      r0,[sp,#4]
        0x000013fc:    6801        .h      LDR      r1,[r0,#0]
        0x000013fe:    f4417180    A..q    ORR      r1,r1,#0x100
        0x00001402:    6001        .`      STR      r1,[r0,#0]
        0x00001404:    6801        .h      LDR      r1,[r0,#0]
        0x00001406:    f0210140    !.@.    BIC      r1,r1,#0x40
        0x0000140a:    6001        .`      STR      r1,[r0,#0]
        0x0000140c:    6801        .h      LDR      r1,[r0,#0]
        0x0000140e:    f0410180    A...    ORR      r1,r1,#0x80
        0x00001412:    6001        .`      STR      r1,[r0,#0]
        0x00001414:    6801        .h      LDR      r1,[r0,#0]
        0x00001416:    f4417180    A..q    ORR      r1,r1,#0x100
        0x0000141a:    6001        .`      STR      r1,[r0,#0]
        0x0000141c:    9800        ..      LDR      r0,[sp,#0]
        0x0000141e:    f7fff86f    ..o.    BL       Delay ; 0x500
        0x00001422:    9801        ..      LDR      r0,[sp,#4]
        0x00001424:    6801        .h      LDR      r1,[r0,#0]
        0x00001426:    f0410140    A.@.    ORR      r1,r1,#0x40
        0x0000142a:    6001        .`      STR      r1,[r0,#0]
        0x0000142c:    6801        .h      LDR      r1,[r0,#0]
        0x0000142e:    f0210180    !...    BIC      r1,r1,#0x80
        0x00001432:    6001        .`      STR      r1,[r0,#0]
        0x00001434:    6801        .h      LDR      r1,[r0,#0]
        0x00001436:    f4417180    A..q    ORR      r1,r1,#0x100
        0x0000143a:    6001        .`      STR      r1,[r0,#0]
        0x0000143c:    9800        ..      LDR      r0,[sp,#0]
        0x0000143e:    f7fff85f    .._.    BL       Delay ; 0x500
        0x00001442:    9801        ..      LDR      r0,[sp,#4]
        0x00001444:    6801        .h      LDR      r1,[r0,#0]
        0x00001446:    f0410140    A.@.    ORR      r1,r1,#0x40
        0x0000144a:    6001        .`      STR      r1,[r0,#0]
        0x0000144c:    6801        .h      LDR      r1,[r0,#0]
        0x0000144e:    f0410180    A...    ORR      r1,r1,#0x80
        0x00001452:    6001        .`      STR      r1,[r0,#0]
        0x00001454:    6801        .h      LDR      r1,[r0,#0]
        0x00001456:    f4217180    !..q    BIC      r1,r1,#0x100
        0x0000145a:    6001        .`      STR      r1,[r0,#0]
        0x0000145c:    9800        ..      LDR      r0,[sp,#0]
        0x0000145e:    f7fff84f    ..O.    BL       Delay ; 0x500
        0x00001462:    9801        ..      LDR      r0,[sp,#4]
        0x00001464:    6801        .h      LDR      r1,[r0,#0]
        0x00001466:    f0210140    !.@.    BIC      r1,r1,#0x40
        0x0000146a:    6001        .`      STR      r1,[r0,#0]
        0x0000146c:    6801        .h      LDR      r1,[r0,#0]
        0x0000146e:    f0210180    !...    BIC      r1,r1,#0x80
        0x00001472:    6001        .`      STR      r1,[r0,#0]
        0x00001474:    6801        .h      LDR      r1,[r0,#0]
        0x00001476:    f4417180    A..q    ORR      r1,r1,#0x100
        0x0000147a:    6001        .`      STR      r1,[r0,#0]
        0x0000147c:    9800        ..      LDR      r0,[sp,#0]
        0x0000147e:    f7fff83f    ..?.    BL       Delay ; 0x500
        0x00001482:    9801        ..      LDR      r0,[sp,#4]
        0x00001484:    6801        .h      LDR      r1,[r0,#0]
        0x00001486:    f0210140    !.@.    BIC      r1,r1,#0x40
        0x0000148a:    6001        .`      STR      r1,[r0,#0]
        0x0000148c:    6801        .h      LDR      r1,[r0,#0]
        0x0000148e:    f0410180    A...    ORR      r1,r1,#0x80
        0x00001492:    6001        .`      STR      r1,[r0,#0]
        0x00001494:    6801        .h      LDR      r1,[r0,#0]
        0x00001496:    f4217180    !..q    BIC      r1,r1,#0x100
        0x0000149a:    6001        .`      STR      r1,[r0,#0]
        0x0000149c:    9800        ..      LDR      r0,[sp,#0]
        0x0000149e:    f7fff82f    ../.    BL       Delay ; 0x500
        0x000014a2:    9801        ..      LDR      r0,[sp,#4]
        0x000014a4:    6801        .h      LDR      r1,[r0,#0]
        0x000014a6:    f0410140    A.@.    ORR      r1,r1,#0x40
        0x000014aa:    6001        .`      STR      r1,[r0,#0]
        0x000014ac:    6801        .h      LDR      r1,[r0,#0]
        0x000014ae:    f0210180    !...    BIC      r1,r1,#0x80
        0x000014b2:    6001        .`      STR      r1,[r0,#0]
        0x000014b4:    6801        .h      LDR      r1,[r0,#0]
        0x000014b6:    f4217180    !..q    BIC      r1,r1,#0x100
        0x000014ba:    6001        .`      STR      r1,[r0,#0]
        0x000014bc:    9800        ..      LDR      r0,[sp,#0]
        0x000014be:    f7fff81f    ....    BL       Delay ; 0x500
        0x000014c2:    9801        ..      LDR      r0,[sp,#4]
        0x000014c4:    6801        .h      LDR      r1,[r0,#0]
        0x000014c6:    f0210140    !.@.    BIC      r1,r1,#0x40
        0x000014ca:    6001        .`      STR      r1,[r0,#0]
        0x000014cc:    6801        .h      LDR      r1,[r0,#0]
        0x000014ce:    f0210180    !...    BIC      r1,r1,#0x80
        0x000014d2:    6001        .`      STR      r1,[r0,#0]
        0x000014d4:    6801        .h      LDR      r1,[r0,#0]
        0x000014d6:    f4217180    !..q    BIC      r1,r1,#0x100
        0x000014da:    6001        .`      STR      r1,[r0,#0]
        0x000014dc:    9800        ..      LDR      r0,[sp,#0]
        0x000014de:    f7fff80f    ....    BL       Delay ; 0x500
        0x000014e2:    9801        ..      LDR      r0,[sp,#4]
        0x000014e4:    6801        .h      LDR      r1,[r0,#0]
        0x000014e6:    f0410140    A.@.    ORR      r1,r1,#0x40
        0x000014ea:    6001        .`      STR      r1,[r0,#0]
        0x000014ec:    6801        .h      LDR      r1,[r0,#0]
        0x000014ee:    f0410180    A...    ORR      r1,r1,#0x80
        0x000014f2:    6001        .`      STR      r1,[r0,#0]
        0x000014f4:    6801        .h      LDR      r1,[r0,#0]
        0x000014f6:    f4417180    A..q    ORR      r1,r1,#0x100
        0x000014fa:    6001        .`      STR      r1,[r0,#0]
        0x000014fc:    9800        ..      LDR      r0,[sp,#0]
        0x000014fe:    f7feffff    ....    BL       Delay ; 0x500
        0x00001502:    b002        ..      ADD      sp,sp,#8
        0x00001504:    bd80        ..      POP      {r7,pc}
        0x00001506:    0000        ..      MOVS     r0,r0
    main
        0x00001508:    b580        ..      PUSH     {r7,lr}
        0x0000150a:    b082        ..      SUB      sp,sp,#8
        0x0000150c:    2000        .       MOVS     r0,#0
        0x0000150e:    9001        ..      STR      r0,[sp,#4]
        0x00001510:    f2400004    @...    MOVW     r0,#4
        0x00001514:    f2c20000    ....    MOVT     r0,#0x2000
        0x00001518:    f64a11fc    J...    MOV      r1,#0xa9fc
        0x0000151c:    f2c421c8    ...!    MOVT     r1,#0x42c8
        0x00001520:    6001        .`      STR      r1,[r0,#0]
        0x00001522:    f2410090    A...    MOV      r0,#0x1090
        0x00001526:    f2c20000    ....    MOVT     r0,#0x2000
        0x0000152a:    2101        .!      MOVS     r1,#1
        0x0000152c:    6001        .`      STR      r1,[r0,#0]
        0x0000152e:    f000f811    ....    BL       segger_init ; 0x1554
        0x00001532:    f7fff85d    ..].    BL       LED_GPIO_Config ; 0x5f0
        0x00001536:    e7ff        ..      B        0x1538 ; main + 48
        0x00001538:    f24151ce    A..Q    MOV      r1,#0x15ce
        0x0000153c:    f2c00100    ....    MOVT     r1,#0
        0x00001540:    2000        .       MOVS     r0,#0
        0x00001542:    f7fff91f    ....    BL       SEGGER_RTT_printf ; 0x784
        0x00001546:    e7ff        ..      B        0x1548 ; main + 64
        0x00001548:    e7ff        ..      B        0x154a ; main + 66
        0x0000154a:    f7ffff09    ....    BL       app ; 0x1360
        0x0000154e:    f7ffff29    ..).    BL       app2 ; 0x13a4
        0x00001552:    e7fa        ..      B        0x154a ; main + 66
    segger_init
        0x00001554:    b580        ..      PUSH     {r7,lr}
        0x00001556:    f7fff88f    ....    BL       SEGGER_RTT_Init ; 0x678
        0x0000155a:    e7ff        ..      B        0x155c ; segger_init + 8
        0x0000155c:    f24151f8    A..Q    MOV      r1,#0x15f8
        0x00001560:    f2c00100    ....    MOVT     r1,#0
        0x00001564:    f2416230    A.0b    MOV      r2,#0x1630
        0x00001568:    f2c00200    ....    MOVT     r2,#0
        0x0000156c:    f241632b    A.+c    MOV      r3,#0x162b
        0x00001570:    f2c00300    ....    MOVT     r3,#0
        0x00001574:    2000        .       MOVS     r0,#0
        0x00001576:    f7fff905    ....    BL       SEGGER_RTT_printf ; 0x784
        0x0000157a:    e7ff        ..      B        0x157c ; segger_init + 40
        0x0000157c:    e7ff        ..      B        0x157e ; segger_init + 42
        0x0000157e:    f24151e1    A..Q    MOV      r1,#0x15e1
        0x00001582:    f2c00100    ....    MOVT     r1,#0
        0x00001586:    f2416216    A..b    MOV      r2,#0x1616
        0x0000158a:    f2c00200    ....    MOVT     r2,#0
        0x0000158e:    f2416322    A."c    MOV      r3,#0x1622
        0x00001592:    f2c00300    ....    MOVT     r3,#0
        0x00001596:    2000        .       MOVS     r0,#0
        0x00001598:    f7fff8f4    ....    BL       SEGGER_RTT_printf ; 0x784
        0x0000159c:    e7ff        ..      B        0x159e ; segger_init + 74
        0x0000159e:    bd80        ..      POP      {r7,pc}
    $t
    i.__scatterload_copy
    __scatterload_copy
        0x000015a0:    e002        ..      B        0x15a8 ; __scatterload_copy + 8
        0x000015a2:    c808        ..      LDM      r0!,{r3}
        0x000015a4:    1f12        ..      SUBS     r2,r2,#4
        0x000015a6:    c108        ..      STM      r1!,{r3}
        0x000015a8:    2a00        .*      CMP      r2,#0
        0x000015aa:    d1fa        ..      BNE      0x15a2 ; __scatterload_copy + 2
        0x000015ac:    4770        pG      BX       lr
    i.__scatterload_null
    __scatterload_null
        0x000015ae:    4770        pG      BX       lr
    i.__scatterload_zeroinit
    __scatterload_zeroinit
        0x000015b0:    2000        .       MOVS     r0,#0
        0x000015b2:    e001        ..      B        0x15b8 ; __scatterload_zeroinit + 8
        0x000015b4:    c101        ..      STM      r1!,{r0}
        0x000015b6:    1f12        ..      SUBS     r2,r2,#4
        0x000015b8:    2a00        .*      CMP      r2,#0
        0x000015ba:    d1fb        ..      BNE      0x15b4 ; __scatterload_zeroinit + 4
        0x000015bc:    4770        pG      BX       lr
    $d.realdata
    _PrintUnsigned._aV2C
        0x000015be:    3130        01      DCW    12592
        0x000015c0:    35343332    2345    DCD    892613426
        0x000015c4:    39383736    6789    DCD    959985462
        0x000015c8:    44434241    ABCD    DCD    1145258561
        0x000015cc:    4645        EF      DCW    17989
    .L.str.6
        0x000015ce:    7270        pr      DCW    29296
        0x000015d0:    6172676f    ogra    DCD    1634887535
        0x000015d4:    6562206d    m be    DCD    1700929645
        0x000015d8:    2e6e6967    gin.    DCD    778987879
        0x000015dc:    0a0d2e2e    ....    DCD    168635950
        0x000015e0:    00          .       DCB    0
    .L.str.3
        0x000015e1:    636f6d      com     DCB    99,111,109
        0x000015e4:    656c6970    pile    DCD    1701603696
        0x000015e8:    69742064    d ti    DCD    1769218148
        0x000015ec:    203a656d    me:     DCD    540697965
        0x000015f0:    25207325    %s %    DCD    622883621
        0x000015f4:    000a0d73    s...    DCD    658803
    .L.str
        0x000015f8:    434d7325    %sMC    DCD    1129149221
        0x000015fc:    68632055    U ch    DCD    1751326805
        0x00001600:    203a7069    ip:     DCD    540700777
        0x00001604:    32335450    PT32    DCD    842224720
        0x00001608:    3239315a    Z192    DCD    842608986
        0x0000160c:    4d454420     DEM    DCD    1296385056
        0x00001610:    0d73254f    O%s.    DCD    225649999
        0x00001614:    000a        ..      DCW    10
    .L.str.4
        0x00001616:    614a        Ja      DCW    24906
        0x00001618:    3331206e    n 13    DCD    858857582
        0x0000161c:    32303220     202    DCD    842019360
        0x00001620:    0032        2.      DCW    50
    .L.str.5
        0x00001622:    3031        10      DCW    12337
        0x00001624:    3a33303a    :03:    DCD    976433210
        0x00001628:    3232        22      DCW    12850
        0x0000162a:    00          .       DCB    0
    .L.str.2
        0x0000162b:    1b          .       DCB    27
        0x0000162c:    006d305b    [0m.    DCD    7155803
    .L.str.1
        0x00001630:    3b345b1b    .[4;    DCD    993286939
        0x00001634:    006d3134    41m.    DCD    7156020
    .L.str.2
        0x00001638:    47474553    SEGG    DCD    1195853139
        0x0000163c:    5245        ER      DCW    21061
        0x0000163e:    00          .       DCB    0
    .L.str.1
        0x0000163f:    52          R       DCB    82
        0x00001640:    5454        TT      DCW    21588
        0x00001642:    00          .       DCB    0
    .L.str
        0x00001643:    54          T       DCB    84
        0x00001644:    696d7265    ermi    DCD    1768780389
        0x00001648:    006c616e    nal.    DCD    7102830
    Region$$Table$$Base
        0x0000164c:    00001670    p...    DCD    5744
        0x00001650:    20000000    ...     DCD    536870912
        0x00001654:    00000008    ....    DCD    8
        0x00001658:    000015a0    ....    DCD    5536
        0x0000165c:    00001678    x...    DCD    5752
        0x00001660:    20000008    ...     DCD    536870920
        0x00001664:    00001490    ....    DCD    5264
        0x00001668:    000015b0    ....    DCD    5552
    Region$$Table$$Limit

** Section #2 'RW_IRAM1' (SHT_PROGBITS) [SHF_ALLOC + SHF_WRITE]
    Size   : 8 bytes (alignment 8)
    Address: 0x20000000


** Section #3 'RW_IRAM1' (SHT_NOBITS) [SHF_ALLOC + SHF_WRITE]
    Size   : 5264 bytes (alignment 8)
    Address: 0x20000008


** Section #4 '.debug_abbrev' (SHT_PROGBITS)
    Size   : 1710 bytes


** Section #5 '.debug_frame' (SHT_PROGBITS)
    Size   : 3396 bytes


** Section #6 '.debug_info' (SHT_PROGBITS)
    Size   : 10912 bytes


** Section #7 '.debug_line' (SHT_PROGBITS)
    Size   : 10257 bytes


** Section #8 '.debug_str' (SHT_PROGBITS)
    Size   : 5610 bytes


** Section #9 '.debug_ranges' (SHT_PROGBITS)
    Size   : 904 bytes


** Section #10 '.symtab' (SHT_SYMTAB)
    Size   : 3296 bytes (alignment 4)
    String table #11 '.strtab'
    Last local symbol no. 110


** Section #11 '.strtab' (SHT_STRTAB)
    Size   : 2636 bytes


** Section #12 '.note' (SHT_NOTE)
    Size   : 28 bytes (alignment 4)


** Section #13 '.comment' (SHT_PROGBITS)
    Size   : 1436 bytes


** Section #14 '.shstrtab' (SHT_STRTAB)
    Size   : 136 bytes


