
========================================================================

** ELF Header Information

    File Name: d:\cccc2020\CODE\workspace\bfsk_stm32f103\embedded\test_fft\MDK\output\ramcode\ramcode.axf

    Machine class: ELFCLASS32 (32-bit)
    Data encoding: ELFDATA2LSB (Little endian)
    Header version: EV_CURRENT (Current version)
    Operating System ABI: none
    ABI Version: 0
    File Type: ET_EXEC (Executable) (2)
    Machine: EM_ARM (ARM)

    Image Entry point: 0x20000121
    Flags: EF_ARM_HASENTRY + EF_ARM_ABI_FLOAT_SOFT (0x05000202)

    ARM ELF revision: 5 (ABI version 2)

    Conforms to Soft float procedure-call standard

    Built with
    Component: ARM Compiler 6.16 Tool: armasm [5dfea300]
    Component: ARM Compiler 6.16 Tool: armlink [5dfeaa00]

    Header size: 52 bytes (0x34)
    Program header entry size: 32 bytes (0x20)
    Section header entry size: 40 bytes (0x28)

    Program header entries: 1
    Section header entries: 16

    Program header offset: 60916 (0x0000edf4)
    Section header offset: 60948 (0x0000ee14)

    Section header string table index: 15

========================================================================

** Program header #0 (PT_LOAD) [PF_X + PF_W + PF_R + PF_ARM_ENTRY]
    Size : 16688 bytes (7976 bytes in file)
    Virtual address: 0x20000000 (Alignment 8)


========================================================================

** Section #1 'ER_IROM1' (SHT_PROGBITS) [SHF_ALLOC + SHF_EXECINSTR]
    Size   : 7964 bytes (alignment 4)
    Address: 0x20000000

    $d.realdata
    RESET
    __Vectors
        0x20000000:    20004210    .B.     DCD    536887824
        0x20000004:    20000135    5..     DCD    536871221
        0x20000008:    2000013d    =..     DCD    536871229
        0x2000000c:    20001d25    %..     DCD    536878373
        0x20000010:    20000141    A..     DCD    536871233
        0x20000014:    20000143    C..     DCD    536871235
        0x20000018:    20000145    E..     DCD    536871237
        0x2000001c:    00000000    ....    DCD    0
        0x20000020:    00000000    ....    DCD    0
        0x20000024:    00000000    ....    DCD    0
        0x20000028:    00000000    ....    DCD    0
        0x2000002c:    20000147    G..     DCD    536871239
        0x20000030:    20000149    I..     DCD    536871241
        0x20000034:    00000000    ....    DCD    0
        0x20000038:    2000014b    K..     DCD    536871243
        0x2000003c:    20001845    E..     DCD    536877125
        0x20000040:    2000014f    O..     DCD    536871247
        0x20000044:    2000014f    O..     DCD    536871247
        0x20000048:    2000014f    O..     DCD    536871247
        0x2000004c:    2000014f    O..     DCD    536871247
        0x20000050:    2000014f    O..     DCD    536871247
        0x20000054:    2000014f    O..     DCD    536871247
        0x20000058:    2000014f    O..     DCD    536871247
        0x2000005c:    2000014f    O..     DCD    536871247
        0x20000060:    2000014f    O..     DCD    536871247
        0x20000064:    2000014f    O..     DCD    536871247
        0x20000068:    2000014f    O..     DCD    536871247
        0x2000006c:    2000014f    O..     DCD    536871247
        0x20000070:    2000014f    O..     DCD    536871247
        0x20000074:    2000014f    O..     DCD    536871247
        0x20000078:    2000014f    O..     DCD    536871247
        0x2000007c:    2000014f    O..     DCD    536871247
        0x20000080:    2000014f    O..     DCD    536871247
        0x20000084:    2000014f    O..     DCD    536871247
        0x20000088:    2000014f    O..     DCD    536871247
        0x2000008c:    00000000    ....    DCD    0
        0x20000090:    00000000    ....    DCD    0
        0x20000094:    00000000    ....    DCD    0
        0x20000098:    00000000    ....    DCD    0
        0x2000009c:    2000014f    O..     DCD    536871247
        0x200000a0:    2000014f    O..     DCD    536871247
        0x200000a4:    2000014f    O..     DCD    536871247
        0x200000a8:    2000014f    O..     DCD    536871247
        0x200000ac:    2000014f    O..     DCD    536871247
        0x200000b0:    2000014f    O..     DCD    536871247
        0x200000b4:    2000014f    O..     DCD    536871247
        0x200000b8:    2000014f    O..     DCD    536871247
        0x200000bc:    2000014f    O..     DCD    536871247
        0x200000c0:    2000014f    O..     DCD    536871247
        0x200000c4:    2000014f    O..     DCD    536871247
        0x200000c8:    2000014f    O..     DCD    536871247
        0x200000cc:    2000014f    O..     DCD    536871247
        0x200000d0:    2000014f    O..     DCD    536871247
        0x200000d4:    2000014f    O..     DCD    536871247
        0x200000d8:    2000014f    O..     DCD    536871247
        0x200000dc:    2000014f    O..     DCD    536871247
        0x200000e0:    2000014f    O..     DCD    536871247
        0x200000e4:    2000014f    O..     DCD    536871247
        0x200000e8:    2000014f    O..     DCD    536871247
        0x200000ec:    00000000    ....    DCD    0
        0x200000f0:    00000000    ....    DCD    0
        0x200000f4:    00000000    ....    DCD    0
        0x200000f8:    00000000    ....    DCD    0
        0x200000fc:    00000000    ....    DCD    0
        0x20000100:    00000000    ....    DCD    0
        0x20000104:    00000000    ....    DCD    0
        0x20000108:    00000000    ....    DCD    0
        0x2000010c:    00000000    ....    DCD    0
        0x20000110:    00000000    ....    DCD    0
        0x20000114:    00000000    ....    DCD    0
        0x20000118:    2000014f    O..     DCD    536871247
        0x2000011c:    2000014f    O..     DCD    536871247
    $t
    .ARM.Collect$$$$00000000
    .ARM.Collect$$$$00000001
    __Vectors_End
    __main
    _main_stk
        0x20000120:    f8dfd00c    ....    LDR      sp,__lit__00000000 ; [0x20000130] = 0x20004210
    .ARM.Collect$$$$00000004
    _main_scatterload
        0x20000124:    f001f930    ..0.    BL       __scatterload ; 0x20001388
    .ARM.Collect$$$$00000008
    .ARM.Collect$$$$0000000A
    .ARM.Collect$$$$0000000B
    __main_after_scatterload
    _main_clock
    _main_cpp_init
    _main_init
        0x20000128:    4800        .H      LDR      r0,[pc,#0] ; [0x2000012c] = 0x20001c61
        0x2000012a:    4700        .G      BX       r0
    $d
        0x2000012c:    20001c61    a..     DCD    536878177
    .ARM.Collect$$$$00002712
    __lit__00000000
    .ARM.Collect$$$$0000000D
    .ARM.Collect$$$$0000000F
    __rt_final_cpp
    __rt_final_exit
        0x20000130:    20004210    .B.     DCD    536887824
    $t
    .text
    Reset_Handler
        0x20000134:    4806        .H      LDR      r0,[pc,#24] ; [0x20000150] = 0x20001889
        0x20000136:    4780        .G      BLX      r0
        0x20000138:    4806        .H      LDR      r0,[pc,#24] ; [0x20000154] = 0x20000121
        0x2000013a:    4700        .G      BX       r0
    NMI_Handler
        0x2000013c:    e7fe        ..      B        NMI_Handler ; 0x2000013c
        0x2000013e:    e7fe        ..      B        0x2000013e ; NMI_Handler + 2
    MemManage_Handler
        0x20000140:    e7fe        ..      B        MemManage_Handler ; 0x20000140
    BusFault_Handler
        0x20000142:    e7fe        ..      B        BusFault_Handler ; 0x20000142
    UsageFault_Handler
        0x20000144:    e7fe        ..      B        UsageFault_Handler ; 0x20000144
    SVC_Handler
        0x20000146:    e7fe        ..      B        SVC_Handler ; 0x20000146
    DebugMon_Handler
        0x20000148:    e7fe        ..      B        DebugMon_Handler ; 0x20000148
    PendSV_Handler
        0x2000014a:    e7fe        ..      B        PendSV_Handler ; 0x2000014a
        0x2000014c:    e7fe        ..      B        0x2000014c ; PendSV_Handler + 2
    ADC1_IRQHandler
    CEC_IRQHandler
    DMA1_Channel1_IRQHandler
    DMA1_Channel2_IRQHandler
    DMA1_Channel3_IRQHandler
    DMA1_Channel4_IRQHandler
    DMA1_Channel5_IRQHandler
    DMA1_Channel6_IRQHandler
    DMA1_Channel7_IRQHandler
    EXTI0_IRQHandler
    EXTI15_10_IRQHandler
    EXTI1_IRQHandler
    EXTI2_IRQHandler
    EXTI3_IRQHandler
    EXTI4_IRQHandler
    EXTI9_5_IRQHandler
    FLASH_IRQHandler
    I2C1_ER_IRQHandler
    I2C1_EV_IRQHandler
    I2C2_ER_IRQHandler
    I2C2_EV_IRQHandler
    PVD_IRQHandler
    RCC_IRQHandler
    RTCAlarm_IRQHandler
    RTC_IRQHandler
    SPI1_IRQHandler
    SPI2_IRQHandler
    TAMPER_IRQHandler
    TIM1_BRK_TIM15_IRQHandler
    TIM1_CC_IRQHandler
    TIM1_TRG_COM_TIM17_IRQHandler
    TIM1_UP_TIM16_IRQHandler
    TIM2_IRQHandler
    TIM3_IRQHandler
    TIM4_IRQHandler
    TIM6_DAC_IRQHandler
    TIM7_IRQHandler
    USART1_IRQHandler
    USART2_IRQHandler
    USART3_IRQHandler
    WWDG_IRQHandler
        0x2000014e:    e7fe        ..      B        ADC1_IRQHandler ; 0x2000014e
    $d
        0x20000150:    20001889    ...     DCD    536877193
        0x20000154:    20000121    !..     DCD    536871201
    $t
    .text
    cr4_fft_1024_stm32
        0x20000158:    e92d4ff0    -..O    PUSH     {r4-r11,lr}
        0x2000015c:    f04f0c00    O...    MOV      r12,#0
        0x20000160:    f04f0300    O...    MOV      r3,#0
        0x20000164:    eb015e9c    ...^    ADD      lr,r1,r12,LSR #22
        0x20000168:    f9be5002    ...P    LDRSH    r5,[lr,#2]
        0x2000016c:    f9be4000    ...@    LDRSH    r4,[lr,#0]
        0x20000170:    f50e6e80    ...n    ADD      lr,lr,#0x400
        0x20000174:    f9be9002    ....    LDRSH    r9,[lr,#2]
        0x20000178:    f9be8000    ....    LDRSH    r8,[lr,#0]
        0x2000017c:    f50e6e80    ...n    ADD      lr,lr,#0x400
        0x20000180:    f9be7002    ...p    LDRSH    r7,[lr,#2]
        0x20000184:    f9be6000    ...`    LDRSH    r6,[lr,#0]
        0x20000188:    f50e6e80    ...n    ADD      lr,lr,#0x400
        0x2000018c:    f9beb002    ....    LDRSH    r11,[lr,#2]
        0x20000190:    f9bea000    ....    LDRSH    r10,[lr,#0]
        0x20000194:    f50e6e80    ...n    ADD      lr,lr,#0x400
        0x20000198:    44d0        .D      ADD      r8,r8,r10
        0x2000019a:    44d9        .D      ADD      r9,r9,r11
        0x2000019c:    eba80a4a    ..J.    SUB      r10,r8,r10,LSL #1
        0x200001a0:    eba90b4b    ..K.    SUB      r11,r9,r11,LSL #1
        0x200001a4:    ea4f04a4    O...    ASR      r4,r4,#2
        0x200001a8:    ea4f05a5    O...    ASR      r5,r5,#2
        0x200001ac:    eb0404a6    ....    ADD      r4,r4,r6,ASR #2
        0x200001b0:    eb0505a7    ....    ADD      r5,r5,r7,ASR #2
        0x200001b4:    eba40666    ..f.    SUB      r6,r4,r6,ASR #1
        0x200001b8:    eba50767    ..g.    SUB      r7,r5,r7,ASR #1
        0x200001bc:    eb0404a8    ....    ADD      r4,r4,r8,ASR #2
        0x200001c0:    eb0505a9    ....    ADD      r5,r5,r9,ASR #2
        0x200001c4:    eba40868    ..h.    SUB      r8,r4,r8,ASR #1
        0x200001c8:    eba50969    ..i.    SUB      r9,r5,r9,ASR #1
        0x200001cc:    eb0606ab    ....    ADD      r6,r6,r11,ASR #2
        0x200001d0:    eba707aa    ....    SUB      r7,r7,r10,ASR #2
        0x200001d4:    eba60b6b    ..k.    SUB      r11,r6,r11,ASR #1
        0x200001d8:    eb070a6a    ..j.    ADD      r10,r7,r10,ASR #1
        0x200001dc:    8045        E.      STRH     r5,[r0,#2]
        0x200001de:    f8204b04     ..K    STRH     r4,[r0],#4
        0x200001e2:    8047        G.      STRH     r7,[r0,#2]
        0x200001e4:    f8206b04     ..k    STRH     r6,[r0],#4
        0x200001e8:    f8a09002    ....    STRH     r9,[r0,#2]
        0x200001ec:    f8208b04     ...    STRH     r8,[r0],#4
        0x200001f0:    f8a0a002    ....    STRH     r10,[r0,#2]
        0x200001f4:    f820bb04     ...    STRH     r11,[r0],#4
        0x200001f8:    f1030301    ....    ADD      r3,r3,#1
        0x200001fc:    fa93fca3    ....    RBIT     r12,r3
        0x20000200:    f5b37f80    ....    CMP      r3,#0x100
        0x20000204:    d1ae        ..      BNE      0x20000164 ; cr4_fft_1024_stm32 + 12
        0x20000206:    eba00182    ....    SUB      r1,r0,r2,LSL #2
        0x2000020a:    f04f0310    O...    MOV      r3,#0x10
        0x2000020e:    0912        ..      LSRS     r2,r2,#4
        0x20000210:    f20f1034    ..4.    ADR.W    r0,{pc}+0x138 ; 0x20000348
        0x20000214:    f1000000    ....    ADD      r0,r0,#0
        0x20000218:    b406        ..      PUSH     {r1,r2}
        0x2000021a:    eb030c43    ..C.    ADD      r12,r3,r3,LSL #1
        0x2000021e:    4461        aD      ADD      r1,r1,r12
        0x20000220:    f5a23280    ...2    SUB      r2,r2,#0x10000
        0x20000224:    eb023283    ...2    ADD      r2,r2,r3,LSL #14
        0x20000228:    f9b15002    ...P    LDRSH    r5,[r1,#2]
        0x2000022c:    f9b14000    ...@    LDRSH    r4,[r1,#0]
        0x20000230:    eba10103    ....    SUB      r1,r1,r3
        0x20000234:    f9b0b002    ....    LDRSH    r11,[r0,#2]
        0x20000238:    f9b0a000    ....    LDRSH    r10,[r0,#0]
        0x2000023c:    f1000004    ....    ADD      r0,r0,#4
        0x20000240:    eba50e04    ....    SUB      lr,r5,r4
        0x20000244:    fb0efc0b    ....    MUL      r12,lr,r11
        0x20000248:    eb0a0e4b    ..K.    ADD      lr,r10,r11,LSL #1
        0x2000024c:    fb05cb0a    ....    MLA      r11,r5,r10,r12
        0x20000250:    fb04ca0e    ....    MLA      r10,r4,lr,r12
        0x20000254:    f9b15002    ...P    LDRSH    r5,[r1,#2]
        0x20000258:    f9b14000    ...@    LDRSH    r4,[r1,#0]
        0x2000025c:    eba10103    ....    SUB      r1,r1,r3
        0x20000260:    f9b09002    ....    LDRSH    r9,[r0,#2]
        0x20000264:    f9b08000    ....    LDRSH    r8,[r0,#0]
        0x20000268:    f1000004    ....    ADD      r0,r0,#4
        0x2000026c:    eba50e04    ....    SUB      lr,r5,r4
        0x20000270:    fb0efc09    ....    MUL      r12,lr,r9
        0x20000274:    eb080e49    ..I.    ADD      lr,r8,r9,LSL #1
        0x20000278:    fb05c908    ....    MLA      r9,r5,r8,r12
        0x2000027c:    fb04c80e    ....    MLA      r8,r4,lr,r12
        0x20000280:    f9b15002    ...P    LDRSH    r5,[r1,#2]
        0x20000284:    f9b14000    ...@    LDRSH    r4,[r1,#0]
        0x20000288:    eba10103    ....    SUB      r1,r1,r3
        0x2000028c:    f9b07002    ...p    LDRSH    r7,[r0,#2]
        0x20000290:    f9b06000    ...`    LDRSH    r6,[r0,#0]
        0x20000294:    f1000004    ....    ADD      r0,r0,#4
        0x20000298:    eba50e04    ....    SUB      lr,r5,r4
        0x2000029c:    fb0efc07    ....    MUL      r12,lr,r7
        0x200002a0:    eb060e47    ..G.    ADD      lr,r6,r7,LSL #1
        0x200002a4:    fb05c706    ....    MLA      r7,r5,r6,r12
        0x200002a8:    fb04c60e    ....    MLA      r6,r4,lr,r12
        0x200002ac:    f9b15002    ...P    LDRSH    r5,[r1,#2]
        0x200002b0:    f9b14000    ...@    LDRSH    r4,[r1,#0]
        0x200002b4:    f1010100    ....    ADD      r1,r1,#0
        0x200002b8:    44d0        .D      ADD      r8,r8,r10
        0x200002ba:    44d9        .D      ADD      r9,r9,r11
        0x200002bc:    eba80a4a    ..J.    SUB      r10,r8,r10,LSL #1
        0x200002c0:    eba90b4b    ..K.    SUB      r11,r9,r11,LSL #1
        0x200002c4:    ea4f04a4    O...    ASR      r4,r4,#2
        0x200002c8:    ea4f05a5    O...    ASR      r5,r5,#2
        0x200002cc:    eb044426    ..&D    ADD      r4,r4,r6,ASR #16
        0x200002d0:    eb054527    ..'E    ADD      r5,r5,r7,ASR #16
        0x200002d4:    eba436e6    ...6    SUB      r6,r4,r6,ASR #15
        0x200002d8:    eba537e7    ...7    SUB      r7,r5,r7,ASR #15
        0x200002dc:    eb044428    ..(D    ADD      r4,r4,r8,ASR #16
        0x200002e0:    eb054529    ..)E    ADD      r5,r5,r9,ASR #16
        0x200002e4:    eba438e8    ...8    SUB      r8,r4,r8,ASR #15
        0x200002e8:    eba539e9    ...9    SUB      r9,r5,r9,ASR #15
        0x200002ec:    eb06462b    ..+F    ADD      r6,r6,r11,ASR #16
        0x200002f0:    eba7472a    ..*G    SUB      r7,r7,r10,ASR #16
        0x200002f4:    eba63beb    ...;    SUB      r11,r6,r11,ASR #15
        0x200002f8:    eb073aea    ...:    ADD      r10,r7,r10,ASR #15
        0x200002fc:    804d        M.      STRH     r5,[r1,#2]
        0x200002fe:    800c        ..      STRH     r4,[r1,#0]
        0x20000300:    4419        .D      ADD      r1,r1,r3
        0x20000302:    804f        O.      STRH     r7,[r1,#2]
        0x20000304:    800e        ..      STRH     r6,[r1,#0]
        0x20000306:    4419        .D      ADD      r1,r1,r3
        0x20000308:    f8a19002    ....    STRH     r9,[r1,#2]
        0x2000030c:    f8a18000    ....    STRH     r8,[r1,#0]
        0x20000310:    4419        .D      ADD      r1,r1,r3
        0x20000312:    f8a1a002    ....    STRH     r10,[r1,#2]
        0x20000316:    f821bb04    !...    STRH     r11,[r1],#4
        0x2000031a:    f5b23280    ...2    SUBS     r2,r2,#0x10000
        0x2000031e:    da83        ..      BGE      0x20000228 ; cr4_fft_1024_stm32 + 208
        0x20000320:    eb030c43    ..C.    ADD      r12,r3,r3,LSL #1
        0x20000324:    4461        aD      ADD      r1,r1,r12
        0x20000326:    f1a20201    ....    SUB      r2,r2,#1
        0x2000032a:    ea5f4e02    _..N    LSLS     lr,r2,#16
        0x2000032e:    bf18        ..      IT       NE
        0x20000330:    eba0000c    ....    SUBNE    r0,r0,r12
        0x20000334:    f47faf76    ..v.    BNE      0x20000224 ; cr4_fft_1024_stm32 + 204
        0x20000338:    bc06        ..      POP      {r1,r2}
        0x2000033a:    ea4f0383    O...    LSL      r3,r3,#2
        0x2000033e:    0892        ..      LSRS     r2,r2,#2
        0x20000340:    f47faf6a    ..j.    BNE      0x20000218 ; cr4_fft_1024_stm32 + 192
        0x20000344:    e8bd8ff0    ....    POP      {r4-r11,pc}
    $d
        0x20000348:    00004000    .@..    DCD    16384
        0x2000034c:    00004000    .@..    DCD    16384
        0x20000350:    00004000    .@..    DCD    16384
        0x20000354:    3b21dd5d    ].!;    DCD    992075101
        0x20000358:    187e22a3    ."~.    DCD    410919587
        0x2000035c:    2d410000    ..A-    DCD    759234560
        0x20000360:    2d41a57e    ~.A-    DCD    759276926
        0x20000364:    2d410000    ..A-    DCD    759234560
        0x20000368:    4000c000    ...@    DCD    1073790976
        0x2000036c:    e782dd5d    ]...    DCD    3884113245
        0x20000370:    3b21dd5d    ].!;    DCD    992075101
        0x20000374:    2d41a57e    ~.A-    DCD    759276926
        0x20000378:    00004000    .@..    DCD    16384
        0x2000037c:    00004000    .@..    DCD    16384
        0x20000380:    00004000    .@..    DCD    16384
        0x20000384:    12942aaa    .*..    DCD    311700138
        0x20000388:    0646396b    k9F.    DCD    105265515
        0x2000038c:    0c7c3249    I2|.    DCD    209465929
        0x20000390:    238e11a8    ...#    DCD    596513192
        0x20000394:    0c7c3249    I2|.    DCD    209465929
        0x20000398:    187e22a3    ."~.    DCD    410919587
        0x2000039c:    3179f721    !.y1    DCD    830076705
        0x200003a0:    12942aaa    .*..    DCD    311700138
        0x200003a4:    238e11a8    ...#    DCD    596513192
        0x200003a8:    3b21dd5d    ].!;    DCD    992075101
        0x200003ac:    187e22a3    ."~.    DCD    410919587
        0x200003b0:    2d410000    ..A-    DCD    759234560
        0x200003b4:    3fb1c695    ...?    DCD    1068615317
        0x200003b8:    1e2b1a46    F.+.    DCD    506141254
        0x200003bc:    3537ee58    X.75    DCD    892857944
        0x200003c0:    3ec5b4be    ...>    DCD    1053144254
        0x200003c4:    238e11a8    ...#    DCD    596513192
        0x200003c8:    3b21dd5d    ].!;    DCD    992075101
        0x200003cc:    3871a963    c.q8    DCD    946973027
        0x200003d0:    289a08df    ...(    DCD    681183455
        0x200003d4:    3ec5cdb7    ...>    DCD    1053150647
        0x200003d8:    2d41a57e    ~.A-    DCD    759276926
        0x200003dc:    2d410000    ..A-    DCD    759234560
        0x200003e0:    4000c000    ...@    DCD    1073790976
        0x200003e4:    1e2ba963    c.+.    DCD    506177891
        0x200003e8:    3179f721    !.y1    DCD    830076705
        0x200003ec:    3ec5b4be    ...>    DCD    1053144254
        0x200003f0:    0c7cb4be    ..|.    DCD    209499326
        0x200003f4:    3537ee58    X.75    DCD    892857944
        0x200003f8:    3b21ac61    a.!;    DCD    992062561
        0x200003fc:    f9bac695    ....    DCD    4189767317
        0x20000400:    3871e5ba    ..q8    DCD    946988474
        0x20000404:    3537a73b    ;.75    DCD    892839739
        0x20000408:    e782dd5d    ]...    DCD    3884113245
        0x2000040c:    3b21dd5d    ].!;    DCD    992075101
        0x20000410:    2d41a57e    ~.A-    DCD    759276926
        0x20000414:    d766f721    !.f.    DCD    3613849377
        0x20000418:    3d3fd556    V.?=    DCD    1027593558
        0x2000041c:    238ea73b    ;..#    DCD    596551483
        0x20000420:    cac911a8    ....    DCD    3402174888
        0x20000424:    3ec5cdb7    ...>    DCD    1053150647
        0x20000428:    187eac61    a.~.    DCD    410954849
        0x2000042c:    c2c12aaa    .*..    DCD    3267439274
        0x20000430:    3fb1c695    ...?    DCD    1068615317
        0x20000434:    0c7cb4be    ..|.    DCD    209499326
        0x20000438:    00004000    .@..    DCD    16384
        0x2000043c:    00004000    .@..    DCD    16384
        0x20000440:    00004000    .@..    DCD    16384
        0x20000444:    04b53b1e    .;..    DCD    78986014
        0x20000448:    01923e69    i>..    DCD    26361449
        0x2000044c:    03243cc8    .<$.    DCD    52706504
        0x20000450:    096435eb    .5d.    DCD    157562347
        0x20000454:    03243cc8    .<$.    DCD    52706504
        0x20000458:    0646396b    k9F.    DCD    105265515
        0x2000045c:    0e06306c    l0..    DCD    235286636
        0x20000460:    04b53b1e    .;..    DCD    78986014
        0x20000464:    096435eb    .5d.    DCD    157562347
        0x20000468:    12942aaa    .*..    DCD    311700138
        0x2000046c:    0646396b    k9F.    DCD    105265515
        0x20000470:    0c7c3249    I2|.    DCD    209465929
        0x20000474:    170924ae    .$..    DCD    386475182
        0x20000478:    07d637af    .7..    DCD    131479471
        0x2000047c:    0f8d2e88    ....    DCD    260910728
        0x20000480:    1b5d1e7e    ~.].    DCD    459087486
        0x20000484:    096435eb    .5d.    DCD    157562347
        0x20000488:    12942aaa    .*..    DCD    311700138
        0x2000048c:    1f8c1824    $...    DCD    529274916
        0x20000490:    0af1341e    .4..    DCD    183579678
        0x20000494:    159026b3    .&..    DCD    361768627
        0x20000498:    238e11a8    ...#    DCD    596513192
        0x2000049c:    0c7c3249    I2|.    DCD    209465929
        0x200004a0:    187e22a3    ."~.    DCD    410919587
        0x200004a4:    27600b14    ..`'    DCD    660605716
        0x200004a8:    0e06306c    l0..    DCD    235286636
        0x200004ac:    1b5d1e7e    ~.].    DCD    459087486
        0x200004b0:    2afb0471    q..*    DCD    721093745
        0x200004b4:    0f8d2e88    ....    DCD    260910728
        0x200004b8:    1e2b1a46    F.+.    DCD    506141254
        0x200004bc:    2e5afdc7    ..Z.    DCD    777715143
        0x200004c0:    11122c9d    .,..    DCD    286403741
        0x200004c4:    20e715fe    ...     DCD    552015358
        0x200004c8:    3179f721    !.y1    DCD    830076705
        0x200004cc:    12942aaa    .*..    DCD    311700138
        0x200004d0:    238e11a8    ...#    DCD    596513192
        0x200004d4:    3453f087    ..S4    DCD    877916295
        0x200004d8:    141328b2    .(..    DCD    336799922
        0x200004dc:    26200d48    H. &    DCD    639634760
        0x200004e0:    36e5ea02    ...6    DCD    921037314
        0x200004e4:    159026b3    .&..    DCD    361768627
        0x200004e8:    289a08df    ...(    DCD    681183455
        0x200004ec:    392be39c    ..+9    DCD    959177628
        0x200004f0:    170924ae    .$..    DCD    386475182
        0x200004f4:    2afb0471    q..*    DCD    721093745
        0x200004f8:    3b21dd5d    ].!;    DCD    992075101
        0x200004fc:    187e22a3    ."~.    DCD    410919587
        0x20000500:    2d410000    ..A-    DCD    759234560
        0x20000504:    3cc5d74e    N..<    DCD    1019598670
        0x20000508:    19ef2093    . ..    DCD    435101843
        0x2000050c:    2f6cfb8f    ..l/    DCD    795671439
        0x20000510:    3e15d178    x..>    DCD    1041617272
        0x20000514:    1b5d1e7e    ~.].    DCD    459087486
        0x20000518:    3179f721    !.y1    DCD    830076705
        0x2000051c:    3f0fcbe2    ...?    DCD    1057999842
        0x20000520:    1cc61c64    d...    DCD    482745444
        0x20000524:    3368f2b8    ..h3    DCD    862515896
        0x20000528:    3fb1c695    ...?    DCD    1068615317
        0x2000052c:    1e2b1a46    F.+.    DCD    506141254
        0x20000530:    3537ee58    X.75    DCD    892857944
        0x20000534:    3ffbc197    ...?    DCD    1073463703
        0x20000538:    1f8c1824    $...    DCD    529274916
        0x2000053c:    36e5ea02    ...6    DCD    921037314
        0x20000540:    3fecbcf0    ...?    DCD    1072479472
        0x20000544:    20e715fe    ...     DCD    552015358
        0x20000548:    3871e5ba    ..q8    DCD    946988474
        0x2000054c:    3f85b8a6    ...?    DCD    1065728166
        0x20000550:    223d13d5    ..="    DCD    574428117
        0x20000554:    39dbe182    ...9    DCD    970711426
        0x20000558:    3ec5b4be    ...>    DCD    1053144254
        0x2000055c:    238e11a8    ...#    DCD    596513192
        0x20000560:    3b21dd5d    ].!;    DCD    992075101
        0x20000564:    3dafb140    @..=    DCD    1034924352
        0x20000568:    24da0f79    y..$    DCD    618270585
        0x2000056c:    3c42d94d    M.B<    DCD    1011013965
        0x20000570:    3c42ae2e    ..B<    DCD    1011002926
        0x20000574:    26200d48    H. &    DCD    639634760
        0x20000578:    3d3fd556    V.?=    DCD    1027593558
        0x2000057c:    3a82ab8e    ...:    DCD    981642126
        0x20000580:    27600b14    ..`'    DCD    660605716
        0x20000584:    3e15d178    x..>    DCD    1041617272
        0x20000588:    3871a963    c.q8    DCD    946973027
        0x2000058c:    289a08df    ...(    DCD    681183455
        0x20000590:    3ec5cdb7    ...>    DCD    1053150647
        0x20000594:    3612a7b1    ...6    DCD    907192241
        0x20000598:    29ce06a9    ...)    DCD    701367977
        0x2000059c:    3f4fca15    ..O?    DCD    1062193685
        0x200005a0:    3368a678    x.h3    DCD    862496376
        0x200005a4:    2afb0471    q..*    DCD    721093745
        0x200005a8:    3fb1c695    ...?    DCD    1068615317
        0x200005ac:    3076a5bc    ..v0    DCD    813082044
        0x200005b0:    2c210239    9.!,    DCD    740360761
        0x200005b4:    3fecc338    8..?    DCD    1072481080
        0x200005b8:    2d41a57e    ~.A-    DCD    759276926
        0x200005bc:    2d410000    ..A-    DCD    759234560
        0x200005c0:    4000c000    ...@    DCD    1073790976
        0x200005c4:    29cea5bc    ...)    DCD    701408700
        0x200005c8:    2e5afdc7    ..Z.    DCD    777715143
        0x200005cc:    3fecbcf0    ...?    DCD    1072479472
        0x200005d0:    2620a678    x. &    DCD    639673976
        0x200005d4:    2f6cfb8f    ..l/    DCD    795671439
        0x200005d8:    3fb1ba09    ...?    DCD    1068612105
        0x200005dc:    223da7b1    ..="    DCD    574465969
        0x200005e0:    3076f957    W.v0    DCD    813103447
        0x200005e4:    3f4fb74d    M.O?    DCD    1062188877
        0x200005e8:    1e2ba963    c.+.    DCD    506177891
        0x200005ec:    3179f721    !.y1    DCD    830076705
        0x200005f0:    3ec5b4be    ...>    DCD    1053144254
        0x200005f4:    19efab8e    ....    DCD    435137422
        0x200005f8:    3274f4ec    ..t2    DCD    846525676
        0x200005fc:    3e15b25e    ^..>    DCD    1041609310
        0x20000600:    1590ae2e    ....    DCD    361803310
        0x20000604:    3368f2b8    ..h3    DCD    862515896
        0x20000608:    3d3fb02d    -.?=    DCD    1027584045
        0x2000060c:    1112b140    @...    DCD    286437696
        0x20000610:    3453f087    ..S4    DCD    877916295
        0x20000614:    3c42ae2e    ..B<    DCD    1011002926
        0x20000618:    0c7cb4be    ..|.    DCD    209499326
        0x2000061c:    3537ee58    X.75    DCD    892857944
        0x20000620:    3b21ac61    a.!;    DCD    992062561
        0x20000624:    07d6b8a6    ....    DCD    131512486
        0x20000628:    3612ec2b    +..6    DCD    907209771
        0x2000062c:    39dbaac8    ...9    DCD    970697416
        0x20000630:    0324bcf0    ..$.    DCD    52739312
        0x20000634:    36e5ea02    ...6    DCD    921037314
        0x20000638:    3871a963    c.q8    DCD    946973027
        0x2000063c:    fe6ec197    ..n.    DCD    4268671383
        0x20000640:    37b0e7dc    ...7    DCD    934340572
        0x20000644:    36e5a834    4..6    DCD    921020468
        0x20000648:    f9bac695    ....    DCD    4189767317
        0x2000064c:    3871e5ba    ..q8    DCD    946988474
        0x20000650:    3537a73b    ;.75    DCD    892839739
        0x20000654:    f50fcbe2    ....    DCD    4111453154
        0x20000658:    392be39c    ..+9    DCD    959177628
        0x2000065c:    3368a678    x.h3    DCD    862496376
        0x20000660:    f073d178    x.s.    DCD    4034122104
        0x20000664:    39dbe182    ...9    DCD    970711426
        0x20000668:    3179a5ed    ..y1    DCD    830055917
        0x2000066c:    ebedd74e    N...    DCD    3958232910
        0x20000670:    3a82df6d    m..:    DCD    981655405
        0x20000674:    2f6ca599    ..l/    DCD    795649433
        0x20000678:    e782dd5d    ]...    DCD    3884113245
        0x2000067c:    3b21dd5d    ].!;    DCD    992075101
        0x20000680:    2d41a57e    ~.A-    DCD    759276926
        0x20000684:    e33ae39c    ..:.    DCD    3812287388
        0x20000688:    3bb6db52    R..;    DCD    1001839442
        0x2000068c:    2afba599    ...*    DCD    721135001
        0x20000690:    df19ea02    ....    DCD    3743017474
        0x20000694:    3c42d94d    M.B<    DCD    1011013965
        0x20000698:    289aa5ed    ...(    DCD    681223661
        0x2000069c:    db26f087    ..&.    DCD    3676762247
        0x200006a0:    3cc5d74e    N..<    DCD    1019598670
        0x200006a4:    2620a678    x. &    DCD    639673976
        0x200006a8:    d766f721    !.f.    DCD    3613849377
        0x200006ac:    3d3fd556    V.?=    DCD    1027593558
        0x200006b0:    238ea73b    ;..#    DCD    596551483
        0x200006b4:    d3dffdc7    ....    DCD    3554672071
        0x200006b8:    3dafd363    c..=    DCD    1034933091
        0x200006bc:    20e7a834    4..     DCD    552052788
        0x200006c0:    d0940471    q...    DCD    3499361393
        0x200006c4:    3e15d178    x..>    DCD    1041617272
        0x200006c8:    1e2ba963    c.+.    DCD    506177891
        0x200006cc:    cd8c0b14    ....    DCD    3448507156
        0x200006d0:    3e72cf94    ..r>    DCD    1047711636
        0x200006d4:    1b5daac8    ..].    DCD    459123400
        0x200006d8:    cac911a8    ....    DCD    3402174888
        0x200006dc:    3ec5cdb7    ...>    DCD    1053150647
        0x200006e0:    187eac61    a.~.    DCD    410954849
        0x200006e4:    c8501824    $.P.    DCD    3360692260
        0x200006e8:    3f0fcbe2    ...?    DCD    1057999842
        0x200006ec:    1590ae2e    ....    DCD    361803310
        0x200006f0:    c6251e7e    ~.%.    DCD    3324321406
        0x200006f4:    3f4fca15    ..O?    DCD    1062193685
        0x200006f8:    1294b02d    -...    DCD    311734317
        0x200006fc:    c44a24ae    .$J.    DCD    3293193390
        0x20000700:    3f85c851    Q..?    DCD    1065732177
        0x20000704:    0f8db25e    ^...    DCD    260944478
        0x20000708:    c2c12aaa    .*..    DCD    3267439274
        0x2000070c:    3fb1c695    ...?    DCD    1068615317
        0x20000710:    0c7cb4be    ..|.    DCD    209499326
        0x20000714:    c18e306c    l0..    DCD    3247321196
        0x20000718:    3fd4c4e2    ...?    DCD    1070908642
        0x2000071c:    0964b74d    M.d.    DCD    157595469
        0x20000720:    c0b135eb    .5..    DCD    3232839147
        0x20000724:    3fecc338    8..?    DCD    1072481080
        0x20000728:    0646ba09    ..F.    DCD    105298441
        0x2000072c:    c02c3b1e    .;,.    DCD    3224124190
        0x20000730:    3ffbc197    ...?    DCD    1073463703
        0x20000734:    0324bcf0    ..$.    DCD    52739312
        0x20000738:    00004000    .@..    DCD    16384
        0x2000073c:    00004000    .@..    DCD    16384
        0x20000740:    00004000    .@..    DCD    16384
        0x20000744:    012e3ed0    .>..    DCD    19807952
        0x20000748:    00653f9b    .?e.    DCD    6635419
        0x2000074c:    00c93f36    6?..    DCD    13188918
        0x20000750:    025b3d9a    .=[.    DCD    39533978
        0x20000754:    00c93f36    6?..    DCD    13188918
        0x20000758:    01923e69    i>..    DCD    26361449
        0x2000075c:    03883c5f    _<..    DCD    59259999
        0x20000760:    012e3ed0    .>..    DCD    19807952
        0x20000764:    025b3d9a    .=[.    DCD    39533978
        0x20000768:    04b53b1e    .;..    DCD    78986014
        0x2000076c:    01923e69    i>..    DCD    26361449
        0x20000770:    03243cc8    .<$.    DCD    52706504
        0x20000774:    05e239d9    .9..    DCD    98712025
        0x20000778:    01f73e02    .>..    DCD    32980482
        0x2000077c:    03ed3bf4    .;..    DCD    65879028
        0x20000780:    070e388e    .8..    DCD    118372494
        0x20000784:    025b3d9a    .=[.    DCD    39533978
        0x20000788:    04b53b1e    .;..    DCD    78986014
        0x2000078c:    0839373f    ?79.    DCD    137967423
        0x20000790:    02c03d31    1=..    DCD    46153009
        0x20000794:    057e3a46    F:~.    DCD    92158534
        0x20000798:    096435eb    .5d.    DCD    157562347
        0x2000079c:    03243cc8    .<$.    DCD    52706504
        0x200007a0:    0646396b    k9F.    DCD    105265515
        0x200007a4:    0a8e3492    .4..    DCD    177091730
        0x200007a8:    03883c5f    _<..    DCD    59259999
        0x200007ac:    070e388e    .8..    DCD    118372494
        0x200007b0:    0bb73334    43..    DCD    196555572
        0x200007b4:    03ed3bf4    .;..    DCD    65879028
        0x200007b8:    07d637af    .7..    DCD    131479471
        0x200007bc:    0cdf31d2    .1..    DCD    215953874
        0x200007c0:    04513b8a    .;Q.    DCD    72432522
        0x200007c4:    089d36ce    .6..    DCD    144520910
        0x200007c8:    0e06306c    l0..    DCD    235286636
        0x200007cc:    04b53b1e    .;..    DCD    78986014
        0x200007d0:    096435eb    .5d.    DCD    157562347
        0x200007d4:    0f2b2f02    ./+.    DCD    254488322
        0x200007d8:    051a3ab2    .:..    DCD    85605042
        0x200007dc:    0a2b3505    .5+.    DCD    170603781
        0x200007e0:    10502d93    .-P.    DCD    273690003
        0x200007e4:    057e3a46    F:~.    DCD    92158534
        0x200007e8:    0af1341e    .4..    DCD    183579678
        0x200007ec:    11732c21    !,s.    DCD    292760609
        0x200007f0:    05e239d9    .9..    DCD    98712025
        0x200007f4:    0bb73334    43..    DCD    196555572
        0x200007f8:    12942aaa    .*..    DCD    311700138
        0x200007fc:    0646396b    k9F.    DCD    105265515
        0x20000800:    0c7c3249    I2|.    DCD    209465929
        0x20000804:    13b42931    1)..    DCD    330574129
        0x20000808:    06aa38fd    .8..    DCD    111819005
        0x2000080c:    0d41315b    [1A.    DCD    222376283
        0x20000810:    14d227b3    .'..    DCD    349317043
        0x20000814:    070e388e    .8..    DCD    118372494
        0x20000818:    0e06306c    l0..    DCD    235286636
        0x2000081c:    15ee2632    2&..    DCD    367928882
        0x20000820:    0772381f    .8r.    DCD    124925983
        0x20000824:    0eca2f7b    {/..    DCD    248131451
        0x20000828:    170924ae    .$..    DCD    386475182
        0x2000082c:    07d637af    .7..    DCD    131479471
        0x20000830:    0f8d2e88    ....    DCD    260910728
        0x20000834:    18212326    &#!.    DCD    404824870
        0x20000838:    0839373f    ?79.    DCD    137967423
        0x2000083c:    10502d93    .-P.    DCD    273690003
        0x20000840:    1937219c    .!7.    DCD    423043484
        0x20000844:    089d36ce    .6..    DCD    144520910
        0x20000848:    11122c9d    .,..    DCD    286403741
        0x2000084c:    1a4b200e    . K.    DCD    441131022
        0x20000850:    0901365d    ]6..    DCD    151074397
        0x20000854:    11d32ba4    .+..    DCD    299051940
        0x20000858:    1b5d1e7e    ~.].    DCD    459087486
        0x2000085c:    096435eb    .5d.    DCD    157562347
        0x20000860:    12942aaa    .*..    DCD    311700138
        0x20000864:    1c6c1ceb    ..l.    DCD    476847339
        0x20000868:    09c73578    x5..    DCD    164050296
        0x2000086c:    135429af    .)T.    DCD    324282799
        0x20000870:    1d791b56    V.y.    DCD    494476118
        0x20000874:    0a2b3505    .5+.    DCD    170603781
        0x20000878:    141328b2    .(..    DCD    336799922
        0x2000087c:    1e8419be    ....    DCD    511973822
        0x20000880:    0a8e3492    .4..    DCD    177091730
        0x20000884:    14d227b3    .'..    DCD    349317043
        0x20000888:    1f8c1824    $...    DCD    529274916
        0x2000088c:    0af1341e    .4..    DCD    183579678
        0x20000890:    159026b3    .&..    DCD    361768627
        0x20000894:    20911688    ...     DCD    546379400
        0x20000898:    0b5433a9    .3T.    DCD    190067625
        0x2000089c:    164c25b1    .%L.    DCD    374089137
        0x200008a0:    219314ea    ...!    DCD    563287274
        0x200008a4:    0bb73334    43..    DCD    196555572
        0x200008a8:    170924ae    .$..    DCD    386475182
        0x200008ac:    2292134a    J.."    DCD    579998538
        0x200008b0:    0c1a32bf    .2..    DCD    203043519
        0x200008b4:    17c423a9    .#..    DCD    398730153
        0x200008b8:    238e11a8    ...#    DCD    596513192
        0x200008bc:    0c7c3249    I2|.    DCD    209465929
        0x200008c0:    187e22a3    ."~.    DCD    410919587
        0x200008c4:    24881005    ...$    DCD    612896773
        0x200008c8:    0cdf31d2    .1..    DCD    215953874
        0x200008cc:    1937219c    .!7.    DCD    423043484
        0x200008d0:    257e0e61    a.~%    DCD    629018209
        0x200008d4:    0d41315b    [1A.    DCD    222376283
        0x200008d8:    19ef2093    . ..    DCD    435101843
        0x200008dc:    26710cbb    ..q&    DCD    644943035
        0x200008e0:    0da430e4    .0..    DCD    228864228
        0x200008e4:    1aa71f89    ....    DCD    447160201
        0x200008e8:    27600b14    ..`'    DCD    660605716
        0x200008ec:    0e06306c    l0..    DCD    235286636
        0x200008f0:    1b5d1e7e    ~.].    DCD    459087486
        0x200008f4:    284c096d    m.L(    DCD    676071789
        0x200008f8:    0e682ff4    ./h.    DCD    241709044
        0x200008fc:    1c121d72    r...    DCD    470949234
        0x20000900:    293507c4    ..5)    DCD    691341252
        0x20000904:    0eca2f7b    {/..    DCD    248131451
        0x20000908:    1cc61c64    d...    DCD    482745444
        0x2000090c:    2a1a061b    ...*    DCD    706348571
        0x20000910:    0f2b2f02    ./+.    DCD    254488322
        0x20000914:    1d791b56    V.y.    DCD    494476118
        0x20000918:    2afb0471    q..*    DCD    721093745
        0x2000091c:    0f8d2e88    ....    DCD    260910728
        0x20000920:    1e2b1a46    F.+.    DCD    506141254
        0x20000924:    2bd802c7    ...+    DCD    735576775
        0x20000928:    0fee2e0e    ....    DCD    267267598
        0x2000092c:    1edc1935    5...    DCD    517740853
        0x20000930:    2cb2011c    ...,    DCD    749863196
        0x20000934:    10502d93    .-P.    DCD    273690003
        0x20000938:    1f8c1824    $...    DCD    529274916
        0x2000093c:    2d88ff72    r..-    DCD    763953010
        0x20000940:    10b12d18    .-..    DCD    280046872
        0x20000944:    203a1711    ..:     DCD    540677905
        0x20000948:    2e5afdc7    ..Z.    DCD    777715143
        0x2000094c:    11122c9d    .,..    DCD    286403741
        0x20000950:    20e715fe    ...     DCD    552015358
        0x20000954:    2f28fc1d    ..(/    DCD    791215133
        0x20000958:    11732c21    !,s.    DCD    292760609
        0x2000095c:    219314ea    ...!    DCD    563287274
        0x20000960:    2ff2fa73    s../    DCD    804452979
        0x20000964:    11d32ba4    .+..    DCD    299051940
        0x20000968:    223d13d5    ..="    DCD    574428117
        0x2000096c:    30b8f8ca    ...0    DCD    817428682
        0x20000970:    12342b28    (+4.    DCD    305408808
        0x20000974:    22e712bf    ..."    DCD    585568959
        0x20000978:    3179f721    !.y1    DCD    830076705
        0x2000097c:    12942aaa    .*..    DCD    311700138
        0x20000980:    238e11a8    ...#    DCD    596513192
        0x20000984:    3236f579    y.62    DCD    842462585
        0x20000988:    12f42a2d    -*..    DCD    317991469
        0x2000098c:    24351091    ..5$    DCD    607457425
        0x20000990:    32eff3d2    ...2    DCD    854586322
        0x20000994:    135429af    .)T.    DCD    324282799
        0x20000998:    24da0f79    y..$    DCD    618270585
        0x2000099c:    33a3f22c    ,..3    DCD    866382380
        0x200009a0:    13b42931    1)..    DCD    330574129
        0x200009a4:    257e0e61    a.~%    DCD    629018209
        0x200009a8:    3453f087    ..S4    DCD    877916295
        0x200009ac:    141328b2    .(..    DCD    336799922
        0x200009b0:    26200d48    H. &    DCD    639634760
        0x200009b4:    34ffeee3    ...4    DCD    889188067
        0x200009b8:    14732833    3(s.    DCD    343091251
        0x200009bc:    26c10c2e    ...&    DCD    650185774
        0x200009c0:    35a5ed41    A..5    DCD    900066625
        0x200009c4:    14d227b3    .'..    DCD    349317043
        0x200009c8:    27600b14    ..`'    DCD    660605716
        0x200009cc:    3648eba1    ..H6    DCD    910748577
        0x200009d0:    15312733    3'1.    DCD    355542835
        0x200009d4:    27fe09fa    ...'    DCD    670960122
        0x200009d8:    36e5ea02    ...6    DCD    921037314
        0x200009dc:    159026b3    .&..    DCD    361768627
        0x200009e0:    289a08df    ...(    DCD    681183455
        0x200009e4:    377ee865    e.~7    DCD    931063909
        0x200009e8:    15ee2632    2&..    DCD    367928882
        0x200009ec:    293507c4    ..5)    DCD    691341252
        0x200009f0:    3812e6cb    ...8    DCD    940762827
        0x200009f4:    164c25b1    .%L.    DCD    374089137
        0x200009f8:    29ce06a9    ...)    DCD    701367977
        0x200009fc:    38a1e532    2..8    DCD    950134066
        0x20000a00:    16ab252f    /%..    DCD    380314927
        0x20000a04:    2a65058d    ..e*    DCD    711263629
        0x20000a08:    392be39c    ..+9    DCD    959177628
        0x20000a0c:    170924ae    .$..    DCD    386475182
        0x20000a10:    2afb0471    q..*    DCD    721093745
        0x20000a14:    39b0e208    ...9    DCD    967893512
        0x20000a18:    1766242b    +$f.    DCD    392569899
        0x20000a1c:    2b8f0355    U..+    DCD    730792789
        0x20000a20:    3a30e077    w.0:    DCD    976281719
        0x20000a24:    17c423a9    .#..    DCD    398730153
        0x20000a28:    2c210239    9.!,    DCD    740360761
        0x20000a2c:    3aabdee9    ...:    DCD    984342249
        0x20000a30:    18212326    &#!.    DCD    404824870
        0x20000a34:    2cb2011c    ...,    DCD    749863196
        0x20000a38:    3b21dd5d    ].!;    DCD    992075101
        0x20000a3c:    187e22a3    ."~.    DCD    410919587
        0x20000a40:    2d410000    ..A-    DCD    759234560
        0x20000a44:    3b92dbd5    ...;    DCD    999480277
        0x20000a48:    18db221f    ."..    DCD    417014303
        0x20000a4c:    2dcffee4    ...-    DCD    768605924
        0x20000a50:    3bfdda4f    O..;    DCD    1006492239
        0x20000a54:    1937219c    .!7.    DCD    423043484
        0x20000a58:    2e5afdc7    ..Z.    DCD    777715143
        0x20000a5c:    3c64d8cd    ..d<    DCD    1013242061
        0x20000a60:    19932117    .!..    DCD    429072663
        0x20000a64:    2ee4fcab    ....    DCD    786758827
        0x20000a68:    3cc5d74e    N..<    DCD    1019598670
        0x20000a6c:    19ef2093    . ..    DCD    435101843
        0x20000a70:    2f6cfb8f    ..l/    DCD    795671439
        0x20000a74:    3d21d5d3    ..!=    DCD    1025627603
        0x20000a78:    1a4b200e    . K.    DCD    441131022
        0x20000a7c:    2ff2fa73    s../    DCD    804452979
        0x20000a80:    3d78d45c    \.x=    DCD    1031328860
        0x20000a84:    1aa71f89    ....    DCD    447160201
        0x20000a88:    3076f957    W.v0    DCD    813103447
        0x20000a8c:    3dc9d2e8    ...=    DCD    1036636904
        0x20000a90:    1b021f04    ....    DCD    453123844
        0x20000a94:    30f9f83c    <..0    DCD    821688380
        0x20000a98:    3e15d178    x..>    DCD    1041617272
        0x20000a9c:    1b5d1e7e    ~.].    DCD    459087486
        0x20000aa0:    3179f721    !.y1    DCD    830076705
        0x20000aa4:    3e5cd00c    ..\>    DCD    1046269964
        0x20000aa8:    1bb81df8    ....    DCD    465051128
        0x20000aac:    31f8f606    ...1    DCD    838399494
        0x20000ab0:    3e9dcea5    ...>    DCD    1050529445
        0x20000ab4:    1c121d72    r...    DCD    470949234
        0x20000ab8:    3274f4ec    ..t2    DCD    846525676
        0x20000abc:    3ed8cd41    A..>    DCD    1054395713
        0x20000ac0:    1c6c1ceb    ..l.    DCD    476847339
        0x20000ac4:    32eff3d2    ...2    DCD    854586322
        0x20000ac8:    3f0fcbe2    ...?    DCD    1057999842
        0x20000acc:    1cc61c64    d...    DCD    482745444
        0x20000ad0:    3368f2b8    ..h3    DCD    862515896
        0x20000ad4:    3f40ca88    ..@?    DCD    1061210760
        0x20000ad8:    1d201bdd    .. .    DCD    488643549
        0x20000adc:    33dff19f    ...3    DCD    870314399
        0x20000ae0:    3f6bc932    2.k?    DCD    1064028466
        0x20000ae4:    1d791b56    V.y.    DCD    494476118
        0x20000ae8:    3453f087    ..S4    DCD    877916295
        0x20000aec:    3f91c7e1    ...?    DCD    1066518497
        0x20000af0:    1dd31ace    ....    DCD    500374222
        0x20000af4:    34c6ef6f    o..4    DCD    885452655
        0x20000af8:    3fb1c695    ...?    DCD    1068615317
        0x20000afc:    1e2b1a46    F.+.    DCD    506141254
        0x20000b00:    3537ee58    X.75    DCD    892857944
        0x20000b04:    3fccc54e    N..?    DCD    1070384462
        0x20000b08:    1e8419be    ....    DCD    511973822
        0x20000b0c:    35a5ed41    A..5    DCD    900066625
        0x20000b10:    3fe1c40c    ...?    DCD    1071760396
        0x20000b14:    1edc1935    5...    DCD    517740853
        0x20000b18:    3612ec2b    +..6    DCD    907209771
        0x20000b1c:    3ff1c2cf    ...?    DCD    1072808655
        0x20000b20:    1f3418ad    ..4.    DCD    523507885
        0x20000b24:    367deb16    ..}6    DCD    914221846
        0x20000b28:    3ffbc197    ...?    DCD    1073463703
        0x20000b2c:    1f8c1824    $...    DCD    529274916
        0x20000b30:    36e5ea02    ...6    DCD    921037314
        0x20000b34:    4000c065    e..@    DCD    1073791077
        0x20000b38:    1fe3179b    ....    DCD    534976411
        0x20000b3c:    374be8ef    ..K7    DCD    927721711
        0x20000b40:    3fffbf38    8..?    DCD    1073725240
        0x20000b44:    203a1711    ..:     DCD    540677905
        0x20000b48:    37b0e7dc    ...7    DCD    934340572
        0x20000b4c:    3ff8be11    ...?    DCD    1073266193
        0x20000b50:    20911688    ...     DCD    546379400
        0x20000b54:    3812e6cb    ...8    DCD    940762827
        0x20000b58:    3fecbcf0    ...?    DCD    1072479472
        0x20000b5c:    20e715fe    ...     DCD    552015358
        0x20000b60:    3871e5ba    ..q8    DCD    946988474
        0x20000b64:    3fdbbbd4    ...?    DCD    1071365076
        0x20000b68:    213d1574    t.=!    DCD    557651316
        0x20000b6c:    38cfe4aa    ...8    DCD    953148586
        0x20000b70:    3fc4babf    ...?    DCD    1069857471
        0x20000b74:    219314ea    ...!    DCD    563287274
        0x20000b78:    392be39c    ..+9    DCD    959177628
        0x20000b7c:    3fa7b9af    ...?    DCD    1067956655
        0x20000b80:    21e8145f    _..!    DCD    568857695
        0x20000b84:    3984e28e    ...9    DCD    965010062
        0x20000b88:    3f85b8a6    ...?    DCD    1065728166
        0x20000b8c:    223d13d5    ..="    DCD    574428117
        0x20000b90:    39dbe182    ...9    DCD    970711426
        0x20000b94:    3f5db7a2    ..]?    DCD    1063106466
        0x20000b98:    2292134a    J.."    DCD    579998538
        0x20000b9c:    3a30e077    w.0:    DCD    976281719
        0x20000ba0:    3f30b6a5    ..0?    DCD    1060157093
        0x20000ba4:    22e712bf    ..."    DCD    585568959
        0x20000ba8:    3a82df6d    m..:    DCD    981655405
        0x20000bac:    3efdb5af    ...>    DCD    1056814511
        0x20000bb0:    233b1234    4.;#    DCD    591073844
        0x20000bb4:    3ad3de64    d..:    DCD    986963556
        0x20000bb8:    3ec5b4be    ...>    DCD    1053144254
        0x20000bbc:    238e11a8    ...#    DCD    596513192
        0x20000bc0:    3b21dd5d    ].!;    DCD    992075101
        0x20000bc4:    3e88b3d5    ...>    DCD    1049146325
        0x20000bc8:    23e2111d    ...#    DCD    602018077
        0x20000bcc:    3b6ddc57    W.m;    DCD    997055575
        0x20000bd0:    3e45b2f2    ..E>    DCD    1044755186
        0x20000bd4:    24351091    ..5$    DCD    607457425
        0x20000bd8:    3bb6db52    R..;    DCD    1001839442
        0x20000bdc:    3dfcb215    ...=    DCD    1039970837
        0x20000be0:    24881005    ...$    DCD    612896773
        0x20000be4:    3bfdda4f    O..;    DCD    1006492239
        0x20000be8:    3dafb140    @..=    DCD    1034924352
        0x20000bec:    24da0f79    y..$    DCD    618270585
        0x20000bf0:    3c42d94d    M.B<    DCD    1011013965
        0x20000bf4:    3d5bb071    q.[=    DCD    1029419121
        0x20000bf8:    252c0eed    ..,%    DCD    623644397
        0x20000bfc:    3c85d84d    M..<    DCD    1015404621
        0x20000c00:    3d03afa9    ...=    DCD    1023651753
        0x20000c04:    257e0e61    a.~%    DCD    629018209
        0x20000c08:    3cc5d74e    N..<    DCD    1019598670
        0x20000c0c:    3ca5aee8    ...<    DCD    1017491176
        0x20000c10:    25cf0dd4    ...%    DCD    634326484
        0x20000c14:    3d03d651    Q..=    DCD    1023661649
        0x20000c18:    3c42ae2e    ..B<    DCD    1011002926
        0x20000c1c:    26200d48    H. &    DCD    639634760
        0x20000c20:    3d3fd556    V.?=    DCD    1027593558
        0x20000c24:    3bdaad7b    {..;    DCD    1004187003
        0x20000c28:    26710cbb    ..q&    DCD    644943035
        0x20000c2c:    3d78d45c    \.x=    DCD    1031328860
        0x20000c30:    3b6dacd0    ..m;    DCD    997043408
        0x20000c34:    26c10c2e    ...&    DCD    650185774
        0x20000c38:    3dafd363    c..=    DCD    1034933091
        0x20000c3c:    3afaac2b    +..:    DCD    989506603
        0x20000c40:    27110ba1    ...'    DCD    655428513
        0x20000c44:    3de3d26d    m..=    DCD    1038340717
        0x20000c48:    3a82ab8e    ...:    DCD    981642126
        0x20000c4c:    27600b14    ..`'    DCD    660605716
        0x20000c50:    3e15d178    x..>    DCD    1041617272
        0x20000c54:    3a06aaf8    ...:    DCD    973515512
        0x20000c58:    27af0a87    ...'    DCD    665782919
        0x20000c5c:    3e45d085    ..E>    DCD    1044762757
        0x20000c60:    3984aa6a    j..9    DCD    964995690
        0x20000c64:    27fe09fa    ...'    DCD    670960122
        0x20000c68:    3e72cf94    ..r>    DCD    1047711636
        0x20000c6c:    38fda9e3    ...8    DCD    956148195
        0x20000c70:    284c096d    m.L(    DCD    676071789
        0x20000c74:    3e9dcea5    ...>    DCD    1050529445
        0x20000c78:    3871a963    c.q8    DCD    946973027
        0x20000c7c:    289a08df    ...(    DCD    681183455
        0x20000c80:    3ec5cdb7    ...>    DCD    1053150647
        0x20000c84:    37e1a8eb    ...7    DCD    937535723
        0x20000c88:    28e70852    R..(    DCD    686229586
        0x20000c8c:    3eebcccc    ...>    DCD    1055640780
        0x20000c90:    374ba87b    {.K7    DCD    927705211
        0x20000c94:    293507c4    ..5)    DCD    691341252
        0x20000c98:    3f0fcbe2    ...?    DCD    1057999842
        0x20000c9c:    36b1a812    ...6    DCD    917612562
        0x20000ca0:    29810736    6..)    DCD    696321846
        0x20000ca4:    3f30cafb    ..0?    DCD    1060162299
        0x20000ca8:    3612a7b1    ...6    DCD    907192241
        0x20000cac:    29ce06a9    ...)    DCD    701367977
        0x20000cb0:    3f4fca15    ..O?    DCD    1062193685
        0x20000cb4:    356ea757    W.n5    DCD    896444247
        0x20000cb8:    2a1a061b    ...*    DCD    706348571
        0x20000cbc:    3f6bc932    2.k?    DCD    1064028466
        0x20000cc0:    34c6a705    ...4    DCD    885434117
        0x20000cc4:    2a65058d    ..e*    DCD    711263629
        0x20000cc8:    3f85c851    Q..?    DCD    1065732177
        0x20000ccc:    3419a6bb    ...4    DCD    874096315
        0x20000cd0:    2ab004ff    ...*    DCD    716178687
        0x20000cd4:    3f9cc772    r..?    DCD    1067239282
        0x20000cd8:    3368a678    x.h3    DCD    862496376
        0x20000cdc:    2afb0471    q..*    DCD    721093745
        0x20000ce0:    3fb1c695    ...?    DCD    1068615317
        0x20000ce4:    32b2a63e    >..2    DCD    850568766
        0x20000ce8:    2b4503e3    ..E+    DCD    725943267
        0x20000cec:    3fc4c5ba    ...?    DCD    1069860282
        0x20000cf0:    31f8a60b    ...1    DCD    838379019
        0x20000cf4:    2b8f0355    U..+    DCD    730792789
        0x20000cf8:    3fd4c4e2    ...?    DCD    1070908642
        0x20000cfc:    3139a5e0    ..91    DCD    825861600
        0x20000d00:    2bd802c7    ...+    DCD    735576775
        0x20000d04:    3fe1c40c    ...?    DCD    1071760396
        0x20000d08:    3076a5bc    ..v0    DCD    813082044
        0x20000d0c:    2c210239    9.!,    DCD    740360761
        0x20000d10:    3fecc338    8..?    DCD    1072481080
        0x20000d14:    2fafa5a1    .../    DCD    800040353
        0x20000d18:    2c6a01aa    ..j,    DCD    745144746
        0x20000d1c:    3ff5c266    f..?    DCD    1073070694
        0x20000d20:    2ee4a58d    ....    DCD    786736525
        0x20000d24:    2cb2011c    ...,    DCD    749863196
        0x20000d28:    3ffbc197    ...?    DCD    1073463703
        0x20000d2c:    2e15a581    ....    DCD    773170561
        0x20000d30:    2cfa008e    ...,    DCD    754581646
        0x20000d34:    3fffc0ca    ...?    DCD    1073725642
        0x20000d38:    2d41a57e    ~.A-    DCD    759276926
        0x20000d3c:    2d410000    ..A-    DCD    759234560
        0x20000d40:    4000c000    ...@    DCD    1073790976
        0x20000d44:    2c6aa581    ..j,    DCD    745186689
        0x20000d48:    2d88ff72    r..-    DCD    763953010
        0x20000d4c:    3fffbf38    8..?    DCD    1073725240
        0x20000d50:    2b8fa58d    ...+    DCD    730834317
        0x20000d54:    2dcffee4    ...-    DCD    768605924
        0x20000d58:    3ffbbe73    s..?    DCD    1073462899
        0x20000d5c:    2ab0a5a1    ...*    DCD    716219809
        0x20000d60:    2e15fe56    V...    DCD    773193302
        0x20000d64:    3ff5bdb0    ...?    DCD    1073069488
        0x20000d68:    29cea5bc    ...)    DCD    701408700
        0x20000d6c:    2e5afdc7    ..Z.    DCD    777715143
        0x20000d70:    3fecbcf0    ...?    DCD    1072479472
        0x20000d74:    28e7a5e0    ...(    DCD    686269920
        0x20000d78:    2e9ffd39    9...    DCD    782236985
        0x20000d7c:    3fe1bc32    2..?    DCD    1071758386
        0x20000d80:    27fea60b    ...'    DCD    671000075
        0x20000d84:    2ee4fcab    ....    DCD    786758827
        0x20000d88:    3fd4bb77    w..?    DCD    1070906231
        0x20000d8c:    2711a63e    >..'    DCD    655468094
        0x20000d90:    2f28fc1d    ..(/    DCD    791215133
        0x20000d94:    3fc4babf    ...?    DCD    1069857471
        0x20000d98:    2620a678    x. &    DCD    639673976
        0x20000d9c:    2f6cfb8f    ..l/    DCD    795671439
        0x20000da0:    3fb1ba09    ...?    DCD    1068612105
        0x20000da4:    252ca6bb    ..,%    DCD    623683259
        0x20000da8:    2faffb01    .../    DCD    800062209
        0x20000dac:    3f9cb956    V..?    DCD    1067235670
        0x20000db0:    2435a705    ..5$    DCD    607495941
        0x20000db4:    2ff2fa73    s../    DCD    804452979
        0x20000db8:    3f85b8a6    ...?    DCD    1065728166
        0x20000dbc:    233ba757    W.;#    DCD    591112023
        0x20000dc0:    3034f9e5    ..40    DCD    808778213
        0x20000dc4:    3f6bb7f8    ..k?    DCD    1064024056
        0x20000dc8:    223da7b1    ..="    DCD    574465969
        0x20000dcc:    3076f957    W.v0    DCD    813103447
        0x20000dd0:    3f4fb74d    M.O?    DCD    1062188877
        0x20000dd4:    213da812    ..=!    DCD    557688850
        0x20000dd8:    30b8f8ca    ...0    DCD    817428682
        0x20000ddc:    3f30b6a5    ..0?    DCD    1060157093
        0x20000de0:    203aa87b    {.:     DCD    540715131
        0x20000de4:    30f9f83c    <..0    DCD    821688380
        0x20000de8:    3f0fb600    ...?    DCD    1057994240
        0x20000dec:    1f34a8eb    ..4.    DCD    523544811
        0x20000df0:    3139f7ae    ..91    DCD    825882542
        0x20000df4:    3eebb55e    ^..>    DCD    1055634782
        0x20000df8:    1e2ba963    c.+.    DCD    506177891
        0x20000dfc:    3179f721    !.y1    DCD    830076705
        0x20000e00:    3ec5b4be    ...>    DCD    1053144254
        0x20000e04:    1d20a9e3    .. .    DCD    488679907
        0x20000e08:    31b9f693    ...1    DCD    834270867
        0x20000e0c:    3e9db422    "..>    DCD    1050522658
        0x20000e10:    1c12aa6a    j...    DCD    470985322
        0x20000e14:    31f8f606    ...1    DCD    838399494
        0x20000e18:    3e72b388    ..r>    DCD    1047704456
        0x20000e1c:    1b02aaf8    ....    DCD    453159672
        0x20000e20:    3236f579    y.62    DCD    842462585
        0x20000e24:    3e45b2f2    ..E>    DCD    1044755186
        0x20000e28:    19efab8e    ....    DCD    435137422
        0x20000e2c:    3274f4ec    ..t2    DCD    846525676
        0x20000e30:    3e15b25e    ^..>    DCD    1041609310
        0x20000e34:    18dbac2b    +...    DCD    417049643
        0x20000e38:    32b2f45f    _..2    DCD    850588767
        0x20000e3c:    3de3b1cd    ...=    DCD    1038332365
        0x20000e40:    17c4acd0    ....    DCD    398765264
        0x20000e44:    32eff3d2    ...2    DCD    854586322
        0x20000e48:    3dafb140    @..=    DCD    1034924352
        0x20000e4c:    16abad7b    {...    DCD    380349819
        0x20000e50:    332cf345    E.,3    DCD    858583877
        0x20000e54:    3d78b0b5    ..x=    DCD    1031319733
        0x20000e58:    1590ae2e    ....    DCD    361803310
        0x20000e5c:    3368f2b8    ..h3    DCD    862515896
        0x20000e60:    3d3fb02d    -.?=    DCD    1027584045
        0x20000e64:    1473aee8    ..s.    DCD    343125736
        0x20000e68:    33a3f22c    ,..3    DCD    866382380
        0x20000e6c:    3d03afa9    ...=    DCD    1023651753
        0x20000e70:    1354afa9    ..T.    DCD    324317097
        0x20000e74:    33dff19f    ...3    DCD    870314399
        0x20000e78:    3cc5af28    (..<    DCD    1019588392
        0x20000e7c:    1234b071    q.4.    DCD    305442929
        0x20000e80:    3419f113    ...4    DCD    874115347
        0x20000e84:    3c85aea9    ...<    DCD    1015393961
        0x20000e88:    1112b140    @...    DCD    286437696
        0x20000e8c:    3453f087    ..S4    DCD    877916295
        0x20000e90:    3c42ae2e    ..B<    DCD    1011002926
        0x20000e94:    0feeb215    ....    DCD    267301397
        0x20000e98:    348deffb    ...4    DCD    881717243
        0x20000e9c:    3bfdadb6    ...;    DCD    1006480822
        0x20000ea0:    0ecab2f2    ....    DCD    248165106
        0x20000ea4:    34c6ef6f    o..4    DCD    885452655
        0x20000ea8:    3bb6ad41    A..;    DCD    1001827649
        0x20000eac:    0da4b3d5    ....    DCD    228897749
        0x20000eb0:    34ffeee3    ...4    DCD    889188067
        0x20000eb4:    3b6dacd0    ..m;    DCD    997043408
        0x20000eb8:    0c7cb4be    ..|.    DCD    209499326
        0x20000ebc:    3537ee58    X.75    DCD    892857944
        0x20000ec0:    3b21ac61    a.!;    DCD    992062561
        0x20000ec4:    0b54b5af    ..T.    DCD    190100911
        0x20000ec8:    356eedcc    ..n5    DCD    896462284
        0x20000ecc:    3ad3abf6    ...:    DCD    986950646
        0x20000ed0:    0a2bb6a5    ..+.    DCD    170636965
        0x20000ed4:    35a5ed41    A..5    DCD    900066625
        0x20000ed8:    3a82ab8e    ...:    DCD    981642126
        0x20000edc:    0901b7a2    ....    DCD    151107490
        0x20000ee0:    35dcecb6    ...5    DCD    903670966
        0x20000ee4:    3a30ab29    ).0:    DCD    976268073
        0x20000ee8:    07d6b8a6    ....    DCD    131512486
        0x20000eec:    3612ec2b    +..6    DCD    907209771
        0x20000ef0:    39dbaac8    ...9    DCD    970697416
        0x20000ef4:    06aab9af    ....    DCD    111851951
        0x20000ef8:    3648eba1    ..H6    DCD    910748577
        0x20000efc:    3984aa6a    j..9    DCD    964995690
        0x20000f00:    057ebabf    ..~.    DCD    92191423
        0x20000f04:    367deb16    ..}6    DCD    914221846
        0x20000f08:    392baa0f    ..+9    DCD    959162895
        0x20000f0c:    0451bbd4    ..Q.    DCD    72465364
        0x20000f10:    36b1ea8c    ...6    DCD    917629580
        0x20000f14:    38cfa9b7    ...8    DCD    953133495
        0x20000f18:    0324bcf0    ..$.    DCD    52739312
        0x20000f1c:    36e5ea02    ...6    DCD    921037314
        0x20000f20:    3871a963    c.q8    DCD    946973027
        0x20000f24:    01f7be11    ....    DCD    33013265
        0x20000f28:    3718e978    x..7    DCD    924379512
        0x20000f2c:    3812a912    ...8    DCD    940747026
        0x20000f30:    00c9bf38    8...    DCD    13221688
        0x20000f34:    374be8ef    ..K7    DCD    927721711
        0x20000f38:    37b0a8c5    ...7    DCD    934324421
        0x20000f3c:    ff9bc065    e...    DCD    4288397413
        0x20000f40:    377ee865    e.~7    DCD    931063909
        0x20000f44:    374ba87b    {.K7    DCD    927705211
        0x20000f48:    fe6ec197    ..n.    DCD    4268671383
        0x20000f4c:    37b0e7dc    ...7    DCD    934340572
        0x20000f50:    36e5a834    4..6    DCD    921020468
        0x20000f54:    fd40c2cf    ..@.    DCD    4248879823
        0x20000f58:    37e1e753    S..7    DCD    937551699
        0x20000f5c:    367da7f1    ..}6    DCD    914204657
        0x20000f60:    fc13c40c    ....    DCD    4229153804
        0x20000f64:    3812e6cb    ...8    DCD    940762827
        0x20000f68:    3612a7b1    ...6    DCD    907192241
        0x20000f6c:    fae6c54e    N...    DCD    4209427790
        0x20000f70:    3842e642    B.B8    DCD    943908418
        0x20000f74:    35a5a774    t..5    DCD    900048756
        0x20000f78:    f9bac695    ....    DCD    4189767317
        0x20000f7c:    3871e5ba    ..q8    DCD    946988474
        0x20000f80:    3537a73b    ;.75    DCD    892839739
        0x20000f84:    f88ec7e1    ....    DCD    4170106849
        0x20000f88:    38a1e532    2..8    DCD    950134066
        0x20000f8c:    34c6a705    ...4    DCD    885434117
        0x20000f90:    f763c932    2.c.    DCD    4150511922
        0x20000f94:    38cfe4aa    ...8    DCD    953148586
        0x20000f98:    3453a6d3    ..S4    DCD    877897427
        0x20000f9c:    f639ca88    ..9.    DCD    4130982536
        0x20000fa0:    38fde423    #..8    DCD    956163107
        0x20000fa4:    33dfa6a4    ...3    DCD    870295204
        0x20000fa8:    f50fcbe2    ....    DCD    4111453154
        0x20000fac:    392be39c    ..+9    DCD    959177628
        0x20000fb0:    3368a678    x.h3    DCD    862496376
        0x20000fb4:    f3e6cd41    A...    DCD    4091989313
        0x20000fb8:    3958e315    ..X9    DCD    962126613
        0x20000fbc:    32efa650    P..2    DCD    854566480
        0x20000fc0:    f2bfcea5    ....    DCD    4072656549
        0x20000fc4:    3984e28e    ...9    DCD    965010062
        0x20000fc8:    3274a62c    ,.t2    DCD    846505516
        0x20000fcc:    f198d00c    ....    DCD    4053323788
        0x20000fd0:    39b0e208    ...9    DCD    967893512
        0x20000fd4:    31f8a60b    ...1    DCD    838379019
        0x20000fd8:    f073d178    x.s.    DCD    4034122104
        0x20000fdc:    39dbe182    ...9    DCD    970711426
        0x20000fe0:    3179a5ed    ..y1    DCD    830055917
        0x20000fe4:    ef4fd2e8    ..O.    DCD    4014985960
        0x20000fe8:    3a06e0fc    ...:    DCD    973529340
        0x20000fec:    30f9a5d3    ...0    DCD    821667283
        0x20000ff0:    ee2dd45c    \.-.    DCD    3995980892
        0x20000ff4:    3a30e077    w.0:    DCD    976281719
        0x20000ff8:    3076a5bc    ..v0    DCD    813082044
        0x20000ffc:    ed0cd5d3    ....    DCD    3977041363
        0x20001000:    3a59dff2    ..Y:    DCD    978968562
        0x20001004:    2ff2a5a9    .../    DCD    804431273
        0x20001008:    ebedd74e    N...    DCD    3958232910
        0x2000100c:    3a82df6d    m..:    DCD    981655405
        0x20001010:    2f6ca599    ..l/    DCD    795649433
        0x20001014:    eacfd8cd    ....    DCD    3939489997
        0x20001018:    3aabdee9    ...:    DCD    984342249
        0x2000101c:    2ee4a58d    ....    DCD    786736525
        0x20001020:    e9b4da4f    O...    DCD    3920943695
        0x20001024:    3ad3de64    d..:    DCD    986963556
        0x20001028:    2e5aa585    ..Z.    DCD    777692549
        0x2000102c:    e89adbd5    ....    DCD    3902462933
        0x20001030:    3afadde1    ...:    DCD    989519329
        0x20001034:    2dcfa57f    ...-    DCD    768583039
        0x20001038:    e782dd5d    ]...    DCD    3884113245
        0x2000103c:    3b21dd5d    ].!;    DCD    992075101
        0x20001040:    2d41a57e    ~.A-    DCD    759276926
        0x20001044:    e66ddee9    ..m.    DCD    3865960169
        0x20001048:    3b47dcda    ..G;    DCD    994565338
        0x2000104c:    2cb2a57f    ...,    DCD    749905279
        0x20001050:    e559e077    w.Y.    DCD    3847872631
        0x20001054:    3b6ddc57    W.m;    DCD    997055575
        0x20001058:    2c21a585    ..!,    DCD    740402565
        0x2000105c:    e448e208    ..H.    DCD    3829981704
        0x20001060:    3b92dbd5    ...;    DCD    999480277
        0x20001064:    2b8fa58d    ...+    DCD    730834317
        0x20001068:    e33ae39c    ..:.    DCD    3812287388
        0x2000106c:    3bb6db52    R..;    DCD    1001839442
        0x20001070:    2afba599    ...*    DCD    721135001
        0x20001074:    e22de532    2.-.    DCD    3794658610
        0x20001078:    3bdadad1    ...;    DCD    1004198609
        0x2000107c:    2a65a5a9    ..e*    DCD    711304617
        0x20001080:    e124e6cb    ..$.    DCD    3777291979
        0x20001084:    3bfdda4f    O..;    DCD    1006492239
        0x20001088:    29cea5bc    ...)    DCD    701408700
        0x2000108c:    e01de865    e...    DCD    3760056421
        0x20001090:    3c20d9ce    .. <    DCD    1008785870
        0x20001094:    2935a5d3    ..5)    DCD    691381715
        0x20001098:    df19ea02    ....    DCD    3743017474
        0x2000109c:    3c42d94d    M.B<    DCD    1011013965
        0x200010a0:    289aa5ed    ...(    DCD    681223661
        0x200010a4:    de18eba1    ....    DCD    3726175137
        0x200010a8:    3c64d8cd    ..d<    DCD    1013242061
        0x200010ac:    27fea60b    ...'    DCD    671000075
        0x200010b0:    dd19ed41    A...    DCD    3709463873
        0x200010b4:    3c85d84d    M..<    DCD    1015404621
        0x200010b8:    2760a62c    ,.`'    DCD    660645420
        0x200010bc:    dc1eeee3    ....    DCD    3693014755
        0x200010c0:    3ca5d7cd    ...<    DCD    1017501645
        0x200010c4:    26c1a650    P..&    DCD    650225232
        0x200010c8:    db26f087    ..&.    DCD    3676762247
        0x200010cc:    3cc5d74e    N..<    DCD    1019598670
        0x200010d0:    2620a678    x. &    DCD    639673976
        0x200010d4:    da31f22c    ,.1.    DCD    3660706348
        0x200010d8:    3ce4d6cf    ...<    DCD    1021630159
        0x200010dc:    257ea6a4    ..~%    DCD    629057188
        0x200010e0:    d93ff3d2    ..?.    DCD    3644847058
        0x200010e4:    3d03d651    Q..=    DCD    1023661649
        0x200010e8:    24daa6d3    ...$    DCD    618309331
        0x200010ec:    d851f579    y.Q.    DCD    3629249913
        0x200010f0:    3d21d5d3    ..!=    DCD    1025627603
        0x200010f4:    2435a705    ..5$    DCD    607495941
        0x200010f8:    d766f721    !.f.    DCD    3613849377
        0x200010fc:    3d3fd556    V.?=    DCD    1027593558
        0x20001100:    238ea73b    ;..#    DCD    596551483
        0x20001104:    d67ff8ca    ....    DCD    3598710986
        0x20001108:    3d5bd4d8    ..[=    DCD    1029428440
        0x2000110c:    22e7a774    t.."    DCD    585607028
        0x20001110:    d59bfa73    s...    DCD    3583769203
        0x20001114:    3d78d45c    \.x=    DCD    1031328860
        0x20001118:    223da7b1    ..="    DCD    574465969
        0x2000111c:    d4bbfc1d    ....    DCD    3569089565
        0x20001120:    3d93d3df    ...=    DCD    1033098207
        0x20001124:    2193a7f1    ...!    DCD    563324913
        0x20001128:    d3dffdc7    ....    DCD    3554672071
        0x2000112c:    3dafd363    c..=    DCD    1034933091
        0x20001130:    20e7a834    4..     DCD    552052788
        0x20001134:    d306ff72    r...    DCD    3540451186
        0x20001138:    3dc9d2e8    ...=    DCD    1036636904
        0x2000113c:    203aa87b    {.:     DCD    540715131
        0x20001140:    d231011c    ..1.    DCD    3526426908
        0x20001144:    3de3d26d    m..=    DCD    1038340717
        0x20001148:    1f8ca8c5    ....    DCD    529311941
        0x2000114c:    d16102c7    ..a.    DCD    3512795847
        0x20001150:    3dfcd1f2    ...=    DCD    1039978994
        0x20001154:    1edca912    ....    DCD    517777682
        0x20001158:    d0940471    q...    DCD    3499361393
        0x2000115c:    3e15d178    x..>    DCD    1041617272
        0x20001160:    1e2ba963    c.+.    DCD    506177891
        0x20001164:    cfcc061b    ....    DCD    3486254619
        0x20001168:    3e2dd0fe    ..->    DCD    1043190014
        0x2000116c:    1d79a9b7    ..y.    DCD    494512567
        0x20001170:    cf0707c4    ....    DCD    3473344452
        0x20001174:    3e45d085    ..E>    DCD    1044762757
        0x20001178:    1cc6aa0f    ....    DCD    482781711
        0x2000117c:    ce47096d    m.G.    DCD    3460761965
        0x20001180:    3e5cd00c    ..\>    DCD    1046269964
        0x20001184:    1c12aa6a    j...    DCD    470985322
        0x20001188:    cd8c0b14    ....    DCD    3448507156
        0x2000118c:    3e72cf94    ..r>    DCD    1047711636
        0x20001190:    1b5daac8    ..].    DCD    459123400
        0x20001194:    ccd40cbb    ....    DCD    3436448955
        0x20001198:    3e88cf1c    ...>    DCD    1049153308
        0x2000119c:    1aa7ab29    )...    DCD    447195945
        0x200011a0:    cc210e61    a.!.    DCD    3424718433
        0x200011a4:    3e9dcea5    ...>    DCD    1050529445
        0x200011a8:    19efab8e    ....    DCD    435137422
        0x200011ac:    cb731005    ..s.    DCD    3413315589
        0x200011b0:    3eb1ce2e    ...>    DCD    1051840046
        0x200011b4:    1937abf6    ..7.    DCD    423078902
        0x200011b8:    cac911a8    ....    DCD    3402174888
        0x200011bc:    3ec5cdb7    ...>    DCD    1053150647
        0x200011c0:    187eac61    a.~.    DCD    410954849
        0x200011c4:    ca24134a    J.$.    DCD    3391361866
        0x200011c8:    3ed8cd41    A..>    DCD    1054395713
        0x200011cc:    17c4acd0    ....    DCD    398765264
        0x200011d0:    c98314ea    ....    DCD    3380810986
        0x200011d4:    3eebcccc    ...>    DCD    1055640780
        0x200011d8:    1709ad41    A...    DCD    386510145
        0x200011dc:    c8e81688    ....    DCD    3370653320
        0x200011e0:    3efdcc57    W..>    DCD    1056820311
        0x200011e4:    164cadb6    ..L.    DCD    374123958
        0x200011e8:    c8501824    $.P.    DCD    3360692260
        0x200011ec:    3f0fcbe2    ...?    DCD    1057999842
        0x200011f0:    1590ae2e    ....    DCD    361803310
        0x200011f4:    c7be19be    ....    DCD    3351124414
        0x200011f8:    3f20cb6e    n. ?    DCD    1059113838
        0x200011fc:    14d2aea9    ....    DCD    349351593
        0x20001200:    c7311b56    V.1.    DCD    3341884246
        0x20001204:    3f30cafb    ..0?    DCD    1060162299
        0x20001208:    1413af28    (...    DCD    336834344
        0x2000120c:    c6a81ceb    ....    DCD    3332906219
        0x20001210:    3f40ca88    ..@?    DCD    1061210760
        0x20001214:    1354afa9    ..T.    DCD    324317097
        0x20001218:    c6251e7e    ~.%.    DCD    3324321406
        0x2000121c:    3f4fca15    ..O?    DCD    1062193685
        0x20001220:    1294b02d    -...    DCD    311734317
        0x20001224:    c5a7200e    . ..    DCD    3316064270
        0x20001228:    3f5dc9a3    ..]?    DCD    1063111075
        0x2000122c:    11d3b0b5    ....    DCD    299086005
        0x20001230:    c52d219c    .!-.    DCD    3308069276
        0x20001234:    3f6bc932    2.k?    DCD    1064028466
        0x20001238:    1112b140    @...    DCD    286437696
        0x2000123c:    c4b92326    &#..    DCD    3300467494
        0x20001240:    3f78c8c1    ..x?    DCD    1064880321
        0x20001244:    1050b1cd    ..P.    DCD    273723853
        0x20001248:    c44a24ae    .$J.    DCD    3293193390
        0x2000124c:    3f85c851    Q..?    DCD    1065732177
        0x20001250:    0f8db25e    ^...    DCD    260944478
        0x20001254:    c3e02632    2&..    DCD    3286246962
        0x20001258:    3f91c7e1    ...?    DCD    1066518497
        0x2000125c:    0ecab2f2    ....    DCD    248165106
        0x20001260:    c37b27b3    .'{.    DCD    3279628211
        0x20001264:    3f9cc772    r..?    DCD    1067239282
        0x20001268:    0e06b388    ....    DCD    235320200
        0x2000126c:    c31c2931    1)..    DCD    3273402673
        0x20001270:    3fa7c703    ...?    DCD    1067960067
        0x20001274:    0d41b422    ".A.    DCD    222409762
        0x20001278:    c2c12aaa    .*..    DCD    3267439274
        0x2000127c:    3fb1c695    ...?    DCD    1068615317
        0x20001280:    0c7cb4be    ..|.    DCD    209499326
        0x20001284:    c26d2c21    !,m.    DCD    3261934625
        0x20001288:    3fbbc627    '..?    DCD    1069270567
        0x2000128c:    0bb7b55e    ^...    DCD    196588894
        0x20001290:    c21d2d93    .-..    DCD    3256692115
        0x20001294:    3fc4c5ba    ...?    DCD    1069860282
        0x20001298:    0af1b600    ....    DCD    183612928
        0x2000129c:    c1d32f02    ./..    DCD    3251842818
        0x200012a0:    3fccc54e    N..?    DCD    1070384462
        0x200012a4:    0a2bb6a5    ..+.    DCD    170636965
        0x200012a8:    c18e306c    l0..    DCD    3247321196
        0x200012ac:    3fd4c4e2    ...?    DCD    1070908642
        0x200012b0:    0964b74d    M.d.    DCD    157595469
        0x200012b4:    c14f31d2    .1O.    DCD    3243192786
        0x200012b8:    3fdbc476    v..?    DCD    1071367286
        0x200012bc:    089db7f8    ....    DCD    144553976
        0x200012c0:    c1153334    43..    DCD    3239392052
        0x200012c4:    3fe1c40c    ...?    DCD    1071760396
        0x200012c8:    07d6b8a6    ....    DCD    131512486
        0x200012cc:    c0e03492    .4..    DCD    3235918994
        0x200012d0:    3fe7c3a1    ...?    DCD    1072153505
        0x200012d4:    070eb956    V...    DCD    118405462
        0x200012d8:    c0b135eb    .5..    DCD    3232839147
        0x200012dc:    3fecc338    8..?    DCD    1072481080
        0x200012e0:    0646ba09    ..F.    DCD    105298441
        0x200012e4:    c088373f    ?7..    DCD    3230152511
        0x200012e8:    3ff1c2cf    ...?    DCD    1072808655
        0x200012ec:    057ebabf    ..~.    DCD    92191423
        0x200012f0:    c064388e    .8d.    DCD    3227793550
        0x200012f4:    3ff5c266    f..?    DCD    1073070694
        0x200012f8:    04b5bb77    w...    DCD    79018871
        0x200012fc:    c04539d9    .9E.    DCD    3225762265
        0x20001300:    3ff8c1fe    ...?    DCD    1073267198
        0x20001304:    03edbc32    2...    DCD    65911858
        0x20001308:    c02c3b1e    .;,.    DCD    3224124190
        0x2000130c:    3ffbc197    ...?    DCD    1073463703
        0x20001310:    0324bcf0    ..$.    DCD    52739312
        0x20001314:    c0193c5f    _<..    DCD    3222879327
        0x20001318:    3ffdc130    0..?    DCD    1073594672
        0x2000131c:    025bbdb0    ..[.    DCD    39566768
        0x20001320:    c00b3d9a    .=..    DCD    3221962138
        0x20001324:    3fffc0ca    ...?    DCD    1073725642
        0x20001328:    0192be73    s...    DCD    26394227
        0x2000132c:    c0033ed0    .>..    DCD    3221438160
        0x20001330:    4000c065    e..@    DCD    1073791077
        0x20001334:    00c9bf38    8...    DCD    13221688
    $t
    .text
    __aeabi_memcpy
    __aeabi_memcpy4
    __aeabi_memcpy8
        0x20001338:    ea400301    @...    ORR      r3,r0,r1
        0x2000133c:    079b        ..      LSLS     r3,r3,#30
        0x2000133e:    d003        ..      BEQ      0x20001348 ; __aeabi_memcpy + 16
        0x20001340:    e009        ..      B        0x20001356 ; __aeabi_memcpy + 30
        0x20001342:    c908        ..      LDM      r1!,{r3}
        0x20001344:    1f12        ..      SUBS     r2,r2,#4
        0x20001346:    c008        ..      STM      r0!,{r3}
        0x20001348:    2a04        .*      CMP      r2,#4
        0x2000134a:    d2fa        ..      BCS      0x20001342 ; __aeabi_memcpy + 10
        0x2000134c:    e003        ..      B        0x20001356 ; __aeabi_memcpy + 30
        0x2000134e:    f8113b01    ...;    LDRB     r3,[r1],#1
        0x20001352:    f8003b01    ...;    STRB     r3,[r0],#1
        0x20001356:    1e52        R.      SUBS     r2,r2,#1
        0x20001358:    d2f9        ..      BCS      0x2000134e ; __aeabi_memcpy + 22
        0x2000135a:    4770        pG      BX       lr
    .text
    __aeabi_uidiv
    __aeabi_uidivmod
        0x2000135c:    b530        0.      PUSH     {r4,r5,lr}
        0x2000135e:    460b        .F      MOV      r3,r1
        0x20001360:    4601        .F      MOV      r1,r0
        0x20001362:    2000        .       MOVS     r0,#0
        0x20001364:    2220         "      MOVS     r2,#0x20
        0x20001366:    2401        .$      MOVS     r4,#1
        0x20001368:    e009        ..      B        0x2000137e ; __aeabi_uidiv + 34
        0x2000136a:    fa21f502    !...    LSR      r5,r1,r2
        0x2000136e:    429d        .B      CMP      r5,r3
        0x20001370:    d305        ..      BCC      0x2000137e ; __aeabi_uidiv + 34
        0x20001372:    fa03f502    ....    LSL      r5,r3,r2
        0x20001376:    1b49        I.      SUBS     r1,r1,r5
        0x20001378:    fa04f502    ....    LSL      r5,r4,r2
        0x2000137c:    4428        (D      ADD      r0,r0,r5
        0x2000137e:    1e15        ..      SUBS     r5,r2,#0
        0x20001380:    f1a20201    ....    SUB      r2,r2,#1
        0x20001384:    dcf1        ..      BGT      0x2000136a ; __aeabi_uidiv + 14
        0x20001386:    bd30        0.      POP      {r4,r5,pc}
    .text
    __scatterload
    __scatterload_rt2
        0x20001388:    4c06        .L      LDR      r4,[pc,#24] ; [0x200013a4] = 0x20001efc
        0x2000138a:    4d07        .M      LDR      r5,[pc,#28] ; [0x200013a8] = 0x20001f1c
        0x2000138c:    e006        ..      B        0x2000139c ; __scatterload + 20
        0x2000138e:    68e0        .h      LDR      r0,[r4,#0xc]
        0x20001390:    f0400301    @...    ORR      r3,r0,#1
        0x20001394:    e8940007    ....    LDM      r4,{r0-r2}
        0x20001398:    4798        .G      BLX      r3
        0x2000139a:    3410        .4      ADDS     r4,r4,#0x10
        0x2000139c:    42ac        .B      CMP      r4,r5
        0x2000139e:    d3f6        ..      BCC      0x2000138e ; __scatterload + 6
        0x200013a0:    f7fefec2    ....    BL       __main_after_scatterload ; 0x20000128
    $d
        0x200013a4:    20001efc    ...     DCD    536878844
        0x200013a8:    20001f1c    ...     DCD    536878876
    $t.0
    DWT_INIT
        0x200013ac:    4906        .I      LDR      r1,[pc,#24] ; [0x200013c8] = 0xe000edfc
        0x200013ae:    680a        .h      LDR      r2,[r1,#0]
        0x200013b0:    f0427280    B..r    ORR      r2,r2,#0x1000000
        0x200013b4:    600a        .`      STR      r2,[r1,#0]
        0x200013b6:    4905        .I      LDR      r1,[pc,#20] ; [0x200013cc] = 0xe0001000
        0x200013b8:    680a        .h      LDR      r2,[r1,#0]
        0x200013ba:    f0420201    B...    ORR      r2,r2,#1
        0x200013be:    600a        .`      STR      r2,[r1,#0]
        0x200013c0:    4903        .I      LDR      r1,[pc,#12] ; [0x200013d0] = 0x2000204c
        0x200013c2:    6008        .`      STR      r0,[r1,#0]
        0x200013c4:    4770        pG      BX       lr
        0x200013c6:    bf00        ..      NOP      
    $d.1
    __arm_cp.0_0
        0x200013c8:    e000edfc    ....    DCD    3758157308
    __arm_cp.0_1
        0x200013cc:    e0001000    ....    DCD    3758100480
    __arm_cp.0_2
        0x200013d0:    2000204c    L .     DCD    536879180
    $t.4
    DWT_get_tick
        0x200013d4:    4801        .H      LDR      r0,[pc,#4] ; [0x200013dc] = 0xe0001004
        0x200013d6:    6800        .h      LDR      r0,[r0,#0]
        0x200013d8:    4770        pG      BX       lr
        0x200013da:    bf00        ..      NOP      
    $d.5
    __arm_cp.2_0
        0x200013dc:    e0001004    ....    DCD    3758100484
    $t.0
    HardFaultHandler
        0x200013e0:    4a1c        .J      LDR      r2,[pc,#112] ; [0x20001454] = 0xe000ed24
        0x200013e2:    6891        .h      LDR      r1,[r2,#8]
        0x200013e4:    f1b13fff    ...?    CMP      r1,#0xffffffff
        0x200013e8:    dd2c        ,.      BLE      0x20001444 ; HardFaultHandler + 100
        0x200013ea:    491b        .I      LDR      r1,[pc,#108] ; [0x20001458] = 0x20002008
        0x200013ec:    6813        .h      LDR      r3,[r2,#0]
        0x200013ee:    624b        Kb      STR      r3,[r1,#0x24]
        0x200013f0:    7913        .y      LDRB     r3,[r2,#4]
        0x200013f2:    f8813028    ..(0    STRB     r3,[r1,#0x28]
        0x200013f6:    7953        Sy      LDRB     r3,[r2,#5]
        0x200013f8:    62cb        .b      STR      r3,[r1,#0x2c]
        0x200013fa:    6953        Si      LDR      r3,[r2,#0x14]
        0x200013fc:    630b        .c      STR      r3,[r1,#0x30]
        0x200013fe:    88d3        ..      LDRH     r3,[r2,#6]
        0x20001400:    868b        ..      STRH     r3,[r1,#0x34]
        0x20001402:    6893        .h      LDR      r3,[r2,#8]
        0x20001404:    638b        .c      STR      r3,[r1,#0x38]
        0x20001406:    68d3        .h      LDR      r3,[r2,#0xc]
        0x20001408:    63cb        .c      STR      r3,[r1,#0x3c]
        0x2000140a:    6992        .i      LDR      r2,[r2,#0x18]
        0x2000140c:    640a        .d      STR      r2,[r1,#0x40]
        0x2000140e:    2200        ."      MOVS     r2,#0
        0x20001410:    600a        .`      STR      r2,[r1,#0]
        0x20001412:    680a        .h      LDR      r2,[r1,#0]
        0x20001414:    2a00        .*      CMP      r2,#0
        0x20001416:    d0fc        ..      BEQ      0x20001412 ; HardFaultHandler + 50
        0x20001418:    6802        .h      LDR      r2,[r0,#0]
        0x2000141a:    604a        J`      STR      r2,[r1,#4]
        0x2000141c:    6842        Bh      LDR      r2,[r0,#4]
        0x2000141e:    608a        .`      STR      r2,[r1,#8]
        0x20001420:    6882        .h      LDR      r2,[r0,#8]
        0x20001422:    60ca        .`      STR      r2,[r1,#0xc]
        0x20001424:    68c2        .h      LDR      r2,[r0,#0xc]
        0x20001426:    610a        .a      STR      r2,[r1,#0x10]
        0x20001428:    6902        .i      LDR      r2,[r0,#0x10]
        0x2000142a:    614a        Ja      STR      r2,[r1,#0x14]
        0x2000142c:    6942        Bi      LDR      r2,[r0,#0x14]
        0x2000142e:    618a        .a      STR      r2,[r1,#0x18]
        0x20001430:    6982        .i      LDR      r2,[r0,#0x18]
        0x20001432:    61ca        .a      STR      r2,[r1,#0x1c]
        0x20001434:    69c0        .i      LDR      r0,[r0,#0x1c]
        0x20001436:    6208        .b      STR      r0,[r1,#0x20]
        0x20001438:    2000        .       MOVS     r0,#0
        0x2000143a:    6008        .`      STR      r0,[r1,#0]
        0x2000143c:    6808        .h      LDR      r0,[r1,#0]
        0x2000143e:    2800        .(      CMP      r0,#0
        0x20001440:    d0fc        ..      BEQ      0x2000143c ; HardFaultHandler + 92
        0x20001442:    4770        pG      BX       lr
        0x20001444:    6891        .h      LDR      r1,[r2,#8]
        0x20001446:    f0414100    A..A    ORR      r1,r1,#0x80000000
        0x2000144a:    6091        .`      STR      r1,[r2,#8]
        0x2000144c:    6981        .i      LDR      r1,[r0,#0x18]
        0x2000144e:    3102        .1      ADDS     r1,#2
        0x20001450:    6181        .a      STR      r1,[r0,#0x18]
        0x20001452:    4770        pG      BX       lr
    $d.1
    __arm_cp.0_0
        0x20001454:    e000ed24    $...    DCD    3758157092
    __arm_cp.0_1
        0x20001458:    20002008    . .     DCD    536879112
    $t.63
    OUTLINED_FUNCTION_0
        0x2000145c:    4605        .F      MOV      r5,r0
        0x2000145e:    460c        .F      MOV      r4,r1
        0x20001460:    7830        0x      LDRB     r0,[r6,#0]
        0x20001462:    2800        .(      CMP      r0,#0
        0x20001464:    4770        pG      BX       lr
    OUTLINED_FUNCTION_0
        0x20001466:    f8d80000    ....    LDR      r0,[r8,#0]
        0x2000146a:    1d01        ..      ADDS     r1,r0,#4
        0x2000146c:    f8c81000    ....    STR      r1,[r8,#0]
        0x20001470:    4770        pG      BX       lr
    OUTLINED_FUNCTION_1
        0x20001472:    eb0603c0    ....    ADD      r3,r6,r0,LSL #3
        0x20001476:    4618        .F      MOV      r0,r3
        0x20001478:    f8501f24    P.$.    LDR      r1,[r0,#0x24]!
        0x2000147c:    f8505c04    P..\    LDR      r5,[r0,#-4]
        0x20001480:    1c4e        N.      ADDS     r6,r1,#1
        0x20001482:    1b75        u.      SUBS     r5,r6,r5
        0x20001484:    4770        pG      BX       lr
    OUTLINED_FUNCTION_2
        0x20001486:    eb000040    ..@.    ADD      r0,r0,r0,LSL #1
        0x2000148a:    4614        .F      MOV      r4,r2
        0x2000148c:    eb0101c0    ....    ADD      r1,r1,r0,LSL #3
        0x20001490:    4770        pG      BX       lr
    OUTLINED_FUNCTION_4
        0x20001492:    4632        2F      MOV      r2,r6
        0x20001494:    f7ffbf50    ..P.    B.W      __aeabi_memcpy ; 0x20001338
    OUTLINED_FUNCTION_6
        0x20001498:    4630        0F      MOV      r0,r6
        0x2000149a:    4629        )F      MOV      r1,r5
        0x2000149c:    4622        "F      MOV      r2,r4
        0x2000149e:    f000bb70    ..p.    B.W      _WriteNoCheck ; 0x20001b82
    SEGGER_RTT_Init
        0x200014a2:    f000ba69    ..i.    B.W      _DoInit ; 0x20001978
        0x200014a6:    0000        ..      MOVS     r0,r0
    SEGGER_RTT_PutChar
        0x200014a8:    b5f8        ..      PUSH     {r3-r7,lr}
        0x200014aa:    4e32        2N      LDR      r6,[pc,#200] ; [0x20001574] = 0x20002050
        0x200014ac:    f7ffffd6    ....    BL       OUTLINED_FUNCTION_0 ; 0x2000145c
        0x200014b0:    d101        ..      BNE      0x200014b6 ; SEGGER_RTT_PutChar + 14
        0x200014b2:    f000fa61    ..a.    BL       _DoInit ; 0x20001978
        0x200014b6:    eb050045    ..E.    ADD      r0,r5,r5,LSL #1
        0x200014ba:    f3ef8211    ....    MRS      r2,BASEPRI
        0x200014be:    f04f0120    O. .    MOV      r1,#0x20
        0x200014c2:    f3818811    ....    MSR      BASEPRI,r1
        0x200014c6:    f7ffffd4    ....    BL       OUTLINED_FUNCTION_1 ; 0x20001472
        0x200014ca:    bf18        ..      IT       NE
        0x200014cc:    4635        5F      MOVNE    r5,r6
        0x200014ce:    6886        .h      LDR      r6,[r0,#8]
        0x200014d0:    2e02        ..      CMP      r6,#2
        0x200014d2:    d104        ..      BNE      0x200014de ; SEGGER_RTT_PutChar + 54
        0x200014d4:    f1030628    ..(.    ADD      r6,r3,#0x28
        0x200014d8:    6837        7h      LDR      r7,[r6,#0]
        0x200014da:    42bd        .B      CMP      r5,r7
        0x200014dc:    d0fc        ..      BEQ      0x200014d8 ; SEGGER_RTT_PutChar + 48
        0x200014de:    6a9e        .j      LDR      r6,[r3,#0x28]
        0x200014e0:    42b5        .B      CMP      r5,r6
        0x200014e2:    d101        ..      BNE      0x200014e8 ; SEGGER_RTT_PutChar + 64
        0x200014e4:    2000        .       MOVS     r0,#0
        0x200014e6:    e003        ..      B        0x200014f0 ; SEGGER_RTT_PutChar + 72
        0x200014e8:    69db        .i      LDR      r3,[r3,#0x1c]
        0x200014ea:    545c        \T      STRB     r4,[r3,r1]
        0x200014ec:    6005        .`      STR      r5,[r0,#0]
        0x200014ee:    2001        .       MOVS     r0,#1
        0x200014f0:    f3828811    ....    MSR      BASEPRI,r2
        0x200014f4:    bdf8        ..      POP      {r3-r7,pc}
        0x200014f6:    bf00        ..      NOP      
    SEGGER_RTT_Write
        0x200014f8:    b5f8        ..      PUSH     {r3-r7,lr}
        0x200014fa:    4606        .F      MOV      r6,r0
        0x200014fc:    481d        .H      LDR      r0,[pc,#116] ; [0x20001574] = 0x20002050
        0x200014fe:    4614        .F      MOV      r4,r2
        0x20001500:    460d        .F      MOV      r5,r1
        0x20001502:    7800        .x      LDRB     r0,[r0,#0]
        0x20001504:    b908        ..      CBNZ     r0,0x2000150a ; SEGGER_RTT_Write + 18
        0x20001506:    f000fa37    ..7.    BL       _DoInit ; 0x20001978
        0x2000150a:    f3ef8711    ....    MRS      r7,BASEPRI
        0x2000150e:    f04f0120    O. .    MOV      r1,#0x20
        0x20001512:    f3818811    ....    MSR      BASEPRI,r1
        0x20001516:    4630        0F      MOV      r0,r6
        0x20001518:    4622        "F      MOV      r2,r4
        0x2000151a:    4629        )F      MOV      r1,r5
        0x2000151c:    f000f804    ....    BL       SEGGER_RTT_WriteNoLock ; 0x20001528
        0x20001520:    f3878811    ....    MSR      BASEPRI,r7
        0x20001524:    bdf8        ..      POP      {r3-r7,pc}
        0x20001526:    bf00        ..      NOP      
    SEGGER_RTT_WriteNoLock
        0x20001528:    b570        p.      PUSH     {r4-r6,lr}
        0x2000152a:    460d        .F      MOV      r5,r1
        0x2000152c:    4911        .I      LDR      r1,[pc,#68] ; [0x20001574] = 0x20002050
        0x2000152e:    f7ffffaa    ....    BL       OUTLINED_FUNCTION_2 ; 0x20001486
        0x20001532:    6ac8        .j      LDR      r0,[r1,#0x2c]
        0x20001534:    f1010618    ....    ADD      r6,r1,#0x18
        0x20001538:    2802        .(      CMP      r0,#2
        0x2000153a:    d009        ..      BEQ      0x20001550 ; SEGGER_RTT_WriteNoLock + 40
        0x2000153c:    2801        .(      CMP      r0,#1
        0x2000153e:    d00e        ..      BEQ      0x2000155e ; SEGGER_RTT_WriteNoLock + 54
        0x20001540:    b920         .      CBNZ     r0,0x2000154c ; SEGGER_RTT_WriteNoLock + 36
        0x20001542:    4630        0F      MOV      r0,r6
        0x20001544:    f000fa48    ..H.    BL       _GetAvailWriteSpace ; 0x200019d8
        0x20001548:    42a0        .B      CMP      r0,r4
        0x2000154a:    d20e        ..      BCS      0x2000156a ; SEGGER_RTT_WriteNoLock + 66
        0x2000154c:    2400        .$      MOVS     r4,#0
        0x2000154e:    e00e        ..      B        0x2000156e ; SEGGER_RTT_WriteNoLock + 70
        0x20001550:    4630        0F      MOV      r0,r6
        0x20001552:    4629        )F      MOV      r1,r5
        0x20001554:    4622        "F      MOV      r2,r4
        0x20001556:    e8bd4070    ..p@    POP      {r4-r6,lr}
        0x2000155a:    f000bae1    ....    B.W      _WriteBlocking ; 0x20001b20
        0x2000155e:    4630        0F      MOV      r0,r6
        0x20001560:    f000fa3a    ..:.    BL       _GetAvailWriteSpace ; 0x200019d8
        0x20001564:    42a0        .B      CMP      r0,r4
        0x20001566:    bf38        8.      IT       CC
        0x20001568:    4604        .F      MOVCC    r4,r0
        0x2000156a:    f7ffff95    ....    BL       OUTLINED_FUNCTION_6 ; 0x20001498
        0x2000156e:    4620         F      MOV      r0,r4
        0x20001570:    bd70        p.      POP      {r4-r6,pc}
        0x20001572:    bf00        ..      NOP      
    $d.16
    __arm_cp.10_0
        0x20001574:    20002050    P .     DCD    536879184
    $t.8
    SEGGER_RTT_printf
        0x20001578:    b082        ..      SUB      sp,sp,#8
        0x2000157a:    b5e0        ..      PUSH     {r5-r7,lr}
        0x2000157c:    e9cd2304    ...#    STRD     r2,r3,[sp,#0x10]
        0x20001580:    aa04        ..      ADD      r2,sp,#0x10
        0x20001582:    9201        ..      STR      r2,[sp,#4]
        0x20001584:    aa01        ..      ADD      r2,sp,#4
        0x20001586:    f000f805    ....    BL       SEGGER_RTT_vprintf ; 0x20001594
        0x2000158a:    e8bd408c    ...@    POP      {r2,r3,r7,lr}
        0x2000158e:    b002        ..      ADD      sp,sp,#8
        0x20001590:    4770        pG      BX       lr
        0x20001592:    0000        ..      MOVS     r0,r0
    SEGGER_RTT_vprintf
        0x20001594:    e92d4ff0    -..O    PUSH     {r4-r11,lr}
        0x20001598:    b09d        ..      SUB      sp,sp,#0x74
        0x2000159a:    460f        .F      MOV      r7,r1
        0x2000159c:    2100        .!      MOVS     r1,#0
        0x2000159e:    9005        ..      STR      r0,[sp,#0x14]
        0x200015a0:    901c        ..      STR      r0,[sp,#0x70]
        0x200015a2:    2040        @       MOVS     r0,#0x40
        0x200015a4:    4690        .F      MOV      r8,r2
        0x200015a6:    2400        .$      MOVS     r4,#0
        0x200015a8:    911a        ..      STR      r1,[sp,#0x68]
        0x200015aa:    9019        ..      STR      r0,[sp,#0x64]
        0x200015ac:    a808        ..      ADD      r0,sp,#0x20
        0x200015ae:    911b        ..      STR      r1,[sp,#0x6c]
        0x200015b0:    9018        ..      STR      r0,[sp,#0x60]
        0x200015b2:    ae18        ..      ADD      r6,sp,#0x60
        0x200015b4:    9207        ..      STR      r2,[sp,#0x1c]
        0x200015b6:    463d        =F      MOV      r5,r7
        0x200015b8:    f8151b01    ....    LDRB     r1,[r5],#1
        0x200015bc:    2925        %)      CMP      r1,#0x25
        0x200015be:    d007        ..      BEQ      0x200015d0 ; SEGGER_RTT_vprintf + 60
        0x200015c0:    2900        .)      CMP      r1,#0
        0x200015c2:    f000812f    ../.    BEQ.W    0x20001824 ; SEGGER_RTT_vprintf + 656
        0x200015c6:    4630        0F      MOV      r0,r6
        0x200015c8:    f000fa8a    ....    BL       _StoreChar ; 0x20001ae0
        0x200015cc:    462f        /F      MOV      r7,r5
        0x200015ce:    e100        ..      B        0x200017d2 ; SEGGER_RTT_vprintf + 574
        0x200015d0:    1cb8        ..      ADDS     r0,r7,#2
        0x200015d2:    f04f0b00    O...    MOV      r11,#0
        0x200015d6:    7829        )x      LDRB     r1,[r5,#0]
        0x200015d8:    2923        #)      CMP      r1,#0x23
        0x200015da:    d007        ..      BEQ      0x200015ec ; SEGGER_RTT_vprintf + 88
        0x200015dc:    292b        +)      CMP      r1,#0x2b
        0x200015de:    d007        ..      BEQ      0x200015f0 ; SEGGER_RTT_vprintf + 92
        0x200015e0:    292d        -)      CMP      r1,#0x2d
        0x200015e2:    d007        ..      BEQ      0x200015f4 ; SEGGER_RTT_vprintf + 96
        0x200015e4:    2930        0)      CMP      r1,#0x30
        0x200015e6:    d10b        ..      BNE      0x20001600 ; SEGGER_RTT_vprintf + 108
        0x200015e8:    2102        .!      MOVS     r1,#2
        0x200015ea:    e004        ..      B        0x200015f6 ; SEGGER_RTT_vprintf + 98
        0x200015ec:    2108        .!      MOVS     r1,#8
        0x200015ee:    e002        ..      B        0x200015f6 ; SEGGER_RTT_vprintf + 98
        0x200015f0:    2104        .!      MOVS     r1,#4
        0x200015f2:    e000        ..      B        0x200015f6 ; SEGGER_RTT_vprintf + 98
        0x200015f4:    2101        .!      MOVS     r1,#1
        0x200015f6:    ea4b0b01    K...    ORR      r11,r11,r1
        0x200015fa:    3001        .0      ADDS     r0,#1
        0x200015fc:    3501        .5      ADDS     r5,#1
        0x200015fe:    e7ea        ..      B        0x200015d6 ; SEGGER_RTT_vprintf + 66
        0x20001600:    f04f0a00    O...    MOV      r10,#0
        0x20001604:    2930        0)      CMP      r1,#0x30
        0x20001606:    d30a        ..      BCC      0x2000161e ; SEGGER_RTT_vprintf + 138
        0x20001608:    2939        9)      CMP      r1,#0x39
        0x2000160a:    d818        ..      BHI      0x2000163e ; SEGGER_RTT_vprintf + 170
        0x2000160c:    eb0a028a    ....    ADD      r2,r10,r10,LSL #2
        0x20001610:    eb010142    ..B.    ADD      r1,r1,r2,LSL #1
        0x20001614:    f1a10a30    ..0.    SUB      r10,r1,#0x30
        0x20001618:    f8101b01    ....    LDRB     r1,[r0],#1
        0x2000161c:    e7f2        ..      B        0x20001604 ; SEGGER_RTT_vprintf + 112
        0x2000161e:    292e        .)      CMP      r1,#0x2e
        0x20001620:    d10d        ..      BNE      0x2000163e ; SEGGER_RTT_vprintf + 170
        0x20001622:    2500        .%      MOVS     r5,#0
        0x20001624:    7801        .x      LDRB     r1,[r0,#0]
        0x20001626:    f1a10230    ..0.    SUB      r2,r1,#0x30
        0x2000162a:    2a09        .*      CMP      r2,#9
        0x2000162c:    d809        ..      BHI      0x20001642 ; SEGGER_RTT_vprintf + 174
        0x2000162e:    eb050285    ....    ADD      r2,r5,r5,LSL #2
        0x20001632:    3001        .0      ADDS     r0,#1
        0x20001634:    eb010142    ..B.    ADD      r1,r1,r2,LSL #1
        0x20001638:    f1a10530    ..0.    SUB      r5,r1,#0x30
        0x2000163c:    e7f2        ..      B        0x20001624 ; SEGGER_RTT_vprintf + 144
        0x2000163e:    3801        .8      SUBS     r0,#1
        0x20001640:    2500        .%      MOVS     r5,#0
        0x20001642:    1c47        G.      ADDS     r7,r0,#1
        0x20001644:    f1a10063    ..c.    SUB      r0,r1,#0x63
        0x20001648:    2809        .(      CMP      r0,#9
        0x2000164a:    d809        ..      BHI      0x20001660 ; SEGGER_RTT_vprintf + 204
        0x2000164c:    e8dff000    ....    TBB      [pc,r0]
    $d.1
        0x20001650:    c1c14d48    HM..    DCD    3250670920
        0x20001654:    c1c105c1    ....    DCD    3250652609
        0x20001658:    05c1        ..      DCW    1473
    $t.2
        0x2000165a:    f8171b01    ....    LDRB     r1,[r7],#1
        0x2000165e:    e7f1        ..      B        0x20001644 ; SEGGER_RTT_vprintf + 176
        0x20001660:    f1a10070    ..p.    SUB      r0,r1,#0x70
        0x20001664:    2808        .(      CMP      r0,#8
        0x20001666:    d814        ..      BHI      0x20001692 ; SEGGER_RTT_vprintf + 254
        0x20001668:    e8dff000    ....    TBB      [pc,r0]
    $d.3
        0x2000166c:    23b3b305    ...#    DCD    598979333
        0x20001670:    b3b333b3    .3..    DCD    3014865843
        0x20001674:    0018        ..      DCW    24
    $t.4
        0x20001676:    f8d80000    ....    LDR      r0,[r8,#0]
        0x2000167a:    2210        ."      MOVS     r2,#0x10
        0x2000167c:    2308        .#      MOVS     r3,#8
        0x2000167e:    1d01        ..      ADDS     r1,r0,#4
        0x20001680:    f8c81000    ....    STR      r1,[r8,#0]
        0x20001684:    6801        .h      LDR      r1,[r0,#0]
        0x20001686:    2008        .       MOVS     r0,#8
        0x20001688:    9000        ..      STR      r0,[sp,#0]
        0x2000168a:    2000        .       MOVS     r0,#0
        0x2000168c:    9001        ..      STR      r0,[sp,#4]
        0x2000168e:    4630        0F      MOV      r0,r6
        0x20001690:    e09d        ..      B        0x200017ce ; SEGGER_RTT_vprintf + 570
        0x20001692:    2925        %)      CMP      r1,#0x25
        0x20001694:    d050        P.      BEQ      0x20001738 ; SEGGER_RTT_vprintf + 420
        0x20001696:    2958        X)      CMP      r1,#0x58
        0x20001698:    f040809b    @...    BNE.W    0x200017d2 ; SEGGER_RTT_vprintf + 574
        0x2000169c:    f8d80000    ....    LDR      r0,[r8,#0]
        0x200016a0:    2210        ."      MOVS     r2,#0x10
        0x200016a2:    1d01        ..      ADDS     r1,r0,#4
        0x200016a4:    f8c81000    ....    STR      r1,[r8,#0]
        0x200016a8:    6801        .h      LDR      r1,[r0,#0]
        0x200016aa:    e9cdab00    ....    STRD     r10,r11,[sp,#0]
        0x200016ae:    4630        0F      MOV      r0,r6
        0x200016b0:    e08c        ..      B        0x200017cc ; SEGGER_RTT_vprintf + 568
        0x200016b2:    f7fffed8    ....    BL       OUTLINED_FUNCTION_0 ; 0x20001466
        0x200016b6:    6804        .h      LDR      r4,[r0,#0]
        0x200016b8:    7821        !x      LDRB     r1,[r4,#0]
        0x200016ba:    2900        .)      CMP      r1,#0
        0x200016bc:    f0008089    ....    BEQ.W    0x200017d2 ; SEGGER_RTT_vprintf + 574
        0x200016c0:    4630        0F      MOV      r0,r6
        0x200016c2:    f000fa0d    ....    BL       _StoreChar ; 0x20001ae0
        0x200016c6:    981b        ..      LDR      r0,[sp,#0x6c]
        0x200016c8:    3401        .4      ADDS     r4,#1
        0x200016ca:    f1b03fff    ...?    CMP      r0,#0xffffffff
        0x200016ce:    dcf3        ..      BGT      0x200016b8 ; SEGGER_RTT_vprintf + 292
        0x200016d0:    e07f        ..      B        0x200017d2 ; SEGGER_RTT_vprintf + 574
        0x200016d2:    f7fffec8    ....    BL       OUTLINED_FUNCTION_0 ; 0x20001466
        0x200016d6:    6801        .h      LDR      r1,[r0,#0]
        0x200016d8:    e9cdab00    ....    STRD     r10,r11,[sp,#0]
        0x200016dc:    4630        0F      MOV      r0,r6
        0x200016de:    e074        t.      B        0x200017ca ; SEGGER_RTT_vprintf + 566
        0x200016e0:    f7fffec1    ....    BL       OUTLINED_FUNCTION_0 ; 0x20001466
        0x200016e4:    7801        .x      LDRB     r1,[r0,#0]
        0x200016e6:    4630        0F      MOV      r0,r6
        0x200016e8:    e028        (.      B        0x2000173c ; SEGGER_RTT_vprintf + 424
        0x200016ea:    f8d80000    ....    LDR      r0,[r8,#0]
        0x200016ee:    f04f0901    O...    MOV      r9,#1
        0x200016f2:    1d01        ..      ADDS     r1,r0,#4
        0x200016f4:    f8c81000    ....    STR      r1,[r8,#0]
        0x200016f8:    f8d08000    ....    LDR      r8,[r0,#0]
        0x200016fc:    f1b80f00    ....    CMP      r8,#0
        0x20001700:    4640        @F      MOV      r0,r8
        0x20001702:    f1c80200    ....    RSB      r2,r8,#0
        0x20001706:    bf48        H.      IT       MI
        0x20001708:    f1c80000    ....    RSBMI    r0,r8,#0
        0x2000170c:    210a        .!      MOVS     r1,#0xa
        0x2000170e:    280a        .(      CMP      r0,#0xa
        0x20001710:    d304        ..      BCC      0x2000171c ; SEGGER_RTT_vprintf + 392
        0x20001712:    fbb0f0f1    ....    UDIV     r0,r0,r1
        0x20001716:    f1090901    ....    ADD      r9,r9,#1
        0x2000171a:    e7f8        ..      B        0x2000170e ; SEGGER_RTT_vprintf + 378
        0x2000171c:    45a9        .E      CMP      r9,r5
        0x2000171e:    bf38        8.      IT       CC
        0x20001720:    46a9        .F      MOVCC    r9,r5
        0x20001722:    f1ba0f00    ....    CMP      r10,#0
        0x20001726:    d00c        ..      BEQ      0x20001742 ; SEGGER_RTT_vprintf + 430
        0x20001728:    f1b80f00    ....    CMP      r8,#0
        0x2000172c:    bf54        T.      ITE      PL
        0x2000172e:    ea5f704b    _.Kp    LSLSPL   r0,r11,#29
        0x20001732:    f1aa0a01    ....    SUBMI    r10,r10,#1
        0x20001736:    e006        ..      B        0x20001746 ; SEGGER_RTT_vprintf + 434
        0x20001738:    4630        0F      MOV      r0,r6
        0x2000173a:    2125        %!      MOVS     r1,#0x25
        0x2000173c:    f000f9d0    ....    BL       _StoreChar ; 0x20001ae0
        0x20001740:    e047        G.      B        0x200017d2 ; SEGGER_RTT_vprintf + 574
        0x20001742:    f04f0a00    O...    MOV      r10,#0
        0x20001746:    f01b0102    ....    ANDS     r1,r11,#2
        0x2000174a:    d000        ..      BEQ      0x2000174e ; SEGGER_RTT_vprintf + 442
        0x2000174c:    b1e5        ..      CBZ      r5,0x20001788 ; SEGGER_RTT_vprintf + 500
        0x2000174e:    ea5f70cb    _..p    LSLS     r0,r11,#31
        0x20001752:    d119        ..      BNE      0x20001788 ; SEGGER_RTT_vprintf + 500
        0x20001754:    f1ba0f00    ....    CMP      r10,#0
        0x20001758:    d016        ..      BEQ      0x20001788 ; SEGGER_RTT_vprintf + 500
        0x2000175a:    f10a0601    ....    ADD      r6,r10,#1
        0x2000175e:    4648        HF      MOV      r0,r9
        0x20001760:    9104        ..      STR      r1,[sp,#0x10]
        0x20001762:    9206        ..      STR      r2,[sp,#0x18]
        0x20001764:    45ca        .E      CMP      r10,r9
        0x20001766:    bf38        8.      IT       CC
        0x20001768:    4650        PF      MOVCC    r0,r10
        0x2000176a:    9003        ..      STR      r0,[sp,#0xc]
        0x2000176c:    3e01        .>      SUBS     r6,#1
        0x2000176e:    45b1        .E      CMP      r9,r6
        0x20001770:    d207        ..      BCS      0x20001782 ; SEGGER_RTT_vprintf + 494
        0x20001772:    a818        ..      ADD      r0,sp,#0x60
        0x20001774:    2120         !      MOVS     r1,#0x20
        0x20001776:    f000f9b3    ....    BL       _StoreChar ; 0x20001ae0
        0x2000177a:    9c1b        ..      LDR      r4,[sp,#0x6c]
        0x2000177c:    2c00        .,      CMP      r4,#0
        0x2000177e:    d5f5        ..      BPL      0x2000176c ; SEGGER_RTT_vprintf + 472
        0x20001780:    e047        G.      B        0x20001812 ; SEGGER_RTT_vprintf + 638
        0x20001782:    9a06        ..      LDR      r2,[sp,#0x18]
        0x20001784:    e9dda103    ....    LDRD     r10,r1,[sp,#0xc]
        0x20001788:    2c00        .,      CMP      r4,#0
        0x2000178a:    d442        B.      BMI      0x20001812 ; SEGGER_RTT_vprintf + 638
        0x2000178c:    460c        .F      MOV      r4,r1
        0x2000178e:    f1b80f00    ....    CMP      r8,#0
        0x20001792:    d406        ..      BMI      0x200017a2 ; SEGGER_RTT_vprintf + 526
        0x20001794:    ea5f704b    _.Kp    LSLS     r0,r11,#29
        0x20001798:    d406        ..      BMI      0x200017a8 ; SEGGER_RTT_vprintf + 532
        0x2000179a:    f8cd8018    ....    STR      r8,[sp,#0x18]
        0x2000179e:    ae18        ..      ADD      r6,sp,#0x60
        0x200017a0:    e009        ..      B        0x200017b6 ; SEGGER_RTT_vprintf + 546
        0x200017a2:    9206        ..      STR      r2,[sp,#0x18]
        0x200017a4:    212d        -!      MOVS     r1,#0x2d
        0x200017a6:    e002        ..      B        0x200017ae ; SEGGER_RTT_vprintf + 538
        0x200017a8:    212b        +!      MOVS     r1,#0x2b
        0x200017aa:    f8cd8018    ....    STR      r8,[sp,#0x18]
        0x200017ae:    ae18        ..      ADD      r6,sp,#0x60
        0x200017b0:    4630        0F      MOV      r0,r6
        0x200017b2:    f000f995    ....    BL       _StoreChar ; 0x20001ae0
        0x200017b6:    981b        ..      LDR      r0,[sp,#0x6c]
        0x200017b8:    2800        .(      CMP      r0,#0
        0x200017ba:    d410        ..      BMI      0x200017de ; SEGGER_RTT_vprintf + 586
        0x200017bc:    b994        ..      CBNZ     r4,0x200017e4 ; SEGGER_RTT_vprintf + 592
        0x200017be:    f8dd801c    ....    LDR      r8,[sp,#0x1c]
        0x200017c2:    9906        ..      LDR      r1,[sp,#0x18]
        0x200017c4:    4630        0F      MOV      r0,r6
        0x200017c6:    e9cdab00    ....    STRD     r10,r11,[sp,#0]
        0x200017ca:    220a        ."      MOVS     r2,#0xa
        0x200017cc:    462b        +F      MOV      r3,r5
        0x200017ce:    f000f90d    ....    BL       _PrintUnsigned ; 0x200019ec
        0x200017d2:    9c1b        ..      LDR      r4,[sp,#0x6c]
        0x200017d4:    f1b43fff    ...?    CMP      r4,#0xffffffff
        0x200017d8:    f73faeed    ?...    BGT      0x200015b6 ; SEGGER_RTT_vprintf + 34
        0x200017dc:    e02e        ..      B        0x2000183c ; SEGGER_RTT_vprintf + 680
        0x200017de:    f8dd801c    ....    LDR      r8,[sp,#0x1c]
        0x200017e2:    e7f6        ..      B        0x200017d2 ; SEGGER_RTT_vprintf + 574
        0x200017e4:    f00b0001    ....    AND      r0,r11,#1
        0x200017e8:    4328        (C      ORRS     r0,r0,r5
        0x200017ea:    d1e8        ..      BNE      0x200017be ; SEGGER_RTT_vprintf + 554
        0x200017ec:    f1ba0f00    ....    CMP      r10,#0
        0x200017f0:    d0e5        ..      BEQ      0x200017be ; SEGGER_RTT_vprintf + 554
        0x200017f2:    46c8        .F      MOV      r8,r9
        0x200017f4:    f10a0601    ....    ADD      r6,r10,#1
        0x200017f8:    45ca        .E      CMP      r10,r9
        0x200017fa:    bf38        8.      IT       CC
        0x200017fc:    46d0        .F      MOVCC    r8,r10
        0x200017fe:    3e01        .>      SUBS     r6,#1
        0x20001800:    45b1        .E      CMP      r9,r6
        0x20001802:    d20a        ..      BCS      0x2000181a ; SEGGER_RTT_vprintf + 646
        0x20001804:    a818        ..      ADD      r0,sp,#0x60
        0x20001806:    2130        0!      MOVS     r1,#0x30
        0x20001808:    f000f96a    ..j.    BL       _StoreChar ; 0x20001ae0
        0x2000180c:    981b        ..      LDR      r0,[sp,#0x6c]
        0x2000180e:    2800        .(      CMP      r0,#0
        0x20001810:    d5f5        ..      BPL      0x200017fe ; SEGGER_RTT_vprintf + 618
        0x20001812:    f8dd801c    ....    LDR      r8,[sp,#0x1c]
        0x20001816:    ae18        ..      ADD      r6,sp,#0x60
        0x20001818:    e7db        ..      B        0x200017d2 ; SEGGER_RTT_vprintf + 574
        0x2000181a:    46c2        .F      MOV      r10,r8
        0x2000181c:    f8dd801c    ....    LDR      r8,[sp,#0x1c]
        0x20001820:    ae18        ..      ADD      r6,sp,#0x60
        0x20001822:    e7ce        ..      B        0x200017c2 ; SEGGER_RTT_vprintf + 558
        0x20001824:    2c01        .,      CMP      r4,#1
        0x20001826:    db08        ..      BLT      0x2000183a ; SEGGER_RTT_vprintf + 678
        0x20001828:    9d1a        ..      LDR      r5,[sp,#0x68]
        0x2000182a:    b125        %.      CBZ      r5,0x20001836 ; SEGGER_RTT_vprintf + 674
        0x2000182c:    a908        ..      ADD      r1,sp,#0x20
        0x2000182e:    9805        ..      LDR      r0,[sp,#0x14]
        0x20001830:    462a        *F      MOV      r2,r5
        0x20001832:    f7fffe61    ..a.    BL       SEGGER_RTT_Write ; 0x200014f8
        0x20001836:    442c        ,D      ADD      r4,r4,r5
        0x20001838:    e000        ..      B        0x2000183c ; SEGGER_RTT_vprintf + 680
        0x2000183a:    2400        .$      MOVS     r4,#0
        0x2000183c:    4620         F      MOV      r0,r4
        0x2000183e:    b01d        ..      ADD      sp,sp,#0x74
        0x20001840:    e8bd8ff0    ....    POP      {r4-r11,pc}
    SysTick_Handler
        0x20001844:    4802        .H      LDR      r0,[pc,#8] ; [0x20001850] = 0x20002208
        0x20001846:    6801        .h      LDR      r1,[r0,#0]
        0x20001848:    3101        .1      ADDS     r1,#1
        0x2000184a:    6001        .`      STR      r1,[r0,#0]
        0x2000184c:    4770        pG      BX       lr
        0x2000184e:    bf00        ..      NOP      
    $d.6
    __arm_cp.3_0
        0x20001850:    20002208    .".     DCD    536879624
    $t.3
    SysTick_Init
        0x20001854:    4909        .I      LDR      r1,[pc,#36] ; [0x2000187c] = 0x20002004
        0x20001856:    6809        .h      LDR      r1,[r1,#0]
        0x20001858:    fbb1f0f0    ....    UDIV     r0,r1,r0
        0x2000185c:    3801        .8      SUBS     r0,#1
        0x2000185e:    f1b07f80    ....    CMP      r0,#0x1000000
        0x20001862:    d300        ..      BCC      0x20001866 ; SysTick_Init + 18
        0x20001864:    e7fe        ..      B        0x20001864 ; SysTick_Init + 16
        0x20001866:    4906        .I      LDR      r1,[pc,#24] ; [0x20001880] = 0xe000e010
        0x20001868:    22f0        ."      MOVS     r2,#0xf0
        0x2000186a:    6048        H`      STR      r0,[r1,#4]
        0x2000186c:    4805        .H      LDR      r0,[pc,#20] ; [0x20001884] = 0xe000ed23
        0x2000186e:    7002        .p      STRB     r2,[r0,#0]
        0x20001870:    2000        .       MOVS     r0,#0
        0x20001872:    6088        .`      STR      r0,[r1,#8]
        0x20001874:    2007        .       MOVS     r0,#7
        0x20001876:    6008        .`      STR      r0,[r1,#0]
        0x20001878:    4770        pG      BX       lr
        0x2000187a:    bf00        ..      NOP      
    $d.4
    __arm_cp.2_0
        0x2000187c:    20002004    . .     DCD    536879108
    __arm_cp.2_1
        0x20001880:    e000e010    ....    DCD    3758153744
    __arm_cp.2_2
        0x20001884:    e000ed23    #...    DCD    3758157091
    $t.0
    SystemInit
        0x20001888:    b082        ..      SUB      sp,sp,#8
        0x2000188a:    4836        6H      LDR      r0,[pc,#216] ; [0x20001964] = 0x40021000
        0x2000188c:    4a36        6J      LDR      r2,[pc,#216] ; [0x20001968] = 0xf8ff0000
        0x2000188e:    6801        .h      LDR      r1,[r0,#0]
        0x20001890:    f0410101    A...    ORR      r1,r1,#1
        0x20001894:    6001        .`      STR      r1,[r0,#0]
        0x20001896:    6841        Ah      LDR      r1,[r0,#4]
        0x20001898:    4011        .@      ANDS     r1,r1,r2
        0x2000189a:    4a34        4J      LDR      r2,[pc,#208] ; [0x2000196c] = 0xfef6ffff
        0x2000189c:    6041        A`      STR      r1,[r0,#4]
        0x2000189e:    6801        .h      LDR      r1,[r0,#0]
        0x200018a0:    4011        .@      ANDS     r1,r1,r2
        0x200018a2:    6001        .`      STR      r1,[r0,#0]
        0x200018a4:    6801        .h      LDR      r1,[r0,#0]
        0x200018a6:    f4212180    !..!    BIC      r1,r1,#0x40000
        0x200018aa:    6001        .`      STR      r1,[r0,#0]
        0x200018ac:    6841        Ah      LDR      r1,[r0,#4]
        0x200018ae:    f42101fe    !...    BIC      r1,r1,#0x7f0000
        0x200018b2:    6041        A`      STR      r1,[r0,#4]
        0x200018b4:    f44f011f    O...    MOV      r1,#0x9f0000
        0x200018b8:    6081        .`      STR      r1,[r0,#8]
        0x200018ba:    2100        .!      MOVS     r1,#0
        0x200018bc:    9101        ..      STR      r1,[sp,#4]
        0x200018be:    9100        ..      STR      r1,[sp,#0]
        0x200018c0:    6801        .h      LDR      r1,[r0,#0]
        0x200018c2:    f4413180    A..1    ORR      r1,r1,#0x10000
        0x200018c6:    6001        .`      STR      r1,[r0,#0]
        0x200018c8:    6801        .h      LDR      r1,[r0,#0]
        0x200018ca:    f4013100    ...1    AND      r1,r1,#0x20000
        0x200018ce:    9100        ..      STR      r1,[sp,#0]
        0x200018d0:    9901        ..      LDR      r1,[sp,#4]
        0x200018d2:    3101        .1      ADDS     r1,#1
        0x200018d4:    9101        ..      STR      r1,[sp,#4]
        0x200018d6:    9900        ..      LDR      r1,[sp,#0]
        0x200018d8:    b919        ..      CBNZ     r1,0x200018e2 ; SystemInit + 90
        0x200018da:    9901        ..      LDR      r1,[sp,#4]
        0x200018dc:    f5b16fa0    ...o    CMP      r1,#0x500
        0x200018e0:    d1f2        ..      BNE      0x200018c8 ; SystemInit + 64
        0x200018e2:    6801        .h      LDR      r1,[r0,#0]
        0x200018e4:    0389        ..      LSLS     r1,r1,#14
        0x200018e6:    bf54        T.      ITE      PL
        0x200018e8:    2100        .!      MOVPL    r1,#0
        0x200018ea:    2101        .!      MOVMI    r1,#1
        0x200018ec:    9100        ..      STR      r1,[sp,#0]
        0x200018ee:    9900        ..      LDR      r1,[sp,#0]
        0x200018f0:    2901        .)      CMP      r1,#1
        0x200018f2:    d130        0.      BNE      0x20001956 ; SystemInit + 206
        0x200018f4:    491e        .I      LDR      r1,[pc,#120] ; [0x20001970] = 0x40022000
        0x200018f6:    680a        .h      LDR      r2,[r1,#0]
        0x200018f8:    f0420210    B...    ORR      r2,r2,#0x10
        0x200018fc:    600a        .`      STR      r2,[r1,#0]
        0x200018fe:    680a        .h      LDR      r2,[r1,#0]
        0x20001900:    f0220203    "...    BIC      r2,r2,#3
        0x20001904:    600a        .`      STR      r2,[r1,#0]
        0x20001906:    680a        .h      LDR      r2,[r1,#0]
        0x20001908:    f0420202    B...    ORR      r2,r2,#2
        0x2000190c:    600a        .`      STR      r2,[r1,#0]
        0x2000190e:    6841        Ah      LDR      r1,[r0,#4]
        0x20001910:    6041        A`      STR      r1,[r0,#4]
        0x20001912:    6841        Ah      LDR      r1,[r0,#4]
        0x20001914:    6041        A`      STR      r1,[r0,#4]
        0x20001916:    6841        Ah      LDR      r1,[r0,#4]
        0x20001918:    f4416180    A..a    ORR      r1,r1,#0x400
        0x2000191c:    6041        A`      STR      r1,[r0,#4]
        0x2000191e:    6841        Ah      LDR      r1,[r0,#4]
        0x20001920:    f421117c    !.|.    BIC      r1,r1,#0x3f0000
        0x20001924:    6041        A`      STR      r1,[r0,#4]
        0x20001926:    6841        Ah      LDR      r1,[r0,#4]
        0x20001928:    f44111e8    A...    ORR      r1,r1,#0x1d0000
        0x2000192c:    6041        A`      STR      r1,[r0,#4]
        0x2000192e:    6801        .h      LDR      r1,[r0,#0]
        0x20001930:    f0417180    A..q    ORR      r1,r1,#0x1000000
        0x20001934:    6001        .`      STR      r1,[r0,#0]
        0x20001936:    6801        .h      LDR      r1,[r0,#0]
        0x20001938:    0189        ..      LSLS     r1,r1,#6
        0x2000193a:    d5fc        ..      BPL      0x20001936 ; SystemInit + 174
        0x2000193c:    6841        Ah      LDR      r1,[r0,#4]
        0x2000193e:    f0210103    !...    BIC      r1,r1,#3
        0x20001942:    6041        A`      STR      r1,[r0,#4]
        0x20001944:    6841        Ah      LDR      r1,[r0,#4]
        0x20001946:    f0410102    A...    ORR      r1,r1,#2
        0x2000194a:    6041        A`      STR      r1,[r0,#4]
        0x2000194c:    6841        Ah      LDR      r1,[r0,#4]
        0x2000194e:    f001010c    ....    AND      r1,r1,#0xc
        0x20001952:    2908        .)      CMP      r1,#8
        0x20001954:    d1fa        ..      BNE      0x2000194c ; SystemInit + 196
        0x20001956:    4807        .H      LDR      r0,[pc,#28] ; [0x20001974] = 0xe000ed08
        0x20001958:    f04f5100    O..Q    MOV      r1,#0x20000000
        0x2000195c:    6001        .`      STR      r1,[r0,#0]
        0x2000195e:    b002        ..      ADD      sp,sp,#8
        0x20001960:    4770        pG      BX       lr
        0x20001962:    bf00        ..      NOP      
    $d.1
    __arm_cp.0_0
        0x20001964:    40021000    ...@    DCD    1073876992
    __arm_cp.0_1
        0x20001968:    f8ff0000    ....    DCD    4177461248
    __arm_cp.0_2
        0x2000196c:    fef6ffff    ....    DCD    4277600255
    __arm_cp.0_3
        0x20001970:    40022000    . .@    DCD    1073881088
    __arm_cp.0_4
        0x20001974:    e000ed08    ....    DCD    3758157064
    $t.2
    _DoInit
        0x20001978:    4810        .H      LDR      r0,[pc,#64] ; [0x200019bc] = 0x20002050
        0x2000197a:    2103        .!      MOVS     r1,#3
        0x2000197c:    4a11        .J      LDR      r2,[pc,#68] ; [0x200019c4] = 0x20002108
        0x2000197e:    6101        .a      STR      r1,[r0,#0x10]
        0x20001980:    6141        Aa      STR      r1,[r0,#0x14]
        0x20001982:    490f        .I      LDR      r1,[pc,#60] ; [0x200019c0] = 0x20001ef0
        0x20001984:    6181        .a      STR      r1,[r0,#0x18]
        0x20001986:    61c2        .a      STR      r2,[r0,#0x1c]
        0x20001988:    f44f7280    O..r    MOV      r2,#0x100
        0x2000198c:    6202        .b      STR      r2,[r0,#0x20]
        0x2000198e:    2200        ."      MOVS     r2,#0
        0x20001990:    6282        .b      STR      r2,[r0,#0x28]
        0x20001992:    6242        Bb      STR      r2,[r0,#0x24]
        0x20001994:    62c2        .b      STR      r2,[r0,#0x2c]
        0x20001996:    6601        .f      STR      r1,[r0,#0x60]
        0x20001998:    490b        .I      LDR      r1,[pc,#44] ; [0x200019c8] = 0x200020f8
        0x2000199a:    6641        Af      STR      r1,[r0,#0x64]
        0x2000199c:    2110        .!      MOVS     r1,#0x10
        0x2000199e:    6681        .f      STR      r1,[r0,#0x68]
        0x200019a0:    490a        .I      LDR      r1,[pc,#40] ; [0x200019cc] = 0x524547
        0x200019a2:    6702        .g      STR      r2,[r0,#0x70]
        0x200019a4:    66c2        .f      STR      r2,[r0,#0x6c]
        0x200019a6:    f8c01003    ....    STR      r1,[r0,#3]
        0x200019aa:    4909        .I      LDR      r1,[pc,#36] ; [0x200019d0] = 0x545452
        0x200019ac:    6742        Bg      STR      r2,[r0,#0x74]
        0x200019ae:    f8c01007    ....    STR      r1,[r0,#7]
        0x200019b2:    4908        .I      LDR      r1,[pc,#32] ; [0x200019d4] = 0x47474553
        0x200019b4:    6001        .`      STR      r1,[r0,#0]
        0x200019b6:    2120         !      MOVS     r1,#0x20
        0x200019b8:    7181        .q      STRB     r1,[r0,#6]
        0x200019ba:    4770        pG      BX       lr
    $d.3
    __arm_cp.1_0
        0x200019bc:    20002050    P .     DCD    536879184
    __arm_cp.1_1
        0x200019c0:    20001ef0    ...     DCD    536878832
    __arm_cp.1_2
        0x200019c4:    20002108    .!.     DCD    536879368
    __arm_cp.1_3
        0x200019c8:    200020f8    . .     DCD    536879352
    __arm_cp.1_4
        0x200019cc:    00524547    GER.    DCD    5391687
    __arm_cp.1_5
        0x200019d0:    00545452    RTT.    DCD    5526610
    __arm_cp.1_6
        0x200019d4:    47474553    SEGG    DCD    1195853139
    $t.12
    _GetAvailWriteSpace
        0x200019d8:    68c2        .h      LDR      r2,[r0,#0xc]
        0x200019da:    6901        .i      LDR      r1,[r0,#0x10]
        0x200019dc:    4291        .B      CMP      r1,r2
        0x200019de:    bf8f        ..      ITEEE    HI
        0x200019e0:    43d0        .C      MVNHI    r0,r2
        0x200019e2:    43d2        .C      MVNLS    r2,r2
        0x200019e4:    4411        .D      ADDLS    r1,r2
        0x200019e6:    6880        .h      LDRLS    r0,[r0,#8]
        0x200019e8:    4408        .D      ADD      r0,r0,r1
        0x200019ea:    4770        pG      BX       lr
    _PrintUnsigned
        0x200019ec:    e92d4ff8    -..O    PUSH     {r3-r11,lr}
        0x200019f0:    4681        .F      MOV      r9,r0
        0x200019f2:    e9dda00a    ....    LDRD     r10,r0,[sp,#0x28]
        0x200019f6:    461f        .F      MOV      r7,r3
        0x200019f8:    4615        .F      MOV      r5,r2
        0x200019fa:    460e        .F      MOV      r6,r1
        0x200019fc:    f04f0b01    O...    MOV      r11,#1
        0x20001a00:    42a9        .B      CMP      r1,r5
        0x20001a02:    d304        ..      BCC      0x20001a0e ; _PrintUnsigned + 34
        0x20001a04:    fbb1f1f5    ....    UDIV     r1,r1,r5
        0x20001a08:    f10b0b01    ....    ADD      r11,r11,#1
        0x20001a0c:    e7f8        ..      B        0x20001a00 ; _PrintUnsigned + 20
        0x20001a0e:    45bb        .E      CMP      r11,r7
        0x20001a10:    bf38        8.      IT       CC
        0x20001a12:    46bb        .F      MOVCC    r11,r7
        0x20001a14:    f0000101    ....    AND      r1,r0,#1
        0x20001a18:    f1ba0f00    ....    CMP      r10,#0
        0x20001a1c:    9100        ..      STR      r1,[sp,#0]
        0x20001a1e:    d01e        ..      BEQ      0x20001a5e ; _PrintUnsigned + 114
        0x20001a20:    b9e9        ..      CBNZ     r1,0x20001a5e ; _PrintUnsigned + 114
        0x20001a22:    0780        ..      LSLS     r0,r0,#30
        0x20001a24:    f04f0820    O. .    MOV      r8,#0x20
        0x20001a28:    465c        \F      MOV      r4,r11
        0x20001a2a:    bf48        H.      IT       MI
        0x20001a2c:    f04f0830    O.0.    MOVMI    r8,#0x30
        0x20001a30:    2f00        ./      CMP      r7,#0
        0x20001a32:    f04f0020    O. .    MOV      r0,#0x20
        0x20001a36:    bf18        ..      IT       NE
        0x20001a38:    4680        .F      MOVNE    r8,r0
        0x20001a3a:    45d3        .E      CMP      r11,r10
        0x20001a3c:    bf88        ..      IT       HI
        0x20001a3e:    4654        TF      MOVHI    r4,r10
        0x20001a40:    45d3        .E      CMP      r11,r10
        0x20001a42:    d20b        ..      BCS      0x20001a5c ; _PrintUnsigned + 112
        0x20001a44:    4648        HF      MOV      r0,r9
        0x20001a46:    4641        AF      MOV      r1,r8
        0x20001a48:    f000f84a    ..J.    BL       _StoreChar ; 0x20001ae0
        0x20001a4c:    f8d9000c    ....    LDR      r0,[r9,#0xc]
        0x20001a50:    f1aa0a01    ....    SUB      r10,r10,#1
        0x20001a54:    f1b03fff    ...?    CMP      r0,#0xffffffff
        0x20001a58:    dcf2        ..      BGT      0x20001a40 ; _PrintUnsigned + 84
        0x20001a5a:    e000        ..      B        0x20001a5e ; _PrintUnsigned + 114
        0x20001a5c:    46a2        .F      MOV      r10,r4
        0x20001a5e:    f8d9000c    ....    LDR      r0,[r9,#0xc]
        0x20001a62:    2800        .(      CMP      r0,#0
        0x20001a64:    d431        1.      BMI      0x20001aca ; _PrintUnsigned + 222
        0x20001a66:    2401        .$      MOVS     r4,#1
        0x20001a68:    2f02        ./      CMP      r7,#2
        0x20001a6a:    d301        ..      BCC      0x20001a70 ; _PrintUnsigned + 132
        0x20001a6c:    3f01        .?      SUBS     r7,#1
        0x20001a6e:    e003        ..      B        0x20001a78 ; _PrintUnsigned + 140
        0x20001a70:    fbb6f0f4    ....    UDIV     r0,r6,r4
        0x20001a74:    42a8        .B      CMP      r0,r5
        0x20001a76:    d301        ..      BCC      0x20001a7c ; _PrintUnsigned + 144
        0x20001a78:    436c        lC      MULS     r4,r5,r4
        0x20001a7a:    e7f5        ..      B        0x20001a68 ; _PrintUnsigned + 124
        0x20001a7c:    f20f0850    ..P.    ADR.W    r8,{pc}+0x54 ; 0x20001ad0
        0x20001a80:    fbb6f7f4    ....    UDIV     r7,r6,r4
        0x20001a84:    4648        HF      MOV      r0,r9
        0x20001a86:    f8181007    ....    LDRB     r1,[r8,r7]
        0x20001a8a:    f000f829    ..).    BL       _StoreChar ; 0x20001ae0
        0x20001a8e:    f8d9000c    ....    LDR      r0,[r9,#0xc]
        0x20001a92:    2800        .(      CMP      r0,#0
        0x20001a94:    d406        ..      BMI      0x20001aa4 ; _PrintUnsigned + 184
        0x20001a96:    fbb4f0f5    ....    UDIV     r0,r4,r5
        0x20001a9a:    fb076614    ...f    MLS      r6,r7,r4,r6
        0x20001a9e:    42ac        .B      CMP      r4,r5
        0x20001aa0:    4604        .F      MOV      r4,r0
        0x20001aa2:    d2ed        ..      BCS      0x20001a80 ; _PrintUnsigned + 148
        0x20001aa4:    9800        ..      LDR      r0,[sp,#0]
        0x20001aa6:    b180        ..      CBZ      r0,0x20001aca ; _PrintUnsigned + 222
        0x20001aa8:    f1ba0f00    ....    CMP      r10,#0
        0x20001aac:    d00d        ..      BEQ      0x20001aca ; _PrintUnsigned + 222
        0x20001aae:    f10a0401    ....    ADD      r4,r10,#1
        0x20001ab2:    3c01        .<      SUBS     r4,#1
        0x20001ab4:    45a3        .E      CMP      r11,r4
        0x20001ab6:    d208        ..      BCS      0x20001aca ; _PrintUnsigned + 222
        0x20001ab8:    4648        HF      MOV      r0,r9
        0x20001aba:    2120         !      MOVS     r1,#0x20
        0x20001abc:    f000f810    ....    BL       _StoreChar ; 0x20001ae0
        0x20001ac0:    f8d9000c    ....    LDR      r0,[r9,#0xc]
        0x20001ac4:    f1b03fff    ...?    CMP      r0,#0xffffffff
        0x20001ac8:    dcf3        ..      BGT      0x20001ab2 ; _PrintUnsigned + 198
        0x20001aca:    e8bd8ff8    ....    POP      {r3-r11,pc}
        0x20001ace:    bf00        ..      NOP      
    $d.7
    _PrintUnsigned._aV2C
        0x20001ad0:    33323130    0123    DCD    858927408
        0x20001ad4:    37363534    4567    DCD    926299444
        0x20001ad8:    42413938    89AB    DCD    1111570744
        0x20001adc:    46454443    CDEF    DCD    1178944579
    $t.5
    _StoreChar
        0x20001ae0:    b510        ..      PUSH     {r4,lr}
        0x20001ae2:    e9d02301    ...#    LDRD     r2,r3,[r0,#4]
        0x20001ae6:    4604        .F      MOV      r4,r0
        0x20001ae8:    1c58        X.      ADDS     r0,r3,#1
        0x20001aea:    4290        .B      CMP      r0,r2
        0x20001aec:    d901        ..      BLS      0x20001af2 ; _StoreChar + 18
        0x20001aee:    4618        .F      MOV      r0,r3
        0x20001af0:    e006        ..      B        0x20001b00 ; _StoreChar + 32
        0x20001af2:    6822        "h      LDR      r2,[r4,#0]
        0x20001af4:    54d1        .T      STRB     r1,[r2,r3]
        0x20001af6:    60a0        .`      STR      r0,[r4,#8]
        0x20001af8:    68e1        .h      LDR      r1,[r4,#0xc]
        0x20001afa:    6862        bh      LDR      r2,[r4,#4]
        0x20001afc:    3101        .1      ADDS     r1,#1
        0x20001afe:    60e1        .`      STR      r1,[r4,#0xc]
        0x20001b00:    4290        .B      CMP      r0,r2
        0x20001b02:    d10c        ..      BNE      0x20001b1e ; _StoreChar + 62
        0x20001b04:    6821        !h      LDR      r1,[r4,#0]
        0x20001b06:    6920         i      LDR      r0,[r4,#0x10]
        0x20001b08:    f7fffcf6    ....    BL       SEGGER_RTT_Write ; 0x200014f8
        0x20001b0c:    68a1        .h      LDR      r1,[r4,#8]
        0x20001b0e:    4288        .B      CMP      r0,r1
        0x20001b10:    bf1e        ..      ITTT     NE
        0x20001b12:    f04f30ff    O..0    MOVNE    r0,#0xffffffff
        0x20001b16:    60e0        .`      STRNE    r0,[r4,#0xc]
        0x20001b18:    bd10        ..      POPNE    {r4,pc}
        0x20001b1a:    2000        .       MOVS     r0,#0
        0x20001b1c:    60a0        .`      STR      r0,[r4,#8]
        0x20001b1e:    bd10        ..      POP      {r4,pc}
    _WriteBlocking
        0x20001b20:    e92d43f8    -..C    PUSH     {r3-r9,lr}
        0x20001b24:    68c7        .h      LDR      r7,[r0,#0xc]
        0x20001b26:    4614        .F      MOV      r4,r2
        0x20001b28:    460d        .F      MOV      r5,r1
        0x20001b2a:    4680        .F      MOV      r8,r0
        0x20001b2c:    f04f0900    O...    MOV      r9,#0
        0x20001b30:    f8d80010    ....    LDR      r0,[r8,#0x10]
        0x20001b34:    43f9        .C      MVNS     r1,r7
        0x20001b36:    42b8        .B      CMP      r0,r7
        0x20001b38:    d903        ..      BLS      0x20001b42 ; _WriteBlocking + 34
        0x20001b3a:    f8d82008    ...     LDR      r2,[r8,#8]
        0x20001b3e:    4401        .D      ADD      r1,r1,r0
        0x20001b40:    e003        ..      B        0x20001b4a ; _WriteBlocking + 42
        0x20001b42:    f8d82008    ...     LDR      r2,[r8,#8]
        0x20001b46:    4408        .D      ADD      r0,r0,r1
        0x20001b48:    1881        ..      ADDS     r1,r0,r2
        0x20001b4a:    f8d80004    ....    LDR      r0,[r8,#4]
        0x20001b4e:    1bd6        ..      SUBS     r6,r2,r7
        0x20001b50:    42b1        .B      CMP      r1,r6
        0x20001b52:    bf38        8.      IT       CC
        0x20001b54:    460e        .F      MOVCC    r6,r1
        0x20001b56:    4629        )F      MOV      r1,r5
        0x20001b58:    42a6        .B      CMP      r6,r4
        0x20001b5a:    bf28        (.      IT       CS
        0x20001b5c:    4626        &F      MOVCS    r6,r4
        0x20001b5e:    4438        8D      ADD      r0,r0,r7
        0x20001b60:    f7fffc97    ....    BL       OUTLINED_FUNCTION_4 ; 0x20001492
        0x20001b64:    f8d81008    ....    LDR      r1,[r8,#8]
        0x20001b68:    19f0        ..      ADDS     r0,r6,r7
        0x20001b6a:    4435        5D      ADD      r5,r5,r6
        0x20001b6c:    44b1        .D      ADD      r9,r9,r6
        0x20001b6e:    1a47        G.      SUBS     r7,r0,r1
        0x20001b70:    bf18        ..      IT       NE
        0x20001b72:    4607        .F      MOVNE    r7,r0
        0x20001b74:    1ba4        ..      SUBS     r4,r4,r6
        0x20001b76:    f8c8700c    ...p    STR      r7,[r8,#0xc]
        0x20001b7a:    d1d9        ..      BNE      0x20001b30 ; _WriteBlocking + 16
        0x20001b7c:    4648        HF      MOV      r0,r9
        0x20001b7e:    e8bd83f8    ....    POP      {r3-r9,pc}
    _WriteNoCheck
        0x20001b82:    e92d41f0    -..A    PUSH     {r4-r8,lr}
        0x20001b86:    4604        .F      MOV      r4,r0
        0x20001b88:    4688        .F      MOV      r8,r1
        0x20001b8a:    6840        @h      LDR      r0,[r0,#4]
        0x20001b8c:    4615        .F      MOV      r5,r2
        0x20001b8e:    e9d41602    ....    LDRD     r1,r6,[r4,#8]
        0x20001b92:    1b8f        ..      SUBS     r7,r1,r6
        0x20001b94:    4430        0D      ADD      r0,r0,r6
        0x20001b96:    4297        .B      CMP      r7,r2
        0x20001b98:    d905        ..      BLS      0x20001ba6 ; _WriteNoCheck + 36
        0x20001b9a:    4641        AF      MOV      r1,r8
        0x20001b9c:    462a        *F      MOV      r2,r5
        0x20001b9e:    f7fffbcb    ....    BL       __aeabi_memcpy ; 0x20001338
        0x20001ba2:    4435        5D      ADD      r5,r5,r6
        0x20001ba4:    e00a        ..      B        0x20001bbc ; _WriteNoCheck + 58
        0x20001ba6:    4641        AF      MOV      r1,r8
        0x20001ba8:    463a        :F      MOV      r2,r7
        0x20001baa:    f7fffbc5    ....    BL       __aeabi_memcpy ; 0x20001338
        0x20001bae:    1bed        ..      SUBS     r5,r5,r7
        0x20001bb0:    6860        `h      LDR      r0,[r4,#4]
        0x20001bb2:    eb080107    ....    ADD      r1,r8,r7
        0x20001bb6:    462a        *F      MOV      r2,r5
        0x20001bb8:    f7fffbbe    ....    BL       __aeabi_memcpy ; 0x20001338
        0x20001bbc:    60e5        .`      STR      r5,[r4,#0xc]
        0x20001bbe:    e8bd81f0    ....    POP      {r4-r8,pc}
        0x20001bc2:    0000        ..      MOVS     r0,r0
    app
        0x20001bc4:    b570        p.      PUSH     {r4-r6,lr}
        0x20001bc6:    f5ad5dc0    ...]    SUB      sp,sp,#0x1800
        0x20001bca:    2000        .       MOVS     r0,#0
        0x20001bcc:    f50d6100    ...a    ADD      r1,sp,#0x800
        0x20001bd0:    f5b06f80    ...o    CMP      r0,#0x400
        0x20001bd4:    d003        ..      BEQ      0x20001bde ; app + 26
        0x20001bd6:    f8410020    A. .    STR      r0,[r1,r0,LSL #2]
        0x20001bda:    3001        .0      ADDS     r0,#1
        0x20001bdc:    e7f8        ..      B        0x20001bd0 ; app + 12
        0x20001bde:    f7fffbf9    ....    BL       DWT_get_tick ; 0x200013d4
        0x20001be2:    4604        .F      MOV      r4,r0
        0x20001be4:    4668        hF      MOV      r0,sp
        0x20001be6:    f50d6100    ...a    ADD      r1,sp,#0x800
        0x20001bea:    f44f6280    O..b    MOV      r2,#0x400
        0x20001bee:    f7fefab3    ....    BL       cr4_fft_1024_stm32 ; 0x20000158
        0x20001bf2:    f7fffbef    ....    BL       DWT_get_tick ; 0x200013d4
        0x20001bf6:    1b00        ..      SUBS     r0,r0,r4
        0x20001bf8:    2148        H!      MOVS     r1,#0x48
        0x20001bfa:    fb90f2f1    ....    SDIV     r2,r0,r1
        0x20001bfe:    a008        ..      ADR      r0,{pc}+0x22 ; 0x20001c20
        0x20001c00:    f44f6180    O..a    MOV      r1,#0x400
        0x20001c04:    f000f898    ....    BL       __0printf$1 ; 0x20001d38
        0x20001c08:    f000f824    ..$.    BL       get_tick ; 0x20001c54
        0x20001c0c:    4604        .F      MOV      r4,r0
        0x20001c0e:    f000f821    ..!.    BL       get_tick ; 0x20001c54
        0x20001c12:    1b00        ..      SUBS     r0,r0,r4
        0x20001c14:    f5b07ffa    ....    CMP      r0,#0x1f4
        0x20001c18:    dbf9        ..      BLT      0x20001c0e ; app + 74
        0x20001c1a:    f50d5dc0    ...]    ADD      sp,sp,#0x1800
        0x20001c1e:    bd70        p.      POP      {r4-r6,pc}
    $d.1
        0x20001c20:    20656874    the     DCD    543516788
        0x20001c24:    70206425    %d p    DCD    1881170981
        0x20001c28:    746e696f    oint    DCD    1953393007
        0x20001c2c:    66662073    s ff    DCD    1717969011
        0x20001c30:    73692074    t is    DCD    1936269428
        0x20001c34:    65737520     use    DCD    1702065440
        0x20001c38:    20642520     %d     DCD    543434016
        0x20001c3c:    0a0d7375    us..    DCD    168653685
        0x20001c40:    00000000    ....    DCD    0
    $t.2
    fputc
        0x20001c44:    b510        ..      PUSH     {r4,lr}
        0x20001c46:    4604        .F      MOV      r4,r0
        0x20001c48:    b2c1        ..      UXTB     r1,r0
        0x20001c4a:    2000        .       MOVS     r0,#0
        0x20001c4c:    f7fffc2c    ..,.    BL       SEGGER_RTT_PutChar ; 0x200014a8
        0x20001c50:    4620         F      MOV      r0,r4
        0x20001c52:    bd10        ..      POP      {r4,pc}
    get_tick
        0x20001c54:    4801        .H      LDR      r0,[pc,#4] ; [0x20001c5c] = 0x20002208
        0x20001c56:    6800        .h      LDR      r0,[r0,#0]
        0x20001c58:    4770        pG      BX       lr
        0x20001c5a:    bf00        ..      NOP      
    $d.7
    __arm_cp.3_0
        0x20001c5c:    20002208    .".     DCD    536879624
    $t.7
    main
        0x20001c60:    f000f81e    ....    BL       segger_init ; 0x20001ca0
        0x20001c64:    a006        ..      ADR      r0,{pc}+0x1c ; 0x20001c80
        0x20001c66:    f000f931    ..1.    BL       puts ; 0x20001ecc
        0x20001c6a:    f44f707a    O.zp    MOV      r0,#0x3e8
        0x20001c6e:    f7fffdf1    ....    BL       SysTick_Init ; 0x20001854
        0x20001c72:    480a        .H      LDR      r0,[pc,#40] ; [0x20001c9c] = 0x20002004
        0x20001c74:    6800        .h      LDR      r0,[r0,#0]
        0x20001c76:    f7fffb99    ....    BL       DWT_INIT ; 0x200013ac
        0x20001c7a:    f7ffffa3    ....    BL       app ; 0x20001bc4
        0x20001c7e:    e7fc        ..      B        0x20001c7a ; main + 26
    $d.8
        0x20001c80:    636d6172    ramc    DCD    1668112754
        0x20001c84:    2065646f    ode     DCD    543515759
        0x20001c88:    676f7270    prog    DCD    1735357040
        0x20001c8c:    206d6172    ram     DCD    544039282
        0x20001c90:    69676562    begi    DCD    1768383842
        0x20001c94:    2e2e2e6e    n...    DCD    774778478
        0x20001c98:    0000000d    ....    DCD    13
    __arm_cp.4_1
        0x20001c9c:    20002004    . .     DCD    536879108
    $t.0
    segger_init
        0x20001ca0:    b580        ..      PUSH     {r7,lr}
        0x20001ca2:    f7fffbfe    ....    BL       SEGGER_RTT_Init ; 0x200014a2
        0x20001ca6:    a107        ..      ADR      r1,{pc}+0x1e ; 0x20001cc4
        0x20001ca8:    a20e        ..      ADR      r2,{pc}+0x3c ; 0x20001ce4
        0x20001caa:    a310        ..      ADR      r3,{pc}+0x42 ; 0x20001cec
        0x20001cac:    2000        .       MOVS     r0,#0
        0x20001cae:    f7fffc63    ..c.    BL       SEGGER_RTT_printf ; 0x20001578
        0x20001cb2:    a110        ..      ADR      r1,{pc}+0x42 ; 0x20001cf4
        0x20001cb4:    a215        ..      ADR      r2,{pc}+0x58 ; 0x20001d0c
        0x20001cb6:    a318        ..      ADR      r3,{pc}+0x62 ; 0x20001d18
        0x20001cb8:    2000        .       MOVS     r0,#0
        0x20001cba:    e8bd4080    ...@    POP      {r7,lr}
        0x20001cbe:    f7ffbc5b    ..[.    B.W      SEGGER_RTT_printf ; 0x20001578
        0x20001cc2:    bf00        ..      NOP      
    $d.1
        0x20001cc4:    434d7325    %sMC    DCD    1129149221
        0x20001cc8:    68632055    U ch    DCD    1751326805
        0x20001ccc:    203a7069    ip:     DCD    540700777
        0x20001cd0:    334d5453    STM3    DCD    860705875
        0x20001cd4:    30314632    2F10    DCD    808535602
        0x20001cd8:    45442033    3 DE    DCD    1162092595
        0x20001cdc:    73254f4d    MO%s    DCD    1931824973
        0x20001ce0:    00000a0d    ....    DCD    2573
        0x20001ce4:    3b345b1b    .[4;    DCD    993286939
        0x20001ce8:    006d3134    41m.    DCD    7156020
        0x20001cec:    6d305b1b    .[0m    DCD    1831885595
        0x20001cf0:    00000000    ....    DCD    0
        0x20001cf4:    706d6f63    comp    DCD    1886220131
        0x20001cf8:    64656c69    iled    DCD    1684368489
        0x20001cfc:    6d697420     tim    DCD    1835627552
        0x20001d00:    25203a65    e: %    DCD    622869093
        0x20001d04:    73252073    s %s    DCD    1931812979
        0x20001d08:    00000a0d    ....    DCD    2573
        0x20001d0c:    20626546    Feb     DCD    543319366
        0x20001d10:    32203232    22 2    DCD    840970802
        0x20001d14:    00323230    022.    DCD    3289648
        0x20001d18:    343a3131    11:4    DCD    876228913
        0x20001d1c:    36303a31    1:06    DCD    909130289
        0x20001d20:    00000000    ....    DCD    0
    $t
    OSKERNEL
    HardFault_Handler
        0x20001d24:    f01e0f04    ....    TST      lr,#4
        0x20001d28:    bf0c        ..      ITE      EQ
        0x20001d2a:    f3ef8008    ....    MRSEQ    r0,MSP
        0x20001d2e:    f3ef8009    ....    MRSNE    r0,PSP
        0x20001d32:    f7ffbb55    ..U.    B        HardFaultHandler ; 0x200013e0
        0x20001d36:    0000        ..      MOVS     r0,r0
    i.__0printf$1
    __0printf$1
    __1printf$1
    __2printf
        0x20001d38:    b40f        ..      PUSH     {r0-r3}
        0x20001d3a:    4b05        .K      LDR      r3,[pc,#20] ; [0x20001d50] = 0x20001c45
        0x20001d3c:    b510        ..      PUSH     {r4,lr}
        0x20001d3e:    a903        ..      ADD      r1,sp,#0xc
        0x20001d40:    4a04        .J      LDR      r2,[pc,#16] ; [0x20001d54] = 0x20002000
        0x20001d42:    9802        ..      LDR      r0,[sp,#8]
        0x20001d44:    f000f818    ....    BL       _printf_core ; 0x20001d78
        0x20001d48:    bc10        ..      POP      {r4}
        0x20001d4a:    f85dfb14    ]...    LDR      pc,[sp],#0x14
    $d
        0x20001d4e:    0000        ..      DCW    0
        0x20001d50:    20001c45    E..     DCD    536878149
        0x20001d54:    20002000    . .     DCD    536879104
    $t
    i.__scatterload_copy
    __scatterload_copy
        0x20001d58:    e002        ..      B        0x20001d60 ; __scatterload_copy + 8
        0x20001d5a:    c808        ..      LDM      r0!,{r3}
        0x20001d5c:    1f12        ..      SUBS     r2,r2,#4
        0x20001d5e:    c108        ..      STM      r1!,{r3}
        0x20001d60:    2a00        .*      CMP      r2,#0
        0x20001d62:    d1fa        ..      BNE      0x20001d5a ; __scatterload_copy + 2
        0x20001d64:    4770        pG      BX       lr
    i.__scatterload_null
    __scatterload_null
        0x20001d66:    4770        pG      BX       lr
    i.__scatterload_zeroinit
    __scatterload_zeroinit
        0x20001d68:    2000        .       MOVS     r0,#0
        0x20001d6a:    e001        ..      B        0x20001d70 ; __scatterload_zeroinit + 8
        0x20001d6c:    c101        ..      STM      r1!,{r0}
        0x20001d6e:    1f12        ..      SUBS     r2,r2,#4
        0x20001d70:    2a00        .*      CMP      r2,#0
        0x20001d72:    d1fb        ..      BNE      0x20001d6c ; __scatterload_zeroinit + 4
        0x20001d74:    4770        pG      BX       lr
        0x20001d76:    0000        ..      MOVS     r0,r0
    i._printf_core
    _printf_core
        0x20001d78:    e92d4fff    -..O    PUSH     {r0-r11,lr}
        0x20001d7c:    b089        ..      SUB      sp,sp,#0x24
        0x20001d7e:    469b        .F      MOV      r11,r3
        0x20001d80:    4604        .F      MOV      r4,r0
        0x20001d82:    2500        .%      MOVS     r5,#0
        0x20001d84:    e006        ..      B        0x20001d94 ; _printf_core + 28
        0x20001d86:    2825        %(      CMP      r0,#0x25
        0x20001d88:    d00b        ..      BEQ      0x20001da2 ; _printf_core + 42
        0x20001d8a:    465a        ZF      MOV      r2,r11
        0x20001d8c:    990b        ..      LDR      r1,[sp,#0x2c]
        0x20001d8e:    4790        .G      BLX      r2
        0x20001d90:    1c64        d.      ADDS     r4,r4,#1
        0x20001d92:    1c6d        m.      ADDS     r5,r5,#1
        0x20001d94:    7820         x      LDRB     r0,[r4,#0]
        0x20001d96:    2800        .(      CMP      r0,#0
        0x20001d98:    d1f5        ..      BNE      0x20001d86 ; _printf_core + 14
        0x20001d9a:    b00d        ..      ADD      sp,sp,#0x34
        0x20001d9c:    4628        (F      MOV      r0,r5
        0x20001d9e:    e8bd8ff0    ....    POP      {r4-r11,pc}
        0x20001da2:    2700        .'      MOVS     r7,#0
        0x20001da4:    46b8        .F      MOV      r8,r7
        0x20001da6:    2201        ."      MOVS     r2,#1
        0x20001da8:    4947        GI      LDR      r1,[pc,#284] ; [0x20001ec8] = 0x12809
        0x20001daa:    e000        ..      B        0x20001dae ; _printf_core + 54
        0x20001dac:    4307        .C      ORRS     r7,r7,r0
        0x20001dae:    f8143f01    ...?    LDRB     r3,[r4,#1]!
        0x20001db2:    3b20         ;      SUBS     r3,r3,#0x20
        0x20001db4:    fa02f003    ....    LSL      r0,r2,r3
        0x20001db8:    4208        .B      TST      r0,r1
        0x20001dba:    d1f7        ..      BNE      0x20001dac ; _printf_core + 52
        0x20001dbc:    7820         x      LDRB     r0,[r4,#0]
        0x20001dbe:    282e        .(      CMP      r0,#0x2e
        0x20001dc0:    d119        ..      BNE      0x20001df6 ; _printf_core + 126
        0x20001dc2:    f8140f01    ....    LDRB     r0,[r4,#1]!
        0x20001dc6:    f0470704    G...    ORR      r7,r7,#4
        0x20001dca:    282a        *(      CMP      r0,#0x2a
        0x20001dcc:    d00e        ..      BEQ      0x20001dec ; _printf_core + 116
        0x20001dce:    f06f022f    o./.    MVN      r2,#0x2f
        0x20001dd2:    7820         x      LDRB     r0,[r4,#0]
        0x20001dd4:    f1a00130    ..0.    SUB      r1,r0,#0x30
        0x20001dd8:    2909        .)      CMP      r1,#9
        0x20001dda:    d80c        ..      BHI      0x20001df6 ; _printf_core + 126
        0x20001ddc:    eb080188    ....    ADD      r1,r8,r8,LSL #2
        0x20001de0:    eb020141    ..A.    ADD      r1,r2,r1,LSL #1
        0x20001de4:    eb000801    ....    ADD      r8,r0,r1
        0x20001de8:    1c64        d.      ADDS     r4,r4,#1
        0x20001dea:    e7f2        ..      B        0x20001dd2 ; _printf_core + 90
        0x20001dec:    980a        ..      LDR      r0,[sp,#0x28]
        0x20001dee:    1c64        d.      ADDS     r4,r4,#1
        0x20001df0:    f8508b04    P...    LDR      r8,[r0],#4
        0x20001df4:    900a        ..      STR      r0,[sp,#0x28]
        0x20001df6:    7820         x      LDRB     r0,[r4,#0]
        0x20001df8:    2800        .(      CMP      r0,#0
        0x20001dfa:    d0ce        ..      BEQ      0x20001d9a ; _printf_core + 34
        0x20001dfc:    2864        d(      CMP      r0,#0x64
        0x20001dfe:    d008        ..      BEQ      0x20001e12 ; _printf_core + 154
        0x20001e00:    2869        i(      CMP      r0,#0x69
        0x20001e02:    d006        ..      BEQ      0x20001e12 ; _printf_core + 154
        0x20001e04:    2875        u(      CMP      r0,#0x75
        0x20001e06:    d01e        ..      BEQ      0x20001e46 ; _printf_core + 206
        0x20001e08:    465a        ZF      MOV      r2,r11
        0x20001e0a:    990b        ..      LDR      r1,[sp,#0x2c]
        0x20001e0c:    4790        .G      BLX      r2
        0x20001e0e:    1c6d        m.      ADDS     r5,r5,#1
        0x20001e10:    e058        X.      B        0x20001ec4 ; _printf_core + 332
        0x20001e12:    990a        ..      LDR      r1,[sp,#0x28]
        0x20001e14:    f04f090a    O...    MOV      r9,#0xa
        0x20001e18:    c901        ..      LDM      r1!,{r0}
        0x20001e1a:    910a        ..      STR      r1,[sp,#0x28]
        0x20001e1c:    2800        .(      CMP      r0,#0
        0x20001e1e:    da02        ..      BGE      0x20001e26 ; _printf_core + 174
        0x20001e20:    4240        @B      RSBS     r0,r0,#0
        0x20001e22:    212d        -!      MOVS     r1,#0x2d
        0x20001e24:    e002        ..      B        0x20001e2c ; _printf_core + 180
        0x20001e26:    0539        9.      LSLS     r1,r7,#20
        0x20001e28:    d504        ..      BPL      0x20001e34 ; _printf_core + 188
        0x20001e2a:    212b        +!      MOVS     r1,#0x2b
        0x20001e2c:    f88d1020    .. .    STRB     r1,[sp,#0x20]
        0x20001e30:    2101        .!      MOVS     r1,#1
        0x20001e32:    e003        ..      B        0x20001e3c ; _printf_core + 196
        0x20001e34:    07f9        ..      LSLS     r1,r7,#31
        0x20001e36:    d004        ..      BEQ      0x20001e42 ; _printf_core + 202
        0x20001e38:    2120         !      MOVS     r1,#0x20
        0x20001e3a:    e7f7        ..      B        0x20001e2c ; _printf_core + 180
        0x20001e3c:    468a        .F      MOV      r10,r1
        0x20001e3e:    ae08        ..      ADD      r6,sp,#0x20
        0x20001e40:    e00d        ..      B        0x20001e5e ; _printf_core + 230
        0x20001e42:    2100        .!      MOVS     r1,#0
        0x20001e44:    e7fa        ..      B        0x20001e3c ; _printf_core + 196
        0x20001e46:    990a        ..      LDR      r1,[sp,#0x28]
        0x20001e48:    f04f090a    O...    MOV      r9,#0xa
        0x20001e4c:    c901        ..      LDM      r1!,{r0}
        0x20001e4e:    910a        ..      STR      r1,[sp,#0x28]
        0x20001e50:    e7f7        ..      B        0x20001e42 ; _printf_core + 202
        0x20001e52:    4649        IF      MOV      r1,r9
        0x20001e54:    f7fffa82    ....    BL       __aeabi_uidiv ; 0x2000135c
        0x20001e58:    3130        01      ADDS     r1,r1,#0x30
        0x20001e5a:    f8061d01    ....    STRB     r1,[r6,#-1]!
        0x20001e5e:    2800        .(      CMP      r0,#0
        0x20001e60:    d1f7        ..      BNE      0x20001e52 ; _printf_core + 218
        0x20001e62:    ebad0006    ....    SUB      r0,sp,r6
        0x20001e66:    f1000920    .. .    ADD      r9,r0,#0x20
        0x20001e6a:    0778        x.      LSLS     r0,r7,#29
        0x20001e6c:    d401        ..      BMI      0x20001e72 ; _printf_core + 250
        0x20001e6e:    f04f0801    O...    MOV      r8,#1
        0x20001e72:    45c8        .E      CMP      r8,r9
        0x20001e74:    dd02        ..      BLE      0x20001e7c ; _printf_core + 260
        0x20001e76:    eba80009    ....    SUB      r0,r8,r9
        0x20001e7a:    e000        ..      B        0x20001e7e ; _printf_core + 262
        0x20001e7c:    2000        .       MOVS     r0,#0
        0x20001e7e:    4680        .F      MOV      r8,r0
        0x20001e80:    2700        .'      MOVS     r7,#0
        0x20001e82:    e006        ..      B        0x20001e92 ; _printf_core + 282
        0x20001e84:    a808        ..      ADD      r0,sp,#0x20
        0x20001e86:    465a        ZF      MOV      r2,r11
        0x20001e88:    5dc0        .]      LDRB     r0,[r0,r7]
        0x20001e8a:    990b        ..      LDR      r1,[sp,#0x2c]
        0x20001e8c:    4790        .G      BLX      r2
        0x20001e8e:    1c6d        m.      ADDS     r5,r5,#1
        0x20001e90:    1c7f        ..      ADDS     r7,r7,#1
        0x20001e92:    4557        WE      CMP      r7,r10
        0x20001e94:    dbf6        ..      BLT      0x20001e84 ; _printf_core + 268
        0x20001e96:    e004        ..      B        0x20001ea2 ; _printf_core + 298
        0x20001e98:    2030        0       MOVS     r0,#0x30
        0x20001e9a:    465a        ZF      MOV      r2,r11
        0x20001e9c:    990b        ..      LDR      r1,[sp,#0x2c]
        0x20001e9e:    4790        .G      BLX      r2
        0x20001ea0:    1c6d        m.      ADDS     r5,r5,#1
        0x20001ea2:    f1b80100    ....    SUBS     r1,r8,#0
        0x20001ea6:    f1a80801    ....    SUB      r8,r8,#1
        0x20001eaa:    dcf5        ..      BGT      0x20001e98 ; _printf_core + 288
        0x20001eac:    e005        ..      B        0x20001eba ; _printf_core + 322
        0x20001eae:    f8160b01    ....    LDRB     r0,[r6],#1
        0x20001eb2:    465a        ZF      MOV      r2,r11
        0x20001eb4:    990b        ..      LDR      r1,[sp,#0x2c]
        0x20001eb6:    4790        .G      BLX      r2
        0x20001eb8:    1c6d        m.      ADDS     r5,r5,#1
        0x20001eba:    f1b90100    ....    SUBS     r1,r9,#0
        0x20001ebe:    f1a90901    ....    SUB      r9,r9,#1
        0x20001ec2:    dcf4        ..      BGT      0x20001eae ; _printf_core + 310
        0x20001ec4:    1c64        d.      ADDS     r4,r4,#1
        0x20001ec6:    e765        e.      B        0x20001d94 ; _printf_core + 28
    $d
        0x20001ec8:    00012809    .(..    DCD    75785
    $t
    i.puts
    puts
        0x20001ecc:    b510        ..      PUSH     {r4,lr}
        0x20001ece:    4604        .F      MOV      r4,r0
        0x20001ed0:    e001        ..      B        0x20001ed6 ; puts + 10
        0x20001ed2:    f7fffeb7    ....    BL       fputc ; 0x20001c44
        0x20001ed6:    f8140b01    ....    LDRB     r0,[r4],#1
        0x20001eda:    4904        .I      LDR      r1,[pc,#16] ; [0x20001eec] = 0x20002000
        0x20001edc:    2800        .(      CMP      r0,#0
        0x20001ede:    d1f8        ..      BNE      0x20001ed2 ; puts + 6
        0x20001ee0:    e8bd4010    ...@    POP      {r4,lr}
        0x20001ee4:    200a        .       MOVS     r0,#0xa
        0x20001ee6:    f7ffbead    ....    B.W      fputc ; 0x20001c44
    $d
        0x20001eea:    0000        ..      DCW    0
        0x20001eec:    20002000    . .     DCD    536879104
    $d.realdata
        0x20001ef0:    6d726554    Term    DCD    1836213588
        0x20001ef4:    6c616e69    inal    DCD    1818324585
        0x20001ef8:    00000000    ....    DCD    0
    Region$$Table$$Base
        0x20001efc:    20001f20     ..     DCD    536878880
        0x20001f00:    20002000    . .     DCD    536879104
        0x20001f04:    00000008    ....    DCD    8
        0x20001f08:    20001d58    X..     DCD    536878424
        0x20001f0c:    20001f28    (..     DCD    536878888
        0x20001f10:    20002008    . .     DCD    536879112
        0x20001f14:    00002208    ."..    DCD    8712
        0x20001f18:    20001d68    h..     DCD    536878440
    Region$$Table$$Limit

** Section #2 'RW_IRAM1' (SHT_PROGBITS) [SHF_ALLOC + SHF_WRITE]
    Size   : 8 bytes (alignment 8)
    Address: 0x20002000


** Section #3 'RW_IRAM1' (SHT_NOBITS) [SHF_ALLOC + SHF_WRITE]
    Size   : 8712 bytes (alignment 8)
    Address: 0x20002008


** Section #4 '.debug_abbrev' (SHT_PROGBITS)
    Size   : 2584 bytes


** Section #5 '.debug_frame' (SHT_PROGBITS)
    Size   : 2280 bytes


** Section #6 '.debug_info' (SHT_PROGBITS)
    Size   : 12804 bytes


** Section #7 '.debug_line' (SHT_PROGBITS)
    Size   : 5972 bytes


** Section #8 '.debug_loc' (SHT_PROGBITS)
    Size   : 9016 bytes


** Section #9 '.debug_str' (SHT_PROGBITS)
    Size   : 6862 bytes


** Section #10 '.debug_ranges' (SHT_PROGBITS)
    Size   : 656 bytes


** Section #11 '.symtab' (SHT_SYMTAB)
    Size   : 5488 bytes (alignment 4)
    String table #12 '.strtab'
    Last local symbol no. 199


** Section #12 '.strtab' (SHT_STRTAB)
    Size   : 4556 bytes


** Section #13 '.note' (SHT_NOTE)
    Size   : 28 bytes (alignment 4)


** Section #14 '.comment' (SHT_PROGBITS)
    Size   : 2488 bytes


** Section #15 '.shstrtab' (SHT_STRTAB)
    Size   : 148 bytes


