
========================================================================

** ELF Header Information

    File Name: d:\cccc2020\CODE\workspace\bfsk_stm32f103\embedded\test_dhrystone\MDK\output\ramcode\ramcode.axf

    Machine class: ELFCLASS32 (32-bit)
    Data encoding: ELFDATA2LSB (Little endian)
    Header version: EV_CURRENT (Current version)
    Operating System ABI: none
    ABI Version: 0
    File Type: ET_EXEC (Executable) (2)
    Machine: EM_ARM (ARM)

    Image Entry point: 0x08000121
    Flags: EF_ARM_HASENTRY + EF_ARM_ABI_FLOAT_SOFT (0x05000202)

    ARM ELF revision: 5 (ABI version 2)

    Conforms to Soft float procedure-call standard

    Built with
    Component: ARM Compiler 6.14.1 Tool: armasm [5db06d00]
    Component: ARM Compiler 6.14.1 Tool: armlink [5db06d00]

    Header size: 52 bytes (0x34)
    Program header entry size: 32 bytes (0x20)
    Section header entry size: 40 bytes (0x28)

    Program header entries: 1
    Section header entries: 16

    Program header offset: 85416 (0x00014da8)
    Section header offset: 85448 (0x00014dc8)

    Section header string table index: 15

========================================================================

** Program header #0 (PT_LOAD) [PF_X + PF_W + PF_R + PF_ARM_ENTRY]
    Size : 25512 bytes (11832 bytes in file)
    Virtual address: 0x08000000 (Alignment 8)


========================================================================

** Section #1 'ER_IROM1' (SHT_PROGBITS) [SHF_ALLOC + SHF_EXECINSTR]
    Size   : 11824 bytes (alignment 4)
    Address: 0x08000000

    $d.realdata
    RESET
    __Vectors
        0x08000000:    20003578    x5.     DCD    536884600
        0x08000004:    08000135    5...    DCD    134218037
        0x08000008:    0800013d    =...    DCD    134218045
        0x0800000c:    08001f11    ....    DCD    134225681
        0x08000010:    08000141    A...    DCD    134218049
        0x08000014:    08000143    C...    DCD    134218051
        0x08000018:    08000145    E...    DCD    134218053
        0x0800001c:    00000000    ....    DCD    0
        0x08000020:    00000000    ....    DCD    0
        0x08000024:    00000000    ....    DCD    0
        0x08000028:    00000000    ....    DCD    0
        0x0800002c:    08000147    G...    DCD    134218055
        0x08000030:    08000149    I...    DCD    134218057
        0x08000034:    00000000    ....    DCD    0
        0x08000038:    0800014b    K...    DCD    134218059
        0x0800003c:    080013bd    ....    DCD    134222781
        0x08000040:    0800014f    O...    DCD    134218063
        0x08000044:    0800014f    O...    DCD    134218063
        0x08000048:    0800014f    O...    DCD    134218063
        0x0800004c:    0800014f    O...    DCD    134218063
        0x08000050:    0800014f    O...    DCD    134218063
        0x08000054:    0800014f    O...    DCD    134218063
        0x08000058:    0800014f    O...    DCD    134218063
        0x0800005c:    0800014f    O...    DCD    134218063
        0x08000060:    0800014f    O...    DCD    134218063
        0x08000064:    0800014f    O...    DCD    134218063
        0x08000068:    0800014f    O...    DCD    134218063
        0x0800006c:    0800014f    O...    DCD    134218063
        0x08000070:    0800014f    O...    DCD    134218063
        0x08000074:    0800014f    O...    DCD    134218063
        0x08000078:    0800014f    O...    DCD    134218063
        0x0800007c:    0800014f    O...    DCD    134218063
        0x08000080:    0800014f    O...    DCD    134218063
        0x08000084:    0800014f    O...    DCD    134218063
        0x08000088:    0800014f    O...    DCD    134218063
        0x0800008c:    00000000    ....    DCD    0
        0x08000090:    00000000    ....    DCD    0
        0x08000094:    00000000    ....    DCD    0
        0x08000098:    00000000    ....    DCD    0
        0x0800009c:    0800014f    O...    DCD    134218063
        0x080000a0:    0800014f    O...    DCD    134218063
        0x080000a4:    0800014f    O...    DCD    134218063
        0x080000a8:    0800014f    O...    DCD    134218063
        0x080000ac:    0800014f    O...    DCD    134218063
        0x080000b0:    0800014f    O...    DCD    134218063
        0x080000b4:    0800014f    O...    DCD    134218063
        0x080000b8:    0800014f    O...    DCD    134218063
        0x080000bc:    0800014f    O...    DCD    134218063
        0x080000c0:    0800014f    O...    DCD    134218063
        0x080000c4:    0800014f    O...    DCD    134218063
        0x080000c8:    0800014f    O...    DCD    134218063
        0x080000cc:    0800014f    O...    DCD    134218063
        0x080000d0:    0800014f    O...    DCD    134218063
        0x080000d4:    0800014f    O...    DCD    134218063
        0x080000d8:    0800014f    O...    DCD    134218063
        0x080000dc:    0800014f    O...    DCD    134218063
        0x080000e0:    0800014f    O...    DCD    134218063
        0x080000e4:    0800014f    O...    DCD    134218063
        0x080000e8:    0800014f    O...    DCD    134218063
        0x080000ec:    00000000    ....    DCD    0
        0x080000f0:    00000000    ....    DCD    0
        0x080000f4:    00000000    ....    DCD    0
        0x080000f8:    00000000    ....    DCD    0
        0x080000fc:    00000000    ....    DCD    0
        0x08000100:    00000000    ....    DCD    0
        0x08000104:    00000000    ....    DCD    0
        0x08000108:    00000000    ....    DCD    0
        0x0800010c:    00000000    ....    DCD    0
        0x08000110:    00000000    ....    DCD    0
        0x08000114:    00000000    ....    DCD    0
        0x08000118:    0800014f    O...    DCD    134218063
        0x0800011c:    0800014f    O...    DCD    134218063
    $t
    .ARM.Collect$$$$00000000
    .ARM.Collect$$$$00000001
    __Vectors_End
    __main
    _main_stk
        0x08000120:    f8dfd00c    ....    LDR      sp,__lit__00000000 ; [0x8000130] = 0x20003578
    .ARM.Collect$$$$00000004
    _main_scatterload
        0x08000124:    f000fb78    ..x.    BL       __scatterload ; 0x8000818
    .ARM.Collect$$$$00000008
    .ARM.Collect$$$$0000000A
    .ARM.Collect$$$$0000000B
    __main_after_scatterload
    _main_clock
    _main_cpp_init
    _main_init
        0x08000128:    4800        .H      LDR      r0,[pc,#0] ; [0x800012c] = 0x8001e41
        0x0800012a:    4700        .G      BX       r0
    $d
        0x0800012c:    08001e41    A...    DCD    134225473
    .ARM.Collect$$$$00002712
    __lit__00000000
    .ARM.Collect$$$$0000000D
    .ARM.Collect$$$$0000000F
    __rt_final_cpp
    __rt_final_exit
        0x08000130:    20003578    x5.     DCD    536884600
    $t
    .text
    Reset_Handler
        0x08000134:    4806        .H      LDR      r0,[pc,#24] ; [0x8000150] = 0x80013cd
        0x08000136:    4780        .G      BLX      r0
        0x08000138:    4806        .H      LDR      r0,[pc,#24] ; [0x8000154] = 0x8000121
        0x0800013a:    4700        .G      BX       r0
    NMI_Handler
        0x0800013c:    e7fe        ..      B        NMI_Handler ; 0x800013c
        0x0800013e:    e7fe        ..      B        0x800013e ; NMI_Handler + 2
    MemManage_Handler
        0x08000140:    e7fe        ..      B        MemManage_Handler ; 0x8000140
    BusFault_Handler
        0x08000142:    e7fe        ..      B        BusFault_Handler ; 0x8000142
    UsageFault_Handler
        0x08000144:    e7fe        ..      B        UsageFault_Handler ; 0x8000144
    SVC_Handler
        0x08000146:    e7fe        ..      B        SVC_Handler ; 0x8000146
    DebugMon_Handler
        0x08000148:    e7fe        ..      B        DebugMon_Handler ; 0x8000148
    PendSV_Handler
        0x0800014a:    e7fe        ..      B        PendSV_Handler ; 0x800014a
        0x0800014c:    e7fe        ..      B        0x800014c ; PendSV_Handler + 2
    ADC1_IRQHandler
    CEC_IRQHandler
    DMA1_Channel1_IRQHandler
    DMA1_Channel2_IRQHandler
    DMA1_Channel3_IRQHandler
    DMA1_Channel4_IRQHandler
    DMA1_Channel5_IRQHandler
    DMA1_Channel6_IRQHandler
    DMA1_Channel7_IRQHandler
    EXTI0_IRQHandler
    EXTI15_10_IRQHandler
    EXTI1_IRQHandler
    EXTI2_IRQHandler
    EXTI3_IRQHandler
    EXTI4_IRQHandler
    EXTI9_5_IRQHandler
    FLASH_IRQHandler
    I2C1_ER_IRQHandler
    I2C1_EV_IRQHandler
    I2C2_ER_IRQHandler
    I2C2_EV_IRQHandler
    PVD_IRQHandler
    RCC_IRQHandler
    RTCAlarm_IRQHandler
    RTC_IRQHandler
    SPI1_IRQHandler
    SPI2_IRQHandler
    TAMPER_IRQHandler
    TIM1_BRK_TIM15_IRQHandler
    TIM1_CC_IRQHandler
    TIM1_TRG_COM_TIM17_IRQHandler
    TIM1_UP_TIM16_IRQHandler
    TIM2_IRQHandler
    TIM3_IRQHandler
    TIM4_IRQHandler
    TIM6_DAC_IRQHandler
    TIM7_IRQHandler
    USART1_IRQHandler
    USART2_IRQHandler
    USART3_IRQHandler
    WWDG_IRQHandler
        0x0800014e:    e7fe        ..      B        ADC1_IRQHandler ; 0x800014e
    $d
        0x08000150:    080013cd    ....    DCD    134222797
        0x08000154:    08000121    !...    DCD    134218017
    $t
    .text
    __aeabi_memcpy
    __aeabi_memcpy4
    __aeabi_memcpy8
        0x08000158:    ea400301    @...    ORR      r3,r0,r1
        0x0800015c:    079b        ..      LSLS     r3,r3,#30
        0x0800015e:    d003        ..      BEQ      0x8000168 ; __aeabi_memcpy + 16
        0x08000160:    e009        ..      B        0x8000176 ; __aeabi_memcpy + 30
        0x08000162:    c908        ..      LDM      r1!,{r3}
        0x08000164:    1f12        ..      SUBS     r2,r2,#4
        0x08000166:    c008        ..      STM      r0!,{r3}
        0x08000168:    2a04        .*      CMP      r2,#4
        0x0800016a:    d2fa        ..      BCS      0x8000162 ; __aeabi_memcpy + 10
        0x0800016c:    e003        ..      B        0x8000176 ; __aeabi_memcpy + 30
        0x0800016e:    f8113b01    ...;    LDRB     r3,[r1],#1
        0x08000172:    f8003b01    ...;    STRB     r3,[r0],#1
        0x08000176:    1e52        R.      SUBS     r2,r2,#1
        0x08000178:    d2f9        ..      BCS      0x800016e ; __aeabi_memcpy + 22
        0x0800017a:    4770        pG      BX       lr
    .text
    strcmp
        0x0800017c:    b510        ..      PUSH     {r4,lr}
        0x0800017e:    2200        ."      MOVS     r2,#0
        0x08000180:    e000        ..      B        0x8000184 ; strcmp + 8
        0x08000182:    1c52        R.      ADDS     r2,r2,#1
        0x08000184:    5c83        .\      LDRB     r3,[r0,r2]
        0x08000186:    5c8c        .\      LDRB     r4,[r1,r2]
        0x08000188:    42a3        .B      CMP      r3,r4
        0x0800018a:    d101        ..      BNE      0x8000190 ; strcmp + 20
        0x0800018c:    2b00        .+      CMP      r3,#0
        0x0800018e:    d1f8        ..      BNE      0x8000182 ; strcmp + 6
        0x08000190:    b2d8        ..      UXTB     r0,r3
        0x08000192:    b2e1        ..      UXTB     r1,r4
        0x08000194:    1a40        @.      SUBS     r0,r0,r1
        0x08000196:    bd10        ..      POP      {r4,pc}
    .text
    __aeabi_fmul
        0x08000198:    ea800201    ....    EOR      r2,r0,r1
        0x0800019c:    b510        ..      PUSH     {r4,lr}
        0x0800019e:    f0024300    ...C    AND      r3,r2,#0x80000000
        0x080001a2:    0040        @.      LSLS     r0,r0,#1
        0x080001a4:    d022        ".      BEQ      0x80001ec ; __aeabi_fmul + 84
        0x080001a6:    004a        J.      LSLS     r2,r1,#1
        0x080001a8:    d01f        ..      BEQ      0x80001ea ; __aeabi_fmul + 82
        0x080001aa:    0e01        ..      LSRS     r1,r0,#24
        0x080001ac:    eb016112    ...a    ADD      r1,r1,r2,LSR #24
        0x080001b0:    f3c00056    ..V.    UBFX     r0,r0,#1,#23
        0x080001b4:    f3c20256    ..V.    UBFX     r2,r2,#1,#23
        0x080001b8:    f4400000    @...    ORR      r0,r0,#0x800000
        0x080001bc:    f4420200    B...    ORR      r2,r2,#0x800000
        0x080001c0:    fba02002    ...     UMULL    r2,r0,r0,r2
        0x080001c4:    0400        ..      LSLS     r0,r0,#16
        0x080001c6:    397f        .9      SUBS     r1,r1,#0x7f
        0x080001c8:    0414        ..      LSLS     r4,r2,#16
        0x080001ca:    d000        ..      BEQ      0x80001ce ; __aeabi_fmul + 54
        0x080001cc:    1c40        @.      ADDS     r0,r0,#1
        0x080001ce:    ea504012    P..@    ORRS     r0,r0,r2,LSR #16
        0x080001d2:    d401        ..      BMI      0x80001d8 ; __aeabi_fmul + 64
        0x080001d4:    0040        @.      LSLS     r0,r0,#1
        0x080001d6:    1e49        I.      SUBS     r1,r1,#1
        0x080001d8:    b2c2        ..      UXTB     r2,r0
        0x080001da:    060c        ..      LSLS     r4,r1,#24
        0x080001dc:    eb0410d0    ....    ADD      r0,r4,r0,LSR #7
        0x080001e0:    1c40        @.      ADDS     r0,r0,#1
        0x080001e2:    0840        @.      LSRS     r0,r0,#1
        0x080001e4:    2a80        .*      CMP      r2,#0x80
        0x080001e6:    d002        ..      BEQ      0x80001ee ; __aeabi_fmul + 86
        0x080001e8:    e003        ..      B        0x80001f2 ; __aeabi_fmul + 90
        0x080001ea:    2000        .       MOVS     r0,#0
        0x080001ec:    bd10        ..      POP      {r4,pc}
        0x080001ee:    f0200001     ...    BIC      r0,r0,#1
        0x080001f2:    2900        .)      CMP      r1,#0
        0x080001f4:    da00        ..      BGE      0x80001f8 ; __aeabi_fmul + 96
        0x080001f6:    2000        .       MOVS     r0,#0
        0x080001f8:    4318        .C      ORRS     r0,r0,r3
        0x080001fa:    bd10        ..      POP      {r4,pc}
    .text
    __aeabi_fdiv
        0x080001fc:    b430        0.      PUSH     {r4,r5}
        0x080001fe:    ea800201    ....    EOR      r2,r0,r1
        0x08000202:    f0024500    ...E    AND      r5,r2,#0x80000000
        0x08000206:    f0304200    0..B    BICS     r2,r0,#0x80000000
        0x0800020a:    f0214000    !..@    BIC      r0,r1,#0x80000000
        0x0800020e:    d013        ..      BEQ      0x8000238 ; __aeabi_fdiv + 60
        0x08000210:    b190        ..      CBZ      r0,0x8000238 ; __aeabi_fdiv + 60
        0x08000212:    0dc3        ..      LSRS     r3,r0,#23
        0x08000214:    0dd4        ..      LSRS     r4,r2,#23
        0x08000216:    f3c20116    ....    UBFX     r1,r2,#0,#23
        0x0800021a:    f3c00016    ....    UBFX     r0,r0,#0,#23
        0x0800021e:    1ae4        ..      SUBS     r4,r4,r3
        0x08000220:    f4410100    A...    ORR      r1,r1,#0x800000
        0x08000224:    f4400200    @...    ORR      r2,r0,#0x800000
        0x08000228:    347d        }4      ADDS     r4,r4,#0x7d
        0x0800022a:    4291        .B      CMP      r1,r2
        0x0800022c:    d301        ..      BCC      0x8000232 ; __aeabi_fdiv + 54
        0x0800022e:    1c64        d.      ADDS     r4,r4,#1
        0x08000230:    e000        ..      B        0x8000234 ; __aeabi_fdiv + 56
        0x08000232:    0049        I.      LSLS     r1,r1,#1
        0x08000234:    2c00        .,      CMP      r4,#0
        0x08000236:    da02        ..      BGE      0x800023e ; __aeabi_fdiv + 66
        0x08000238:    bc30        0.      POP      {r4,r5}
        0x0800023a:    2000        .       MOVS     r0,#0
        0x0800023c:    4770        pG      BX       lr
        0x0800023e:    f44f0000    O...    MOV      r0,#0x800000
        0x08000242:    2300        .#      MOVS     r3,#0
        0x08000244:    4291        .B      CMP      r1,r2
        0x08000246:    d301        ..      BCC      0x800024c ; __aeabi_fdiv + 80
        0x08000248:    1a89        ..      SUBS     r1,r1,r2
        0x0800024a:    4303        .C      ORRS     r3,r3,r0
        0x0800024c:    0840        @.      LSRS     r0,r0,#1
        0x0800024e:    ea4f0141    O.A.    LSL      r1,r1,#1
        0x08000252:    d1f7        ..      BNE      0x8000244 ; __aeabi_fdiv + 72
        0x08000254:    b151        Q.      CBZ      r1,0x800026c ; __aeabi_fdiv + 112
        0x08000256:    4291        .B      CMP      r1,r2
        0x08000258:    d102        ..      BNE      0x8000260 ; __aeabi_fdiv + 100
        0x0800025a:    f04f4100    O..A    MOV      r1,#0x80000000
        0x0800025e:    e005        ..      B        0x800026c ; __aeabi_fdiv + 112
        0x08000260:    d202        ..      BCS      0x8000268 ; __aeabi_fdiv + 108
        0x08000262:    f04f0101    O...    MOV      r1,#1
        0x08000266:    e001        ..      B        0x800026c ; __aeabi_fdiv + 112
        0x08000268:    f06f0101    o...    MVN      r1,#1
        0x0800026c:    eb0350c4    ...P    ADD      r0,r3,r4,LSL #23
        0x08000270:    4428        (D      ADD      r0,r0,r5
        0x08000272:    bc30        0.      POP      {r4,r5}
        0x08000274:    f000b8f6    ....    B.W      __I$use$fp ; 0x8000464
    .text
    __aeabi_dmul
        0x08000278:    e92d4ffe    -..O    PUSH     {r1-r11,lr}
        0x0800027c:    ea810403    ....    EOR      r4,r1,r3
        0x08000280:    f0044400    ...D    AND      r4,r4,#0x80000000
        0x08000284:    f0214100    !..A    BIC      r1,r1,#0x80000000
        0x08000288:    9400        ..      STR      r4,[sp,#0]
        0x0800028a:    f04f0b00    O...    MOV      r11,#0
        0x0800028e:    f0234300    #..C    BIC      r3,r3,#0x80000000
        0x08000292:    ea500401    P...    ORRS     r4,r0,r1
        0x08000296:    d05e        ^.      BEQ      0x8000356 ; __aeabi_dmul + 222
        0x08000298:    ea520403    R...    ORRS     r4,r2,r3
        0x0800029c:    d05b        [.      BEQ      0x8000356 ; __aeabi_dmul + 222
        0x0800029e:    f3c3540a    ...T    UBFX     r4,r3,#20,#11
        0x080002a2:    f3c1550a    ...U    UBFX     r5,r1,#20,#11
        0x080002a6:    442c        ,D      ADD      r4,r4,r5
        0x080002a8:    f2a434f3    ...4    SUB      r4,r4,#0x3f3
        0x080002ac:    9401        ..      STR      r4,[sp,#4]
        0x080002ae:    fba05402    ...T    UMULL    r5,r4,r0,r2
        0x080002b2:    f3c10113    ....    UBFX     r1,r1,#0,#20
        0x080002b6:    f4411180    A...    ORR      r1,r1,#0x100000
        0x080002ba:    f3c30313    ....    UBFX     r3,r3,#0,#20
        0x080002be:    f4431380    C...    ORR      r3,r3,#0x100000
        0x080002c2:    fb014402    ...D    MLA      r4,r1,r2,r4
        0x080002c6:    fb004e03    ...N    MLA      lr,r0,r3,r4
        0x080002ca:    0a84        ..      LSRS     r4,r0,#10
        0x080002cc:    0a97        ..      LSRS     r7,r2,#10
        0x080002ce:    ea445481    D..T    ORR      r4,r4,r1,LSL #22
        0x080002d2:    ea475783    G..W    ORR      r7,r7,r3,LSL #22
        0x080002d6:    fba46807    ...h    UMULL    r6,r8,r4,r7
        0x080002da:    9502        ..      STR      r5,[sp,#8]
        0x080002dc:    0a8d        ..      LSRS     r5,r1,#10
        0x080002de:    fb058507    ....    MLA      r5,r5,r7,r8
        0x080002e2:    ea4f2c93    O..,    LSR      r12,r3,#10
        0x080002e6:    fb04540c    ...T    MLA      r4,r4,r12,r5
        0x080002ea:    0527        '.      LSLS     r7,r4,#20
        0x080002ec:    9d02        ..      LDR      r5,[sp,#8]
        0x080002ee:    ea4f5806    O..X    LSL      r8,r6,#20
        0x080002f2:    ea473716    G..7    ORR      r7,r7,r6,LSR #12
        0x080002f6:    ebb50508    ....    SUBS     r5,r5,r8
        0x080002fa:    eb6e0c07    n...    SBC      r12,lr,r7
        0x080002fe:    0e87        ..      LSRS     r7,r0,#26
        0x08000300:    0e92        ..      LSRS     r2,r2,#26
        0x08000302:    ea471781    G...    ORR      r7,r7,r1,LSL #6
        0x08000306:    ea421283    B...    ORR      r2,r2,r3,LSL #6
        0x0800030a:    fba70102    ....    UMULL    r0,r1,r7,r2
        0x0800030e:    ebb6010b    ....    SUBS     r1,r6,r11
        0x08000312:    eb640400    d...    SBC      r4,r4,r0
        0x08000316:    0d2b        +.      LSRS     r3,r5,#20
        0x08000318:    ea43330c    C..3    ORR      r3,r3,r12,LSL #12
        0x0800031c:    185e        ^.      ADDS     r6,r3,r1
        0x0800031e:    eb44501c    D..P    ADC      r0,r4,r12,LSR #20
        0x08000322:    46da        .F      MOV      r10,r11
        0x08000324:    4651        QF      MOV      r1,r10
        0x08000326:    fbe70102    ....    UMLAL    r0,r1,r7,r2
        0x0800032a:    f3c50413    ....    UBFX     r4,r5,#0,#20
        0x0800032e:    ea4f330b    O..3    LSL      r3,r11,#12
        0x08000332:    ea435314    C..S    ORR      r3,r3,r4,LSR #20
        0x08000336:    ea4f3204    O..2    LSL      r2,r4,#12
        0x0800033a:    9c01        ..      LDR      r4,[sp,#4]
        0x0800033c:    ea430306    C...    ORR      r3,r3,r6
        0x08000340:    f1a4040c    ....    SUB      r4,r4,#0xc
        0x08000344:    9402        ..      STR      r4,[sp,#8]
        0x08000346:    9c00        ..      LDR      r4,[sp,#0]
        0x08000348:    e9cdb400    ....    STRD     r11,r4,[sp,#0]
        0x0800034c:    f000f8d0    ....    BL       _double_epilogue ; 0x80004f0
        0x08000350:    b003        ..      ADD      sp,sp,#0xc
        0x08000352:    e8bd8ff0    ....    POP      {r4-r11,pc}
        0x08000356:    2000        .       MOVS     r0,#0
        0x08000358:    4601        .F      MOV      r1,r0
        0x0800035a:    e7f9        ..      B        0x8000350 ; __aeabi_dmul + 216
    .text
    __aeabi_i2f
        0x0800035c:    0fc1        ..      LSRS     r1,r0,#31
        0x0800035e:    ea8070e0    ...p    EOR      r0,r0,r0,ASR #31
        0x08000362:    4408        .D      ADD      r0,r0,r1
        0x08000364:    07ca        ..      LSLS     r2,r1,#31
        0x08000366:    2396        .#      MOVS     r3,#0x96
        0x08000368:    2100        .!      MOVS     r1,#0
        0x0800036a:    f000b884    ....    B.W      _float_epilogue ; 0x8000476
    .text
    __aeabi_ui2f
        0x0800036e:    2396        .#      MOVS     r3,#0x96
        0x08000370:    2200        ."      MOVS     r2,#0
        0x08000372:    4611        .F      MOV      r1,r2
        0x08000374:    f000b87f    ....    B.W      _float_epilogue ; 0x8000476
    .text
    __aeabi_f2d
        0x08000378:    f0004200    ...B    AND      r2,r0,#0x80000000
        0x0800037c:    f0304000    0..@    BICS     r0,r0,#0x80000000
        0x08000380:    d00a        ..      BEQ      0x8000398 ; __aeabi_f2d + 32
        0x08000382:    0dc1        ..      LSRS     r1,r0,#23
        0x08000384:    f5017160    ..`q    ADD      r1,r1,#0x380
        0x08000388:    f3c00016    ....    UBFX     r0,r0,#0,#23
        0x0800038c:    ea425101    B..Q    ORR      r1,r2,r1,LSL #20
        0x08000390:    08c2        ..      LSRS     r2,r0,#3
        0x08000392:    0740        @.      LSLS     r0,r0,#29
        0x08000394:    4311        .C      ORRS     r1,r1,r2
        0x08000396:    4770        pG      BX       lr
        0x08000398:    2000        .       MOVS     r0,#0
        0x0800039a:    4601        .F      MOV      r1,r0
        0x0800039c:    4770        pG      BX       lr
    .text
    __aeabi_d2f
        0x0800039e:    f0014300    ...C    AND      r3,r1,#0x80000000
        0x080003a2:    b430        0.      PUSH     {r4,r5}
        0x080003a4:    f0214100    !..A    BIC      r1,r1,#0x80000000
        0x080003a8:    ea500201    P...    ORRS     r2,r0,r1
        0x080003ac:    d006        ..      BEQ      0x80003bc ; __aeabi_d2f + 30
        0x080003ae:    0d0a        ..      LSRS     r2,r1,#20
        0x080003b0:    f5a27260    ..`r    SUB      r2,r2,#0x380
        0x080003b4:    f3c10113    ....    UBFX     r1,r1,#0,#20
        0x080003b8:    2a00        .*      CMP      r2,#0
        0x080003ba:    dc02        ..      BGT      0x80003c2 ; __aeabi_d2f + 36
        0x080003bc:    bc30        0.      POP      {r4,r5}
        0x080003be:    2000        .       MOVS     r0,#0
        0x080003c0:    4770        pG      BX       lr
        0x080003c2:    0f44        D.      LSRS     r4,r0,#29
        0x080003c4:    ea4404c1    D...    ORR      r4,r4,r1,LSL #3
        0x080003c8:    00c1        ..      LSLS     r1,r0,#3
        0x080003ca:    18e0        ..      ADDS     r0,r4,r3
        0x080003cc:    bc30        0.      POP      {r4,r5}
        0x080003ce:    eb0050c2    ...P    ADD      r0,r0,r2,LSL #23
        0x080003d2:    f000b847    ..G.    B.W      __I$use$fp ; 0x8000464
    .text
    __aeabi_uidiv
    __aeabi_uidivmod
        0x080003d6:    b530        0.      PUSH     {r4,r5,lr}
        0x080003d8:    460b        .F      MOV      r3,r1
        0x080003da:    4601        .F      MOV      r1,r0
        0x080003dc:    2000        .       MOVS     r0,#0
        0x080003de:    2220         "      MOVS     r2,#0x20
        0x080003e0:    2401        .$      MOVS     r4,#1
        0x080003e2:    e009        ..      B        0x80003f8 ; __aeabi_uidiv + 34
        0x080003e4:    fa21f502    !...    LSR      r5,r1,r2
        0x080003e8:    429d        .B      CMP      r5,r3
        0x080003ea:    d305        ..      BCC      0x80003f8 ; __aeabi_uidiv + 34
        0x080003ec:    fa03f502    ....    LSL      r5,r3,r2
        0x080003f0:    1b49        I.      SUBS     r1,r1,r5
        0x080003f2:    fa04f502    ....    LSL      r5,r4,r2
        0x080003f6:    4428        (D      ADD      r0,r0,r5
        0x080003f8:    1e15        ..      SUBS     r5,r2,#0
        0x080003fa:    f1a20201    ....    SUB      r2,r2,#1
        0x080003fe:    dcf1        ..      BGT      0x80003e4 ; __aeabi_uidiv + 14
        0x08000400:    bd30        0.      POP      {r4,r5,pc}
    .text
    __aeabi_uldivmod
        0x08000402:    e92d5ff0    -.._    PUSH     {r4-r12,lr}
        0x08000406:    4605        .F      MOV      r5,r0
        0x08000408:    2000        .       MOVS     r0,#0
        0x0800040a:    4692        .F      MOV      r10,r2
        0x0800040c:    469b        .F      MOV      r11,r3
        0x0800040e:    4688        .F      MOV      r8,r1
        0x08000410:    4606        .F      MOV      r6,r0
        0x08000412:    4681        .F      MOV      r9,r0
        0x08000414:    2440        @$      MOVS     r4,#0x40
        0x08000416:    e01b        ..      B        0x8000450 ; __aeabi_uldivmod + 78
        0x08000418:    4628        (F      MOV      r0,r5
        0x0800041a:    4641        AF      MOV      r1,r8
        0x0800041c:    4647        GF      MOV      r7,r8
        0x0800041e:    4622        "F      MOV      r2,r4
        0x08000420:    f000fa1b    ....    BL       __aeabi_llsr ; 0x800085a
        0x08000424:    4653        SF      MOV      r3,r10
        0x08000426:    465a        ZF      MOV      r2,r11
        0x08000428:    1ac0        ..      SUBS     r0,r0,r3
        0x0800042a:    4191        .A      SBCS     r1,r1,r2
        0x0800042c:    d310        ..      BCC      0x8000450 ; __aeabi_uldivmod + 78
        0x0800042e:    4611        .F      MOV      r1,r2
        0x08000430:    4618        .F      MOV      r0,r3
        0x08000432:    4622        "F      MOV      r2,r4
        0x08000434:    f000fa02    ....    BL       __aeabi_llsl ; 0x800083c
        0x08000438:    1a2d        -.      SUBS     r5,r5,r0
        0x0800043a:    eb670801    g...    SBC      r8,r7,r1
        0x0800043e:    464f        OF      MOV      r7,r9
        0x08000440:    4622        "F      MOV      r2,r4
        0x08000442:    2001        .       MOVS     r0,#1
        0x08000444:    2100        .!      MOVS     r1,#0
        0x08000446:    f000f9f9    ....    BL       __aeabi_llsl ; 0x800083c
        0x0800044a:    eb170900    ....    ADDS     r9,r7,r0
        0x0800044e:    414e        NA      ADCS     r6,r6,r1
        0x08000450:    1e20         .      SUBS     r0,r4,#0
        0x08000452:    f1a40401    ....    SUB      r4,r4,#1
        0x08000456:    dcdf        ..      BGT      0x8000418 ; __aeabi_uldivmod + 22
        0x08000458:    4648        HF      MOV      r0,r9
        0x0800045a:    4631        1F      MOV      r1,r6
        0x0800045c:    462a        *F      MOV      r2,r5
        0x0800045e:    4643        CF      MOV      r3,r8
        0x08000460:    e8bd9ff0    ....    POP      {r4-r12,pc}
    .text
    .text
    __I$use$fp
    _float_round
        0x08000464:    2900        .)      CMP      r1,#0
        0x08000466:    bfa8        ..      IT       GE
        0x08000468:    4770        pG      BXGE     lr
        0x0800046a:    1c40        @.      ADDS     r0,r0,#1
        0x0800046c:    0049        I.      LSLS     r1,r1,#1
        0x0800046e:    bf08        ..      IT       EQ
        0x08000470:    f0200001     ...    BICEQ    r0,r0,#1
        0x08000474:    4770        pG      BX       lr
    _float_epilogue
        0x08000476:    b410        ..      PUSH     {r4}
        0x08000478:    fab0fc80    ....    CLZ      r12,r0
        0x0800047c:    fa00f00c    ....    LSL      r0,r0,r12
        0x08000480:    ea500401    P...    ORRS     r4,r0,r1
        0x08000484:    bf04        ..      ITT      EQ
        0x08000486:    bc10        ..      POPEQ    {r4}
        0x08000488:    4770        pG      BXEQ     lr
        0x0800048a:    b149        I.      CBZ      r1,0x80004a0 ; _float_epilogue + 42
        0x0800048c:    f1cc0420    .. .    RSB      r4,r12,#0x20
        0x08000490:    fa21f404    !...    LSR      r4,r1,r4
        0x08000494:    fa11f10c    ....    LSLS     r1,r1,r12
        0x08000498:    bf18        ..      IT       NE
        0x0800049a:    2101        .!      MOVNE    r1,#1
        0x0800049c:    4321        !C      ORRS     r1,r1,r4
        0x0800049e:    4308        .C      ORRS     r0,r0,r1
        0x080004a0:    eba3010c    ....    SUB      r1,r3,r12
        0x080004a4:    1dcb        ..      ADDS     r3,r1,#7
        0x080004a6:    ea4f6100    O..a    LSL      r1,r0,#24
        0x080004aa:    ea4f2010    O..     LSR      r0,r0,#8
        0x080004ae:    bf42        B.      ITTT     MI
        0x080004b0:    2000        .       MOVMI    r0,#0
        0x080004b2:    bc10        ..      POPMI    {r4}
        0x080004b4:    4770        pG      BXMI     lr
        0x080004b6:    eb0050c3    ...P    ADD      r0,r0,r3,LSL #23
        0x080004ba:    4410        .D      ADD      r0,r0,r2
        0x080004bc:    2900        .)      CMP      r1,#0
        0x080004be:    bfa4        ..      ITT      GE
        0x080004c0:    bc10        ..      POPGE    {r4}
        0x080004c2:    4770        pG      BXGE     lr
        0x080004c4:    1c40        @.      ADDS     r0,r0,#1
        0x080004c6:    0049        I.      LSLS     r1,r1,#1
        0x080004c8:    bf08        ..      IT       EQ
        0x080004ca:    f0200001     ...    BICEQ    r0,r0,#1
        0x080004ce:    bc10        ..      POP      {r4}
        0x080004d0:    4770        pG      BX       lr
    .text
    _double_round
        0x080004d2:    b510        ..      PUSH     {r4,lr}
        0x080004d4:    1e14        ..      SUBS     r4,r2,#0
        0x080004d6:    f1730400    s...    SBCS     r4,r3,#0
        0x080004da:    da08        ..      BGE      0x80004ee ; _double_round + 28
        0x080004dc:    1c40        @.      ADDS     r0,r0,#1
        0x080004de:    f1410100    A...    ADC      r1,r1,#0
        0x080004e2:    1892        ..      ADDS     r2,r2,r2
        0x080004e4:    415b        [A      ADCS     r3,r3,r3
        0x080004e6:    431a        .C      ORRS     r2,r2,r3
        0x080004e8:    d101        ..      BNE      0x80004ee ; _double_round + 28
        0x080004ea:    f0200001     ...    BIC      r0,r0,#1
        0x080004ee:    bd10        ..      POP      {r4,pc}
    _double_epilogue
        0x080004f0:    e92d4df0    -..M    PUSH     {r4-r8,r10,r11,lr}
        0x080004f4:    4692        .F      MOV      r10,r2
        0x080004f6:    469b        .F      MOV      r11,r3
        0x080004f8:    b111        ..      CBZ      r1,0x8000500 ; _double_epilogue + 16
        0x080004fa:    fab1f281    ....    CLZ      r2,r1
        0x080004fe:    e002        ..      B        0x8000506 ; _double_epilogue + 22
        0x08000500:    fab0f280    ....    CLZ      r2,r0
        0x08000504:    3220         2      ADDS     r2,r2,#0x20
        0x08000506:    4690        .F      MOV      r8,r2
        0x08000508:    f000f998    ....    BL       __aeabi_llsl ; 0x800083c
        0x0800050c:    4604        .F      MOV      r4,r0
        0x0800050e:    460f        .F      MOV      r7,r1
        0x08000510:    ea40000a    @...    ORR      r0,r0,r10
        0x08000514:    ea41010b    A...    ORR      r1,r1,r11
        0x08000518:    4653        SF      MOV      r3,r10
        0x0800051a:    465a        ZF      MOV      r2,r11
        0x0800051c:    4308        .C      ORRS     r0,r0,r1
        0x0800051e:    d013        ..      BEQ      0x8000548 ; _double_epilogue + 88
        0x08000520:    4611        .F      MOV      r1,r2
        0x08000522:    ea530001    S...    ORRS     r0,r3,r1
        0x08000526:    d019        ..      BEQ      0x800055c ; _double_epilogue + 108
        0x08000528:    f1c80240    ..@.    RSB      r2,r8,#0x40
        0x0800052c:    4650        PF      MOV      r0,r10
        0x0800052e:    f000f994    ....    BL       __aeabi_llsr ; 0x800085a
        0x08000532:    4605        .F      MOV      r5,r0
        0x08000534:    460e        .F      MOV      r6,r1
        0x08000536:    4650        PF      MOV      r0,r10
        0x08000538:    4659        YF      MOV      r1,r11
        0x0800053a:    4642        BF      MOV      r2,r8
        0x0800053c:    f000f97e    ..~.    BL       __aeabi_llsl ; 0x800083c
        0x08000540:    4308        .C      ORRS     r0,r0,r1
        0x08000542:    d005        ..      BEQ      0x8000550 ; _double_epilogue + 96
        0x08000544:    2001        .       MOVS     r0,#1
        0x08000546:    e004        ..      B        0x8000552 ; _double_epilogue + 98
        0x08000548:    4620         F      MOV      r0,r4
        0x0800054a:    4639        9F      MOV      r1,r7
        0x0800054c:    e8bd8df0    ....    POP      {r4-r8,r10,r11,pc}
        0x08000550:    2000        .       MOVS     r0,#0
        0x08000552:    4305        .C      ORRS     r5,r5,r0
        0x08000554:    ea4676e0    F..v    ORR      r6,r6,r0,ASR #31
        0x08000558:    432c        ,C      ORRS     r4,r4,r5
        0x0800055a:    4337        7C      ORRS     r7,r7,r6
        0x0800055c:    980a        ..      LDR      r0,[sp,#0x28]
        0x0800055e:    0563        c.      LSLS     r3,r4,#21
        0x08000560:    0ae4        ..      LSRS     r4,r4,#11
        0x08000562:    eba00008    ....    SUB      r0,r0,r8
        0x08000566:    2200        ."      MOVS     r2,#0
        0x08000568:    0afd        ..      LSRS     r5,r7,#11
        0x0800056a:    ea445447    D.GT    ORR      r4,r4,r7,LSL #21
        0x0800056e:    300a        .0      ADDS     r0,r0,#0xa
        0x08000570:    d502        ..      BPL      0x8000578 ; _double_epilogue + 136
        0x08000572:    2000        .       MOVS     r0,#0
        0x08000574:    4601        .F      MOV      r1,r0
        0x08000576:    e7e9        ..      B        0x800054c ; _double_epilogue + 92
        0x08000578:    0501        ..      LSLS     r1,r0,#20
        0x0800057a:    1910        ..      ADDS     r0,r2,r4
        0x0800057c:    4169        iA      ADCS     r1,r1,r5
        0x0800057e:    e9dd4508    ...E    LDRD     r4,r5,[sp,#0x20]
        0x08000582:    1900        ..      ADDS     r0,r0,r4
        0x08000584:    4169        iA      ADCS     r1,r1,r5
        0x08000586:    e8bd4df0    ...M    POP      {r4-r8,r10,r11,lr}
        0x0800058a:    e7a2        ..      B        _double_round ; 0x80004d2
    .text
    __aeabi_dadd
        0x0800058c:    e92d4ffe    -..O    PUSH     {r1-r11,lr}
        0x08000590:    4680        .F      MOV      r8,r0
        0x08000592:    ea810003    ....    EOR      r0,r1,r3
        0x08000596:    0fc0        ..      LSRS     r0,r0,#31
        0x08000598:    460c        .F      MOV      r4,r1
        0x0800059a:    9000        ..      STR      r0,[sp,#0]
        0x0800059c:    f0214100    !..A    BIC      r1,r1,#0x80000000
        0x080005a0:    f0234500    #..E    BIC      r5,r3,#0x80000000
        0x080005a4:    ebb80002    ....    SUBS     r0,r8,r2
        0x080005a8:    41a9        .A      SBCS     r1,r1,r5
        0x080005aa:    d205        ..      BCS      0x80005b8 ; __aeabi_dadd + 44
        0x080005ac:    4640        @F      MOV      r0,r8
        0x080005ae:    4621        !F      MOV      r1,r4
        0x080005b0:    4690        .F      MOV      r8,r2
        0x080005b2:    461c        .F      MOV      r4,r3
        0x080005b4:    460b        .F      MOV      r3,r1
        0x080005b6:    4602        .F      MOV      r2,r0
        0x080005b8:    f0234000    #..@    BIC      r0,r3,#0x80000000
        0x080005bc:    4310        .C      ORRS     r0,r0,r2
        0x080005be:    d047        G.      BEQ      0x8000650 ; __aeabi_dadd + 196
        0x080005c0:    0d27        '.      LSRS     r7,r4,#20
        0x080005c2:    f3c7000a    ....    UBFX     r0,r7,#0,#11
        0x080005c6:    f3c3510a    ...Q    UBFX     r1,r3,#20,#11
        0x080005ca:    9002        ..      STR      r0,[sp,#8]
        0x080005cc:    1a40        @.      SUBS     r0,r0,r1
        0x080005ce:    9001        ..      STR      r0,[sp,#4]
        0x080005d0:    2840        @(      CMP      r0,#0x40
        0x080005d2:    da6b        k.      BGE      0x80006ac ; __aeabi_dadd + 288
        0x080005d4:    f3c30013    ....    UBFX     r0,r3,#0,#20
        0x080005d8:    f4401b80    @...    ORR      r11,r0,#0x100000
        0x080005dc:    9800        ..      LDR      r0,[sp,#0]
        0x080005de:    4692        .F      MOV      r10,r2
        0x080005e0:    b120         .      CBZ      r0,0x80005ec ; __aeabi_dadd + 96
        0x080005e2:    2300        .#      MOVS     r3,#0
        0x080005e4:    ebd20a03    ....    RSBS     r10,r2,r3
        0x080005e8:    eb630b0b    c...    SBC      r11,r3,r11
        0x080005ec:    9801        ..      LDR      r0,[sp,#4]
        0x080005ee:    4659        YF      MOV      r1,r11
        0x080005f0:    f1c00240    ..@.    RSB      r2,r0,#0x40
        0x080005f4:    4650        PF      MOV      r0,r10
        0x080005f6:    f000f921    ..!.    BL       __aeabi_llsl ; 0x800083c
        0x080005fa:    4606        .F      MOV      r6,r0
        0x080005fc:    460d        .F      MOV      r5,r1
        0x080005fe:    4650        PF      MOV      r0,r10
        0x08000600:    4659        YF      MOV      r1,r11
        0x08000602:    9a01        ..      LDR      r2,[sp,#4]
        0x08000604:    f000f939    ..9.    BL       __aeabi_lasr ; 0x800087a
        0x08000608:    eb100008    ....    ADDS     r0,r0,r8
        0x0800060c:    4161        aA      ADCS     r1,r1,r4
        0x0800060e:    2400        .$      MOVS     r4,#0
        0x08000610:    ea875211    ...R    EOR      r2,r7,r1,LSR #20
        0x08000614:    ea8473e7    ...s    EOR      r3,r4,r7,ASR #31
        0x08000618:    431a        .C      ORRS     r2,r2,r3
        0x0800061a:    d040        @.      BEQ      0x800069e ; __aeabi_dadd + 274
        0x0800061c:    9a00        ..      LDR      r2,[sp,#0]
        0x0800061e:    b362        b.      CBZ      r2,0x800067a ; __aeabi_dadd + 238
        0x08000620:    9a01        ..      LDR      r2,[sp,#4]
        0x08000622:    2a01        .*      CMP      r2,#1
        0x08000624:    ea4f5207    O..R    LSL      r2,r7,#20
        0x08000628:    dc15        ..      BGT      0x8000656 ; __aeabi_dadd + 202
        0x0800062a:    1b00        ..      SUBS     r0,r0,r4
        0x0800062c:    eb610102    a...    SBC      r1,r1,r2
        0x08000630:    f04f4200    O..B    MOV      r2,#0x80000000
        0x08000634:    ea025207    ...R    AND      r2,r2,r7,LSL #20
        0x08000638:    e9cd4200    ...B    STRD     r4,r2,[sp,#0]
        0x0800063c:    1c00        ..      ADDS     r0,r0,#0
        0x0800063e:    f5411180    A...    ADC      r1,r1,#0x100000
        0x08000642:    4632        2F      MOV      r2,r6
        0x08000644:    462b        +F      MOV      r3,r5
        0x08000646:    f7ffff53    ..S.    BL       _double_epilogue ; 0x80004f0
        0x0800064a:    b003        ..      ADD      sp,sp,#0xc
        0x0800064c:    e8bd8ff0    ....    POP      {r4-r11,pc}
        0x08000650:    4640        @F      MOV      r0,r8
        0x08000652:    4621        !F      MOV      r1,r4
        0x08000654:    e7f9        ..      B        0x800064a ; __aeabi_dadd + 190
        0x08000656:    1b00        ..      SUBS     r0,r0,r4
        0x08000658:    eb610102    a...    SBC      r1,r1,r2
        0x0800065c:    1c00        ..      ADDS     r0,r0,#0
        0x0800065e:    f5411380    A...    ADC      r3,r1,#0x100000
        0x08000662:    1800        ..      ADDS     r0,r0,r0
        0x08000664:    415b        [A      ADCS     r3,r3,r3
        0x08000666:    1820         .      ADDS     r0,r4,r0
        0x08000668:    f5a21700    ....    SUB      r7,r2,#0x200000
        0x0800066c:    eb470103    G...    ADC      r1,r7,r3
        0x08000670:    ea4070d5    @..p    ORR      r0,r0,r5,LSR #31
        0x08000674:    19b6        ..      ADDS     r6,r6,r6
        0x08000676:    416d        mA      ADCS     r5,r5,r5
        0x08000678:    e011        ..      B        0x800069e ; __aeabi_dadd + 274
        0x0800067a:    086d        m.      LSRS     r5,r5,#1
        0x0800067c:    ea4f0636    O.6.    RRX      r6,r6
        0x08000680:    ea4575c0    E..u    ORR      r5,r5,r0,LSL #31
        0x08000684:    ea4f5207    O..R    LSL      r2,r7,#20
        0x08000688:    1b00        ..      SUBS     r0,r0,r4
        0x0800068a:    eb610102    a...    SBC      r1,r1,r2
        0x0800068e:    1c00        ..      ADDS     r0,r0,#0
        0x08000690:    f5411180    A...    ADC      r1,r1,#0x100000
        0x08000694:    0849        I.      LSRS     r1,r1,#1
        0x08000696:    ea4f0030    O.0.    RRX      r0,r0
        0x0800069a:    1900        ..      ADDS     r0,r0,r4
        0x0800069c:    4151        QA      ADCS     r1,r1,r2
        0x0800069e:    4632        2F      MOV      r2,r6
        0x080006a0:    462b        +F      MOV      r3,r5
        0x080006a2:    b003        ..      ADD      sp,sp,#0xc
        0x080006a4:    e8bd4ff0    ...O    POP      {r4-r11,lr}
        0x080006a8:    f7ffbf13    ....    B.W      _double_round ; 0x80004d2
        0x080006ac:    9800        ..      LDR      r0,[sp,#0]
        0x080006ae:    2201        ."      MOVS     r2,#1
        0x080006b0:    0040        @.      LSLS     r0,r0,#1
        0x080006b2:    2300        .#      MOVS     r3,#0
        0x080006b4:    ebd00202    ....    RSBS     r2,r0,r2
        0x080006b8:    eb6373e0    c..s    SBC      r3,r3,r0,ASR #31
        0x080006bc:    9800        ..      LDR      r0,[sp,#0]
        0x080006be:    4621        !F      MOV      r1,r4
        0x080006c0:    ea4f74e0    O..t    ASR      r4,r0,#31
        0x080006c4:    ebb80000    ....    SUBS     r0,r8,r0
        0x080006c8:    eb610104    a...    SBC      r1,r1,r4
        0x080006cc:    e7e9        ..      B        0x80006a2 ; __aeabi_dadd + 278
    __aeabi_dsub
        0x080006ce:    f0834300    ...C    EOR      r3,r3,#0x80000000
        0x080006d2:    e75b        [.      B        __aeabi_dadd ; 0x800058c
    __aeabi_drsub
        0x080006d4:    f0814100    ...A    EOR      r1,r1,#0x80000000
        0x080006d8:    e758        X.      B        __aeabi_dadd ; 0x800058c
    .text
    __aeabi_ddiv
        0x080006da:    e92d4df0    -..M    PUSH     {r4-r8,r10,r11,lr}
        0x080006de:    ea810403    ....    EOR      r4,r1,r3
        0x080006e2:    f0044b00    ...K    AND      r11,r4,#0x80000000
        0x080006e6:    f0214500    !..E    BIC      r5,r1,#0x80000000
        0x080006ea:    4614        .F      MOV      r4,r2
        0x080006ec:    f04f0a00    O...    MOV      r10,#0
        0x080006f0:    f0234100    #..A    BIC      r1,r3,#0x80000000
        0x080006f4:    ea500205    P...    ORRS     r2,r0,r5
        0x080006f8:    d020         .      BEQ      0x800073c ; __aeabi_ddiv + 98
        0x080006fa:    ea540201    T...    ORRS     r2,r4,r1
        0x080006fe:    d01d        ..      BEQ      0x800073c ; __aeabi_ddiv + 98
        0x08000700:    f3c5570a    ...W    UBFX     r7,r5,#20,#11
        0x08000704:    4602        .F      MOV      r2,r0
        0x08000706:    f3c50313    ....    UBFX     r3,r5,#0,#20
        0x0800070a:    f3c10013    ....    UBFX     r0,r1,#0,#20
        0x0800070e:    f3c1560a    ...V    UBFX     r6,r1,#20,#11
        0x08000712:    f4401580    @...    ORR      r5,r0,#0x100000
        0x08000716:    f4431380    C...    ORR      r3,r3,#0x100000
        0x0800071a:    eba70806    ....    SUB      r8,r7,r6
        0x0800071e:    1b10        ..      SUBS     r0,r2,r4
        0x08000720:    46d6        .F      MOV      lr,r10
        0x08000722:    f20838fd    ...8    ADD      r8,r8,#0x3fd
        0x08000726:    eb730005    s...    SBCS     r0,r3,r5
        0x0800072a:    d302        ..      BCC      0x8000732 ; __aeabi_ddiv + 88
        0x0800072c:    f1080801    ....    ADD      r8,r8,#1
        0x08000730:    e001        ..      B        0x8000736 ; __aeabi_ddiv + 92
        0x08000732:    1892        ..      ADDS     r2,r2,r2
        0x08000734:    415b        [A      ADCS     r3,r3,r3
        0x08000736:    f1b80f00    ....    CMP      r8,#0
        0x0800073a:    da03        ..      BGE      0x8000744 ; __aeabi_ddiv + 106
        0x0800073c:    2000        .       MOVS     r0,#0
        0x0800073e:    4601        .F      MOV      r1,r0
        0x08000740:    e8bd8df0    ....    POP      {r4-r8,r10,r11,pc}
        0x08000744:    2000        .       MOVS     r0,#0
        0x08000746:    f44f1180    O...    MOV      r1,#0x100000
        0x0800074a:    4606        .F      MOV      r6,r0
        0x0800074c:    4684        .F      MOV      r12,r0
        0x0800074e:    e00e        ..      B        0x800076e ; __aeabi_ddiv + 148
        0x08000750:    1b17        ..      SUBS     r7,r2,r4
        0x08000752:    eb730705    s...    SBCS     r7,r3,r5
        0x08000756:    d305        ..      BCC      0x8000764 ; __aeabi_ddiv + 138
        0x08000758:    1b12        ..      SUBS     r2,r2,r4
        0x0800075a:    eb630305    c...    SBC      r3,r3,r5
        0x0800075e:    4306        .C      ORRS     r6,r6,r0
        0x08000760:    ea4c0c01    L...    ORR      r12,r12,r1
        0x08000764:    0849        I.      LSRS     r1,r1,#1
        0x08000766:    ea4f0030    O.0.    RRX      r0,r0
        0x0800076a:    1892        ..      ADDS     r2,r2,r2
        0x0800076c:    415b        [A      ADCS     r3,r3,r3
        0x0800076e:    ea500701    P...    ORRS     r7,r0,r1
        0x08000772:    d1ed        ..      BNE      0x8000750 ; __aeabi_ddiv + 118
        0x08000774:    ea520003    R...    ORRS     r0,r2,r3
        0x08000778:    d012        ..      BEQ      0x80007a0 ; __aeabi_ddiv + 198
        0x0800077a:    ea820004    ....    EOR      r0,r2,r4
        0x0800077e:    ea830105    ....    EOR      r1,r3,r5
        0x08000782:    4308        .C      ORRS     r0,r0,r1
        0x08000784:    d005        ..      BEQ      0x8000792 ; __aeabi_ddiv + 184
        0x08000786:    1b10        ..      SUBS     r0,r2,r4
        0x08000788:    41ab        .A      SBCS     r3,r3,r5
        0x0800078a:    d206        ..      BCS      0x800079a ; __aeabi_ddiv + 192
        0x0800078c:    2201        ."      MOVS     r2,#1
        0x0800078e:    2300        .#      MOVS     r3,#0
        0x08000790:    e006        ..      B        0x80007a0 ; __aeabi_ddiv + 198
        0x08000792:    2200        ."      MOVS     r2,#0
        0x08000794:    f04f4300    O..C    MOV      r3,#0x80000000
        0x08000798:    e002        ..      B        0x80007a0 ; __aeabi_ddiv + 198
        0x0800079a:    f06f0201    o...    MVN      r2,#1
        0x0800079e:    1053        S.      ASRS     r3,r2,#1
        0x080007a0:    eb1a0006    ....    ADDS     r0,r10,r6
        0x080007a4:    eb4c5108    L..Q    ADC      r1,r12,r8,LSL #20
        0x080007a8:    eb10000a    ....    ADDS     r0,r0,r10
        0x080007ac:    eb41010b    A...    ADC      r1,r1,r11
        0x080007b0:    e8bd4df0    ...M    POP      {r4-r8,r10,r11,lr}
        0x080007b4:    f7ffbe8d    ....    B.W      _double_round ; 0x80004d2
    .text
    __aeabi_d2ulz
        0x080007b8:    f3c1520a    ...R    UBFX     r2,r1,#20,#11
        0x080007bc:    f3c10113    ....    UBFX     r1,r1,#0,#20
        0x080007c0:    f24033ff    @..3    MOV      r3,#0x3ff
        0x080007c4:    f4411180    A...    ORR      r1,r1,#0x100000
        0x080007c8:    429a        .B      CMP      r2,r3
        0x080007ca:    da02        ..      BGE      0x80007d2 ; __aeabi_d2ulz + 26
        0x080007cc:    2000        .       MOVS     r0,#0
        0x080007ce:    4601        .F      MOV      r1,r0
        0x080007d0:    4770        pG      BX       lr
        0x080007d2:    f2404333    @.3C    MOV      r3,#0x433
        0x080007d6:    429a        .B      CMP      r2,r3
        0x080007d8:    f2a24233    ..3B    SUB      r2,r2,#0x433
        0x080007dc:    dc02        ..      BGT      0x80007e4 ; __aeabi_d2ulz + 44
        0x080007de:    4252        RB      RSBS     r2,r2,#0
        0x080007e0:    f000b83b    ..;.    B.W      __aeabi_llsr ; 0x800085a
        0x080007e4:    f000b82a    ..*.    B.W      __aeabi_llsl ; 0x800083c
    .text
    __aeabi_cdrcmple
        0x080007e8:    b530        0.      PUSH     {r4,r5,lr}
        0x080007ea:    1e04        ..      SUBS     r4,r0,#0
        0x080007ec:    f1710400    q...    SBCS     r4,r1,#0
        0x080007f0:    db04        ..      BLT      0x80007fc ; __aeabi_cdrcmple + 20
        0x080007f2:    f04f4400    O..D    MOV      r4,#0x80000000
        0x080007f6:    4240        @B      RSBS     r0,r0,#0
        0x080007f8:    eb640101    d...    SBC      r1,r4,r1
        0x080007fc:    1e14        ..      SUBS     r4,r2,#0
        0x080007fe:    f1730400    s...    SBCS     r4,r3,#0
        0x08000802:    db05        ..      BLT      0x8000810 ; __aeabi_cdrcmple + 40
        0x08000804:    461c        .F      MOV      r4,r3
        0x08000806:    f04f4300    O..C    MOV      r3,#0x80000000
        0x0800080a:    4252        RB      RSBS     r2,r2,#0
        0x0800080c:    eb630304    c...    SBC      r3,r3,r4
        0x08000810:    4299        .B      CMP      r1,r3
        0x08000812:    bf08        ..      IT       EQ
        0x08000814:    4290        .B      CMPEQ    r0,r2
        0x08000816:    bd30        0.      POP      {r4,r5,pc}
    .text
    __scatterload
    __scatterload_rt2
        0x08000818:    4c06        .L      LDR      r4,[pc,#24] ; [0x8000834] = 0x8002e10
        0x0800081a:    4d07        .M      LDR      r5,[pc,#28] ; [0x8000838] = 0x8002e30
        0x0800081c:    e006        ..      B        0x800082c ; __scatterload + 20
        0x0800081e:    68e0        .h      LDR      r0,[r4,#0xc]
        0x08000820:    f0400301    @...    ORR      r3,r0,#1
        0x08000824:    e8940007    ....    LDM      r4,{r0-r2}
        0x08000828:    4798        .G      BLX      r3
        0x0800082a:    3410        .4      ADDS     r4,r4,#0x10
        0x0800082c:    42ac        .B      CMP      r4,r5
        0x0800082e:    d3f6        ..      BCC      0x800081e ; __scatterload + 6
        0x08000830:    f7fffc7a    ..z.    BL       __main_after_scatterload ; 0x8000128
    $d
        0x08000834:    08002e10    ....    DCD    134229520
        0x08000838:    08002e30    0...    DCD    134229552
    $t
    .text
    __aeabi_llsl
    _ll_shift_l
        0x0800083c:    2a20         *      CMP      r2,#0x20
        0x0800083e:    db04        ..      BLT      0x800084a ; __aeabi_llsl + 14
        0x08000840:    3a20         :      SUBS     r2,r2,#0x20
        0x08000842:    fa00f102    ....    LSL      r1,r0,r2
        0x08000846:    2000        .       MOVS     r0,#0
        0x08000848:    4770        pG      BX       lr
        0x0800084a:    4091        .@      LSLS     r1,r1,r2
        0x0800084c:    f1c20320    .. .    RSB      r3,r2,#0x20
        0x08000850:    fa20f303     ...    LSR      r3,r0,r3
        0x08000854:    4319        .C      ORRS     r1,r1,r3
        0x08000856:    4090        .@      LSLS     r0,r0,r2
        0x08000858:    4770        pG      BX       lr
    .text
    __aeabi_llsr
    _ll_ushift_r
        0x0800085a:    2a20         *      CMP      r2,#0x20
        0x0800085c:    db04        ..      BLT      0x8000868 ; __aeabi_llsr + 14
        0x0800085e:    3a20         :      SUBS     r2,r2,#0x20
        0x08000860:    fa21f002    !...    LSR      r0,r1,r2
        0x08000864:    2100        .!      MOVS     r1,#0
        0x08000866:    4770        pG      BX       lr
        0x08000868:    fa21f302    !...    LSR      r3,r1,r2
        0x0800086c:    40d0        .@      LSRS     r0,r0,r2
        0x0800086e:    f1c20220    .. .    RSB      r2,r2,#0x20
        0x08000872:    4091        .@      LSLS     r1,r1,r2
        0x08000874:    4308        .C      ORRS     r0,r0,r1
        0x08000876:    4619        .F      MOV      r1,r3
        0x08000878:    4770        pG      BX       lr
    .text
    __aeabi_lasr
    _ll_sshift_r
        0x0800087a:    2a20         *      CMP      r2,#0x20
        0x0800087c:    db06        ..      BLT      0x800088c ; __aeabi_lasr + 18
        0x0800087e:    17cb        ..      ASRS     r3,r1,#31
        0x08000880:    3a20         :      SUBS     r2,r2,#0x20
        0x08000882:    fa41f002    A...    ASR      r0,r1,r2
        0x08000886:    ea4373e0    C..s    ORR      r3,r3,r0,ASR #31
        0x0800088a:    e006        ..      B        0x800089a ; __aeabi_lasr + 32
        0x0800088c:    fa41f302    A...    ASR      r3,r1,r2
        0x08000890:    40d0        .@      LSRS     r0,r0,r2
        0x08000892:    f1c20220    .. .    RSB      r2,r2,#0x20
        0x08000896:    4091        .@      LSLS     r1,r1,r2
        0x08000898:    4308        .C      ORRS     r0,r0,r1
        0x0800089a:    4619        .F      MOV      r1,r3
        0x0800089c:    4770        pG      BX       lr
        0x0800089e:    0000        ..      MOVS     r0,r0
    $t.6
    Func_1
        0x080008a0:    4288        .B      CMP      r0,r1
        0x080008a2:    bf11        ..      ITEEE    NE
        0x080008a4:    2000        .       MOVNE    r0,#0
        0x080008a6:    f2400160    @.`.    MOVWEQ   r1,#0x60
        0x080008aa:    f2c20100    ....    MOVTEQ   r1,#0x2000
        0x080008ae:    7008        .p      STRBEQ   r0,[r1,#0]
        0x080008b0:    bf08        ..      IT       EQ
        0x080008b2:    2001        .       MOVEQ    r0,#1
        0x080008b4:    4770        pG      BX       lr
        0x080008b6:    0000        ..      MOVS     r0,r0
    Func_2
        0x080008b8:    b580        ..      PUSH     {r7,lr}
        0x080008ba:    f890c002    ....    LDRB     r12,[r0,#2]
        0x080008be:    78ca        .x      LDRB     r2,[r1,#3]
        0x080008c0:    4594        .E      CMP      r12,r2
        0x080008c2:    d10e        ..      BNE      0x80008e2 ; Func_2 + 42
        0x080008c4:    ebac0202    ....    SUB      r2,r12,r2
        0x080008c8:    fab2f282    ....    CLZ      r2,r2
        0x080008cc:    0952        R.      LSRS     r2,r2,#5
        0x080008ce:    2301        .#      MOVS     r3,#1
        0x080008d0:    07db        ..      LSLS     r3,r3,#31
        0x080008d2:    4613        .F      MOV      r3,r2
        0x080008d4:    d1fc        ..      BNE      0x80008d0 ; Func_2 + 24
        0x080008d6:    f2400260    @.`.    MOVW     r2,#0x60
        0x080008da:    f2c20200    ....    MOVT     r2,#0x2000
        0x080008de:    f882c000    ....    STRB     r12,[r2,#0]
        0x080008e2:    f7fffc4b    ..K.    BL       strcmp ; 0x800017c
        0x080008e6:    2801        .(      CMP      r0,#1
        0x080008e8:    bfbc        ..      ITT      LT
        0x080008ea:    2000        .       MOVLT    r0,#0
        0x080008ec:    bd80        ..      POPLT    {r7,pc}
        0x080008ee:    f240006c    @.l.    MOVW     r0,#0x6c
        0x080008f2:    f2c20000    ....    MOVT     r0,#0x2000
        0x080008f6:    210a        .!      MOVS     r1,#0xa
        0x080008f8:    6001        .`      STR      r1,[r0,#0]
        0x080008fa:    2001        .       MOVS     r0,#1
        0x080008fc:    bd80        ..      POP      {r7,pc}
        0x080008fe:    0000        ..      MOVS     r0,r0
    HardFaultHandler
        0x08000900:    f64e522c    N.,R    MOV      r2,#0xed2c
        0x08000904:    f2ce0200    ....    MOVT     r2,#0xe000
        0x08000908:    6811        .h      LDR      r1,[r2,#0]
        0x0800090a:    f1b13fff    ...?    CMP      r1,#0xffffffff
        0x0800090e:    dd43        C.      BLE      0x8000998 ; HardFaultHandler + 152
        0x08000910:    f8523c08    R..<    LDR      r3,[r2,#-8]
        0x08000914:    f240011c    @...    MOVW     r1,#0x1c
        0x08000918:    f2c20100    ....    MOVT     r1,#0x2000
        0x0800091c:    624b        Kb      STR      r3,[r1,#0x24]
        0x0800091e:    f8123c04    ...<    LDRB     r3,[r2,#-4]
        0x08000922:    f8813028    ..(0    STRB     r3,[r1,#0x28]
        0x08000926:    f8123c03    ...<    LDRB     r3,[r2,#-3]
        0x0800092a:    62cb        .b      STR      r3,[r1,#0x2c]
        0x0800092c:    68d3        .h      LDR      r3,[r2,#0xc]
        0x0800092e:    630b        .c      STR      r3,[r1,#0x30]
        0x08000930:    f8323c02    2..<    LDRH     r3,[r2,#-2]
        0x08000934:    868b        ..      STRH     r3,[r1,#0x34]
        0x08000936:    6813        .h      LDR      r3,[r2,#0]
        0x08000938:    638b        .c      STR      r3,[r1,#0x38]
        0x0800093a:    6853        Sh      LDR      r3,[r2,#4]
        0x0800093c:    63cb        .c      STR      r3,[r1,#0x3c]
        0x0800093e:    6912        .i      LDR      r2,[r2,#0x10]
        0x08000940:    640a        .d      STR      r2,[r1,#0x40]
        0x08000942:    2200        ."      MOVS     r2,#0
        0x08000944:    600a        .`      STR      r2,[r1,#0]
        0x08000946:    bf00        ..      NOP      
        0x08000948:    680a        .h      LDR      r2,[r1,#0]
        0x0800094a:    b932        2.      CBNZ     r2,0x800095a ; HardFaultHandler + 90
        0x0800094c:    680a        .h      LDR      r2,[r1,#0]
        0x0800094e:    b922        ".      CBNZ     r2,0x800095a ; HardFaultHandler + 90
        0x08000950:    680a        .h      LDR      r2,[r1,#0]
        0x08000952:    b912        ..      CBNZ     r2,0x800095a ; HardFaultHandler + 90
        0x08000954:    680a        .h      LDR      r2,[r1,#0]
        0x08000956:    2a00        .*      CMP      r2,#0
        0x08000958:    d0f6        ..      BEQ      0x8000948 ; HardFaultHandler + 72
        0x0800095a:    6802        .h      LDR      r2,[r0,#0]
        0x0800095c:    604a        J`      STR      r2,[r1,#4]
        0x0800095e:    6842        Bh      LDR      r2,[r0,#4]
        0x08000960:    608a        .`      STR      r2,[r1,#8]
        0x08000962:    6882        .h      LDR      r2,[r0,#8]
        0x08000964:    60ca        .`      STR      r2,[r1,#0xc]
        0x08000966:    68c2        .h      LDR      r2,[r0,#0xc]
        0x08000968:    610a        .a      STR      r2,[r1,#0x10]
        0x0800096a:    6902        .i      LDR      r2,[r0,#0x10]
        0x0800096c:    614a        Ja      STR      r2,[r1,#0x14]
        0x0800096e:    6942        Bi      LDR      r2,[r0,#0x14]
        0x08000970:    618a        .a      STR      r2,[r1,#0x18]
        0x08000972:    6982        .i      LDR      r2,[r0,#0x18]
        0x08000974:    61ca        .a      STR      r2,[r1,#0x1c]
        0x08000976:    69c0        .i      LDR      r0,[r0,#0x1c]
        0x08000978:    6208        .b      STR      r0,[r1,#0x20]
        0x0800097a:    2000        .       MOVS     r0,#0
        0x0800097c:    6008        .`      STR      r0,[r1,#0]
        0x0800097e:    bf00        ..      NOP      
        0x08000980:    6808        .h      LDR      r0,[r1,#0]
        0x08000982:    b940        @.      CBNZ     r0,0x8000996 ; HardFaultHandler + 150
        0x08000984:    6808        .h      LDR      r0,[r1,#0]
        0x08000986:    b930        0.      CBNZ     r0,0x8000996 ; HardFaultHandler + 150
        0x08000988:    6808        .h      LDR      r0,[r1,#0]
        0x0800098a:    2800        .(      CMP      r0,#0
        0x0800098c:    bf18        ..      IT       NE
        0x0800098e:    4770        pG      BXNE     lr
        0x08000990:    6808        .h      LDR      r0,[r1,#0]
        0x08000992:    2800        .(      CMP      r0,#0
        0x08000994:    d0f4        ..      BEQ      0x8000980 ; HardFaultHandler + 128
        0x08000996:    4770        pG      BX       lr
        0x08000998:    6811        .h      LDR      r1,[r2,#0]
        0x0800099a:    f0414100    A..A    ORR      r1,r1,#0x80000000
        0x0800099e:    6011        .`      STR      r1,[r2,#0]
        0x080009a0:    6981        .i      LDR      r1,[r0,#0x18]
        0x080009a2:    3102        .1      ADDS     r1,#2
        0x080009a4:    6181        .a      STR      r1,[r0,#0x18]
        0x080009a6:    4770        pG      BX       lr
    Proc_6
        0x080009a8:    2802        .(      CMP      r0,#2
        0x080009aa:    4602        .F      MOV      r2,r0
        0x080009ac:    bf18        ..      IT       NE
        0x080009ae:    2203        ."      MOVNE    r2,#3
        0x080009b0:    2804        .(      CMP      r0,#4
        0x080009b2:    700a        .p      STRB     r2,[r1,#0]
        0x080009b4:    bf88        ..      IT       HI
        0x080009b6:    4770        pG      BXHI     lr
        0x080009b8:    2200        ."      MOVS     r2,#0
        0x080009ba:    e8dff000    ....    TBB      [pc,r0]
    $d.1
        0x080009be:    0310        ..      DCW    784
        0x080009c0:    000f110d    ....    DCD    987405
    $t.2
        0x080009c4:    f240006c    @.l.    MOVW     r0,#0x6c
        0x080009c8:    f2c20000    ....    MOVT     r0,#0x2000
        0x080009cc:    6800        .h      LDR      r0,[r0,#0]
        0x080009ce:    2203        ."      MOVS     r2,#3
        0x080009d0:    2864        d(      CMP      r0,#0x64
        0x080009d2:    bfc8        ..      IT       GT
        0x080009d4:    2200        ."      MOVGT    r2,#0
        0x080009d6:    e002        ..      B        0x80009de ; Proc_6 + 54
        0x080009d8:    2201        ."      MOVS     r2,#1
        0x080009da:    e000        ..      B        0x80009de ; Proc_6 + 54
        0x080009dc:    2202        ."      MOVS     r2,#2
        0x080009de:    700a        .p      STRB     r2,[r1,#0]
        0x080009e0:    4770        pG      BX       lr
        0x080009e2:    0000        ..      MOVS     r0,r0
    Proc_7
        0x080009e4:    4408        .D      ADD      r0,r0,r1
        0x080009e6:    3002        .0      ADDS     r0,#2
        0x080009e8:    6010        .`      STR      r0,[r2,#0]
        0x080009ea:    4770        pG      BX       lr
    Proc_8
        0x080009ec:    b580        ..      PUSH     {r7,lr}
        0x080009ee:    f1020c05    ....    ADD      r12,r2,#5
        0x080009f2:    f1020e06    ....    ADD      lr,r2,#6
        0x080009f6:    f840302c    @.,0    STR      r3,[r0,r12,LSL #2]
        0x080009fa:    f840302e    @..0    STR      r3,[r0,lr,LSL #2]
        0x080009fe:    23c8        .#      MOVS     r3,#0xc8
        0x08000a00:    fb021103    ....    MLA      r1,r2,r3,r1
        0x08000a04:    eb000382    ....    ADD      r3,r0,r2,LSL #2
        0x08000a08:    f8c3c08c    ....    STR      r12,[r3,#0x8c]
        0x08000a0c:    f501737a    ..zs    ADD      r3,r1,#0x3e8
        0x08000a10:    eb030282    ....    ADD      r2,r3,r2,LSL #2
        0x08000a14:    f843c02e    C...    STR      r12,[r3,lr,LSL #2]
        0x08000a18:    f8d2e010    ....    LDR      lr,[r2,#0x10]
        0x08000a1c:    f843c02c    C.,.    STR      r12,[r3,r12,LSL #2]
        0x08000a20:    f10e0301    ....    ADD      r3,lr,#1
        0x08000a24:    6113        .a      STR      r3,[r2,#0x10]
        0x08000a26:    f850002c    P.,.    LDR      r0,[r0,r12,LSL #2]
        0x08000a2a:    eb01018c    ....    ADD      r1,r1,r12,LSL #2
        0x08000a2e:    f2413288    A..2    MOV      r2,#0x1388
        0x08000a32:    5088        .P      STR      r0,[r1,r2]
        0x08000a34:    f240006c    @.l.    MOVW     r0,#0x6c
        0x08000a38:    f2c20000    ....    MOVT     r0,#0x2000
        0x08000a3c:    2105        .!      MOVS     r1,#5
        0x08000a3e:    6001        .`      STR      r1,[r0,#0]
        0x08000a40:    bd80        ..      POP      {r7,pc}
        0x08000a42:    0000        ..      MOVS     r0,r0
    SEGGER_RTT_Init
        0x08000a44:    f642009c    B...    MOV      r0,#0x289c
        0x08000a48:    f2c20000    ....    MOVT     r0,#0x2000
        0x08000a4c:    2103        .!      MOVS     r1,#3
        0x08000a4e:    6101        .a      STR      r1,[r0,#0x10]
        0x08000a50:    6141        Aa      STR      r1,[r0,#0x14]
        0x08000a52:    f64201c0    B...    MOVW     r1,#0x28c0
        0x08000a56:    f6421244    B.D.    MOV      r2,#0x2944
        0x08000a5a:    f6c00100    ....    MOVT     r1,#0x800
        0x08000a5e:    f2c20200    ....    MOVT     r2,#0x2000
        0x08000a62:    6181        .a      STR      r1,[r0,#0x18]
        0x08000a64:    61c2        .a      STR      r2,[r0,#0x1c]
        0x08000a66:    f44f6200    O..b    MOV      r2,#0x800
        0x08000a6a:    6202        .b      STR      r2,[r0,#0x20]
        0x08000a6c:    2200        ."      MOVS     r2,#0
        0x08000a6e:    6282        .b      STR      r2,[r0,#0x28]
        0x08000a70:    6242        Bb      STR      r2,[r0,#0x24]
        0x08000a72:    62c2        .b      STR      r2,[r0,#0x2c]
        0x08000a74:    6601        .f      STR      r1,[r0,#0x60]
        0x08000a76:    f2400108    @...    MOVW     r1,#8
        0x08000a7a:    f2c20100    ....    MOVT     r1,#0x2000
        0x08000a7e:    3101        .1      ADDS     r1,#1
        0x08000a80:    6641        Af      STR      r1,[r0,#0x64]
        0x08000a82:    2110        .!      MOVS     r1,#0x10
        0x08000a84:    6681        .f      STR      r1,[r0,#0x68]
        0x08000a86:    f2454152    E.RA    MOV      r1,#0x5452
        0x08000a8a:    f2c00154    ..T.    MOVT     r1,#0x54
        0x08000a8e:    6702        .g      STR      r2,[r0,#0x70]
        0x08000a90:    66c2        .f      STR      r2,[r0,#0x6c]
        0x08000a92:    6742        Bg      STR      r2,[r0,#0x74]
        0x08000a94:    f8c01007    ....    STR      r1,[r0,#7]
        0x08000a98:    f2445147    D.GQ    MOV      r1,#0x4547
        0x08000a9c:    f2c00152    ..R.    MOVT     r1,#0x52
        0x08000aa0:    f8c01003    ....    STR      r1,[r0,#3]
        0x08000aa4:    f2445153    D.SQ    MOV      r1,#0x4553
        0x08000aa8:    f2c47147    ..Gq    MOVT     r1,#0x4747
        0x08000aac:    6001        .`      STR      r1,[r0,#0]
        0x08000aae:    2120         !      MOVS     r1,#0x20
        0x08000ab0:    7181        .q      STRB     r1,[r0,#6]
        0x08000ab2:    4770        pG      BX       lr
    SEGGER_RTT_PutChar
        0x08000ab4:    b5b0        ..      PUSH     {r4,r5,r7,lr}
        0x08000ab6:    f642029c    B...    MOV      r2,#0x289c
        0x08000aba:    f2c20200    ....    MOVT     r2,#0x2000
        0x08000abe:    7813        .x      LDRB     r3,[r2,#0]
        0x08000ac0:    468c        .F      MOV      r12,r1
        0x08000ac2:    bb93        ..      CBNZ     r3,0x8000b2a ; SEGGER_RTT_PutChar + 118
        0x08000ac4:    2103        .!      MOVS     r1,#3
        0x08000ac6:    6111        .a      STR      r1,[r2,#0x10]
        0x08000ac8:    6151        Qa      STR      r1,[r2,#0x14]
        0x08000aca:    f64201c0    B...    MOVW     r1,#0x28c0
        0x08000ace:    f6421344    B.D.    MOV      r3,#0x2944
        0x08000ad2:    f6c00100    ....    MOVT     r1,#0x800
        0x08000ad6:    f2c20300    ....    MOVT     r3,#0x2000
        0x08000ada:    6191        .a      STR      r1,[r2,#0x18]
        0x08000adc:    61d3        .a      STR      r3,[r2,#0x1c]
        0x08000ade:    f44f6300    O..c    MOV      r3,#0x800
        0x08000ae2:    6213        .b      STR      r3,[r2,#0x20]
        0x08000ae4:    2300        .#      MOVS     r3,#0
        0x08000ae6:    6293        .b      STR      r3,[r2,#0x28]
        0x08000ae8:    6253        Sb      STR      r3,[r2,#0x24]
        0x08000aea:    62d3        .b      STR      r3,[r2,#0x2c]
        0x08000aec:    6611        .f      STR      r1,[r2,#0x60]
        0x08000aee:    f2400108    @...    MOVW     r1,#8
        0x08000af2:    f2c20100    ....    MOVT     r1,#0x2000
        0x08000af6:    3101        .1      ADDS     r1,#1
        0x08000af8:    6651        Qf      STR      r1,[r2,#0x64]
        0x08000afa:    2110        .!      MOVS     r1,#0x10
        0x08000afc:    6691        .f      STR      r1,[r2,#0x68]
        0x08000afe:    f2454152    E.RA    MOV      r1,#0x5452
        0x08000b02:    f2c00154    ..T.    MOVT     r1,#0x54
        0x08000b06:    6713        .g      STR      r3,[r2,#0x70]
        0x08000b08:    66d3        .f      STR      r3,[r2,#0x6c]
        0x08000b0a:    6753        Sg      STR      r3,[r2,#0x74]
        0x08000b0c:    f8c21007    ....    STR      r1,[r2,#7]
        0x08000b10:    f2445147    D.GQ    MOV      r1,#0x4547
        0x08000b14:    f2c00152    ..R.    MOVT     r1,#0x52
        0x08000b18:    f8c21003    ....    STR      r1,[r2,#3]
        0x08000b1c:    f2445153    D.SQ    MOV      r1,#0x4553
        0x08000b20:    f2c47147    ..Gq    MOVT     r1,#0x4747
        0x08000b24:    6011        .`      STR      r1,[r2,#0]
        0x08000b26:    2120         !      MOVS     r1,#0x20
        0x08000b28:    7191        .q      STRB     r1,[r2,#6]
        0x08000b2a:    f3ef8e11    ....    MRS      lr,BASEPRI
        0x08000b2e:    f04f0120    O. .    MOV      r1,#0x20
        0x08000b32:    f3818811    ....    MSR      BASEPRI,r1
        0x08000b36:    eb000040    ..@.    ADD      r0,r0,r0,LSL #1
        0x08000b3a:    eb0201c0    ....    ADD      r1,r2,r0,LSL #3
        0x08000b3e:    4608        .F      MOV      r0,r1
        0x08000b40:    f8502f24    P.$/    LDR      r2,[r0,#0x24]!
        0x08000b44:    f8503c04    P..<    LDR      r3,[r0,#-4]
        0x08000b48:    1c54        T.      ADDS     r4,r2,#1
        0x08000b4a:    6885        .h      LDR      r5,[r0,#8]
        0x08000b4c:    1ae3        ..      SUBS     r3,r4,r3
        0x08000b4e:    bf18        ..      IT       NE
        0x08000b50:    4623        #F      MOVNE    r3,r4
        0x08000b52:    2d02        .-      CMP      r5,#2
        0x08000b54:    d10e        ..      BNE      0x8000b74 ; SEGGER_RTT_PutChar + 192
        0x08000b56:    f1010428    ..(.    ADD      r4,r1,#0x28
        0x08000b5a:    bf00        ..      NOP      
        0x08000b5c:    6825        %h      LDR      r5,[r4,#0]
        0x08000b5e:    42ab        .B      CMP      r3,r5
        0x08000b60:    d108        ..      BNE      0x8000b74 ; SEGGER_RTT_PutChar + 192
        0x08000b62:    6825        %h      LDR      r5,[r4,#0]
        0x08000b64:    42ab        .B      CMP      r3,r5
        0x08000b66:    d105        ..      BNE      0x8000b74 ; SEGGER_RTT_PutChar + 192
        0x08000b68:    6825        %h      LDR      r5,[r4,#0]
        0x08000b6a:    42ab        .B      CMP      r3,r5
        0x08000b6c:    d102        ..      BNE      0x8000b74 ; SEGGER_RTT_PutChar + 192
        0x08000b6e:    6825        %h      LDR      r5,[r4,#0]
        0x08000b70:    42ab        .B      CMP      r3,r5
        0x08000b72:    d0f3        ..      BEQ      0x8000b5c ; SEGGER_RTT_PutChar + 168
        0x08000b74:    6a8c        .j      LDR      r4,[r1,#0x28]
        0x08000b76:    42a3        .B      CMP      r3,r4
        0x08000b78:    d103        ..      BNE      0x8000b82 ; SEGGER_RTT_PutChar + 206
        0x08000b7a:    2000        .       MOVS     r0,#0
        0x08000b7c:    f38e8811    ....    MSR      BASEPRI,lr
        0x08000b80:    bdb0        ..      POP      {r4,r5,r7,pc}
        0x08000b82:    69c9        .i      LDR      r1,[r1,#0x1c]
        0x08000b84:    f801c002    ....    STRB     r12,[r1,r2]
        0x08000b88:    6003        .`      STR      r3,[r0,#0]
        0x08000b8a:    2001        .       MOVS     r0,#1
        0x08000b8c:    f38e8811    ....    MSR      BASEPRI,lr
        0x08000b90:    bdb0        ..      POP      {r4,r5,r7,pc}
        0x08000b92:    0000        ..      MOVS     r0,r0
    SEGGER_RTT_Write
        0x08000b94:    b510        ..      PUSH     {r4,lr}
        0x08000b96:    f6420e9c    B...    MOV      lr,#0x289c
        0x08000b9a:    f2c20e00    ....    MOVT     lr,#0x2000
        0x08000b9e:    f89e3000    ...0    LDRB     r3,[lr,#0]
        0x08000ba2:    468c        .F      MOV      r12,r1
        0x08000ba4:    2b00        .+      CMP      r3,#0
        0x08000ba6:    d142        B.      BNE      0x8000c2e ; SEGGER_RTT_Write + 154
        0x08000ba8:    2103        .!      MOVS     r1,#3
        0x08000baa:    f8ce1010    ....    STR      r1,[lr,#0x10]
        0x08000bae:    f8ce1014    ....    STR      r1,[lr,#0x14]
        0x08000bb2:    f64201c0    B...    MOVW     r1,#0x28c0
        0x08000bb6:    f6421344    B.D.    MOV      r3,#0x2944
        0x08000bba:    f6c00100    ....    MOVT     r1,#0x800
        0x08000bbe:    f2c20300    ....    MOVT     r3,#0x2000
        0x08000bc2:    f8ce1018    ....    STR      r1,[lr,#0x18]
        0x08000bc6:    f8ce301c    ...0    STR      r3,[lr,#0x1c]
        0x08000bca:    f44f6300    O..c    MOV      r3,#0x800
        0x08000bce:    f8ce3020    .. 0    STR      r3,[lr,#0x20]
        0x08000bd2:    2300        .#      MOVS     r3,#0
        0x08000bd4:    f8ce3028    ..(0    STR      r3,[lr,#0x28]
        0x08000bd8:    f8ce3024    ..$0    STR      r3,[lr,#0x24]
        0x08000bdc:    f8ce302c    ..,0    STR      r3,[lr,#0x2c]
        0x08000be0:    f8ce1060    ..`.    STR      r1,[lr,#0x60]
        0x08000be4:    f2400108    @...    MOVW     r1,#8
        0x08000be8:    f2c20100    ....    MOVT     r1,#0x2000
        0x08000bec:    3101        .1      ADDS     r1,#1
        0x08000bee:    f8ce1064    ..d.    STR      r1,[lr,#0x64]
        0x08000bf2:    2110        .!      MOVS     r1,#0x10
        0x08000bf4:    f8ce1068    ..h.    STR      r1,[lr,#0x68]
        0x08000bf8:    f2454152    E.RA    MOV      r1,#0x5452
        0x08000bfc:    f2c00154    ..T.    MOVT     r1,#0x54
        0x08000c00:    f8ce3070    ..p0    STR      r3,[lr,#0x70]
        0x08000c04:    f8ce306c    ..l0    STR      r3,[lr,#0x6c]
        0x08000c08:    f8ce3074    ..t0    STR      r3,[lr,#0x74]
        0x08000c0c:    f8ce1007    ....    STR      r1,[lr,#7]
        0x08000c10:    f2445147    D.GQ    MOV      r1,#0x4547
        0x08000c14:    f2c00152    ..R.    MOVT     r1,#0x52
        0x08000c18:    f8ce1003    ....    STR      r1,[lr,#3]
        0x08000c1c:    f2445153    D.SQ    MOV      r1,#0x4553
        0x08000c20:    f2c47147    ..Gq    MOVT     r1,#0x4747
        0x08000c24:    f8ce1000    ....    STR      r1,[lr,#0]
        0x08000c28:    2120         !      MOVS     r1,#0x20
        0x08000c2a:    f88e1006    ....    STRB     r1,[lr,#6]
        0x08000c2e:    f3ef8411    ....    MRS      r4,BASEPRI
        0x08000c32:    f04f0120    O. .    MOV      r1,#0x20
        0x08000c36:    f3818811    ....    MSR      BASEPRI,r1
        0x08000c3a:    4661        aF      MOV      r1,r12
        0x08000c3c:    f000f804    ....    BL       SEGGER_RTT_WriteNoLock ; 0x8000c48
        0x08000c40:    f3848811    ....    MSR      BASEPRI,r4
        0x08000c44:    bd10        ..      POP      {r4,pc}
        0x08000c46:    0000        ..      MOVS     r0,r0
    SEGGER_RTT_WriteNoLock
        0x08000c48:    e92d4ff0    -..O    PUSH     {r4-r11,lr}
        0x08000c4c:    b081        ..      SUB      sp,sp,#4
        0x08000c4e:    f642039c    B...    MOV      r3,#0x289c
        0x08000c52:    eb000040    ..@.    ADD      r0,r0,r0,LSL #1
        0x08000c56:    f2c20300    ....    MOVT     r3,#0x2000
        0x08000c5a:    eb0306c0    ....    ADD      r6,r3,r0,LSL #3
        0x08000c5e:    6af0        .j      LDR      r0,[r6,#0x2c]
        0x08000c60:    4614        .F      MOV      r4,r2
        0x08000c62:    2802        .(      CMP      r0,#2
        0x08000c64:    4689        .F      MOV      r9,r1
        0x08000c66:    d011        ..      BEQ      0x8000c8c ; SEGGER_RTT_WriteNoLock + 68
        0x08000c68:    2801        .(      CMP      r0,#1
        0x08000c6a:    d044        D.      BEQ      0x8000cf6 ; SEGGER_RTT_WriteNoLock + 174
        0x08000c6c:    b948        H.      CBNZ     r0,0x8000c82 ; SEGGER_RTT_WriteNoLock + 58
        0x08000c6e:    4635        5F      MOV      r5,r6
        0x08000c70:    f8557f24    U.$.    LDR      r7,[r5,#0x24]!
        0x08000c74:    6868        hh      LDR      r0,[r5,#4]
        0x08000c76:    42b8        .B      CMP      r0,r7
        0x08000c78:    d973        s.      BLS      0x8000d62 ; SEGGER_RTT_WriteNoLock + 282
        0x08000c7a:    43f9        .C      MVNS     r1,r7
        0x08000c7c:    4408        .D      ADD      r0,r0,r1
        0x08000c7e:    42a0        .B      CMP      r0,r4
        0x08000c80:    d275        u.      BCS      0x8000d6e ; SEGGER_RTT_WriteNoLock + 294
        0x08000c82:    2600        .&      MOVS     r6,#0
        0x08000c84:    4630        0F      MOV      r0,r6
        0x08000c86:    b001        ..      ADD      sp,sp,#4
        0x08000c88:    e8bd8ff0    ....    POP      {r4-r11,pc}
        0x08000c8c:    f8565f24    V.$_    LDR      r5,[r6,#0x24]!
        0x08000c90:    1d30        0.      ADDS     r0,r6,#4
        0x08000c92:    f1a60b04    ....    SUB      r11,r6,#4
        0x08000c96:    46b2        .F      MOV      r10,r6
        0x08000c98:    f1a60808    ....    SUB      r8,r6,#8
        0x08000c9c:    2600        .&      MOVS     r6,#0
        0x08000c9e:    9000        ..      STR      r0,[sp,#0]
        0x08000ca0:    e020         .      B        0x8000ce4 ; SEGGER_RTT_WriteNoLock + 156
        0x08000ca2:    bf00        ..      NOP      
        0x08000ca4:    f8db0000    ....    LDR      r0,[r11,#0]
        0x08000ca8:    43ea        .C      MVNS     r2,r5
        0x08000caa:    4411        .D      ADD      r1,r1,r2
        0x08000cac:    4401        .D      ADD      r1,r1,r0
        0x08000cae:    1b47        G.      SUBS     r7,r0,r5
        0x08000cb0:    42b9        .B      CMP      r1,r7
        0x08000cb2:    bf38        8.      IT       CC
        0x08000cb4:    460f        .F      MOVCC    r7,r1
        0x08000cb6:    f8d80000    ....    LDR      r0,[r8,#0]
        0x08000cba:    42a7        .B      CMP      r7,r4
        0x08000cbc:    bf28        (.      IT       CS
        0x08000cbe:    4627        'F      MOVCS    r7,r4
        0x08000cc0:    4428        (D      ADD      r0,r0,r5
        0x08000cc2:    4649        IF      MOV      r1,r9
        0x08000cc4:    463a        :F      MOV      r2,r7
        0x08000cc6:    f7fffa47    ..G.    BL       __aeabi_memcpy ; 0x8000158
        0x08000cca:    f8db0000    ....    LDR      r0,[r11,#0]
        0x08000cce:    1979        y.      ADDS     r1,r7,r5
        0x08000cd0:    1be4        ..      SUBS     r4,r4,r7
        0x08000cd2:    1a0d        ..      SUBS     r5,r1,r0
        0x08000cd4:    443e        >D      ADD      r6,r6,r7
        0x08000cd6:    44b9        .D      ADD      r9,r9,r7
        0x08000cd8:    bf18        ..      IT       NE
        0x08000cda:    460d        .F      MOVNE    r5,r1
        0x08000cdc:    2c00        .,      CMP      r4,#0
        0x08000cde:    f8ca5000    ...P    STR      r5,[r10,#0]
        0x08000ce2:    d053        S.      BEQ      0x8000d8c ; SEGGER_RTT_WriteNoLock + 324
        0x08000ce4:    9800        ..      LDR      r0,[sp,#0]
        0x08000ce6:    6801        .h      LDR      r1,[r0,#0]
        0x08000ce8:    428d        .B      CMP      r5,r1
        0x08000cea:    d2db        ..      BCS      0x8000ca4 ; SEGGER_RTT_WriteNoLock + 92
        0x08000cec:    43ea        .C      MVNS     r2,r5
        0x08000cee:    f8db0000    ....    LDR      r0,[r11,#0]
        0x08000cf2:    4411        .D      ADD      r1,r1,r2
        0x08000cf4:    e7db        ..      B        0x8000cae ; SEGGER_RTT_WriteNoLock + 102
        0x08000cf6:    46b0        .F      MOV      r8,r6
        0x08000cf8:    f8587f24    X.$.    LDR      r7,[r8,#0x24]!
        0x08000cfc:    f8d81004    ....    LDR      r1,[r8,#4]
        0x08000d00:    42b9        .B      CMP      r1,r7
        0x08000d02:    d903        ..      BLS      0x8000d0c ; SEGGER_RTT_WriteNoLock + 196
        0x08000d04:    43fa        .C      MVNS     r2,r7
        0x08000d06:    6a30        0j      LDR      r0,[r6,#0x20]
        0x08000d08:    4411        .D      ADD      r1,r1,r2
        0x08000d0a:    e003        ..      B        0x8000d14 ; SEGGER_RTT_WriteNoLock + 204
        0x08000d0c:    6a30        0j      LDR      r0,[r6,#0x20]
        0x08000d0e:    43fa        .C      MVNS     r2,r7
        0x08000d10:    4411        .D      ADD      r1,r1,r2
        0x08000d12:    4401        .D      ADD      r1,r1,r0
        0x08000d14:    42a1        .B      CMP      r1,r4
        0x08000d16:    bf38        8.      IT       CC
        0x08000d18:    460c        .F      MOVCC    r4,r1
        0x08000d1a:    1bc5        ..      SUBS     r5,r0,r7
        0x08000d1c:    f8560f1c    V...    LDR      r0,[r6,#0x1c]!
        0x08000d20:    42ac        .B      CMP      r4,r5
        0x08000d22:    4438        8D      ADD      r0,r0,r7
        0x08000d24:    d20b        ..      BCS      0x8000d3e ; SEGGER_RTT_WriteNoLock + 246
        0x08000d26:    4649        IF      MOV      r1,r9
        0x08000d28:    4622        "F      MOV      r2,r4
        0x08000d2a:    f7fffa15    ....    BL       __aeabi_memcpy ; 0x8000158
        0x08000d2e:    19e0        ..      ADDS     r0,r4,r7
        0x08000d30:    f8c80000    ....    STR      r0,[r8,#0]
        0x08000d34:    4626        &F      MOV      r6,r4
        0x08000d36:    4630        0F      MOV      r0,r6
        0x08000d38:    b001        ..      ADD      sp,sp,#4
        0x08000d3a:    e8bd8ff0    ....    POP      {r4-r11,pc}
        0x08000d3e:    4649        IF      MOV      r1,r9
        0x08000d40:    462a        *F      MOV      r2,r5
        0x08000d42:    f7fffa09    ....    BL       __aeabi_memcpy ; 0x8000158
        0x08000d46:    1b67        g.      SUBS     r7,r4,r5
        0x08000d48:    6830        0h      LDR      r0,[r6,#0]
        0x08000d4a:    eb090105    ....    ADD      r1,r9,r5
        0x08000d4e:    463a        :F      MOV      r2,r7
        0x08000d50:    f7fffa02    ....    BL       __aeabi_memcpy ; 0x8000158
        0x08000d54:    f8c87000    ...p    STR      r7,[r8,#0]
        0x08000d58:    4626        &F      MOV      r6,r4
        0x08000d5a:    4630        0F      MOV      r0,r6
        0x08000d5c:    b001        ..      ADD      sp,sp,#4
        0x08000d5e:    e8bd8ff0    ....    POP      {r4-r11,pc}
        0x08000d62:    6a31        1j      LDR      r1,[r6,#0x20]
        0x08000d64:    43fa        .C      MVNS     r2,r7
        0x08000d66:    4410        .D      ADD      r0,r0,r2
        0x08000d68:    4408        .D      ADD      r0,r0,r1
        0x08000d6a:    42a0        .B      CMP      r0,r4
        0x08000d6c:    d389        ..      BCC      0x8000c82 ; SEGGER_RTT_WriteNoLock + 58
        0x08000d6e:    f8560f1c    V...    LDR      r0,[r6,#0x1c]!
        0x08000d72:    6871        qh      LDR      r1,[r6,#4]
        0x08000d74:    4438        8D      ADD      r0,r0,r7
        0x08000d76:    eba10807    ....    SUB      r8,r1,r7
        0x08000d7a:    45a0        .E      CMP      r8,r4
        0x08000d7c:    d90a        ..      BLS      0x8000d94 ; SEGGER_RTT_WriteNoLock + 332
        0x08000d7e:    4649        IF      MOV      r1,r9
        0x08000d80:    4622        "F      MOV      r2,r4
        0x08000d82:    f7fff9e9    ....    BL       __aeabi_memcpy ; 0x8000158
        0x08000d86:    1938        8.      ADDS     r0,r7,r4
        0x08000d88:    6028        (`      STR      r0,[r5,#0]
        0x08000d8a:    4626        &F      MOV      r6,r4
        0x08000d8c:    4630        0F      MOV      r0,r6
        0x08000d8e:    b001        ..      ADD      sp,sp,#4
        0x08000d90:    e8bd8ff0    ....    POP      {r4-r11,pc}
        0x08000d94:    4649        IF      MOV      r1,r9
        0x08000d96:    4642        BF      MOV      r2,r8
        0x08000d98:    f7fff9de    ....    BL       __aeabi_memcpy ; 0x8000158
        0x08000d9c:    eba40708    ....    SUB      r7,r4,r8
        0x08000da0:    6830        0h      LDR      r0,[r6,#0]
        0x08000da2:    eb090108    ....    ADD      r1,r9,r8
        0x08000da6:    463a        :F      MOV      r2,r7
        0x08000da8:    f7fff9d6    ....    BL       __aeabi_memcpy ; 0x8000158
        0x08000dac:    602f        /`      STR      r7,[r5,#0]
        0x08000dae:    4626        &F      MOV      r6,r4
        0x08000db0:    4630        0F      MOV      r0,r6
        0x08000db2:    b001        ..      ADD      sp,sp,#4
        0x08000db4:    e8bd8ff0    ....    POP      {r4-r11,pc}
    SEGGER_RTT_printf
        0x08000db8:    b082        ..      SUB      sp,sp,#8
        0x08000dba:    b580        ..      PUSH     {r7,lr}
        0x08000dbc:    b082        ..      SUB      sp,sp,#8
        0x08000dbe:    e9cd2304    ...#    STRD     r2,r3,[sp,#0x10]
        0x08000dc2:    aa04        ..      ADD      r2,sp,#0x10
        0x08000dc4:    9201        ..      STR      r2,[sp,#4]
        0x08000dc6:    aa01        ..      ADD      r2,sp,#4
        0x08000dc8:    f000f806    ....    BL       SEGGER_RTT_vprintf ; 0x8000dd8
        0x08000dcc:    b002        ..      ADD      sp,sp,#8
        0x08000dce:    e8bd4080    ...@    POP      {r7,lr}
        0x08000dd2:    b002        ..      ADD      sp,sp,#8
        0x08000dd4:    4770        pG      BX       lr
        0x08000dd6:    0000        ..      MOVS     r0,r0
    SEGGER_RTT_vprintf
        0x08000dd8:    e92d4ff0    -..O    PUSH     {r4-r11,lr}
        0x08000ddc:    b099        ..      SUB      sp,sp,#0x64
        0x08000dde:    4615        .F      MOV      r5,r2
        0x08000de0:    aa04        ..      ADD      r2,sp,#0x10
        0x08000de2:    9214        ..      STR      r2,[sp,#0x50]
        0x08000de4:    2240        @"      MOVS     r2,#0x40
        0x08000de6:    2600        .&      MOVS     r6,#0
        0x08000de8:    9002        ..      STR      r0,[sp,#8]
        0x08000dea:    9018        ..      STR      r0,[sp,#0x60]
        0x08000dec:    f04f38ff    O..8    MOV      r8,#0xffffffff
        0x08000df0:    f10d0950    ..P.    ADD      r9,sp,#0x50
        0x08000df4:    2000        .       MOVS     r0,#0
        0x08000df6:    468a        .F      MOV      r10,r1
        0x08000df8:    9215        ..      STR      r2,[sp,#0x54]
        0x08000dfa:    e9cd6616    ...f    STRD     r6,r6,[sp,#0x58]
        0x08000dfe:    e00a        ..      B        0x8000e16 ; SEGGER_RTT_vprintf + 62
        0x08000e00:    463b        ;F      MOV      r3,r7
        0x08000e02:    f8cdb004    ....    STR      r11,[sp,#4]
        0x08000e06:    f000fb87    ....    BL       _PrintUnsigned ; 0x8001518
        0x08000e0a:    9817        ..      LDR      r0,[sp,#0x5c]
        0x08000e0c:    4651        QF      MOV      r1,r10
        0x08000e0e:    f1b03fff    ...?    CMP      r0,#0xffffffff
        0x08000e12:    f34082d0    @...    BLE.W    0x80013b6 ; SEGGER_RTT_vprintf + 1502
        0x08000e16:    f81a3b01    ...;    LDRB     r3,[r10],#1
        0x08000e1a:    2b25        %+      CMP      r3,#0x25
        0x08000e1c:    d01c        ..      BEQ      0x8000e58 ; SEGGER_RTT_vprintf + 128
        0x08000e1e:    2b00        .+      CMP      r3,#0
        0x08000e20:    f00082b1    ....    BEQ.W    0x8001386 ; SEGGER_RTT_vprintf + 1454
        0x08000e24:    e9dd2015    ...     LDRD     r2,r0,[sp,#0x54]
        0x08000e28:    1c41        A.      ADDS     r1,r0,#1
        0x08000e2a:    4291        .B      CMP      r1,r2
        0x08000e2c:    d807        ..      BHI      0x8000e3e ; SEGGER_RTT_vprintf + 102
        0x08000e2e:    9a14        ..      LDR      r2,[sp,#0x50]
        0x08000e30:    5413        .T      STRB     r3,[r2,r0]
        0x08000e32:    9817        ..      LDR      r0,[sp,#0x5c]
        0x08000e34:    9a15        ..      LDR      r2,[sp,#0x54]
        0x08000e36:    3001        .0      ADDS     r0,#1
        0x08000e38:    9017        ..      STR      r0,[sp,#0x5c]
        0x08000e3a:    4608        .F      MOV      r0,r1
        0x08000e3c:    9116        ..      STR      r1,[sp,#0x58]
        0x08000e3e:    4290        .B      CMP      r0,r2
        0x08000e40:    d1e3        ..      BNE      0x8000e0a ; SEGGER_RTT_vprintf + 50
        0x08000e42:    9914        ..      LDR      r1,[sp,#0x50]
        0x08000e44:    9818        ..      LDR      r0,[sp,#0x60]
        0x08000e46:    f7fffea5    ....    BL       SEGGER_RTT_Write ; 0x8000b94
        0x08000e4a:    9916        ..      LDR      r1,[sp,#0x58]
        0x08000e4c:    4288        .B      CMP      r0,r1
        0x08000e4e:    f04082a9    @...    BNE.W    0x80013a4 ; SEGGER_RTT_vprintf + 1484
        0x08000e52:    9616        ..      STR      r6,[sp,#0x58]
        0x08000e54:    e7d9        ..      B        0x8000e0a ; SEGGER_RTT_vprintf + 50
        0x08000e56:    bf00        ..      NOP      
        0x08000e58:    1c8b        ..      ADDS     r3,r1,#2
        0x08000e5a:    f04f0b00    O...    MOV      r11,#0
        0x08000e5e:    f89a1000    ....    LDRB     r1,[r10,#0]
        0x08000e62:    f1a10223    ..#.    SUB      r2,r1,#0x23
        0x08000e66:    2a0d        .*      CMP      r2,#0xd
        0x08000e68:    d816        ..      BHI      0x8000e98 ; SEGGER_RTT_vprintf + 192
        0x08000e6a:    2101        .!      MOVS     r1,#1
        0x08000e6c:    e8dff002    ....    TBB      [pc,r2]
    $d.1
        0x08000e70:    1414140e    ....    DCD    336860174
        0x08000e74:    14141414    ....    DCD    336860180
        0x08000e78:    14071410    ....    DCD    336008208
        0x08000e7c:    1214        ..      DCW    4628
    $t.2
        0x08000e7e:    ea4b0b01    K...    ORR      r11,r11,r1
        0x08000e82:    f10a0a01    ....    ADD      r10,r10,#1
        0x08000e86:    3301        .3      ADDS     r3,#1
        0x08000e88:    e7e9        ..      B        0x8000e5e ; SEGGER_RTT_vprintf + 134
        0x08000e8a:    bf00        ..      NOP      
        0x08000e8c:    2108        .!      MOVS     r1,#8
        0x08000e8e:    e7f6        ..      B        0x8000e7e ; SEGGER_RTT_vprintf + 166
        0x08000e90:    2104        .!      MOVS     r1,#4
        0x08000e92:    e7f4        ..      B        0x8000e7e ; SEGGER_RTT_vprintf + 166
        0x08000e94:    2102        .!      MOVS     r1,#2
        0x08000e96:    e7f2        ..      B        0x8000e7e ; SEGGER_RTT_vprintf + 166
        0x08000e98:    f89a1000    ....    LDRB     r1,[r10,#0]
        0x08000e9c:    f1a10230    ..0.    SUB      r2,r1,#0x30
        0x08000ea0:    2a09        .*      CMP      r2,#9
        0x08000ea2:    d913        ..      BLS      0x8000ecc ; SEGGER_RTT_vprintf + 244
        0x08000ea4:    2200        ."      MOVS     r2,#0
        0x08000ea6:    292e        .)      CMP      r1,#0x2e
        0x08000ea8:    f0408086    @...    BNE.W    0x8000fb8 ; SEGGER_RTT_vprintf + 480
        0x08000eac:    4653        SF      MOV      r3,r10
        0x08000eae:    f8131f01    ....    LDRB     r1,[r3,#1]!
        0x08000eb2:    f1a10730    ..0.    SUB      r7,r1,#0x30
        0x08000eb6:    2f09        ./      CMP      r7,#9
        0x08000eb8:    d93b        ;.      BLS      0x8000f32 ; SEGGER_RTT_vprintf + 346
        0x08000eba:    2700        .'      MOVS     r7,#0
        0x08000ebc:    469a        .F      MOV      r10,r3
        0x08000ebe:    f10a0a01    ....    ADD      r10,r10,#1
        0x08000ec2:    3925        %9      SUBS     r1,r1,#0x25
        0x08000ec4:    2953        S)      CMP      r1,#0x53
        0x08000ec6:    f240807f    @...    BLS.W    0x8000fc8 ; SEGGER_RTT_vprintf + 496
        0x08000eca:    e79e        ..      B        0x8000e0a ; SEGGER_RTT_vprintf + 50
        0x08000ecc:    2200        ."      MOVS     r2,#0
        0x08000ece:    bf00        ..      NOP      
        0x08000ed0:    eb020282    ....    ADD      r2,r2,r2,LSL #2
        0x08000ed4:    eb010242    ..B.    ADD      r2,r1,r2,LSL #1
        0x08000ed8:    7819        .x      LDRB     r1,[r3,#0]
        0x08000eda:    3a30        0:      SUBS     r2,r2,#0x30
        0x08000edc:    f1a10730    ..0.    SUB      r7,r1,#0x30
        0x08000ee0:    2f09        ./      CMP      r7,#9
        0x08000ee2:    d865        e.      BHI      0x8000fb0 ; SEGGER_RTT_vprintf + 472
        0x08000ee4:    eb020282    ....    ADD      r2,r2,r2,LSL #2
        0x08000ee8:    eb010242    ..B.    ADD      r2,r1,r2,LSL #1
        0x08000eec:    7859        Yx      LDRB     r1,[r3,#1]
        0x08000eee:    3a30        0:      SUBS     r2,r2,#0x30
        0x08000ef0:    f1a10730    ..0.    SUB      r7,r1,#0x30
        0x08000ef4:    2f09        ./      CMP      r7,#9
        0x08000ef6:    f20080cd    ....    BHI.W    0x8001094 ; SEGGER_RTT_vprintf + 700
        0x08000efa:    eb020282    ....    ADD      r2,r2,r2,LSL #2
        0x08000efe:    eb010242    ..B.    ADD      r2,r1,r2,LSL #1
        0x08000f02:    7899        .x      LDRB     r1,[r3,#2]
        0x08000f04:    3a30        0:      SUBS     r2,r2,#0x30
        0x08000f06:    f1a10730    ..0.    SUB      r7,r1,#0x30
        0x08000f0a:    2f09        ./      CMP      r7,#9
        0x08000f0c:    f20080c8    ....    BHI.W    0x80010a0 ; SEGGER_RTT_vprintf + 712
        0x08000f10:    eb020282    ....    ADD      r2,r2,r2,LSL #2
        0x08000f14:    eb010242    ..B.    ADD      r2,r1,r2,LSL #1
        0x08000f18:    78d9        .x      LDRB     r1,[r3,#3]
        0x08000f1a:    3a30        0:      SUBS     r2,r2,#0x30
        0x08000f1c:    f1a10730    ..0.    SUB      r7,r1,#0x30
        0x08000f20:    2f09        ./      CMP      r7,#9
        0x08000f22:    f1030304    ....    ADD      r3,r3,#4
        0x08000f26:    d9d3        ..      BLS      0x8000ed0 ; SEGGER_RTT_vprintf + 248
        0x08000f28:    f1a30a01    ....    SUB      r10,r3,#1
        0x08000f2c:    292e        .)      CMP      r1,#0x2e
        0x08000f2e:    d0bd        ..      BEQ      0x8000eac ; SEGGER_RTT_vprintf + 212
        0x08000f30:    e042        B.      B        0x8000fb8 ; SEGGER_RTT_vprintf + 480
        0x08000f32:    f10a0a02    ....    ADD      r10,r10,#2
        0x08000f36:    2700        .'      MOVS     r7,#0
        0x08000f38:    eb070387    ....    ADD      r3,r7,r7,LSL #2
        0x08000f3c:    eb010343    ..C.    ADD      r3,r1,r3,LSL #1
        0x08000f40:    f89a1000    ....    LDRB     r1,[r10,#0]
        0x08000f44:    f1a10730    ..0.    SUB      r7,r1,#0x30
        0x08000f48:    2f09        ./      CMP      r7,#9
        0x08000f4a:    f1a30730    ..0.    SUB      r7,r3,#0x30
        0x08000f4e:    d834        4.      BHI      0x8000fba ; SEGGER_RTT_vprintf + 482
        0x08000f50:    eb070387    ....    ADD      r3,r7,r7,LSL #2
        0x08000f54:    eb010343    ..C.    ADD      r3,r1,r3,LSL #1
        0x08000f58:    f89a1001    ....    LDRB     r1,[r10,#1]
        0x08000f5c:    f1a10730    ..0.    SUB      r7,r1,#0x30
        0x08000f60:    2f09        ./      CMP      r7,#9
        0x08000f62:    f1a30730    ..0.    SUB      r7,r3,#0x30
        0x08000f66:    f2008130    ..0.    BHI.W    0x80011ca ; SEGGER_RTT_vprintf + 1010
        0x08000f6a:    eb070387    ....    ADD      r3,r7,r7,LSL #2
        0x08000f6e:    eb010343    ..C.    ADD      r3,r1,r3,LSL #1
        0x08000f72:    f89a1002    ....    LDRB     r1,[r10,#2]
        0x08000f76:    f1a10730    ..0.    SUB      r7,r1,#0x30
        0x08000f7a:    2f09        ./      CMP      r7,#9
        0x08000f7c:    f1a30730    ..0.    SUB      r7,r3,#0x30
        0x08000f80:    f200812c    ..,.    BHI.W    0x80011dc ; SEGGER_RTT_vprintf + 1028
        0x08000f84:    eb070387    ....    ADD      r3,r7,r7,LSL #2
        0x08000f88:    eb010343    ..C.    ADD      r3,r1,r3,LSL #1
        0x08000f8c:    f89a1003    ....    LDRB     r1,[r10,#3]
        0x08000f90:    f1a30730    ..0.    SUB      r7,r3,#0x30
        0x08000f94:    f1a10330    ..0.    SUB      r3,r1,#0x30
        0x08000f98:    2b09        .+      CMP      r3,#9
        0x08000f9a:    f10a0a04    ....    ADD      r10,r10,#4
        0x08000f9e:    d9cb        ..      BLS      0x8000f38 ; SEGGER_RTT_vprintf + 352
        0x08000fa0:    f1aa0a01    ....    SUB      r10,r10,#1
        0x08000fa4:    f10a0a01    ....    ADD      r10,r10,#1
        0x08000fa8:    3925        %9      SUBS     r1,r1,#0x25
        0x08000faa:    2953        S)      CMP      r1,#0x53
        0x08000fac:    d90c        ..      BLS      0x8000fc8 ; SEGGER_RTT_vprintf + 496
        0x08000fae:    e72c        ,.      B        0x8000e0a ; SEGGER_RTT_vprintf + 50
        0x08000fb0:    469a        .F      MOV      r10,r3
        0x08000fb2:    292e        .)      CMP      r1,#0x2e
        0x08000fb4:    f43faf7a    ?.z.    BEQ      0x8000eac ; SEGGER_RTT_vprintf + 212
        0x08000fb8:    2700        .'      MOVS     r7,#0
        0x08000fba:    f10a0a01    ....    ADD      r10,r10,#1
        0x08000fbe:    3925        %9      SUBS     r1,r1,#0x25
        0x08000fc0:    2953        S)      CMP      r1,#0x53
        0x08000fc2:    f63faf22    ?.".    BHI      0x8000e0a ; SEGGER_RTT_vprintf + 50
        0x08000fc6:    bf00        ..      NOP      
        0x08000fc8:    e8dff011    ....    TBH      [pc,r1,LSL #1]
    $d.3
        0x08000fcc:    005c0070    p.\.    DCD    6029424
        0x08000fd0:    005c005c    \.\.    DCD    6029404
        0x08000fd4:    005c005c    \.\.    DCD    6029404
        0x08000fd8:    005c005c    \.\.    DCD    6029404
        0x08000fdc:    005c005c    \.\.    DCD    6029404
        0x08000fe0:    005c005c    \.\.    DCD    6029404
        0x08000fe4:    005c005c    \.\.    DCD    6029404
        0x08000fe8:    005c005c    \.\.    DCD    6029404
        0x08000fec:    005c005c    \.\.    DCD    6029404
        0x08000ff0:    005c005c    \.\.    DCD    6029404
        0x08000ff4:    005c005c    \.\.    DCD    6029404
        0x08000ff8:    005c005c    \.\.    DCD    6029404
        0x08000ffc:    005c005c    \.\.    DCD    6029404
        0x08001000:    005c005c    \.\.    DCD    6029404
        0x08001004:    005c005c    \.\.    DCD    6029404
        0x08001008:    005c005c    \.\.    DCD    6029404
        0x0800100c:    005c005c    \.\.    DCD    6029404
        0x08001010:    005c005c    \.\.    DCD    6029404
        0x08001014:    005c005c    \.\.    DCD    6029404
        0x08001018:    005c005c    \.\.    DCD    6029404
        0x0800101c:    005c005c    \.\.    DCD    6029404
        0x08001020:    005c005c    \.\.    DCD    6029404
        0x08001024:    005c005c    \.\.    DCD    6029404
        0x08001028:    005c005c    \.\.    DCD    6029404
        0x0800102c:    005c005c    \.\.    DCD    6029404
        0x08001030:    0054005c    \.T.    DCD    5505116
        0x08001034:    005c005c    \.\.    DCD    6029404
        0x08001038:    005c005c    \.\.    DCD    6029404
        0x0800103c:    005c005c    \.\.    DCD    6029404
        0x08001040:    005c005c    \.\.    DCD    6029404
        0x08001044:    005c005c    \.\.    DCD    6029404
        0x08001048:    00960079    y...    DCD    9830521
        0x0800104c:    005c005c    \.\.    DCD    6029404
        0x08001050:    005d005c    \.].    DCD    6094940
        0x08001054:    005c005c    \.\.    DCD    6029404
        0x08001058:    005d005c    \.].    DCD    6094940
        0x0800105c:    005c005c    \.\.    DCD    6029404
        0x08001060:    00c2005c    \...    DCD    12714076
        0x08001064:    005c005c    \.\.    DCD    6029404
        0x08001068:    005c00cd    ..\.    DCD    6029517
        0x0800106c:    005c00f7    ..\.    DCD    6029559
        0x08001070:    0054005c    \.T.    DCD    5505116
    $t.4
        0x08001074:    6828        (h      LDR      r0,[r5,#0]
        0x08001076:    1d01        ..      ADDS     r1,r0,#4
        0x08001078:    6029        )`      STR      r1,[r5,#0]
        0x0800107a:    6801        .h      LDR      r1,[r0,#0]
        0x0800107c:    9200        ..      STR      r2,[sp,#0]
        0x0800107e:    4648        HF      MOV      r0,r9
        0x08001080:    2210        ."      MOVS     r2,#0x10
        0x08001082:    e6bd        ..      B        0x8000e00 ; SEGGER_RTT_vprintf + 40
        0x08001084:    e6c1        ..      B        0x8000e0a ; SEGGER_RTT_vprintf + 50
        0x08001086:    f81a1b01    ....    LDRB     r1,[r10],#1
        0x0800108a:    3925        %9      SUBS     r1,r1,#0x25
        0x0800108c:    2953        S)      CMP      r1,#0x53
        0x0800108e:    f67faf9b    ....    BLS.W    0x8000fc8 ; SEGGER_RTT_vprintf + 496
        0x08001092:    e6ba        ..      B        0x8000e0a ; SEGGER_RTT_vprintf + 50
        0x08001094:    f1030a01    ....    ADD      r10,r3,#1
        0x08001098:    292e        .)      CMP      r1,#0x2e
        0x0800109a:    f47faf8d    ....    BNE.W    0x8000fb8 ; SEGGER_RTT_vprintf + 480
        0x0800109e:    e705        ..      B        0x8000eac ; SEGGER_RTT_vprintf + 212
        0x080010a0:    f1030a02    ....    ADD      r10,r3,#2
        0x080010a4:    292e        .)      CMP      r1,#0x2e
        0x080010a6:    f43faf01    ?...    BEQ      0x8000eac ; SEGGER_RTT_vprintf + 212
        0x080010aa:    e785        ..      B        0x8000fb8 ; SEGGER_RTT_vprintf + 480
        0x080010ac:    e9dd2015    ...     LDRD     r2,r0,[sp,#0x54]
        0x080010b0:    1c41        A.      ADDS     r1,r0,#1
        0x080010b2:    4291        .B      CMP      r1,r2
        0x080010b4:    d814        ..      BHI      0x80010e0 ; SEGGER_RTT_vprintf + 776
        0x080010b6:    9a14        ..      LDR      r2,[sp,#0x50]
        0x080010b8:    2325        %#      MOVS     r3,#0x25
        0x080010ba:    5413        .T      STRB     r3,[r2,r0]
        0x080010bc:    e00a        ..      B        0x80010d4 ; SEGGER_RTT_vprintf + 764
        0x080010be:    e9dd2015    ...     LDRD     r2,r0,[sp,#0x54]
        0x080010c2:    682b        +h      LDR      r3,[r5,#0]
        0x080010c4:    1c41        A.      ADDS     r1,r0,#1
        0x080010c6:    1d1f        ..      ADDS     r7,r3,#4
        0x080010c8:    4291        .B      CMP      r1,r2
        0x080010ca:    602f        /`      STR      r7,[r5,#0]
        0x080010cc:    d808        ..      BHI      0x80010e0 ; SEGGER_RTT_vprintf + 776
        0x080010ce:    681a        .h      LDR      r2,[r3,#0]
        0x080010d0:    9b14        ..      LDR      r3,[sp,#0x50]
        0x080010d2:    541a        .T      STRB     r2,[r3,r0]
        0x080010d4:    9817        ..      LDR      r0,[sp,#0x5c]
        0x080010d6:    9a15        ..      LDR      r2,[sp,#0x54]
        0x080010d8:    3001        .0      ADDS     r0,#1
        0x080010da:    9017        ..      STR      r0,[sp,#0x5c]
        0x080010dc:    4608        .F      MOV      r0,r1
        0x080010de:    9116        ..      STR      r1,[sp,#0x58]
        0x080010e0:    4290        .B      CMP      r0,r2
        0x080010e2:    f47fae92    ....    BNE      0x8000e0a ; SEGGER_RTT_vprintf + 50
        0x080010e6:    9914        ..      LDR      r1,[sp,#0x50]
        0x080010e8:    9818        ..      LDR      r0,[sp,#0x60]
        0x080010ea:    f7fffd53    ..S.    BL       SEGGER_RTT_Write ; 0x8000b94
        0x080010ee:    9916        ..      LDR      r1,[sp,#0x58]
        0x080010f0:    4288        .B      CMP      r0,r1
        0x080010f2:    f43faeae    ?...    BEQ      0x8000e52 ; SEGGER_RTT_vprintf + 122
        0x080010f6:    e05d        ].      B        0x80011b4 ; SEGGER_RTT_vprintf + 988
        0x080010f8:    6829        )h      LDR      r1,[r5,#0]
        0x080010fa:    f2417e59    A.Y~    MOV      lr,#0x1759
        0x080010fe:    1d0b        ..      ADDS     r3,r1,#4
        0x08001100:    602b        +`      STR      r3,[r5,#0]
        0x08001102:    6809        .h      LDR      r1,[r1,#0]
        0x08001104:    f248649f    H..d    MOV      r4,#0x869f
        0x08001108:    2900        .)      CMP      r1,#0
        0x0800110a:    46ac        .F      MOV      r12,r5
        0x0800110c:    f1c10300    ....    RSB      r3,r1,#0
        0x08001110:    4689        .F      MOV      r9,r1
        0x08001112:    bf48        H.      IT       MI
        0x08001114:    4619        .F      MOVMI    r1,r3
        0x08001116:    290a        .)      CMP      r1,#0xa
        0x08001118:    f2427510    B..u    MOV      r5,#0x2710
        0x0800111c:    f2cd1eb7    ....    MOVT     lr,#0xd1b7
        0x08001120:    f2c00401    ....    MOVT     r4,#1
        0x08001124:    9303        ..      STR      r3,[sp,#0xc]
        0x08001126:    d362        b.      BCC      0x80011ee ; SEGGER_RTT_vprintf + 1046
        0x08001128:    f04f0802    O...    MOV      r8,#2
        0x0800112c:    2963        c)      CMP      r1,#0x63
        0x0800112e:    d966        f.      BLS      0x80011fe ; SEGGER_RTT_vprintf + 1062
        0x08001130:    f5b17f7a    ..z.    CMP      r1,#0x3e8
        0x08001134:    d35e        ^.      BCC      0x80011f4 ; SEGGER_RTT_vprintf + 1052
        0x08001136:    42a9        .B      CMP      r1,r5
        0x08001138:    d35f        _.      BCC      0x80011fa ; SEGGER_RTT_vprintf + 1058
        0x0800113a:    fba1360e    ...6    UMULL    r3,r6,r1,lr
        0x0800113e:    42a1        .B      CMP      r1,r4
        0x08001140:    ea4f3156    O.V1    LSR      r1,r6,#13
        0x08001144:    f1080804    ....    ADD      r8,r8,#4
        0x08001148:    d8f0        ..      BHI      0x800112c ; SEGGER_RTT_vprintf + 852
        0x0800114a:    f1a80801    ....    SUB      r8,r8,#1
        0x0800114e:    e056        V.      B        0x80011fe ; SEGGER_RTT_vprintf + 1062
        0x08001150:    6828        (h      LDR      r0,[r5,#0]
        0x08001152:    2210        ."      MOVS     r2,#0x10
        0x08001154:    1d01        ..      ADDS     r1,r0,#4
        0x08001156:    6029        )`      STR      r1,[r5,#0]
        0x08001158:    6801        .h      LDR      r1,[r0,#0]
        0x0800115a:    2008        .       MOVS     r0,#8
        0x0800115c:    9000        ..      STR      r0,[sp,#0]
        0x0800115e:    4648        HF      MOV      r0,r9
        0x08001160:    2308        .#      MOVS     r3,#8
        0x08001162:    9601        ..      STR      r6,[sp,#4]
        0x08001164:    e64f        O.      B        0x8000e06 ; SEGGER_RTT_vprintf + 46
        0x08001166:    6829        )h      LDR      r1,[r5,#0]
        0x08001168:    1d0a        ..      ADDS     r2,r1,#4
        0x0800116a:    602a        *`      STR      r2,[r5,#0]
        0x0800116c:    680c        .h      LDR      r4,[r1,#0]
        0x0800116e:    e007        ..      B        0x8001180 ; SEGGER_RTT_vprintf + 936
        0x08001170:    9817        ..      LDR      r0,[sp,#0x5c]
        0x08001172:    9616        ..      STR      r6,[sp,#0x58]
        0x08001174:    f1b03fff    ...?    CMP      r0,#0xffffffff
        0x08001178:    f1040401    ....    ADD      r4,r4,#1
        0x0800117c:    f77fae45    ..E.    BLE      0x8000e0a ; SEGGER_RTT_vprintf + 50
        0x08001180:    7827        'x      LDRB     r7,[r4,#0]
        0x08001182:    2f00        ./      CMP      r7,#0
        0x08001184:    f43fae41    ?.A.    BEQ      0x8000e0a ; SEGGER_RTT_vprintf + 50
        0x08001188:    e9dd2115    ...!    LDRD     r2,r1,[sp,#0x54]
        0x0800118c:    1c4b        K.      ADDS     r3,r1,#1
        0x0800118e:    4293        .B      CMP      r3,r2
        0x08001190:    d807        ..      BHI      0x80011a2 ; SEGGER_RTT_vprintf + 970
        0x08001192:    9814        ..      LDR      r0,[sp,#0x50]
        0x08001194:    5447        GT      STRB     r7,[r0,r1]
        0x08001196:    9817        ..      LDR      r0,[sp,#0x5c]
        0x08001198:    9a15        ..      LDR      r2,[sp,#0x54]
        0x0800119a:    3001        .0      ADDS     r0,#1
        0x0800119c:    4619        .F      MOV      r1,r3
        0x0800119e:    9316        ..      STR      r3,[sp,#0x58]
        0x080011a0:    9017        ..      STR      r0,[sp,#0x5c]
        0x080011a2:    4291        .B      CMP      r1,r2
        0x080011a4:    d1e6        ..      BNE      0x8001174 ; SEGGER_RTT_vprintf + 924
        0x080011a6:    9914        ..      LDR      r1,[sp,#0x50]
        0x080011a8:    9818        ..      LDR      r0,[sp,#0x60]
        0x080011aa:    f7fffcf3    ....    BL       SEGGER_RTT_Write ; 0x8000b94
        0x080011ae:    9916        ..      LDR      r1,[sp,#0x58]
        0x080011b0:    4288        .B      CMP      r0,r1
        0x080011b2:    d0dd        ..      BEQ      0x8001170 ; SEGGER_RTT_vprintf + 920
        0x080011b4:    f8cd805c    ..\.    STR      r8,[sp,#0x5c]
        0x080011b8:    e627        '.      B        0x8000e0a ; SEGGER_RTT_vprintf + 50
        0x080011ba:    6828        (h      LDR      r0,[r5,#0]
        0x080011bc:    1d01        ..      ADDS     r1,r0,#4
        0x080011be:    6029        )`      STR      r1,[r5,#0]
        0x080011c0:    6801        .h      LDR      r1,[r0,#0]
        0x080011c2:    9200        ..      STR      r2,[sp,#0]
        0x080011c4:    4648        HF      MOV      r0,r9
        0x080011c6:    220a        ."      MOVS     r2,#0xa
        0x080011c8:    e61a        ..      B        0x8000e00 ; SEGGER_RTT_vprintf + 40
        0x080011ca:    f10a0a01    ....    ADD      r10,r10,#1
        0x080011ce:    f10a0a01    ....    ADD      r10,r10,#1
        0x080011d2:    3925        %9      SUBS     r1,r1,#0x25
        0x080011d4:    2953        S)      CMP      r1,#0x53
        0x080011d6:    f67faef7    ....    BLS      0x8000fc8 ; SEGGER_RTT_vprintf + 496
        0x080011da:    e616        ..      B        0x8000e0a ; SEGGER_RTT_vprintf + 50
        0x080011dc:    f10a0a02    ....    ADD      r10,r10,#2
        0x080011e0:    f10a0a01    ....    ADD      r10,r10,#1
        0x080011e4:    3925        %9      SUBS     r1,r1,#0x25
        0x080011e6:    2953        S)      CMP      r1,#0x53
        0x080011e8:    f67faeee    ....    BLS      0x8000fc8 ; SEGGER_RTT_vprintf + 496
        0x080011ec:    e60d        ..      B        0x8000e0a ; SEGGER_RTT_vprintf + 50
        0x080011ee:    f04f0801    O...    MOV      r8,#1
        0x080011f2:    e004        ..      B        0x80011fe ; SEGGER_RTT_vprintf + 1062
        0x080011f4:    f1080801    ....    ADD      r8,r8,#1
        0x080011f8:    e001        ..      B        0x80011fe ; SEGGER_RTT_vprintf + 1062
        0x080011fa:    f1080802    ....    ADD      r8,r8,#2
        0x080011fe:    45b8        .E      CMP      r8,r7
        0x08001200:    4665        eF      MOV      r5,r12
        0x08001202:    464c        LF      MOV      r4,r9
        0x08001204:    bf38        8.      IT       CC
        0x08001206:    46b8        .F      MOVCC    r8,r7
        0x08001208:    b16a        j.      CBZ      r2,0x8001226 ; SEGGER_RTT_vprintf + 1102
        0x0800120a:    2100        .!      MOVS     r1,#0
        0x0800120c:    2c00        .,      CMP      r4,#0
        0x0800120e:    bf48        H.      IT       MI
        0x08001210:    2101        .!      MOVMI    r1,#1
        0x08001212:    f00b0304    ....    AND      r3,r11,#4
        0x08001216:    ea410193    A...    ORR      r1,r1,r3,LSR #2
        0x0800121a:    eba20901    ....    SUB      r9,r2,r1
        0x0800121e:    f01b0602    ....    ANDS     r6,r11,#2
        0x08001222:    d105        ..      BNE      0x8001230 ; SEGGER_RTT_vprintf + 1112
        0x08001224:    e005        ..      B        0x8001232 ; SEGGER_RTT_vprintf + 1114
        0x08001226:    f04f0900    O...    MOV      r9,#0
        0x0800122a:    f01b0602    ....    ANDS     r6,r11,#2
        0x0800122e:    d000        ..      BEQ      0x8001232 ; SEGGER_RTT_vprintf + 1114
        0x08001230:    b12f        /.      CBZ      r7,0x800123e ; SEGGER_RTT_vprintf + 1126
        0x08001232:    ea5f71cb    _..q    LSLS     r1,r11,#31
        0x08001236:    d102        ..      BNE      0x800123e ; SEGGER_RTT_vprintf + 1126
        0x08001238:    f1b90f00    ....    CMP      r9,#0
        0x0800123c:    d128        (.      BNE      0x8001290 ; SEGGER_RTT_vprintf + 1208
        0x0800123e:    2800        .(      CMP      r0,#0
        0x08001240:    f1008093    ....    BMI.W    0x800136a ; SEGGER_RTT_vprintf + 1426
        0x08001244:    f1b43fff    ...?    CMP      r4,#0xffffffff
        0x08001248:    dd3f        ?.      BLE      0x80012ca ; SEGGER_RTT_vprintf + 1266
        0x0800124a:    ea5f704b    _.Kp    LSLS     r0,r11,#29
        0x0800124e:    d518        ..      BPL      0x8001282 ; SEGGER_RTT_vprintf + 1194
        0x08001250:    e9dd2015    ...     LDRD     r2,r0,[sp,#0x54]
        0x08001254:    1c41        A.      ADDS     r1,r0,#1
        0x08001256:    4291        .B      CMP      r1,r2
        0x08001258:    d808        ..      BHI      0x800126c ; SEGGER_RTT_vprintf + 1172
        0x0800125a:    9a14        ..      LDR      r2,[sp,#0x50]
        0x0800125c:    232b        +#      MOVS     r3,#0x2b
        0x0800125e:    5413        .T      STRB     r3,[r2,r0]
        0x08001260:    9817        ..      LDR      r0,[sp,#0x5c]
        0x08001262:    9a15        ..      LDR      r2,[sp,#0x54]
        0x08001264:    3001        .0      ADDS     r0,#1
        0x08001266:    9017        ..      STR      r0,[sp,#0x5c]
        0x08001268:    4608        .F      MOV      r0,r1
        0x0800126a:    9116        ..      STR      r1,[sp,#0x58]
        0x0800126c:    4290        .B      CMP      r0,r2
        0x0800126e:    d108        ..      BNE      0x8001282 ; SEGGER_RTT_vprintf + 1194
        0x08001270:    9914        ..      LDR      r1,[sp,#0x50]
        0x08001272:    9818        ..      LDR      r0,[sp,#0x60]
        0x08001274:    f7fffc8e    ....    BL       SEGGER_RTT_Write ; 0x8000b94
        0x08001278:    9916        ..      LDR      r1,[sp,#0x58]
        0x0800127a:    4288        .B      CMP      r0,r1
        0x0800127c:    d17b        {.      BNE      0x8001376 ; SEGGER_RTT_vprintf + 1438
        0x0800127e:    2000        .       MOVS     r0,#0
        0x08001280:    9016        ..      STR      r0,[sp,#0x58]
        0x08001282:    9403        ..      STR      r4,[sp,#0xc]
        0x08001284:    e03a        :.      B        0x80012fc ; SEGGER_RTT_vprintf + 1316
        0x08001286:    bf00        ..      NOP      
        0x08001288:    2800        .(      CMP      r0,#0
        0x0800128a:    f1a90901    ....    SUB      r9,r9,#1
        0x0800128e:    d46c        l.      BMI      0x800136a ; SEGGER_RTT_vprintf + 1426
        0x08001290:    45c8        .E      CMP      r8,r9
        0x08001292:    d2d4        ..      BCS      0x800123e ; SEGGER_RTT_vprintf + 1126
        0x08001294:    e9dd2115    ...!    LDRD     r2,r1,[sp,#0x54]
        0x08001298:    1c4b        K.      ADDS     r3,r1,#1
        0x0800129a:    4293        .B      CMP      r3,r2
        0x0800129c:    d808        ..      BHI      0x80012b0 ; SEGGER_RTT_vprintf + 1240
        0x0800129e:    9814        ..      LDR      r0,[sp,#0x50]
        0x080012a0:    2220         "      MOVS     r2,#0x20
        0x080012a2:    5442        BT      STRB     r2,[r0,r1]
        0x080012a4:    9817        ..      LDR      r0,[sp,#0x5c]
        0x080012a6:    9a15        ..      LDR      r2,[sp,#0x54]
        0x080012a8:    3001        .0      ADDS     r0,#1
        0x080012aa:    4619        .F      MOV      r1,r3
        0x080012ac:    9316        ..      STR      r3,[sp,#0x58]
        0x080012ae:    9017        ..      STR      r0,[sp,#0x5c]
        0x080012b0:    4291        .B      CMP      r1,r2
        0x080012b2:    d1e9        ..      BNE      0x8001288 ; SEGGER_RTT_vprintf + 1200
        0x080012b4:    9914        ..      LDR      r1,[sp,#0x50]
        0x080012b6:    9818        ..      LDR      r0,[sp,#0x60]
        0x080012b8:    f7fffc6c    ..l.    BL       SEGGER_RTT_Write ; 0x8000b94
        0x080012bc:    9916        ..      LDR      r1,[sp,#0x58]
        0x080012be:    4288        .B      CMP      r0,r1
        0x080012c0:    d159        Y.      BNE      0x8001376 ; SEGGER_RTT_vprintf + 1438
        0x080012c2:    9817        ..      LDR      r0,[sp,#0x5c]
        0x080012c4:    2100        .!      MOVS     r1,#0
        0x080012c6:    9116        ..      STR      r1,[sp,#0x58]
        0x080012c8:    e7de        ..      B        0x8001288 ; SEGGER_RTT_vprintf + 1200
        0x080012ca:    e9dd2015    ...     LDRD     r2,r0,[sp,#0x54]
        0x080012ce:    1c41        A.      ADDS     r1,r0,#1
        0x080012d0:    4291        .B      CMP      r1,r2
        0x080012d2:    d808        ..      BHI      0x80012e6 ; SEGGER_RTT_vprintf + 1294
        0x080012d4:    9a14        ..      LDR      r2,[sp,#0x50]
        0x080012d6:    232d        -#      MOVS     r3,#0x2d
        0x080012d8:    5413        .T      STRB     r3,[r2,r0]
        0x080012da:    9817        ..      LDR      r0,[sp,#0x5c]
        0x080012dc:    9a15        ..      LDR      r2,[sp,#0x54]
        0x080012de:    3001        .0      ADDS     r0,#1
        0x080012e0:    9017        ..      STR      r0,[sp,#0x5c]
        0x080012e2:    4608        .F      MOV      r0,r1
        0x080012e4:    9116        ..      STR      r1,[sp,#0x58]
        0x080012e6:    4290        .B      CMP      r0,r2
        0x080012e8:    d108        ..      BNE      0x80012fc ; SEGGER_RTT_vprintf + 1316
        0x080012ea:    9914        ..      LDR      r1,[sp,#0x50]
        0x080012ec:    9818        ..      LDR      r0,[sp,#0x60]
        0x080012ee:    f7fffc51    ..Q.    BL       SEGGER_RTT_Write ; 0x8000b94
        0x080012f2:    9916        ..      LDR      r1,[sp,#0x58]
        0x080012f4:    4288        .B      CMP      r0,r1
        0x080012f6:    d13e        >.      BNE      0x8001376 ; SEGGER_RTT_vprintf + 1438
        0x080012f8:    2000        .       MOVS     r0,#0
        0x080012fa:    9016        ..      STR      r0,[sp,#0x58]
        0x080012fc:    9817        ..      LDR      r0,[sp,#0x5c]
        0x080012fe:    2800        .(      CMP      r0,#0
        0x08001300:    d433        3.      BMI      0x800136a ; SEGGER_RTT_vprintf + 1426
        0x08001302:    b946        F.      CBNZ     r6,0x8001316 ; SEGGER_RTT_vprintf + 1342
        0x08001304:    f8cd9000    ....    STR      r9,[sp,#0]
        0x08001308:    f10d0950    ..P.    ADD      r9,sp,#0x50
        0x0800130c:    9903        ..      LDR      r1,[sp,#0xc]
        0x0800130e:    2600        .&      MOVS     r6,#0
        0x08001310:    f04f38ff    O..8    MOV      r8,#0xffffffff
        0x08001314:    e756        V.      B        0x80011c4 ; SEGGER_RTT_vprintf + 1004
        0x08001316:    f00b0101    ....    AND      r1,r11,#1
        0x0800131a:    4339        9C      ORRS     r1,r1,r7
        0x0800131c:    d1f2        ..      BNE      0x8001304 ; SEGGER_RTT_vprintf + 1324
        0x0800131e:    f1b90f00    ....    CMP      r9,#0
        0x08001322:    d105        ..      BNE      0x8001330 ; SEGGER_RTT_vprintf + 1368
        0x08001324:    e7ee        ..      B        0x8001304 ; SEGGER_RTT_vprintf + 1324
        0x08001326:    bf00        ..      NOP      
        0x08001328:    2800        .(      CMP      r0,#0
        0x0800132a:    f1a90901    ....    SUB      r9,r9,#1
        0x0800132e:    d41c        ..      BMI      0x800136a ; SEGGER_RTT_vprintf + 1426
        0x08001330:    45c8        .E      CMP      r8,r9
        0x08001332:    d2e7        ..      BCS      0x8001304 ; SEGGER_RTT_vprintf + 1324
        0x08001334:    e9dd2115    ...!    LDRD     r2,r1,[sp,#0x54]
        0x08001338:    1c4b        K.      ADDS     r3,r1,#1
        0x0800133a:    4293        .B      CMP      r3,r2
        0x0800133c:    d808        ..      BHI      0x8001350 ; SEGGER_RTT_vprintf + 1400
        0x0800133e:    9814        ..      LDR      r0,[sp,#0x50]
        0x08001340:    2230        0"      MOVS     r2,#0x30
        0x08001342:    5442        BT      STRB     r2,[r0,r1]
        0x08001344:    9817        ..      LDR      r0,[sp,#0x5c]
        0x08001346:    9a15        ..      LDR      r2,[sp,#0x54]
        0x08001348:    3001        .0      ADDS     r0,#1
        0x0800134a:    4619        .F      MOV      r1,r3
        0x0800134c:    9316        ..      STR      r3,[sp,#0x58]
        0x0800134e:    9017        ..      STR      r0,[sp,#0x5c]
        0x08001350:    4291        .B      CMP      r1,r2
        0x08001352:    d1e9        ..      BNE      0x8001328 ; SEGGER_RTT_vprintf + 1360
        0x08001354:    9914        ..      LDR      r1,[sp,#0x50]
        0x08001356:    9818        ..      LDR      r0,[sp,#0x60]
        0x08001358:    f7fffc1c    ....    BL       SEGGER_RTT_Write ; 0x8000b94
        0x0800135c:    9916        ..      LDR      r1,[sp,#0x58]
        0x0800135e:    4288        .B      CMP      r0,r1
        0x08001360:    d109        ..      BNE      0x8001376 ; SEGGER_RTT_vprintf + 1438
        0x08001362:    9817        ..      LDR      r0,[sp,#0x5c]
        0x08001364:    2100        .!      MOVS     r1,#0
        0x08001366:    9116        ..      STR      r1,[sp,#0x58]
        0x08001368:    e7de        ..      B        0x8001328 ; SEGGER_RTT_vprintf + 1360
        0x0800136a:    2600        .&      MOVS     r6,#0
        0x0800136c:    f04f38ff    O..8    MOV      r8,#0xffffffff
        0x08001370:    f10d0950    ..P.    ADD      r9,sp,#0x50
        0x08001374:    e549        I.      B        0x8000e0a ; SEGGER_RTT_vprintf + 50
        0x08001376:    f04f38ff    O..8    MOV      r8,#0xffffffff
        0x0800137a:    f8cd805c    ..\.    STR      r8,[sp,#0x5c]
        0x0800137e:    2600        .&      MOVS     r6,#0
        0x08001380:    f10d0950    ..P.    ADD      r9,sp,#0x50
        0x08001384:    e541        A.      B        0x8000e0a ; SEGGER_RTT_vprintf + 50
        0x08001386:    2801        .(      CMP      r0,#1
        0x08001388:    db08        ..      BLT      0x800139c ; SEGGER_RTT_vprintf + 1476
        0x0800138a:    9a16        ..      LDR      r2,[sp,#0x58]
        0x0800138c:    b182        ..      CBZ      r2,0x80013b0 ; SEGGER_RTT_vprintf + 1496
        0x0800138e:    9802        ..      LDR      r0,[sp,#8]
        0x08001390:    a904        ..      ADD      r1,sp,#0x10
        0x08001392:    f7fffbff    ....    BL       SEGGER_RTT_Write ; 0x8000b94
        0x08001396:    e9dd1016    ....    LDRD     r1,r0,[sp,#0x58]
        0x0800139a:    e00a        ..      B        0x80013b2 ; SEGGER_RTT_vprintf + 1498
        0x0800139c:    2000        .       MOVS     r0,#0
        0x0800139e:    b019        ..      ADD      sp,sp,#0x64
        0x080013a0:    e8bd8ff0    ....    POP      {r4-r11,pc}
        0x080013a4:    f04f30ff    O..0    MOV      r0,#0xffffffff
        0x080013a8:    9017        ..      STR      r0,[sp,#0x5c]
        0x080013aa:    b019        ..      ADD      sp,sp,#0x64
        0x080013ac:    e8bd8ff0    ....    POP      {r4-r11,pc}
        0x080013b0:    2100        .!      MOVS     r1,#0
        0x080013b2:    4408        .D      ADD      r0,r0,r1
        0x080013b4:    9017        ..      STR      r0,[sp,#0x5c]
        0x080013b6:    b019        ..      ADD      sp,sp,#0x64
        0x080013b8:    e8bd8ff0    ....    POP      {r4-r11,pc}
    SysTick_Handler
        0x080013bc:    f2431074    C.t.    MOV      r0,#0x3174
        0x080013c0:    f2c20000    ....    MOVT     r0,#0x2000
        0x080013c4:    6801        .h      LDR      r1,[r0,#0]
        0x080013c6:    3101        .1      ADDS     r1,#1
        0x080013c8:    6001        .`      STR      r1,[r0,#0]
        0x080013ca:    4770        pG      BX       lr
    SystemInit
        0x080013cc:    b082        ..      SUB      sp,sp,#8
        0x080013ce:    f2410004    A...    MOV      r0,#0x1004
        0x080013d2:    f2c40002    ....    MOVT     r0,#0x4002
        0x080013d6:    f8501c04    P...    LDR      r1,[r0,#-4]
        0x080013da:    2200        ."      MOVS     r2,#0
        0x080013dc:    f0410101    A...    ORR      r1,r1,#1
        0x080013e0:    f8401c04    @...    STR      r1,[r0,#-4]
        0x080013e4:    6801        .h      LDR      r1,[r0,#0]
        0x080013e6:    f6cf02ff    ....    MOVT     r2,#0xf8ff
        0x080013ea:    4011        .@      ANDS     r1,r1,r2
        0x080013ec:    6001        .`      STR      r1,[r0,#0]
        0x080013ee:    f8501c04    P...    LDR      r1,[r0,#-4]
        0x080013f2:    f64f72ff    O..r    MOV      r2,#0xffff
        0x080013f6:    f6cf62f6    ...b    MOVT     r2,#0xfef6
        0x080013fa:    4011        .@      ANDS     r1,r1,r2
        0x080013fc:    f8401c04    @...    STR      r1,[r0,#-4]
        0x08001400:    f8501c04    P...    LDR      r1,[r0,#-4]
        0x08001404:    f4212180    !..!    BIC      r1,r1,#0x40000
        0x08001408:    f8401c04    @...    STR      r1,[r0,#-4]
        0x0800140c:    6801        .h      LDR      r1,[r0,#0]
        0x0800140e:    f42101fe    !...    BIC      r1,r1,#0x7f0000
        0x08001412:    6001        .`      STR      r1,[r0,#0]
        0x08001414:    f44f011f    O...    MOV      r1,#0x9f0000
        0x08001418:    6041        A`      STR      r1,[r0,#4]
        0x0800141a:    2100        .!      MOVS     r1,#0
        0x0800141c:    9101        ..      STR      r1,[sp,#4]
        0x0800141e:    9100        ..      STR      r1,[sp,#0]
        0x08001420:    f8501c04    P...    LDR      r1,[r0,#-4]
        0x08001424:    f4413180    A..1    ORR      r1,r1,#0x10000
        0x08001428:    f8401c04    @...    STR      r1,[r0,#-4]
        0x0800142c:    f8501c04    P...    LDR      r1,[r0,#-4]
        0x08001430:    f4013100    ...1    AND      r1,r1,#0x20000
        0x08001434:    9100        ..      STR      r1,[sp,#0]
        0x08001436:    9901        ..      LDR      r1,[sp,#4]
        0x08001438:    3101        .1      ADDS     r1,#1
        0x0800143a:    9101        ..      STR      r1,[sp,#4]
        0x0800143c:    9900        ..      LDR      r1,[sp,#0]
        0x0800143e:    b919        ..      CBNZ     r1,0x8001448 ; SystemInit + 124
        0x08001440:    9901        ..      LDR      r1,[sp,#4]
        0x08001442:    f5b16fa0    ...o    CMP      r1,#0x500
        0x08001446:    d1f1        ..      BNE      0x800142c ; SystemInit + 96
        0x08001448:    f8501c04    P...    LDR      r1,[r0,#-4]
        0x0800144c:    0389        ..      LSLS     r1,r1,#14
        0x0800144e:    bf54        T.      ITE      PL
        0x08001450:    2100        .!      MOVPL    r1,#0
        0x08001452:    2101        .!      MOVMI    r1,#1
        0x08001454:    9100        ..      STR      r1,[sp,#0]
        0x08001456:    9900        ..      LDR      r1,[sp,#0]
        0x08001458:    2901        .)      CMP      r1,#1
        0x0800145a:    d153        S.      BNE      0x8001504 ; SystemInit + 312
        0x0800145c:    f2420100    B...    MOVW     r1,#0x2000
        0x08001460:    f2c40102    ....    MOVT     r1,#0x4002
        0x08001464:    680a        .h      LDR      r2,[r1,#0]
        0x08001466:    f0420210    B...    ORR      r2,r2,#0x10
        0x0800146a:    600a        .`      STR      r2,[r1,#0]
        0x0800146c:    680a        .h      LDR      r2,[r1,#0]
        0x0800146e:    f0220203    "...    BIC      r2,r2,#3
        0x08001472:    600a        .`      STR      r2,[r1,#0]
        0x08001474:    680a        .h      LDR      r2,[r1,#0]
        0x08001476:    f0420202    B...    ORR      r2,r2,#2
        0x0800147a:    600a        .`      STR      r2,[r1,#0]
        0x0800147c:    6801        .h      LDR      r1,[r0,#0]
        0x0800147e:    6001        .`      STR      r1,[r0,#0]
        0x08001480:    6801        .h      LDR      r1,[r0,#0]
        0x08001482:    6001        .`      STR      r1,[r0,#0]
        0x08001484:    6801        .h      LDR      r1,[r0,#0]
        0x08001486:    f4416180    A..a    ORR      r1,r1,#0x400
        0x0800148a:    6001        .`      STR      r1,[r0,#0]
        0x0800148c:    6801        .h      LDR      r1,[r0,#0]
        0x0800148e:    f421117c    !.|.    BIC      r1,r1,#0x3f0000
        0x08001492:    6001        .`      STR      r1,[r0,#0]
        0x08001494:    6801        .h      LDR      r1,[r0,#0]
        0x08001496:    f44111e8    A...    ORR      r1,r1,#0x1d0000
        0x0800149a:    6001        .`      STR      r1,[r0,#0]
        0x0800149c:    f8501c04    P...    LDR      r1,[r0,#-4]
        0x080014a0:    f0417180    A..q    ORR      r1,r1,#0x1000000
        0x080014a4:    f8401c04    @...    STR      r1,[r0,#-4]
        0x080014a8:    f8501c04    P...    LDR      r1,[r0,#-4]
        0x080014ac:    0189        ..      LSLS     r1,r1,#6
        0x080014ae:    bf5c        \.      ITT      PL
        0x080014b0:    f8501c04    P...    LDRPL    r1,[r0,#-4]
        0x080014b4:    ea5f1181    _...    LSLSPL   r1,r1,#6
        0x080014b8:    d407        ..      BMI      0x80014ca ; SystemInit + 254
        0x080014ba:    f8501c04    P...    LDR      r1,[r0,#-4]
        0x080014be:    0189        ..      LSLS     r1,r1,#6
        0x080014c0:    d403        ..      BMI      0x80014ca ; SystemInit + 254
        0x080014c2:    f8501c04    P...    LDR      r1,[r0,#-4]
        0x080014c6:    0189        ..      LSLS     r1,r1,#6
        0x080014c8:    d5ee        ..      BPL      0x80014a8 ; SystemInit + 220
        0x080014ca:    6801        .h      LDR      r1,[r0,#0]
        0x080014cc:    f0210103    !...    BIC      r1,r1,#3
        0x080014d0:    6001        .`      STR      r1,[r0,#0]
        0x080014d2:    6801        .h      LDR      r1,[r0,#0]
        0x080014d4:    f0410102    A...    ORR      r1,r1,#2
        0x080014d8:    6001        .`      STR      r1,[r0,#0]
        0x080014da:    bf00        ..      NOP      
        0x080014dc:    6801        .h      LDR      r1,[r0,#0]
        0x080014de:    f001010c    ....    AND      r1,r1,#0xc
        0x080014e2:    2908        .)      CMP      r1,#8
        0x080014e4:    d00e        ..      BEQ      0x8001504 ; SystemInit + 312
        0x080014e6:    6801        .h      LDR      r1,[r0,#0]
        0x080014e8:    f001010c    ....    AND      r1,r1,#0xc
        0x080014ec:    2908        .)      CMP      r1,#8
        0x080014ee:    d009        ..      BEQ      0x8001504 ; SystemInit + 312
        0x080014f0:    6801        .h      LDR      r1,[r0,#0]
        0x080014f2:    f001010c    ....    AND      r1,r1,#0xc
        0x080014f6:    2908        .)      CMP      r1,#8
        0x080014f8:    d004        ..      BEQ      0x8001504 ; SystemInit + 312
        0x080014fa:    6801        .h      LDR      r1,[r0,#0]
        0x080014fc:    f001010c    ....    AND      r1,r1,#0xc
        0x08001500:    2908        .)      CMP      r1,#8
        0x08001502:    d1eb        ..      BNE      0x80014dc ; SystemInit + 272
        0x08001504:    f64e5008    N..P    MOV      r0,#0xed08
        0x08001508:    f2ce0000    ....    MOVT     r0,#0xe000
        0x0800150c:    f04f5100    O..Q    MOV      r1,#0x20000000
        0x08001510:    6001        .`      STR      r1,[r0,#0]
        0x08001512:    b002        ..      ADD      sp,sp,#8
        0x08001514:    4770        pG      BX       lr
        0x08001516:    0000        ..      MOVS     r0,r0
    _PrintUnsigned
        0x08001518:    e92d4ff0    -..O    PUSH     {r4-r11,lr}
        0x0800151c:    b081        ..      SUB      sp,sp,#4
        0x0800151e:    468b        .F      MOV      r11,r1
        0x08001520:    e9dd910a    ....    LDRD     r9,r1,[sp,#0x28]
        0x08001524:    461f        .F      MOV      r7,r3
        0x08001526:    4615        .F      MOV      r5,r2
        0x08001528:    4593        .E      CMP      r11,r2
        0x0800152a:    4604        .F      MOV      r4,r0
        0x0800152c:    d202        ..      BCS      0x8001534 ; _PrintUnsigned + 28
        0x0800152e:    f04f0801    O...    MOV      r8,#1
        0x08001532:    e01d        ..      B        0x8001570 ; _PrintUnsigned + 88
        0x08001534:    f04f0802    O...    MOV      r8,#2
        0x08001538:    4658        XF      MOV      r0,r11
        0x0800153a:    bf00        ..      NOP      
        0x0800153c:    fbb0f0f5    ....    UDIV     r0,r0,r5
        0x08001540:    42a8        .B      CMP      r0,r5
        0x08001542:    d315        ..      BCC      0x8001570 ; _PrintUnsigned + 88
        0x08001544:    fbb0f0f5    ....    UDIV     r0,r0,r5
        0x08001548:    42a8        .B      CMP      r0,r5
        0x0800154a:    d30c        ..      BCC      0x8001566 ; _PrintUnsigned + 78
        0x0800154c:    fbb0f0f5    ....    UDIV     r0,r0,r5
        0x08001550:    42a8        .B      CMP      r0,r5
        0x08001552:    d30b        ..      BCC      0x800156c ; _PrintUnsigned + 84
        0x08001554:    fbb0f0f5    ....    UDIV     r0,r0,r5
        0x08001558:    f1080804    ....    ADD      r8,r8,#4
        0x0800155c:    42a8        .B      CMP      r0,r5
        0x0800155e:    d2ed        ..      BCS      0x800153c ; _PrintUnsigned + 36
        0x08001560:    f1a80801    ....    SUB      r8,r8,#1
        0x08001564:    e004        ..      B        0x8001570 ; _PrintUnsigned + 88
        0x08001566:    f1080801    ....    ADD      r8,r8,#1
        0x0800156a:    e001        ..      B        0x8001570 ; _PrintUnsigned + 88
        0x0800156c:    f1080802    ....    ADD      r8,r8,#2
        0x08001570:    45b8        .E      CMP      r8,r7
        0x08001572:    bf38        8.      IT       CC
        0x08001574:    46b8        .F      MOVCC    r8,r7
        0x08001576:    f1b90f00    ....    CMP      r9,#0
        0x0800157a:    f0010001    ....    AND      r0,r1,#1
        0x0800157e:    9000        ..      STR      r0,[sp,#0]
        0x08001580:    d02f        /.      BEQ      0x80015e2 ; _PrintUnsigned + 202
        0x08001582:    bb70        p.      CBNZ     r0,0x80015e2 ; _PrintUnsigned + 202
        0x08001584:    2620         &      MOVS     r6,#0x20
        0x08001586:    0788        ..      LSLS     r0,r1,#30
        0x08001588:    bf48        H.      IT       MI
        0x0800158a:    2630        0&      MOVMI    r6,#0x30
        0x0800158c:    f04f0a00    O...    MOV      r10,#0
        0x08001590:    2020                MOVS     r0,#0x20
        0x08001592:    2f00        ./      CMP      r7,#0
        0x08001594:    bf18        ..      IT       NE
        0x08001596:    4606        .F      MOVNE    r6,r0
        0x08001598:    e006        ..      B        0x80015a8 ; _PrintUnsigned + 144
        0x0800159a:    bf00        ..      NOP      
        0x0800159c:    f8c4a008    ....    STR      r10,[r4,#8]
        0x080015a0:    68e0        .h      LDR      r0,[r4,#0xc]
        0x080015a2:    f1b03fff    ...?    CMP      r0,#0xffffffff
        0x080015a6:    dd1c        ..      BLE      0x80015e2 ; _PrintUnsigned + 202
        0x080015a8:    45c8        .E      CMP      r8,r9
        0x080015aa:    d21a        ..      BCS      0x80015e2 ; _PrintUnsigned + 202
        0x080015ac:    e9d42001    ...     LDRD     r2,r0,[r4,#4]
        0x080015b0:    1c41        A.      ADDS     r1,r0,#1
        0x080015b2:    4291        .B      CMP      r1,r2
        0x080015b4:    d807        ..      BHI      0x80015c6 ; _PrintUnsigned + 174
        0x080015b6:    6822        "h      LDR      r2,[r4,#0]
        0x080015b8:    5416        .T      STRB     r6,[r2,r0]
        0x080015ba:    68e0        .h      LDR      r0,[r4,#0xc]
        0x080015bc:    6862        bh      LDR      r2,[r4,#4]
        0x080015be:    3001        .0      ADDS     r0,#1
        0x080015c0:    60e0        .`      STR      r0,[r4,#0xc]
        0x080015c2:    4608        .F      MOV      r0,r1
        0x080015c4:    60a1        .`      STR      r1,[r4,#8]
        0x080015c6:    4290        .B      CMP      r0,r2
        0x080015c8:    f1a90901    ....    SUB      r9,r9,#1
        0x080015cc:    d1e8        ..      BNE      0x80015a0 ; _PrintUnsigned + 136
        0x080015ce:    6821        !h      LDR      r1,[r4,#0]
        0x080015d0:    6920         i      LDR      r0,[r4,#0x10]
        0x080015d2:    f7fffadf    ....    BL       SEGGER_RTT_Write ; 0x8000b94
        0x080015d6:    68a1        .h      LDR      r1,[r4,#8]
        0x080015d8:    4288        .B      CMP      r0,r1
        0x080015da:    d0df        ..      BEQ      0x800159c ; _PrintUnsigned + 132
        0x080015dc:    f04f30ff    O..0    MOV      r0,#0xffffffff
        0x080015e0:    60e0        .`      STR      r0,[r4,#0xc]
        0x080015e2:    68e0        .h      LDR      r0,[r4,#0xc]
        0x080015e4:    2800        .(      CMP      r0,#0
        0x080015e6:    d43a        :.      BMI      0x800165e ; _PrintUnsigned + 326
        0x080015e8:    2601        .&      MOVS     r6,#1
        0x080015ea:    e001        ..      B        0x80015f0 ; _PrintUnsigned + 216
        0x080015ec:    3f01        .?      SUBS     r7,#1
        0x080015ee:    436e        nC      MULS     r6,r5,r6
        0x080015f0:    2f02        ./      CMP      r7,#2
        0x080015f2:    d2fb        ..      BCS      0x80015ec ; _PrintUnsigned + 212
        0x080015f4:    fbbbf1f6    ....    UDIV     r1,r11,r6
        0x080015f8:    42a9        .B      CMP      r1,r5
        0x080015fa:    d2f8        ..      BCS      0x80015ee ; _PrintUnsigned + 214
        0x080015fc:    68a1        .h      LDR      r1,[r4,#8]
        0x080015fe:    a72e        ..      ADR      r7,{pc}+0xba ; 0x80016b8
        0x08001600:    6862        bh      LDR      r2,[r4,#4]
        0x08001602:    fbbbfaf6    ....    UDIV     r10,r11,r6
        0x08001606:    1c4b        K.      ADDS     r3,r1,#1
        0x08001608:    4293        .B      CMP      r3,r2
        0x0800160a:    d809        ..      BHI      0x8001620 ; _PrintUnsigned + 264
        0x0800160c:    f817000a    ....    LDRB     r0,[r7,r10]
        0x08001610:    6822        "h      LDR      r2,[r4,#0]
        0x08001612:    5450        PT      STRB     r0,[r2,r1]
        0x08001614:    68e0        .h      LDR      r0,[r4,#0xc]
        0x08001616:    6862        bh      LDR      r2,[r4,#4]
        0x08001618:    3001        .0      ADDS     r0,#1
        0x0800161a:    4619        .F      MOV      r1,r3
        0x0800161c:    60a3        .`      STR      r3,[r4,#8]
        0x0800161e:    60e0        .`      STR      r0,[r4,#0xc]
        0x08001620:    4291        .B      CMP      r1,r2
        0x08001622:    d109        ..      BNE      0x8001638 ; _PrintUnsigned + 288
        0x08001624:    6821        !h      LDR      r1,[r4,#0]
        0x08001626:    6920         i      LDR      r0,[r4,#0x10]
        0x08001628:    f7fffab4    ....    BL       SEGGER_RTT_Write ; 0x8000b94
        0x0800162c:    68a1        .h      LDR      r1,[r4,#8]
        0x0800162e:    4288        .B      CMP      r0,r1
        0x08001630:    d10c        ..      BNE      0x800164c ; _PrintUnsigned + 308
        0x08001632:    68e0        .h      LDR      r0,[r4,#0xc]
        0x08001634:    2100        .!      MOVS     r1,#0
        0x08001636:    60a1        .`      STR      r1,[r4,#8]
        0x08001638:    2800        .(      CMP      r0,#0
        0x0800163a:    d40a        ..      BMI      0x8001652 ; _PrintUnsigned + 314
        0x0800163c:    fbb6f2f5    ....    UDIV     r2,r6,r5
        0x08001640:    fb0abb16    ....    MLS      r11,r10,r6,r11
        0x08001644:    42ae        .B      CMP      r6,r5
        0x08001646:    4616        .F      MOV      r6,r2
        0x08001648:    d2da        ..      BCS      0x8001600 ; _PrintUnsigned + 232
        0x0800164a:    e002        ..      B        0x8001652 ; _PrintUnsigned + 314
        0x0800164c:    f04f30ff    O..0    MOV      r0,#0xffffffff
        0x08001650:    60e0        .`      STR      r0,[r4,#0xc]
        0x08001652:    9a00        ..      LDR      r2,[sp,#0]
        0x08001654:    2a00        .*      CMP      r2,#0
        0x08001656:    bf18        ..      IT       NE
        0x08001658:    f1b90f00    ....    CMPNE    r9,#0
        0x0800165c:    d102        ..      BNE      0x8001664 ; _PrintUnsigned + 332
        0x0800165e:    b001        ..      ADD      sp,sp,#4
        0x08001660:    e8bd8ff0    ....    POP      {r4-r11,pc}
        0x08001664:    f1090501    ....    ADD      r5,r9,#1
        0x08001668:    2620         &      MOVS     r6,#0x20
        0x0800166a:    e002        ..      B        0x8001672 ; _PrintUnsigned + 346
        0x0800166c:    f1b03fff    ...?    CMP      r0,#0xffffffff
        0x08001670:    ddf5        ..      BLE      0x800165e ; _PrintUnsigned + 326
        0x08001672:    3d01        .=      SUBS     r5,#1
        0x08001674:    45a8        .E      CMP      r8,r5
        0x08001676:    d2f2        ..      BCS      0x800165e ; _PrintUnsigned + 326
        0x08001678:    6862        bh      LDR      r2,[r4,#4]
        0x0800167a:    1c4b        K.      ADDS     r3,r1,#1
        0x0800167c:    4293        .B      CMP      r3,r2
        0x0800167e:    d807        ..      BHI      0x8001690 ; _PrintUnsigned + 376
        0x08001680:    6820         h      LDR      r0,[r4,#0]
        0x08001682:    5446        FT      STRB     r6,[r0,r1]
        0x08001684:    68e0        .h      LDR      r0,[r4,#0xc]
        0x08001686:    6862        bh      LDR      r2,[r4,#4]
        0x08001688:    3001        .0      ADDS     r0,#1
        0x0800168a:    4619        .F      MOV      r1,r3
        0x0800168c:    60a3        .`      STR      r3,[r4,#8]
        0x0800168e:    60e0        .`      STR      r0,[r4,#0xc]
        0x08001690:    4291        .B      CMP      r1,r2
        0x08001692:    d1eb        ..      BNE      0x800166c ; _PrintUnsigned + 340
        0x08001694:    6821        !h      LDR      r1,[r4,#0]
        0x08001696:    6920         i      LDR      r0,[r4,#0x10]
        0x08001698:    f7fffa7c    ..|.    BL       SEGGER_RTT_Write ; 0x8000b94
        0x0800169c:    68a1        .h      LDR      r1,[r4,#8]
        0x0800169e:    4288        .B      CMP      r0,r1
        0x080016a0:    d103        ..      BNE      0x80016aa ; _PrintUnsigned + 402
        0x080016a2:    68e0        .h      LDR      r0,[r4,#0xc]
        0x080016a4:    2100        .!      MOVS     r1,#0
        0x080016a6:    60a1        .`      STR      r1,[r4,#8]
        0x080016a8:    e7e0        ..      B        0x800166c ; _PrintUnsigned + 340
        0x080016aa:    f04f30ff    O..0    MOV      r0,#0xffffffff
        0x080016ae:    60e0        .`      STR      r0,[r4,#0xc]
        0x080016b0:    b001        ..      ADD      sp,sp,#4
        0x080016b2:    e8bd8ff0    ....    POP      {r4-r11,pc}
        0x080016b6:    bf00        ..      NOP      
    $d.6
    _PrintUnsigned._aV2C
        0x080016b8:    33323130    0123    DCD    858927408
        0x080016bc:    37363534    4567    DCD    926299444
        0x080016c0:    42413938    89AB    DCD    1111570744
        0x080016c4:    46454443    CDEF    DCD    1178944579
    $t.0
    app
        0x080016c8:    4770        pG      BX       lr
        0x080016ca:    0000        ..      MOVS     r0,r0
    clock111
        0x080016cc:    f2431074    C.t.    MOV      r0,#0x3174
        0x080016d0:    f2c20000    ....    MOVT     r0,#0x2000
        0x080016d4:    6800        .h      LDR      r0,[r0,#0]
        0x080016d6:    4770        pG      BX       lr
    dhry
        0x080016d8:    e92d4ff0    -..O    PUSH     {r4-r11,lr}
        0x080016dc:    b09b        ..      SUB      sp,sp,#0x6c
        0x080016de:    f2400960    @.`.    MOVW     r9,#0x60
        0x080016e2:    f2c20900    ....    MOVT     r9,#0x2000
        0x080016e6:    f2431144    C.D.    MOV      r1,#0x3144
        0x080016ea:    f1090034    ..4.    ADD      r0,r9,#0x34
        0x080016ee:    f2c20100    ....    MOVT     r1,#0x2000
        0x080016f2:    f8c90014    ....    STR      r0,[r9,#0x14]
        0x080016f6:    6008        .`      STR      r0,[r1,#0]
        0x080016f8:    2000        .       MOVS     r0,#0
        0x080016fa:    f64252f0    B..R    MOV      r2,#0x2df0
        0x080016fe:    7108        .q      STRB     r0,[r1,#4]
        0x08001700:    2002        .       MOVS     r0,#2
        0x08001702:    f6c00200    ....    MOVT     r2,#0x800
        0x08001706:    7208        .r      STRB     r0,[r1,#8]
        0x08001708:    e9d23700    ...7    LDRD     r3,r7,[r2,#0]
        0x0800170c:    e9d26502    ...e    LDRD     r6,r5,[r2,#8]
        0x08001710:    e9d24004    ...@    LDRD     r4,r0,[r2,#0x10]
        0x08001714:    f04f0c28    O.(.    MOV      r12,#0x28
        0x08001718:    e9c1c303    ....    STRD     r12,r3,[r1,#0xc]
        0x0800171c:    e9c17605    ...v    STRD     r7,r6,[r1,#0x14]
        0x08001720:    e9c15407    ...T    STRD     r5,r4,[r1,#0x1c]
        0x08001724:    6248        Hb      STR      r0,[r1,#0x24]
        0x08001726:    7f90        ..      LDRB     r0,[r2,#0x1e]
        0x08001728:    f8d2e018    ....    LDR      lr,[r2,#0x18]
        0x0800172c:    f881002e    ....    STRB     r0,[r1,#0x2e]
        0x08001730:    8b90        ..      LDRH     r0,[r2,#0x1c]
        0x08001732:    f8df2674    ..t&    LDR.W    r2,[pc,#1652] ; [0x8001da8] = 0x59524844
        0x08001736:    8588        ..      STRH     r0,[r1,#0x2c]
        0x08001738:    f20f606c    ..l`    ADR.W    r0,{pc}+0x670 ; 0x8001da8
        0x0800173c:    1d07        ..      ADDS     r7,r0,#4
        0x0800173e:    f8c91008    ....    STR      r1,[r9,#8]
        0x08001742:    f8c1e028    ..(.    STR      lr,[r1,#0x28]
        0x08001746:    9211        ..      STR      r2,[sp,#0x44]
        0x08001748:    cf8e        ..      LDM      r7,{r1-r3,r7}
        0x0800174a:    e9d06505    ...e    LDRD     r6,r5,[r0,#0x14]
        0x0800174e:    69c0        .i      LDR      r0,[r0,#0x1c]
        0x08001750:    f10d0c48    ..H.    ADD      r12,sp,#0x48
        0x08001754:    e88c008e    ....    STM      r12,{r1-r3,r7}
        0x08001758:    f240118c    @...    MOVW     r1,#0x18c
        0x0800175c:    9018        ..      STR      r0,[sp,#0x60]
        0x0800175e:    f2c20100    ....    MOVT     r1,#0x2000
        0x08001762:    200a        .       MOVS     r0,#0xa
        0x08001764:    f2442840    D.@(    MOV      r8,#0x4240
        0x08001768:    f8c1065c    ..\.    STR      r0,[r1,#0x65c]
        0x0800176c:    200a        .       MOVS     r0,#0xa
        0x0800176e:    f2c0080f    ....    MOVT     r8,#0xf
        0x08001772:    e9cd6516    ...e    STRD     r6,r5,[sp,#0x58]
        0x08001776:    f001f84f    ..O.    BL       putchar ; 0x8002818
        0x0800177a:    f642306a    B.j0    MOV      r0,#0x2b6a
        0x0800177e:    f6c00000    ....    MOVT     r0,#0x800
        0x08001782:    f001f84f    ..O.    BL       puts ; 0x8002824
        0x08001786:    200a        .       MOVS     r0,#0xa
        0x08001788:    f001f846    ..F.    BL       putchar ; 0x8002818
        0x0800178c:    f8d91004    ....    LDR      r1,[r9,#4]
        0x08001790:    f64240d3    B..@    MOV      r0,#0x2cd3
        0x08001794:    f64242fe    B..B    MOV      r2,#0x2cfe
        0x08001798:    f6c00000    ....    MOVT     r0,#0x800
        0x0800179c:    f6c00200    ....    MOVT     r2,#0x800
        0x080017a0:    2900        .)      CMP      r1,#0
        0x080017a2:    bf08        ..      IT       EQ
        0x080017a4:    4610        .F      MOVEQ    r0,r2
        0x080017a6:    f001f83d    ..=.    BL       puts ; 0x8002824
        0x080017aa:    200a        .       MOVS     r0,#0xa
        0x080017ac:    f001f834    ..4.    BL       putchar ; 0x8002818
        0x080017b0:    f20f6014    ...`    ADR.W    r0,{pc}+0x618 ; 0x8001dc8
        0x080017b4:    f000fbb6    ....    BL       __0printf ; 0x8001f24
        0x080017b8:    200a        .       MOVS     r0,#0xa
        0x080017ba:    f001f82d    ..-.    BL       putchar ; 0x8002818
        0x080017be:    f20f6040    ..@`    ADR.W    r0,{pc}+0x642 ; 0x8001e00
        0x080017c2:    4641        AF      MOV      r1,r8
        0x080017c4:    f000fbae    ....    BL       __0printf ; 0x8001f24
        0x080017c8:    f7ffff80    ....    BL       clock111 ; 0x80016cc
        0x080017cc:    f8c90018    ....    STR      r0,[r9,#0x18]
        0x080017d0:    f6420048    B.H.    MOV      r0,#0x2848
        0x080017d4:    f6c00000    ....    MOVT     r0,#0x800
        0x080017d8:    6801        .h      LDR      r1,[r0,#0]
        0x080017da:    f64258d0    B..X    MOV      r8,#0x2dd0
        0x080017de:    9108        ..      STR      r1,[sp,#0x20]
        0x080017e0:    6841        Ah      LDR      r1,[r0,#4]
        0x080017e2:    f6c00800    ....    MOVT     r8,#0x800
        0x080017e6:    9107        ..      STR      r1,[sp,#0x1c]
        0x080017e8:    6881        .h      LDR      r1,[r0,#8]
        0x080017ea:    f04f0a01    O...    MOV      r10,#1
        0x080017ee:    9106        ..      STR      r1,[sp,#0x18]
        0x080017f0:    68c1        .h      LDR      r1,[r0,#0xc]
        0x080017f2:    9105        ..      STR      r1,[sp,#0x14]
        0x080017f4:    6901        .i      LDR      r1,[r0,#0x10]
        0x080017f6:    9104        ..      STR      r1,[sp,#0x10]
        0x080017f8:    6941        Ai      LDR      r1,[r0,#0x14]
        0x080017fa:    9103        ..      STR      r1,[sp,#0xc]
        0x080017fc:    6981        .i      LDR      r1,[r0,#0x18]
        0x080017fe:    69c0        .i      LDR      r0,[r0,#0x1c]
        0x08001800:    9102        ..      STR      r1,[sp,#8]
        0x08001802:    9001        ..      STR      r0,[sp,#4]
        0x08001804:    e00a        ..      B        0x800181c ; dhry + 324
        0x08001806:    bf00        ..      NOP      
        0x08001808:    2703        .'      MOVS     r7,#3
        0x0800180a:    f2442040    D.@     MOV      r0,#0x4240
        0x0800180e:    f2c0000f    ....    MOVT     r0,#0xf
        0x08001812:    4582        .E      CMP      r10,r0
        0x08001814:    f10a0a01    ....    ADD      r10,r10,#1
        0x08001818:    f00080cb    ....    BEQ.W    0x80019b2 ; dhry + 730
        0x0800181c:    9908        ..      LDR      r1,[sp,#0x20]
        0x0800181e:    f2442041    D.A     MOV      r0,#0x4241
        0x08001822:    9109        ..      STR      r1,[sp,#0x24]
        0x08001824:    9907        ..      LDR      r1,[sp,#0x1c]
        0x08001826:    f8a90000    ....    STRH     r0,[r9,#0]
        0x0800182a:    910a        ..      STR      r1,[sp,#0x28]
        0x0800182c:    9906        ..      LDR      r1,[sp,#0x18]
        0x0800182e:    2001        .       MOVS     r0,#1
        0x08001830:    910b        ..      STR      r1,[sp,#0x2c]
        0x08001832:    9905        ..      LDR      r1,[sp,#0x14]
        0x08001834:    f8c90010    ....    STR      r0,[r9,#0x10]
        0x08001838:    910c        ..      STR      r1,[sp,#0x30]
        0x0800183a:    9904        ..      LDR      r1,[sp,#0x10]
        0x0800183c:    f88d0067    ..g.    STRB     r0,[sp,#0x67]
        0x08001840:    910d        ..      STR      r1,[sp,#0x34]
        0x08001842:    9903        ..      LDR      r1,[sp,#0xc]
        0x08001844:    a811        ..      ADD      r0,sp,#0x44
        0x08001846:    910e        ..      STR      r1,[sp,#0x38]
        0x08001848:    9901        ..      LDR      r1,[sp,#4]
        0x0800184a:    9110        ..      STR      r1,[sp,#0x40]
        0x0800184c:    9902        ..      LDR      r1,[sp,#8]
        0x0800184e:    910f        ..      STR      r1,[sp,#0x3c]
        0x08001850:    a909        ..      ADD      r1,sp,#0x24
        0x08001852:    f7fff831    ..1.    BL       Func_2 ; 0x80008b8
        0x08001856:    fab0f080    ....    CLZ      r0,r0
        0x0800185a:    0940        @.      LSRS     r0,r0,#5
        0x0800185c:    f8c90010    ....    STR      r0,[r9,#0x10]
        0x08001860:    2007        .       MOVS     r0,#7
        0x08001862:    901a        ..      STR      r0,[sp,#0x68]
        0x08001864:    2002        .       MOVS     r0,#2
        0x08001866:    2103        .!      MOVS     r1,#3
        0x08001868:    aa1a        ..      ADD      r2,sp,#0x68
        0x0800186a:    f7fff8bb    ....    BL       Proc_7 ; 0x80009e4
        0x0800186e:    9b1a        ..      LDR      r3,[sp,#0x68]
        0x08001870:    f24000c4    @...    MOVW     r0,#0xc4
        0x08001874:    f240118c    @...    MOVW     r1,#0x18c
        0x08001878:    f2c20000    ....    MOVT     r0,#0x2000
        0x0800187c:    f2c20100    ....    MOVT     r1,#0x2000
        0x08001880:    2203        ."      MOVS     r2,#3
        0x08001882:    f7fff8b3    ....    BL       Proc_8 ; 0x80009ec
        0x08001886:    f8d9b008    ....    LDR      r11,[r9,#8]
        0x0800188a:    e9db7000    ...p    LDRD     r7,r0,[r11,#0]
        0x0800188e:    f8db3014    ...0    LDR      r3,[r11,#0x14]
        0x08001892:    f10b0408    ....    ADD      r4,r11,#8
        0x08001896:    cc16        ..      LDM      r4,{r1,r2,r4}
        0x08001898:    e9c74304    ...C    STRD     r4,r3,[r7,#0x10]
        0x0800189c:    463c        <F      MOV      r4,r7
        0x0800189e:    e9c77000    ...p    STRD     r7,r0,[r7,#0]
        0x080018a2:    60b9        .`      STR      r1,[r7,#8]
        0x080018a4:    f8442f0c    D../    STR      r2,[r4,#0xc]!
        0x080018a8:    f10b0618    ....    ADD      r6,r11,#0x18
        0x080018ac:    f8db502c    ..,P    LDR      r5,[r11,#0x2c]
        0x080018b0:    ce4f        O.      LDM      r6,{r0-r3,r6}
        0x080018b2:    f1070c18    ....    ADD      r12,r7,#0x18
        0x080018b6:    62fd        .b      STR      r5,[r7,#0x2c]
        0x080018b8:    e88c004f    ..O.    STM      r12,{r0-r3,r6}
        0x080018bc:    2005        .       MOVS     r0,#5
        0x080018be:    f8cb000c    ....    STR      r0,[r11,#0xc]
        0x080018c2:    6020         `      STR      r0,[r4,#0]
        0x080018c4:    f8db0000    ....    LDR      r0,[r11,#0]
        0x080018c8:    6038        8`      STR      r0,[r7,#0]
        0x080018ca:    f8d90008    ....    LDR      r0,[r9,#8]
        0x080018ce:    b128        (.      CBZ      r0,0x80018dc ; dhry + 516
        0x080018d0:    6800        .h      LDR      r0,[r0,#0]
        0x080018d2:    6038        8`      STR      r0,[r7,#0]
        0x080018d4:    f8d90008    ....    LDR      r0,[r9,#8]
        0x080018d8:    e001        ..      B        0x80018de ; dhry + 518
        0x080018da:    bf00        ..      NOP      
        0x080018dc:    2000        .       MOVS     r0,#0
        0x080018de:    f8d9100c    ....    LDR      r1,[r9,#0xc]
        0x080018e2:    f100020c    ....    ADD      r2,r0,#0xc
        0x080018e6:    200a        .       MOVS     r0,#0xa
        0x080018e8:    f7fff87c    ..|.    BL       Proc_7 ; 0x80009e4
        0x080018ec:    7938        8y      LDRB     r0,[r7,#4]
        0x080018ee:    b1d8        ..      CBZ      r0,0x8001928 ; dhry + 592
        0x080018f0:    f8db0000    ....    LDR      r0,[r11,#0]
        0x080018f4:    e890008e    ....    LDM      r0,{r1-r3,r7}
        0x080018f8:    e9d05604    ...V    LDRD     r5,r6,[r0,#0x10]
        0x080018fc:    e9cb5604    ...V    STRD     r5,r6,[r11,#0x10]
        0x08001900:    e88b008e    ....    STM      r11,{r1-r3,r7}
        0x08001904:    f1000718    ....    ADD      r7,r0,#0x18
        0x08001908:    e9d0600a    ...`    LDRD     r6,r0,[r0,#0x28]
        0x0800190c:    cf8e        ..      LDM      r7,{r1-r3,r7}
        0x0800190e:    e9cb600a    ...`    STRD     r6,r0,[r11,#0x28]
        0x08001912:    f10b0018    ....    ADD      r0,r11,#0x18
        0x08001916:    c08e        ..      STM      r0!,{r1-r3,r7}
        0x08001918:    f8990001    ....    LDRB     r0,[r9,#1]
        0x0800191c:    f10d0b67    ..g.    ADD      r11,sp,#0x67
        0x08001920:    2841        A(      CMP      r0,#0x41
        0x08001922:    f4ffaf71    ..q.    BCC      0x8001808 ; dhry + 304
        0x08001926:    e017        ..      B        0x8001958 ; dhry + 640
        0x08001928:    2006        .       MOVS     r0,#6
        0x0800192a:    60f8        .`      STR      r0,[r7,#0xc]
        0x0800192c:    f89b0008    ....    LDRB     r0,[r11,#8]
        0x08001930:    f1070108    ....    ADD      r1,r7,#8
        0x08001934:    f7fff838    ..8.    BL       Proc_6 ; 0x80009a8
        0x08001938:    f8d90008    ....    LDR      r0,[r9,#8]
        0x0800193c:    4622        "F      MOV      r2,r4
        0x0800193e:    6801        .h      LDR      r1,[r0,#0]
        0x08001940:    68f8        .h      LDR      r0,[r7,#0xc]
        0x08001942:    6039        9`      STR      r1,[r7,#0]
        0x08001944:    210a        .!      MOVS     r1,#0xa
        0x08001946:    f7fff84d    ..M.    BL       Proc_7 ; 0x80009e4
        0x0800194a:    f8990001    ....    LDRB     r0,[r9,#1]
        0x0800194e:    f10d0b67    ..g.    ADD      r11,sp,#0x67
        0x08001952:    2841        A(      CMP      r0,#0x41
        0x08001954:    f4ffaf58    ..X.    BCC      0x8001808 ; dhry + 304
        0x08001958:    2441        A$      MOVS     r4,#0x41
        0x0800195a:    2703        .'      MOVS     r7,#3
        0x0800195c:    e007        ..      B        0x800196e ; dhry + 662
        0x0800195e:    bf00        ..      NOP      
        0x08001960:    3401        .4      ADDS     r4,#1
        0x08001962:    f8990001    ....    LDRB     r0,[r9,#1]
        0x08001966:    b2e1        ..      UXTB     r1,r4
        0x08001968:    4281        .B      CMP      r1,r0
        0x0800196a:    f63faf4e    ?.N.    BHI      0x800180a ; dhry + 306
        0x0800196e:    f89d5067    ..gP    LDRB     r5,[sp,#0x67]
        0x08001972:    b2e0        ..      UXTB     r0,r4
        0x08001974:    2143        C!      MOVS     r1,#0x43
        0x08001976:    f7feff93    ....    BL       Func_1 ; 0x80008a0
        0x0800197a:    4285        .B      CMP      r5,r0
        0x0800197c:    d1f0        ..      BNE      0x8001960 ; dhry + 648
        0x0800197e:    2000        .       MOVS     r0,#0
        0x08001980:    4659        YF      MOV      r1,r11
        0x08001982:    f7fff811    ....    BL       Proc_6 ; 0x80009a8
        0x08001986:    e898008f    ....    LDM      r8,{r0-r3,r7}
        0x0800198a:    f10d0c24    ..$.    ADD      r12,sp,#0x24
        0x0800198e:    e88c008f    ....    STM      r12,{r0-r3,r7}
        0x08001992:    f8b8001c    ....    LDRH     r0,[r8,#0x1c]
        0x08001996:    e9d86505    ...e    LDRD     r6,r5,[r8,#0x14]
        0x0800199a:    f8ad0040    ..@.    STRH     r0,[sp,#0x40]
        0x0800199e:    f898001e    ....    LDRB     r0,[r8,#0x1e]
        0x080019a2:    4657        WF      MOV      r7,r10
        0x080019a4:    960e        ..      STR      r6,[sp,#0x38]
        0x080019a6:    950f        ..      STR      r5,[sp,#0x3c]
        0x080019a8:    f88d0042    ..B.    STRB     r0,[sp,#0x42]
        0x080019ac:    f8c9a00c    ....    STR      r10,[r9,#0xc]
        0x080019b0:    e7d6        ..      B        0x8001960 ; dhry + 648
        0x080019b2:    981a        ..      LDR      r0,[sp,#0x68]
        0x080019b4:    eb070347    ..G.    ADD      r3,r7,r7,LSL #1
        0x080019b8:    fb93f7f0    ....    SDIV     r7,r3,r0
        0x080019bc:    1a18        ..      SUBS     r0,r3,r0
        0x080019be:    f8d9100c    ....    LDR      r1,[r9,#0xc]
        0x080019c2:    f8992000    ...     LDRB     r2,[r9,#0]
        0x080019c6:    ebc000c0    ....    RSB      r0,r0,r0,LSL #3
        0x080019ca:    1bc0        ..      SUBS     r0,r0,r7
        0x080019cc:    9008        ..      STR      r0,[sp,#0x20]
        0x080019ce:    1a78        x.      SUBS     r0,r7,r1
        0x080019d0:    2a41        A*      CMP      r2,#0x41
        0x080019d2:    bf08        ..      IT       EQ
        0x080019d4:    f1000709    ....    ADDEQ    r7,r0,#9
        0x080019d8:    f7fffe78    ..x.    BL       clock111 ; 0x80016cc
        0x080019dc:    f8c9001c    ....    STR      r0,[r9,#0x1c]
        0x080019e0:    f642506b    B.kP    MOV      r0,#0x2d6b
        0x080019e4:    f6c00000    ....    MOVT     r0,#0x800
        0x080019e8:    f000ff1c    ....    BL       puts ; 0x8002824
        0x080019ec:    200a        .       MOVS     r0,#0xa
        0x080019ee:    f000ff13    ....    BL       putchar ; 0x8002818
        0x080019f2:    f64230f2    B..0    MOV      r0,#0x2bf2
        0x080019f6:    f6c00000    ....    MOVT     r0,#0x800
        0x080019fa:    f000ff13    ....    BL       puts ; 0x8002824
        0x080019fe:    200a        .       MOVS     r0,#0xa
        0x08001a00:    f000ff0a    ....    BL       putchar ; 0x8002818
        0x08001a04:    f8d9100c    ....    LDR      r1,[r9,#0xc]
        0x08001a08:    f6421051    B.Q.    MOV      r0,#0x2951
        0x08001a0c:    f6c00000    ....    MOVT     r0,#0x800
        0x08001a10:    f000fa88    ....    BL       __0printf ; 0x8001f24
        0x08001a14:    f6422564    B.d%    MOV      r5,#0x2a64
        0x08001a18:    f6c00500    ....    MOVT     r5,#0x800
        0x08001a1c:    4628        (F      MOV      r0,r5
        0x08001a1e:    2105        .!      MOVS     r1,#5
        0x08001a20:    f000fa80    ....    BL       __0printf ; 0x8001f24
        0x08001a24:    f8d91010    ....    LDR      r1,[r9,#0x10]
        0x08001a28:    f6421083    B...    MOV      r0,#0x2983
        0x08001a2c:    f6c00000    ....    MOVT     r0,#0x800
        0x08001a30:    f000fa78    ..x.    BL       __0printf ; 0x8001f24
        0x08001a34:    4628        (F      MOV      r0,r5
        0x08001a36:    2101        .!      MOVS     r1,#1
        0x08001a38:    f000fa74    ..t.    BL       __0printf ; 0x8001f24
        0x08001a3c:    f8991000    ....    LDRB     r1,[r9,#0]
        0x08001a40:    f64200ed    B...    MOV      r0,#0x28ed
        0x08001a44:    f6c00000    ....    MOVT     r0,#0x800
        0x08001a48:    f000fa6c    ..l.    BL       __0printf ; 0x8001f24
        0x08001a4c:    f642141f    B...    MOV      r4,#0x291f
        0x08001a50:    f6c00400    ....    MOVT     r4,#0x800
        0x08001a54:    4620         F      MOV      r0,r4
        0x08001a56:    2141        A!      MOVS     r1,#0x41
        0x08001a58:    f000fa64    ..d.    BL       __0printf ; 0x8001f24
        0x08001a5c:    f8991001    ....    LDRB     r1,[r9,#1]
        0x08001a60:    f6421006    B...    MOV      r0,#0x2906
        0x08001a64:    f6c00000    ....    MOVT     r0,#0x800
        0x08001a68:    f000fa5c    ..\.    BL       __0printf ; 0x8001f24
        0x08001a6c:    4620         F      MOV      r0,r4
        0x08001a6e:    2142        B!      MOVS     r1,#0x42
        0x08001a70:    f000fa58    ..X.    BL       __0printf ; 0x8001f24
        0x08001a74:    f24000c4    @...    MOVW     r0,#0xc4
        0x08001a78:    f2c20000    ....    MOVT     r0,#0x2000
        0x08001a7c:    6a01        .j      LDR      r1,[r0,#0x20]
        0x08001a7e:    f6422032    B.2     MOV      r0,#0x2a32
        0x08001a82:    f6c00000    ....    MOVT     r0,#0x800
        0x08001a86:    f000fa4d    ..M.    BL       __0printf ; 0x8001f24
        0x08001a8a:    4628        (F      MOV      r0,r5
        0x08001a8c:    2107        .!      MOVS     r1,#7
        0x08001a8e:    f000fa49    ..I.    BL       __0printf ; 0x8001f24
        0x08001a92:    f240108c    @...    MOVW     r0,#0x18c
        0x08001a96:    f2c20000    ....    MOVT     r0,#0x2000
        0x08001a9a:    f8d0165c    ..\.    LDR      r1,[r0,#0x65c]
        0x08001a9e:    f642204b    B.K     MOV      r0,#0x2a4b
        0x08001aa2:    f6c00000    ....    MOVT     r0,#0x800
        0x08001aa6:    f000fa3d    ..=.    BL       __0printf ; 0x8001f24
        0x08001aaa:    f64230c9    B..0    MOV      r0,#0x2bc9
        0x08001aae:    f6c00000    ....    MOVT     r0,#0x800
        0x08001ab2:    f000feb7    ....    BL       puts ; 0x8002824
        0x08001ab6:    f642402c    B.,@    MOV      r0,#0x2c2c
        0x08001aba:    f6c00000    ....    MOVT     r0,#0x800
        0x08001abe:    f000feb1    ....    BL       puts ; 0x8002824
        0x08001ac2:    f8d90008    ....    LDR      r0,[r9,#8]
        0x08001ac6:    6801        .h      LDR      r1,[r0,#0]
        0x08001ac8:    f64210e7    B...    MOV      r0,#0x29e7
        0x08001acc:    f6c00000    ....    MOVT     r0,#0x800
        0x08001ad0:    f000fa28    ..(.    BL       __0printf ; 0x8001f24
        0x08001ad4:    f6423099    B..0    MOV      r0,#0x2b99
        0x08001ad8:    f6c00000    ....    MOVT     r0,#0x800
        0x08001adc:    f000fea2    ....    BL       puts ; 0x8002824
        0x08001ae0:    f8d90008    ....    LDR      r0,[r9,#8]
        0x08001ae4:    f6421a38    B.8.    MOV      r10,#0x2938
        0x08001ae8:    7901        .y      LDRB     r1,[r0,#4]
        0x08001aea:    f6c00a00    ....    MOVT     r10,#0x800
        0x08001aee:    4650        PF      MOV      r0,r10
        0x08001af0:    f000fa18    ....    BL       __0printf ; 0x8001f24
        0x08001af4:    4628        (F      MOV      r0,r5
        0x08001af6:    2100        .!      MOVS     r1,#0
        0x08001af8:    f000fa14    ....    BL       __0printf ; 0x8001f24
        0x08001afc:    f8d90008    ....    LDR      r0,[r9,#8]
        0x08001b00:    f6422b19    B..+    MOV      r11,#0x2a19
        0x08001b04:    7a01        .z      LDRB     r1,[r0,#8]
        0x08001b06:    f6c00b00    ....    MOVT     r11,#0x800
        0x08001b0a:    4658        XF      MOV      r0,r11
        0x08001b0c:    f000fa0a    ....    BL       __0printf ; 0x8001f24
        0x08001b10:    4628        (F      MOV      r0,r5
        0x08001b12:    2102        .!      MOVS     r1,#2
        0x08001b14:    f000fa06    ....    BL       __0printf ; 0x8001f24
        0x08001b18:    f8d90008    ....    LDR      r0,[r9,#8]
        0x08001b1c:    f6422600    B..&    MOVW     r6,#0x2a00
        0x08001b20:    68c1        .h      LDR      r1,[r0,#0xc]
        0x08001b22:    f6c00600    ....    MOVT     r6,#0x800
        0x08001b26:    4630        0F      MOV      r0,r6
        0x08001b28:    f000f9fc    ....    BL       __0printf ; 0x8001f24
        0x08001b2c:    4628        (F      MOV      r0,r5
        0x08001b2e:    2111        .!      MOVS     r1,#0x11
        0x08001b30:    f000f9f8    ....    BL       __0printf ; 0x8001f24
        0x08001b34:    f8d90008    ....    LDR      r0,[r9,#8]
        0x08001b38:    f64224af    B..$    MOV      r4,#0x2aaf
        0x08001b3c:    f6c00400    ....    MOVT     r4,#0x800
        0x08001b40:    f1000110    ....    ADD      r1,r0,#0x10
        0x08001b44:    4620         F      MOV      r0,r4
        0x08001b46:    f000f9ed    ....    BL       __0printf ; 0x8001f24
        0x08001b4a:    f642486b    B.kH    MOV      r8,#0x2c6b
        0x08001b4e:    f6c00800    ....    MOVT     r8,#0x800
        0x08001b52:    4640        @F      MOV      r0,r8
        0x08001b54:    f000fe66    ..f.    BL       puts ; 0x8002824
        0x08001b58:    f6424027    B.'@    MOV      r0,#0x2c27
        0x08001b5c:    f6c00000    ....    MOVT     r0,#0x800
        0x08001b60:    f000fe60    ..`.    BL       puts ; 0x8002824
        0x08001b64:    f8d90014    ....    LDR      r0,[r9,#0x14]
        0x08001b68:    6801        .h      LDR      r1,[r0,#0]
        0x08001b6a:    f64210e7    B...    MOV      r0,#0x29e7
        0x08001b6e:    f6c00000    ....    MOVT     r0,#0x800
        0x08001b72:    f000f9d7    ....    BL       __0printf ; 0x8001f24
        0x08001b76:    f642502c    B.,P    MOV      r0,#0x2d2c
        0x08001b7a:    f6c00000    ....    MOVT     r0,#0x800
        0x08001b7e:    f000fe51    ..Q.    BL       puts ; 0x8002824
        0x08001b82:    f8d90014    ....    LDR      r0,[r9,#0x14]
        0x08001b86:    7901        .y      LDRB     r1,[r0,#4]
        0x08001b88:    4650        PF      MOV      r0,r10
        0x08001b8a:    f000f9cb    ....    BL       __0printf ; 0x8001f24
        0x08001b8e:    4628        (F      MOV      r0,r5
        0x08001b90:    2100        .!      MOVS     r1,#0
        0x08001b92:    f000f9c7    ....    BL       __0printf ; 0x8001f24
        0x08001b96:    f8d90014    ....    LDR      r0,[r9,#0x14]
        0x08001b9a:    7a01        .z      LDRB     r1,[r0,#8]
        0x08001b9c:    4658        XF      MOV      r0,r11
        0x08001b9e:    f000f9c1    ....    BL       __0printf ; 0x8001f24
        0x08001ba2:    4628        (F      MOV      r0,r5
        0x08001ba4:    2101        .!      MOVS     r1,#1
        0x08001ba6:    f000f9bd    ....    BL       __0printf ; 0x8001f24
        0x08001baa:    f8d90014    ....    LDR      r0,[r9,#0x14]
        0x08001bae:    68c1        .h      LDR      r1,[r0,#0xc]
        0x08001bb0:    4630        0F      MOV      r0,r6
        0x08001bb2:    f000f9b7    ....    BL       __0printf ; 0x8001f24
        0x08001bb6:    4628        (F      MOV      r0,r5
        0x08001bb8:    2112        .!      MOVS     r1,#0x12
        0x08001bba:    f000f9b3    ....    BL       __0printf ; 0x8001f24
        0x08001bbe:    f8d90014    ....    LDR      r0,[r9,#0x14]
        0x08001bc2:    f1000110    ....    ADD      r1,r0,#0x10
        0x08001bc6:    4620         F      MOV      r0,r4
        0x08001bc8:    f000f9ac    ....    BL       __0printf ; 0x8001f24
        0x08001bcc:    4640        @F      MOV      r0,r8
        0x08001bce:    f000fe29    ..).    BL       puts ; 0x8002824
        0x08001bd2:    f642109c    B...    MOV      r0,#0x299c
        0x08001bd6:    f6c00000    ....    MOVT     r0,#0x800
        0x08001bda:    4639        9F      MOV      r1,r7
        0x08001bdc:    f000f9a2    ....    BL       __0printf ; 0x8001f24
        0x08001be0:    4628        (F      MOV      r0,r5
        0x08001be2:    2105        .!      MOVS     r1,#5
        0x08001be4:    f000f99e    ....    BL       __0printf ; 0x8001f24
        0x08001be8:    f64210b5    B...    MOV      r0,#0x29b5
        0x08001bec:    9908        ..      LDR      r1,[sp,#0x20]
        0x08001bee:    f6c00000    ....    MOVT     r0,#0x800
        0x08001bf2:    f000f997    ....    BL       __0printf ; 0x8001f24
        0x08001bf6:    4628        (F      MOV      r0,r5
        0x08001bf8:    210d        .!      MOVS     r1,#0xd
        0x08001bfa:    f000f993    ....    BL       __0printf ; 0x8001f24
        0x08001bfe:    991a        ..      LDR      r1,[sp,#0x68]
        0x08001c00:    f64210ce    B...    MOV      r0,#0x29ce
        0x08001c04:    f6c00000    ....    MOVT     r0,#0x800
        0x08001c08:    f000f98c    ....    BL       __0printf ; 0x8001f24
        0x08001c0c:    4628        (F      MOV      r0,r5
        0x08001c0e:    2107        .!      MOVS     r1,#7
        0x08001c10:    f000f988    ....    BL       __0printf ; 0x8001f24
        0x08001c14:    f89d1067    ..g.    LDRB     r1,[sp,#0x67]
        0x08001c18:    f642106a    B.j.    MOV      r0,#0x296a
        0x08001c1c:    f6c00000    ....    MOVT     r0,#0x800
        0x08001c20:    f000f980    ....    BL       __0printf ; 0x8001f24
        0x08001c24:    4628        (F      MOV      r0,r5
        0x08001c26:    2101        .!      MOVS     r1,#1
        0x08001c28:    f000f97c    ..|.    BL       __0printf ; 0x8001f24
        0x08001c2c:    f642207d    B.}     MOV      r0,#0x2a7d
        0x08001c30:    f6c00000    ....    MOVT     r0,#0x800
        0x08001c34:    a911        ..      ADD      r1,sp,#0x44
        0x08001c36:    f000f975    ..u.    BL       __0printf ; 0x8001f24
        0x08001c3a:    f642409f    B..@    MOV      r0,#0x2c9f
        0x08001c3e:    f6c00000    ....    MOVT     r0,#0x800
        0x08001c42:    f000fdef    ....    BL       puts ; 0x8002824
        0x08001c46:    f6422096    B..     MOV      r0,#0x2a96
        0x08001c4a:    f6c00000    ....    MOVT     r0,#0x800
        0x08001c4e:    a909        ..      ADD      r1,sp,#0x24
        0x08001c50:    f000f968    ..h.    BL       __0printf ; 0x8001f24
        0x08001c54:    f6424037    B.7@    MOV      r0,#0x2c37
        0x08001c58:    f6c00000    ....    MOVT     r0,#0x800
        0x08001c5c:    f000fde2    ....    BL       puts ; 0x8002824
        0x08001c60:    200a        .       MOVS     r0,#0xa
        0x08001c62:    f000fdd9    ....    BL       putchar ; 0x8002818
        0x08001c66:    e9d90106    ....    LDRD     r0,r1,[r9,#0x18]
        0x08001c6a:    1a09        ..      SUBS     r1,r1,r0
        0x08001c6c:    f64200c9    B...    MOV      r0,#0x28c9
        0x08001c70:    f6c00000    ....    MOVT     r0,#0x800
        0x08001c74:    f8c91020    .. .    STR      r1,[r9,#0x20]
        0x08001c78:    f000f954    ..T.    BL       __0printf ; 0x8001f24
        0x08001c7c:    f8d90020    .. .    LDR      r0,[r9,#0x20]
        0x08001c80:    28c7        .(      CMP      r0,#0xc7
        0x08001c82:    dc0c        ..      BGT      0x8001c9e ; dhry + 1478
        0x08001c84:    f6425099    B..P    MOV      r0,#0x2d99
        0x08001c88:    f6c00000    ....    MOVT     r0,#0x800
        0x08001c8c:    f000fdca    ....    BL       puts ; 0x8002824
        0x08001c90:    f642507a    B.zP    MOV      r0,#0x2d7a
        0x08001c94:    f6c00000    ....    MOVT     r0,#0x800
        0x08001c98:    f000fdc4    ....    BL       puts ; 0x8002824
        0x08001c9c:    e07c        |.      B        0x8001d98 ; dhry + 1728
        0x08001c9e:    f7fefb5d    ..].    BL       __aeabi_i2f ; 0x800035c
        0x08001ca2:    f241216f    A.o!    MOV      r1,#0x126f
        0x08001ca6:    f6c32183    ...!    MOVT     r1,#0x3a83
        0x08001caa:    4604        .F      MOV      r4,r0
        0x08001cac:    f7fefa74    ..t.    BL       __aeabi_fmul ; 0x8000198
        0x08001cb0:    f8c90024    ..$.    STR      r0,[r9,#0x24]
        0x08001cb4:    f6463028    F.(0    MOV      r0,#0x6b28
        0x08001cb8:    f6c4606e    ..n`    MOVT     r0,#0x4e6e
        0x08001cbc:    4621        !F      MOV      r1,r4
        0x08001cbe:    f7fefa9d    ....    BL       __aeabi_fdiv ; 0x80001fc
        0x08001cc2:    f8c90028    ..(.    STR      r0,[r9,#0x28]
        0x08001cc6:    f7fefb57    ..W.    BL       __aeabi_f2d ; 0x8000378
        0x08001cca:    f24f224e    O.N"    MOV      r2,#0xf24e
        0x08001cce:    f24a6364    J.dc    MOV      r3,#0xa664
        0x08001cd2:    f6c802f5    ....    MOVT     r2,#0x88f5
        0x08001cd6:    f6c37342    ..Bs    MOVT     r3,#0x3f42
        0x08001cda:    f7fefacd    ....    BL       __aeabi_dmul ; 0x8000278
        0x08001cde:    f7fefb5e    ..^.    BL       __aeabi_d2f ; 0x800039e
        0x08001ce2:    f2400104    @...    MOVW     r1,#4
        0x08001ce6:    f2c20100    ....    MOVT     r1,#0x2000
        0x08001cea:    6809        .h      LDR      r1,[r1,#0]
        0x08001cec:    f64d6283    M..b    MOV      r2,#0xde83
        0x08001cf0:    f2c4321b    ...2    MOVT     r2,#0x431b
        0x08001cf4:    fba11202    ....    UMULL    r1,r2,r1,r2
        0x08001cf8:    4604        .F      MOV      r4,r0
        0x08001cfa:    f8c9002c    ..,.    STR      r0,[r9,#0x2c]
        0x08001cfe:    0c90        ..      LSRS     r0,r2,#18
        0x08001d00:    f7fefb35    ..5.    BL       __aeabi_ui2f ; 0x800036e
        0x08001d04:    4601        .F      MOV      r1,r0
        0x08001d06:    4620         F      MOV      r0,r4
        0x08001d08:    f7fefa78    ..x.    BL       __aeabi_fdiv ; 0x80001fc
        0x08001d0c:    f8c90030    ..0.    STR      r0,[r9,#0x30]
        0x08001d10:    f642303d    B.=0    MOV      r0,#0x2b3d
        0x08001d14:    f6c00000    ....    MOVT     r0,#0x800
        0x08001d18:    f000f904    ....    BL       __0printf ; 0x8001f24
        0x08001d1c:    f8d90024    ..$.    LDR      r0,[r9,#0x24]
        0x08001d20:    f7fefb2a    ..*.    BL       __aeabi_f2d ; 0x8000378
        0x08001d24:    f64204dc    B...    MOV      r4,#0x28dc
        0x08001d28:    f6c00400    ....    MOVT     r4,#0x800
        0x08001d2c:    4602        .F      MOV      r2,r0
        0x08001d2e:    4620         F      MOV      r0,r4
        0x08001d30:    460b        .F      MOV      r3,r1
        0x08001d32:    f000f8f7    ....    BL       __0printf ; 0x8001f24
        0x08001d36:    f6423010    B..0    MOV      r0,#0x2b10
        0x08001d3a:    f6c00000    ....    MOVT     r0,#0x800
        0x08001d3e:    f000f8f1    ....    BL       __0printf ; 0x8001f24
        0x08001d42:    f8d90028    ..(.    LDR      r0,[r9,#0x28]
        0x08001d46:    f7fefb17    ....    BL       __aeabi_f2d ; 0x8000378
        0x08001d4a:    4602        .F      MOV      r2,r0
        0x08001d4c:    4620         F      MOV      r0,r4
        0x08001d4e:    460b        .F      MOV      r3,r1
        0x08001d50:    f000f8e8    ....    BL       __0printf ; 0x8001f24
        0x08001d54:    f64220c8    B..     MOV      r0,#0x2ac8
        0x08001d58:    f6c00000    ....    MOVT     r0,#0x800
        0x08001d5c:    f000f8e2    ....    BL       __0printf ; 0x8001f24
        0x08001d60:    f8d9002c    ..,.    LDR      r0,[r9,#0x2c]
        0x08001d64:    f7fefb08    ....    BL       __aeabi_f2d ; 0x8000378
        0x08001d68:    f64204e4    B...    MOV      r4,#0x28e4
        0x08001d6c:    f6c00400    ....    MOVT     r4,#0x800
        0x08001d70:    4602        .F      MOV      r2,r0
        0x08001d72:    4620         F      MOV      r0,r4
        0x08001d74:    460b        .F      MOV      r3,r1
        0x08001d76:    f000f8d5    ....    BL       __0printf ; 0x8001f24
        0x08001d7a:    f64220ea    B..     MOV      r0,#0x2aea
        0x08001d7e:    f6c00000    ....    MOVT     r0,#0x800
        0x08001d82:    f000f8cf    ....    BL       __0printf ; 0x8001f24
        0x08001d86:    f8d90030    ..0.    LDR      r0,[r9,#0x30]
        0x08001d8a:    f7fefaf5    ....    BL       __aeabi_f2d ; 0x8000378
        0x08001d8e:    4602        .F      MOV      r2,r0
        0x08001d90:    4620         F      MOV      r0,r4
        0x08001d92:    460b        .F      MOV      r3,r1
        0x08001d94:    f000f8c6    ....    BL       __0printf ; 0x8001f24
        0x08001d98:    200a        .       MOVS     r0,#0xa
        0x08001d9a:    f000fd3d    ..=.    BL       putchar ; 0x8002818
        0x08001d9e:    2000        .       MOVS     r0,#0
        0x08001da0:    b01b        ..      ADD      sp,sp,#0x6c
        0x08001da2:    e8bd8ff0    ....    POP      {r4-r11,pc}
        0x08001da6:    bf00        ..      NOP      
    $d.6
        0x08001da8:    59524844    DHRY    DCD    1498564676
        0x08001dac:    4e4f5453    STON    DCD    1313821779
        0x08001db0:    52502045    E PR    DCD    1380982853
        0x08001db4:    4152474f    OGRA    DCD    1095911247
        0x08001db8:    31202c4d    M, 1    DCD    824192077
        0x08001dbc:    20545327    'ST     DCD    542397223
        0x08001dc0:    49525453    STRI    DCD    1230132307
        0x08001dc4:    0000474e    NG..    DCD    18254
        0x08001dc8:    61656c50    Plea    DCD    1634036816
        0x08001dcc:    67206573    se g    DCD    1730176371
        0x08001dd0:    20657669    ive     DCD    543520361
        0x08001dd4:    20656874    the     DCD    543516788
        0x08001dd8:    626d756e    numb    DCD    1651340654
        0x08001ddc:    6f207265    er o    DCD    1864397413
        0x08001de0:    75722066    f ru    DCD    1970413670
        0x08001de4:    7420736e    ns t    DCD    1948283758
        0x08001de8:    756f7268    hrou    DCD    1970238056
        0x08001dec:    74206867    gh t    DCD    1948280935
        0x08001df0:    62206568    he b    DCD    1646290280
        0x08001df4:    68636e65    ench    DCD    1751346789
        0x08001df8:    6b72616d    mark    DCD    1802658157
        0x08001dfc:    0000203a    : ..    DCD    8250
        0x08001e00:    63657845    Exec    DCD    1667594309
        0x08001e04:    6f697475    utio    DCD    1869182069
        0x08001e08:    7473206e    n st    DCD    1953701998
        0x08001e0c:    73747261    arts    DCD    1937011297
        0x08001e10:    6425202c    , %d    DCD    1680154668
        0x08001e14:    6e757220     run    DCD    1853190688
        0x08001e18:    68742073    s th    DCD    1752440947
        0x08001e1c:    67756f72    roug    DCD    1735749490
        0x08001e20:    68442068    h Dh    DCD    1749295208
        0x08001e24:    74737972    ryst    DCD    1953724786
        0x08001e28:    0a656e6f    one.    DCD    174419567
        0x08001e2c:    00000000    ....    DCD    0
    $t.2
    fputc
        0x08001e30:    b510        ..      PUSH     {r4,lr}
        0x08001e32:    4604        .F      MOV      r4,r0
        0x08001e34:    b2c1        ..      UXTB     r1,r0
        0x08001e36:    2000        .       MOVS     r0,#0
        0x08001e38:    f7fefe3c    ..<.    BL       SEGGER_RTT_PutChar ; 0x8000ab4
        0x08001e3c:    4620         F      MOV      r0,r4
        0x08001e3e:    bd10        ..      POP      {r4,pc}
    main
        0x08001e40:    f7fefe00    ....    BL       SEGGER_RTT_Init ; 0x8000a44
        0x08001e44:    f642017f    B...    MOV      r1,#0x287f
        0x08001e48:    f64202b8    B...    MOV      r2,#0x28b8
        0x08001e4c:    f64203b3    B...    MOV      r3,#0x28b3
        0x08001e50:    f6c00100    ....    MOVT     r1,#0x800
        0x08001e54:    f6c00200    ....    MOVT     r2,#0x800
        0x08001e58:    f6c00300    ....    MOVT     r3,#0x800
        0x08001e5c:    2000        .       MOVS     r0,#0
        0x08001e5e:    2400        .$      MOVS     r4,#0
        0x08001e60:    f7feffaa    ....    BL       SEGGER_RTT_printf ; 0x8000db8
        0x08001e64:    f6420168    B.h.    MOV      r1,#0x2868
        0x08001e68:    f642029e    B...    MOV      r2,#0x289e
        0x08001e6c:    f64203aa    B...    MOV      r3,#0x28aa
        0x08001e70:    f6c00100    ....    MOVT     r1,#0x800
        0x08001e74:    f6c00200    ....    MOVT     r2,#0x800
        0x08001e78:    f6c00300    ....    MOVT     r3,#0x800
        0x08001e7c:    2000        .       MOVS     r0,#0
        0x08001e7e:    f7feff9b    ....    BL       SEGGER_RTT_printf ; 0x8000db8
        0x08001e82:    a016        ..      ADR      r0,{pc}+0x5a ; 0x8001edc
        0x08001e84:    f000fcce    ....    BL       puts ; 0x8002824
        0x08001e88:    f2400004    @...    MOVW     r0,#4
        0x08001e8c:    f2c20000    ....    MOVT     r0,#0x2000
        0x08001e90:    6800        .h      LDR      r0,[r0,#0]
        0x08001e92:    f64451d3    D..Q    MOV      r1,#0x4dd3
        0x08001e96:    f2c10162    ..b.    MOVT     r1,#0x1062
        0x08001e9a:    fba00101    ....    UMULL    r0,r1,r0,r1
        0x08001e9e:    f04f30ff    O..0    MOV      r0,#0xffffffff
        0x08001ea2:    eb001091    ....    ADD      r0,r0,r1,LSR #6
        0x08001ea6:    f1b07f80    ....    CMP      r0,#0x1000000
        0x08001eaa:    d300        ..      BCC      0x8001eae ; main + 110
        0x08001eac:    e7fe        ..      B        0x8001eac ; main + 108
        0x08001eae:    f24e0110    N...    MOV      r1,#0xe010
        0x08001eb2:    f2ce0100    ....    MOVT     r1,#0xe000
        0x08001eb6:    6048        H`      STR      r0,[r1,#4]
        0x08001eb8:    f64e5023    N.#P    MOV      r0,#0xed23
        0x08001ebc:    f2ce0000    ....    MOVT     r0,#0xe000
        0x08001ec0:    22f0        ."      MOVS     r2,#0xf0
        0x08001ec2:    7002        .p      STRB     r2,[r0,#0]
        0x08001ec4:    608c        .`      STR      r4,[r1,#8]
        0x08001ec6:    2007        .       MOVS     r0,#7
        0x08001ec8:    a40b        ..      ADR      r4,{pc}+0x30 ; 0x8001ef8
        0x08001eca:    6008        .`      STR      r0,[r1,#0]
        0x08001ecc:    f7fffbfc    ....    BL       app ; 0x80016c8
        0x08001ed0:    4620         F      MOV      r0,r4
        0x08001ed2:    f000fca7    ....    BL       puts ; 0x8002824
        0x08001ed6:    f7fffbff    ....    BL       dhry ; 0x80016d8
        0x08001eda:    e7f7        ..      B        0x8001ecc ; main + 140
    $d.6
        0x08001edc:    636d6172    ramc    DCD    1668112754
        0x08001ee0:    2065646f    ode     DCD    543515759
        0x08001ee4:    676f7270    prog    DCD    1735357040
        0x08001ee8:    206d6172    ram     DCD    544039282
        0x08001eec:    69676562    begi    DCD    1768383842
        0x08001ef0:    2e2e2e6e    n...    DCD    774778478
        0x08001ef4:    0000000d    ....    DCD    13
        0x08001ef8:    79726844    Dhry    DCD    2037540932
        0x08001efc:    6e6f7473    ston    DCD    1852798067
        0x08001f00:    65542065    e Te    DCD    1700012133
        0x08001f04:    53207473    st S    DCD    1394635891
        0x08001f08:    74726174    tart    DCD    1953653108
        0x08001f0c:    0000000d    ....    DCD    13
    $t
    OSKERNEL
    HardFault_Handler
        0x08001f10:    f01e0f04    ....    TST      lr,#4
        0x08001f14:    bf0c        ..      ITE      EQ
        0x08001f16:    f3ef8008    ....    MRSEQ    r0,MSP
        0x08001f1a:    f3ef8009    ....    MRSNE    r0,PSP
        0x08001f1e:    f7febcef    ....    B        HardFaultHandler ; 0x8000900
        0x08001f22:    0000        ..      MOVS     r0,r0
    i.__0printf
    __0printf
    __1printf
    __2printf
    __c89printf
    printf
        0x08001f24:    b40f        ..      PUSH     {r0-r3}
        0x08001f26:    4b05        .K      LDR      r3,[pc,#20] ; [0x8001f3c] = 0x8001e31
        0x08001f28:    b510        ..      PUSH     {r4,lr}
        0x08001f2a:    a903        ..      ADD      r1,sp,#0xc
        0x08001f2c:    4a04        .J      LDR      r2,[pc,#16] ; [0x8001f40] = 0x20000000
        0x08001f2e:    9802        ..      LDR      r0,[sp,#8]
        0x08001f30:    f000f8da    ....    BL       _printf_core ; 0x80020e8
        0x08001f34:    bc10        ..      POP      {r4}
        0x08001f36:    f85dfb14    ]...    LDR      pc,[sp],#0x14
    $d
        0x08001f3a:    0000        ..      DCW    0
        0x08001f3c:    08001e31    1...    DCD    134225457
        0x08001f40:    20000000    ...     DCD    536870912
    $t
    i.__scatterload_copy
    __scatterload_copy
        0x08001f44:    e002        ..      B        0x8001f4c ; __scatterload_copy + 8
        0x08001f46:    c808        ..      LDM      r0!,{r3}
        0x08001f48:    1f12        ..      SUBS     r2,r2,#4
        0x08001f4a:    c108        ..      STM      r1!,{r3}
        0x08001f4c:    2a00        .*      CMP      r2,#0
        0x08001f4e:    d1fa        ..      BNE      0x8001f46 ; __scatterload_copy + 2
        0x08001f50:    4770        pG      BX       lr
    i.__scatterload_null
    __scatterload_null
        0x08001f52:    4770        pG      BX       lr
    i.__scatterload_zeroinit
    __scatterload_zeroinit
        0x08001f54:    2000        .       MOVS     r0,#0
        0x08001f56:    e001        ..      B        0x8001f5c ; __scatterload_zeroinit + 8
        0x08001f58:    c101        ..      STM      r1!,{r0}
        0x08001f5a:    1f12        ..      SUBS     r2,r2,#4
        0x08001f5c:    2a00        .*      CMP      r2,#0
        0x08001f5e:    d1fb        ..      BNE      0x8001f58 ; __scatterload_zeroinit + 4
        0x08001f60:    4770        pG      BX       lr
        0x08001f62:    0000        ..      MOVS     r0,r0
    i._fp_digits
    _fp_digits
        0x08001f64:    e92d5fff    -.._    PUSH     {r0-r12,lr}
        0x08001f68:    b082        ..      SUB      sp,sp,#8
        0x08001f6a:    2100        .!      MOVS     r1,#0
        0x08001f6c:    e9dd3004    ...0    LDRD     r3,r0,[sp,#0x10]
        0x08001f70:    0d02        ..      LSRS     r2,r0,#20
        0x08001f72:    f8ddb040    ..@.    LDR      r11,[sp,#0x40]
        0x08001f76:    4303        .C      ORRS     r3,r3,r0
        0x08001f78:    d018        ..      BEQ      0x8001fac ; _fp_digits + 72
        0x08001f7a:    f6445010    D..P    MOV      r0,#0x4d10
        0x08001f7e:    f2a232ff    ...2    SUB      r2,r2,#0x3ff
        0x08001f82:    4342        BC      MULS     r2,r0,r2
        0x08001f84:    1415        ..      ASRS     r5,r2,#16
        0x08001f86:    9811        ..      LDR      r0,[sp,#0x44]
        0x08001f88:    2801        .(      CMP      r0,#1
        0x08001f8a:    d01f        ..      BEQ      0x8001fcc ; _fp_digits + 104
        0x08001f8c:    eba5000b    ....    SUB      r0,r5,r11
        0x08001f90:    1c40        @.      ADDS     r0,r0,#1
        0x08001f92:    ea5f0a00    _...    MOVS     r10,r0
        0x08001f96:    f04f0600    O...    MOV      r6,#0
        0x08001f9a:    4f4e        NO      LDR      r7,[pc,#312] ; [0x80020d4] = 0x40140000
        0x08001f9c:    f8df9138    ..8.    LDR      r9,[pc,#312] ; [0x80020d8] = 0x3ff00000
        0x08001fa0:    46b0        .F      MOV      r8,r6
        0x08001fa2:    4650        PF      MOV      r0,r10
        0x08001fa4:    d515        ..      BPL      0x8001fd2 ; _fp_digits + 110
        0x08001fa6:    f1ca0400    ....    RSB      r4,r10,#0
        0x08001faa:    e013        ..      B        0x8001fd4 ; _fp_digits + 112
        0x08001fac:    9811        ..      LDR      r0,[sp,#0x44]
        0x08001fae:    2401        .$      MOVS     r4,#1
        0x08001fb0:    a34a        J.      ADR      r3,{pc}+0x12c ; 0x80020dc
        0x08001fb2:    2801        .(      CMP      r0,#1
        0x08001fb4:    d101        ..      BNE      0x8001fba ; _fp_digits + 86
        0x08001fb6:    ea6f010b    o...    MVN      r1,r11
        0x08001fba:    9802        ..      LDR      r0,[sp,#8]
        0x08001fbc:    9a11        ..      LDR      r2,[sp,#0x44]
        0x08001fbe:    e9c03100    ...1    STRD     r3,r1,[r0,#0]
        0x08001fc2:    e9c04202    ...B    STRD     r4,r2,[r0,#8]
        0x08001fc6:    b006        ..      ADD      sp,sp,#0x18
        0x08001fc8:    e8bd9ff0    ....    POP      {r4-r12,pc}
        0x08001fcc:    f1cb0000    ....    RSB      r0,r11,#0
        0x08001fd0:    e7df        ..      B        0x8001f92 ; _fp_digits + 46
        0x08001fd2:    4604        .F      MOV      r4,r0
        0x08001fd4:    2100        .!      MOVS     r1,#0
        0x08001fd6:    4a40        @J      LDR      r2,[pc,#256] ; [0x80020d8] = 0x3ff00000
        0x08001fd8:    1849        I.      ADDS     r1,r1,r1
        0x08001fda:    eb425004    B..P    ADC      r0,r2,r4,LSL #20
        0x08001fde:    e9cd1000    ....    STRD     r1,r0,[sp,#0]
        0x08001fe2:    e012        ..      B        0x800200a ; _fp_digits + 166
        0x08001fe4:    07e0        ..      LSLS     r0,r4,#31
        0x08001fe6:    d007        ..      BEQ      0x8001ff8 ; _fp_digits + 148
        0x08001fe8:    4632        2F      MOV      r2,r6
        0x08001fea:    463b        ;F      MOV      r3,r7
        0x08001fec:    4640        @F      MOV      r0,r8
        0x08001fee:    4649        IF      MOV      r1,r9
        0x08001ff0:    f7fef942    ..B.    BL       __aeabi_dmul ; 0x8000278
        0x08001ff4:    4680        .F      MOV      r8,r0
        0x08001ff6:    4689        .F      MOV      r9,r1
        0x08001ff8:    4632        2F      MOV      r2,r6
        0x08001ffa:    463b        ;F      MOV      r3,r7
        0x08001ffc:    4610        .F      MOV      r0,r2
        0x08001ffe:    4619        .F      MOV      r1,r3
        0x08002000:    f7fef93a    ..:.    BL       __aeabi_dmul ; 0x8000278
        0x08002004:    4606        .F      MOV      r6,r0
        0x08002006:    460f        .F      MOV      r7,r1
        0x08002008:    1064        d.      ASRS     r4,r4,#1
        0x0800200a:    2c00        .,      CMP      r4,#0
        0x0800200c:    d1ea        ..      BNE      0x8001fe4 ; _fp_digits + 128
        0x0800200e:    e9dd0104    ....    LDRD     r0,r1,[sp,#0x10]
        0x08002012:    e9dd2300    ...#    LDRD     r2,r3,[sp,#0]
        0x08002016:    f1ba0f00    ....    CMP      r10,#0
        0x0800201a:    da06        ..      BGE      0x800202a ; _fp_digits + 198
        0x0800201c:    f7fef92c    ..,.    BL       __aeabi_dmul ; 0x8000278
        0x08002020:    4642        BF      MOV      r2,r8
        0x08002022:    464b        KF      MOV      r3,r9
        0x08002024:    f7fef928    ..(.    BL       __aeabi_dmul ; 0x8000278
        0x08002028:    e005        ..      B        0x8002036 ; _fp_digits + 210
        0x0800202a:    f7fefb56    ..V.    BL       __aeabi_ddiv ; 0x80006da
        0x0800202e:    4642        BF      MOV      r2,r8
        0x08002030:    464b        KF      MOV      r3,r9
        0x08002032:    f7fefb52    ..R.    BL       __aeabi_ddiv ; 0x80006da
        0x08002036:    4604        .F      MOV      r4,r0
        0x08002038:    460e        .F      MOV      r6,r1
        0x0800203a:    2200        ."      MOVS     r2,#0
        0x0800203c:    4b28        (K      LDR      r3,[pc,#160] ; [0x80020e0] = 0x43f00000
        0x0800203e:    f7fefbd3    ....    BL       __aeabi_cdrcmple ; 0x80007e8
        0x08002042:    d803        ..      BHI      0x800204c ; _fp_digits + 232
        0x08002044:    f04f30ff    O..0    MOV      r0,#0xffffffff
        0x08002048:    4601        .F      MOV      r1,r0
        0x0800204a:    e007        ..      B        0x800205c ; _fp_digits + 248
        0x0800204c:    2200        ."      MOVS     r2,#0
        0x0800204e:    4b25        %K      LDR      r3,[pc,#148] ; [0x80020e4] = 0x3fe00000
        0x08002050:    4620         F      MOV      r0,r4
        0x08002052:    4631        1F      MOV      r1,r6
        0x08002054:    f7fefa9a    ....    BL       __aeabi_dadd ; 0x800058c
        0x08002058:    f7fefbae    ....    BL       __aeabi_d2ulz ; 0x80007b8
        0x0800205c:    2410        .$      MOVS     r4,#0x10
        0x0800205e:    e009        ..      B        0x8002074 ; _fp_digits + 272
        0x08002060:    2c00        .,      CMP      r4,#0
        0x08002062:    db0a        ..      BLT      0x800207a ; _fp_digits + 278
        0x08002064:    220a        ."      MOVS     r2,#0xa
        0x08002066:    2300        .#      MOVS     r3,#0
        0x08002068:    f7fef9cb    ....    BL       __aeabi_uldivmod ; 0x8000402
        0x0800206c:    9b03        ..      LDR      r3,[sp,#0xc]
        0x0800206e:    3230        02      ADDS     r2,r2,#0x30
        0x08002070:    551a        .U      STRB     r2,[r3,r4]
        0x08002072:    1e64        d.      SUBS     r4,r4,#1
        0x08002074:    ea500201    P...    ORRS     r2,r0,r1
        0x08002078:    d1f2        ..      BNE      0x8002060 ; _fp_digits + 252
        0x0800207a:    1c64        d.      ADDS     r4,r4,#1
        0x0800207c:    9a03        ..      LDR      r2,[sp,#0xc]
        0x0800207e:    f1c40311    ....    RSB      r3,r4,#0x11
        0x08002082:    4414        .D      ADD      r4,r4,r2
        0x08002084:    9a11        ..      LDR      r2,[sp,#0x44]
        0x08002086:    2a01        .*      CMP      r2,#1
        0x08002088:    d003        ..      BEQ      0x8002092 ; _fp_digits + 302
        0x0800208a:    2201        ."      MOVS     r2,#1
        0x0800208c:    4308        .C      ORRS     r0,r0,r1
        0x0800208e:    d10d        ..      BNE      0x80020ac ; _fp_digits + 328
        0x08002090:    e00a        ..      B        0x80020a8 ; _fp_digits + 324
        0x08002092:    4308        .C      ORRS     r0,r0,r1
        0x08002094:    d004        ..      BEQ      0x80020a0 ; _fp_digits + 316
        0x08002096:    2000        .       MOVS     r0,#0
        0x08002098:    f04f0b11    O...    MOV      r11,#0x11
        0x0800209c:    9011        ..      STR      r0,[sp,#0x44]
        0x0800209e:    e772        r.      B        0x8001f86 ; _fp_digits + 34
        0x080020a0:    eba3050b    ....    SUB      r5,r3,r11
        0x080020a4:    1e6d        m.      SUBS     r5,r5,#1
        0x080020a6:    e00d        ..      B        0x80020c4 ; _fp_digits + 352
        0x080020a8:    455b        [E      CMP      r3,r11
        0x080020aa:    dd04        ..      BLE      0x80020b6 ; _fp_digits + 338
        0x080020ac:    f04f0200    O...    MOV      r2,#0
        0x080020b0:    f1050501    ....    ADD      r5,r5,#1
        0x080020b4:    e004        ..      B        0x80020c0 ; _fp_digits + 348
        0x080020b6:    da03        ..      BGE      0x80020c0 ; _fp_digits + 348
        0x080020b8:    f04f0200    O...    MOV      r2,#0
        0x080020bc:    f1a50501    ....    SUB      r5,r5,#1
        0x080020c0:    2a00        .*      CMP      r2,#0
        0x080020c2:    d0ec        ..      BEQ      0x800209e ; _fp_digits + 314
        0x080020c4:    9802        ..      LDR      r0,[sp,#8]
        0x080020c6:    9911        ..      LDR      r1,[sp,#0x44]
        0x080020c8:    e9c03102    ...1    STRD     r3,r1,[r0,#8]
        0x080020cc:    e9c04500    ...E    STRD     r4,r5,[r0,#0]
        0x080020d0:    e779        y.      B        0x8001fc6 ; _fp_digits + 98
    $d
        0x080020d2:    0000        ..      DCW    0
        0x080020d4:    40140000    ...@    DCD    1075052544
        0x080020d8:    3ff00000    ...?    DCD    1072693248
        0x080020dc:    00000030    0...    DCD    48
        0x080020e0:    43f00000    ...C    DCD    1139802112
        0x080020e4:    3fe00000    ...?    DCD    1071644672
    $t
    i._printf_core
    _printf_core
        0x080020e8:    e92d4fff    -..O    PUSH     {r0-r11,lr}
        0x080020ec:    b095        ..      SUB      sp,sp,#0x54
        0x080020ee:    469b        .F      MOV      r11,r3
        0x080020f0:    4689        .F      MOV      r9,r1
        0x080020f2:    4606        .F      MOV      r6,r0
        0x080020f4:    2500        .%      MOVS     r5,#0
        0x080020f6:    e20f        ..      B        0x8002518 ; _printf_core + 1072
        0x080020f8:    2825        %(      CMP      r0,#0x25
        0x080020fa:    d177        w.      BNE      0x80021ec ; _printf_core + 260
        0x080020fc:    2400        .$      MOVS     r4,#0
        0x080020fe:    4627        'F      MOV      r7,r4
        0x08002100:    4af8        .J      LDR      r2,[pc,#992] ; [0x80024e4] = 0x12809
        0x08002102:    2101        .!      MOVS     r1,#1
        0x08002104:    9405        ..      STR      r4,[sp,#0x14]
        0x08002106:    e000        ..      B        0x800210a ; _printf_core + 34
        0x08002108:    4304        .C      ORRS     r4,r4,r0
        0x0800210a:    f8163f01    ...?    LDRB     r3,[r6,#1]!
        0x0800210e:    3b20         ;      SUBS     r3,r3,#0x20
        0x08002110:    fa01f003    ....    LSL      r0,r1,r3
        0x08002114:    4210        .B      TST      r0,r2
        0x08002116:    d1f7        ..      BNE      0x8002108 ; _printf_core + 32
        0x08002118:    7830        0x      LDRB     r0,[r6,#0]
        0x0800211a:    282a        *(      CMP      r0,#0x2a
        0x0800211c:    d011        ..      BEQ      0x8002142 ; _printf_core + 90
        0x0800211e:    f06f032f    o./.    MVN      r3,#0x2f
        0x08002122:    7830        0x      LDRB     r0,[r6,#0]
        0x08002124:    f1a00230    ..0.    SUB      r2,r0,#0x30
        0x08002128:    2a09        .*      CMP      r2,#9
        0x0800212a:    d816        ..      BHI      0x800215a ; _printf_core + 114
        0x0800212c:    9a05        ..      LDR      r2,[sp,#0x14]
        0x0800212e:    f0440402    D...    ORR      r4,r4,#2
        0x08002132:    eb020282    ....    ADD      r2,r2,r2,LSL #2
        0x08002136:    eb030242    ..B.    ADD      r2,r3,r2,LSL #1
        0x0800213a:    4410        .D      ADD      r0,r0,r2
        0x0800213c:    1c76        v.      ADDS     r6,r6,#1
        0x0800213e:    9005        ..      STR      r0,[sp,#0x14]
        0x08002140:    e7ef        ..      B        0x8002122 ; _printf_core + 58
        0x08002142:    f8592b04    Y..+    LDR      r2,[r9],#4
        0x08002146:    9205        ..      STR      r2,[sp,#0x14]
        0x08002148:    2a00        .*      CMP      r2,#0
        0x0800214a:    da03        ..      BGE      0x8002154 ; _printf_core + 108
        0x0800214c:    4250        PB      RSBS     r0,r2,#0
        0x0800214e:    f4445400    D..T    ORR      r4,r4,#0x2000
        0x08002152:    9005        ..      STR      r0,[sp,#0x14]
        0x08002154:    f0440402    D...    ORR      r4,r4,#2
        0x08002158:    1c76        v.      ADDS     r6,r6,#1
        0x0800215a:    7830        0x      LDRB     r0,[r6,#0]
        0x0800215c:    282e        .(      CMP      r0,#0x2e
        0x0800215e:    d116        ..      BNE      0x800218e ; _printf_core + 166
        0x08002160:    f8160f01    ....    LDRB     r0,[r6,#1]!
        0x08002164:    f0440404    D...    ORR      r4,r4,#4
        0x08002168:    282a        *(      CMP      r0,#0x2a
        0x0800216a:    d00d        ..      BEQ      0x8002188 ; _printf_core + 160
        0x0800216c:    f06f022f    o./.    MVN      r2,#0x2f
        0x08002170:    7830        0x      LDRB     r0,[r6,#0]
        0x08002172:    f1a00330    ..0.    SUB      r3,r0,#0x30
        0x08002176:    2b09        .+      CMP      r3,#9
        0x08002178:    d809        ..      BHI      0x800218e ; _printf_core + 166
        0x0800217a:    eb070387    ....    ADD      r3,r7,r7,LSL #2
        0x0800217e:    eb020343    ..C.    ADD      r3,r2,r3,LSL #1
        0x08002182:    18c7        ..      ADDS     r7,r0,r3
        0x08002184:    1c76        v.      ADDS     r6,r6,#1
        0x08002186:    e7f3        ..      B        0x8002170 ; _printf_core + 136
        0x08002188:    f8597b04    Y..{    LDR      r7,[r9],#4
        0x0800218c:    1c76        v.      ADDS     r6,r6,#1
        0x0800218e:    7830        0x      LDRB     r0,[r6,#0]
        0x08002190:    286c        l(      CMP      r0,#0x6c
        0x08002192:    d00f        ..      BEQ      0x80021b4 ; _printf_core + 204
        0x08002194:    dc06        ..      BGT      0x80021a4 ; _printf_core + 188
        0x08002196:    284c        L(      CMP      r0,#0x4c
        0x08002198:    d017        ..      BEQ      0x80021ca ; _printf_core + 226
        0x0800219a:    2868        h(      CMP      r0,#0x68
        0x0800219c:    d00d        ..      BEQ      0x80021ba ; _printf_core + 210
        0x0800219e:    286a        j(      CMP      r0,#0x6a
        0x080021a0:    d114        ..      BNE      0x80021cc ; _printf_core + 228
        0x080021a2:    e004        ..      B        0x80021ae ; _printf_core + 198
        0x080021a4:    2874        t(      CMP      r0,#0x74
        0x080021a6:    d010        ..      BEQ      0x80021ca ; _printf_core + 226
        0x080021a8:    287a        z(      CMP      r0,#0x7a
        0x080021aa:    d10f        ..      BNE      0x80021cc ; _printf_core + 228
        0x080021ac:    e00d        ..      B        0x80021ca ; _printf_core + 226
        0x080021ae:    f4441400    D...    ORR      r4,r4,#0x200000
        0x080021b2:    e00a        ..      B        0x80021ca ; _printf_core + 226
        0x080021b4:    f4441480    D...    ORR      r4,r4,#0x100000
        0x080021b8:    e001        ..      B        0x80021be ; _printf_core + 214
        0x080021ba:    f4441440    D.@.    ORR      r4,r4,#0x300000
        0x080021be:    7872        rx      LDRB     r2,[r6,#1]
        0x080021c0:    4282        .B      CMP      r2,r0
        0x080021c2:    d102        ..      BNE      0x80021ca ; _printf_core + 226
        0x080021c4:    f5041480    ....    ADD      r4,r4,#0x100000
        0x080021c8:    1c76        v.      ADDS     r6,r6,#1
        0x080021ca:    1c76        v.      ADDS     r6,r6,#1
        0x080021cc:    7830        0x      LDRB     r0,[r6,#0]
        0x080021ce:    2866        f(      CMP      r0,#0x66
        0x080021d0:    d00b        ..      BEQ      0x80021ea ; _printf_core + 258
        0x080021d2:    dc13        ..      BGT      0x80021fc ; _printf_core + 276
        0x080021d4:    2858        X(      CMP      r0,#0x58
        0x080021d6:    d077        w.      BEQ      0x80022c8 ; _printf_core + 480
        0x080021d8:    dc09        ..      BGT      0x80021ee ; _printf_core + 262
        0x080021da:    2800        .(      CMP      r0,#0
        0x080021dc:    d075        u.      BEQ      0x80022ca ; _printf_core + 482
        0x080021de:    2845        E(      CMP      r0,#0x45
        0x080021e0:    d0f6        ..      BEQ      0x80021d0 ; _printf_core + 232
        0x080021e2:    2846        F(      CMP      r0,#0x46
        0x080021e4:    d0f4        ..      BEQ      0x80021d0 ; _printf_core + 232
        0x080021e6:    2847        G(      CMP      r0,#0x47
        0x080021e8:    d11a        ..      BNE      0x8002220 ; _printf_core + 312
        0x080021ea:    e19d        ..      B        0x8002528 ; _printf_core + 1088
        0x080021ec:    e018        ..      B        0x8002220 ; _printf_core + 312
        0x080021ee:    2863        c(      CMP      r0,#0x63
        0x080021f0:    d035        5.      BEQ      0x800225e ; _printf_core + 374
        0x080021f2:    2864        d(      CMP      r0,#0x64
        0x080021f4:    d079        y.      BEQ      0x80022ea ; _printf_core + 514
        0x080021f6:    2865        e(      CMP      r0,#0x65
        0x080021f8:    d112        ..      BNE      0x8002220 ; _printf_core + 312
        0x080021fa:    e195        ..      B        0x8002528 ; _printf_core + 1088
        0x080021fc:    2870        p(      CMP      r0,#0x70
        0x080021fe:    d073        s.      BEQ      0x80022e8 ; _printf_core + 512
        0x08002200:    dc08        ..      BGT      0x8002214 ; _printf_core + 300
        0x08002202:    2867        g(      CMP      r0,#0x67
        0x08002204:    d0f1        ..      BEQ      0x80021ea ; _printf_core + 258
        0x08002206:    2869        i(      CMP      r0,#0x69
        0x08002208:    d06f        o.      BEQ      0x80022ea ; _printf_core + 514
        0x0800220a:    286e        n(      CMP      r0,#0x6e
        0x0800220c:    d00d        ..      BEQ      0x800222a ; _printf_core + 322
        0x0800220e:    286f        o(      CMP      r0,#0x6f
        0x08002210:    d106        ..      BNE      0x8002220 ; _printf_core + 312
        0x08002212:    e0b5        ..      B        0x8002380 ; _printf_core + 664
        0x08002214:    2873        s(      CMP      r0,#0x73
        0x08002216:    d02c        ,.      BEQ      0x8002272 ; _printf_core + 394
        0x08002218:    2875        u(      CMP      r0,#0x75
        0x0800221a:    d075        u.      BEQ      0x8002308 ; _printf_core + 544
        0x0800221c:    2878        x(      CMP      r0,#0x78
        0x0800221e:    d074        t.      BEQ      0x800230a ; _printf_core + 546
        0x08002220:    465a        ZF      MOV      r2,r11
        0x08002222:    9917        ..      LDR      r1,[sp,#0x5c]
        0x08002224:    4790        .G      BLX      r2
        0x08002226:    1c6d        m.      ADDS     r5,r5,#1
        0x08002228:    e175        u.      B        0x8002516 ; _printf_core + 1070
        0x0800222a:    f3c45002    ...P    UBFX     r0,r4,#20,#3
        0x0800222e:    2802        .(      CMP      r0,#2
        0x08002230:    d009        ..      BEQ      0x8002246 ; _printf_core + 350
        0x08002232:    2803        .(      CMP      r0,#3
        0x08002234:    d00d        ..      BEQ      0x8002252 ; _printf_core + 362
        0x08002236:    f8d91000    ....    LDR      r1,[r9,#0]
        0x0800223a:    2804        .(      CMP      r0,#4
        0x0800223c:    d00d        ..      BEQ      0x800225a ; _printf_core + 370
        0x0800223e:    600d        .`      STR      r5,[r1,#0]
        0x08002240:    f1090904    ....    ADD      r9,r9,#4
        0x08002244:    e167        g.      B        0x8002516 ; _printf_core + 1070
        0x08002246:    f8d91000    ....    LDR      r1,[r9,#0]
        0x0800224a:    17ea        ..      ASRS     r2,r5,#31
        0x0800224c:    e9c15200    ...R    STRD     r5,r2,[r1,#0]
        0x08002250:    e7f6        ..      B        0x8002240 ; _printf_core + 344
        0x08002252:    f8d91000    ....    LDR      r1,[r9,#0]
        0x08002256:    800d        ..      STRH     r5,[r1,#0]
        0x08002258:    e7f2        ..      B        0x8002240 ; _printf_core + 344
        0x0800225a:    700d        .p      STRB     r5,[r1,#0]
        0x0800225c:    e7f0        ..      B        0x8002240 ; _printf_core + 344
        0x0800225e:    f8191b04    ....    LDRB     r1,[r9],#4
        0x08002262:    f88d1000    ....    STRB     r1,[sp,#0]
        0x08002266:    2000        .       MOVS     r0,#0
        0x08002268:    f88d0001    ....    STRB     r0,[sp,#1]
        0x0800226c:    46ea        .F      MOV      r10,sp
        0x0800226e:    2001        .       MOVS     r0,#1
        0x08002270:    e003        ..      B        0x800227a ; _printf_core + 402
        0x08002272:    f859ab04    Y...    LDR      r10,[r9],#4
        0x08002276:    f04f30ff    O..0    MOV      r0,#0xffffffff
        0x0800227a:    0761        a.      LSLS     r1,r4,#29
        0x0800227c:    f04f0100    O...    MOV      r1,#0
        0x08002280:    d402        ..      BMI      0x8002288 ; _printf_core + 416
        0x08002282:    e00d        ..      B        0x80022a0 ; _printf_core + 440
        0x08002284:    f1080101    ....    ADD      r1,r8,#1
        0x08002288:    4688        .F      MOV      r8,r1
        0x0800228a:    42b9        .B      CMP      r1,r7
        0x0800228c:    da0f        ..      BGE      0x80022ae ; _printf_core + 454
        0x0800228e:    4580        .E      CMP      r8,r0
        0x08002290:    dbf8        ..      BLT      0x8002284 ; _printf_core + 412
        0x08002292:    f81a1008    ....    LDRB     r1,[r10,r8]
        0x08002296:    2900        .)      CMP      r1,#0
        0x08002298:    d1f4        ..      BNE      0x8002284 ; _printf_core + 412
        0x0800229a:    e008        ..      B        0x80022ae ; _printf_core + 454
        0x0800229c:    f1080101    ....    ADD      r1,r8,#1
        0x080022a0:    4688        .F      MOV      r8,r1
        0x080022a2:    4281        .B      CMP      r1,r0
        0x080022a4:    dbfa        ..      BLT      0x800229c ; _printf_core + 436
        0x080022a6:    f81a1008    ....    LDRB     r1,[r10,r8]
        0x080022aa:    2900        .)      CMP      r1,#0
        0x080022ac:    d1f6        ..      BNE      0x800229c ; _printf_core + 436
        0x080022ae:    9805        ..      LDR      r0,[sp,#0x14]
        0x080022b0:    465b        [F      MOV      r3,r11
        0x080022b2:    eba00708    ....    SUB      r7,r0,r8
        0x080022b6:    4621        !F      MOV      r1,r4
        0x080022b8:    4638        8F      MOV      r0,r7
        0x080022ba:    9a17        ..      LDR      r2,[sp,#0x5c]
        0x080022bc:    f000fa94    ....    BL       _printf_pre_padding ; 0x80027e8
        0x080022c0:    4428        (D      ADD      r0,r0,r5
        0x080022c2:    eb000508    ....    ADD      r5,r0,r8
        0x080022c6:    e007        ..      B        0x80022d8 ; _printf_core + 496
        0x080022c8:    e04d        M.      B        0x8002366 ; _printf_core + 638
        0x080022ca:    e129        ).      B        0x8002520 ; _printf_core + 1080
        0x080022cc:    e00d        ..      B        0x80022ea ; _printf_core + 514
        0x080022ce:    f81a0b01    ....    LDRB     r0,[r10],#1
        0x080022d2:    465a        ZF      MOV      r2,r11
        0x080022d4:    9917        ..      LDR      r1,[sp,#0x5c]
        0x080022d6:    4790        .G      BLX      r2
        0x080022d8:    f1b80801    ....    SUBS     r8,r8,#1
        0x080022dc:    d2f7        ..      BCS      0x80022ce ; _printf_core + 486
        0x080022de:    465b        [F      MOV      r3,r11
        0x080022e0:    4621        !F      MOV      r1,r4
        0x080022e2:    4638        8F      MOV      r0,r7
        0x080022e4:    9a17        ..      LDR      r2,[sp,#0x5c]
        0x080022e6:    e113        ..      B        0x8002510 ; _printf_core + 1064
        0x080022e8:    e042        B.      B        0x8002370 ; _printf_core + 648
        0x080022ea:    220a        ."      MOVS     r2,#0xa
        0x080022ec:    9200        ..      STR      r2,[sp,#0]
        0x080022ee:    f3c45202    ...R    UBFX     r2,r4,#20,#3
        0x080022f2:    f04f0a00    O...    MOV      r10,#0
        0x080022f6:    2a02        .*      CMP      r2,#2
        0x080022f8:    d008        ..      BEQ      0x800230c ; _printf_core + 548
        0x080022fa:    f859cb04    Y...    LDR      r12,[r9],#4
        0x080022fe:    2a03        .*      CMP      r2,#3
        0x08002300:    ea4f71ec    O..q    ASR      r1,r12,#31
        0x08002304:    d00a        ..      BEQ      0x800231c ; _printf_core + 564
        0x08002306:    e00d        ..      B        0x8002324 ; _printf_core + 572
        0x08002308:    e029        ).      B        0x800235e ; _printf_core + 630
        0x0800230a:    e02a        *.      B        0x8002362 ; _printf_core + 634
        0x0800230c:    f1090107    ....    ADD      r1,r9,#7
        0x08002310:    f0210207    !...    BIC      r2,r1,#7
        0x08002314:    e8f2c102    ....    LDRD     r12,r1,[r2],#8
        0x08002318:    4691        .F      MOV      r9,r2
        0x0800231a:    e009        ..      B        0x8002330 ; _printf_core + 584
        0x0800231c:    fa0ffc8c    ....    SXTH     r12,r12
        0x08002320:    ea4f71ec    O..q    ASR      r1,r12,#31
        0x08002324:    2a04        .*      CMP      r2,#4
        0x08002326:    d103        ..      BNE      0x8002330 ; _printf_core + 584
        0x08002328:    fa4ffc8c    O...    SXTB     r12,r12
        0x0800232c:    ea4f71ec    O..q    ASR      r1,r12,#31
        0x08002330:    2900        .)      CMP      r1,#0
        0x08002332:    da07        ..      BGE      0x8002344 ; _printf_core + 604
        0x08002334:    460a        .F      MOV      r2,r1
        0x08002336:    2100        .!      MOVS     r1,#0
        0x08002338:    f1dc0c00    ....    RSBS     r12,r12,#0
        0x0800233c:    eb610102    a...    SBC      r1,r1,r2
        0x08002340:    222d        -"      MOVS     r2,#0x2d
        0x08002342:    e002        ..      B        0x800234a ; _printf_core + 610
        0x08002344:    0522        ".      LSLS     r2,r4,#20
        0x08002346:    d504        ..      BPL      0x8002352 ; _printf_core + 618
        0x08002348:    222b        +"      MOVS     r2,#0x2b
        0x0800234a:    f88d2004    ...     STRB     r2,[sp,#4]
        0x0800234e:    2201        ."      MOVS     r2,#1
        0x08002350:    e003        ..      B        0x800235a ; _printf_core + 626
        0x08002352:    07e2        ..      LSLS     r2,r4,#31
        0x08002354:    d001        ..      BEQ      0x800235a ; _printf_core + 626
        0x08002356:    2220         "      MOVS     r2,#0x20
        0x08002358:    e7f7        ..      B        0x800234a ; _printf_core + 610
        0x0800235a:    4690        .F      MOV      r8,r2
        0x0800235c:    e059        Y.      B        0x8002412 ; _printf_core + 810
        0x0800235e:    210a        .!      MOVS     r1,#0xa
        0x08002360:    e002        ..      B        0x8002368 ; _printf_core + 640
        0x08002362:    2210        ."      MOVS     r2,#0x10
        0x08002364:    e00d        ..      B        0x8002382 ; _printf_core + 666
        0x08002366:    2110        .!      MOVS     r1,#0x10
        0x08002368:    f04f0a00    O...    MOV      r10,#0
        0x0800236c:    9100        ..      STR      r1,[sp,#0]
        0x0800236e:    e00b        ..      B        0x8002388 ; _printf_core + 672
        0x08002370:    2210        ."      MOVS     r2,#0x10
        0x08002372:    f04f0a00    O...    MOV      r10,#0
        0x08002376:    f0440404    D...    ORR      r4,r4,#4
        0x0800237a:    2708        .'      MOVS     r7,#8
        0x0800237c:    9200        ..      STR      r2,[sp,#0]
        0x0800237e:    e003        ..      B        0x8002388 ; _printf_core + 672
        0x08002380:    2208        ."      MOVS     r2,#8
        0x08002382:    f04f0a00    O...    MOV      r10,#0
        0x08002386:    9200        ..      STR      r2,[sp,#0]
        0x08002388:    f3c45202    ...R    UBFX     r2,r4,#20,#3
        0x0800238c:    2a02        .*      CMP      r2,#2
        0x0800238e:    d005        ..      BEQ      0x800239c ; _printf_core + 692
        0x08002390:    f859cb04    Y...    LDR      r12,[r9],#4
        0x08002394:    2100        .!      MOVS     r1,#0
        0x08002396:    2a03        .*      CMP      r2,#3
        0x08002398:    d008        ..      BEQ      0x80023ac ; _printf_core + 708
        0x0800239a:    e009        ..      B        0x80023b0 ; _printf_core + 712
        0x0800239c:    f1090107    ....    ADD      r1,r9,#7
        0x080023a0:    f0210207    !...    BIC      r2,r1,#7
        0x080023a4:    e8f2c102    ....    LDRD     r12,r1,[r2],#8
        0x080023a8:    4691        .F      MOV      r9,r2
        0x080023aa:    e005        ..      B        0x80023b8 ; _printf_core + 720
        0x080023ac:    fa1ffc8c    ....    UXTH     r12,r12
        0x080023b0:    2a04        .*      CMP      r2,#4
        0x080023b2:    d101        ..      BNE      0x80023b8 ; _printf_core + 720
        0x080023b4:    f00c0cff    ....    AND      r12,r12,#0xff
        0x080023b8:    f04f0800    O...    MOV      r8,#0
        0x080023bc:    0722        ".      LSLS     r2,r4,#28
        0x080023be:    d528        (.      BPL      0x8002412 ; _printf_core + 810
        0x080023c0:    2870        p(      CMP      r0,#0x70
        0x080023c2:    d006        ..      BEQ      0x80023d2 ; _printf_core + 746
        0x080023c4:    9b00        ..      LDR      r3,[sp,#0]
        0x080023c6:    f0830310    ....    EOR      r3,r3,#0x10
        0x080023ca:    ea53030a    S...    ORRS     r3,r3,r10
        0x080023ce:    d005        ..      BEQ      0x80023dc ; _printf_core + 756
        0x080023d0:    e00e        ..      B        0x80023f0 ; _printf_core + 776
        0x080023d2:    2240        @"      MOVS     r2,#0x40
        0x080023d4:    f88d2004    ...     STRB     r2,[sp,#4]
        0x080023d8:    2201        ."      MOVS     r2,#1
        0x080023da:    e008        ..      B        0x80023ee ; _printf_core + 774
        0x080023dc:    ea5c0201    \...    ORRS     r2,r12,r1
        0x080023e0:    d006        ..      BEQ      0x80023f0 ; _printf_core + 776
        0x080023e2:    2230        0"      MOVS     r2,#0x30
        0x080023e4:    f88d2004    ...     STRB     r2,[sp,#4]
        0x080023e8:    f88d0005    ....    STRB     r0,[sp,#5]
        0x080023ec:    2202        ."      MOVS     r2,#2
        0x080023ee:    4690        .F      MOV      r8,r2
        0x080023f0:    9b00        ..      LDR      r3,[sp,#0]
        0x080023f2:    f0830308    ....    EOR      r3,r3,#8
        0x080023f6:    ea53030a    S...    ORRS     r3,r3,r10
        0x080023fa:    d10a        ..      BNE      0x8002412 ; _printf_core + 810
        0x080023fc:    ea5c0201    \...    ORRS     r2,r12,r1
        0x08002400:    d101        ..      BNE      0x8002406 ; _printf_core + 798
        0x08002402:    0762        b.      LSLS     r2,r4,#29
        0x08002404:    d505        ..      BPL      0x8002412 ; _printf_core + 810
        0x08002406:    2230        0"      MOVS     r2,#0x30
        0x08002408:    f88d2004    ...     STRB     r2,[sp,#4]
        0x0800240c:    f04f0801    O...    MOV      r8,#1
        0x08002410:    1e7f        ..      SUBS     r7,r7,#1
        0x08002412:    2858        X(      CMP      r0,#0x58
        0x08002414:    d004        ..      BEQ      0x8002420 ; _printf_core + 824
        0x08002416:    a034        4.      ADR      r0,{pc}+0xd2 ; 0x80024e8
        0x08002418:    9003        ..      STR      r0,[sp,#0xc]
        0x0800241a:    a80e        ..      ADD      r0,sp,#0x38
        0x0800241c:    9002        ..      STR      r0,[sp,#8]
        0x0800241e:    e00d        ..      B        0x800243c ; _printf_core + 852
        0x08002420:    a036        6.      ADR      r0,{pc}+0xdc ; 0x80024fc
        0x08002422:    e7f9        ..      B        0x8002418 ; _printf_core + 816
        0x08002424:    4653        SF      MOV      r3,r10
        0x08002426:    4660        `F      MOV      r0,r12
        0x08002428:    9a00        ..      LDR      r2,[sp,#0]
        0x0800242a:    f7fdffea    ....    BL       __aeabi_uldivmod ; 0x8000402
        0x0800242e:    4684        .F      MOV      r12,r0
        0x08002430:    9803        ..      LDR      r0,[sp,#0xc]
        0x08002432:    5c82        .\      LDRB     r2,[r0,r2]
        0x08002434:    9802        ..      LDR      r0,[sp,#8]
        0x08002436:    1e40        @.      SUBS     r0,r0,#1
        0x08002438:    9002        ..      STR      r0,[sp,#8]
        0x0800243a:    7002        .p      STRB     r2,[r0,#0]
        0x0800243c:    ea5c0001    \...    ORRS     r0,r12,r1
        0x08002440:    d1f0        ..      BNE      0x8002424 ; _printf_core + 828
        0x08002442:    9802        ..      LDR      r0,[sp,#8]
        0x08002444:    a906        ..      ADD      r1,sp,#0x18
        0x08002446:    1a08        ..      SUBS     r0,r1,r0
        0x08002448:    f1000a20    .. .    ADD      r10,r0,#0x20
        0x0800244c:    0760        `.      LSLS     r0,r4,#29
        0x0800244e:    d502        ..      BPL      0x8002456 ; _printf_core + 878
        0x08002450:    f4243480    $..4    BIC      r4,r4,#0x10000
        0x08002454:    e000        ..      B        0x8002458 ; _printf_core + 880
        0x08002456:    2701        .'      MOVS     r7,#1
        0x08002458:    4557        WE      CMP      r7,r10
        0x0800245a:    dd02        ..      BLE      0x8002462 ; _printf_core + 890
        0x0800245c:    eba7000a    ....    SUB      r0,r7,r10
        0x08002460:    e000        ..      B        0x8002464 ; _printf_core + 892
        0x08002462:    2000        .       MOVS     r0,#0
        0x08002464:    eb00010a    ....    ADD      r1,r0,r10
        0x08002468:    9000        ..      STR      r0,[sp,#0]
        0x0800246a:    9805        ..      LDR      r0,[sp,#0x14]
        0x0800246c:    4441        AD      ADD      r1,r1,r8
        0x0800246e:    1a40        @.      SUBS     r0,r0,r1
        0x08002470:    9005        ..      STR      r0,[sp,#0x14]
        0x08002472:    03e0        ..      LSLS     r0,r4,#15
        0x08002474:    d406        ..      BMI      0x8002484 ; _printf_core + 924
        0x08002476:    465b        [F      MOV      r3,r11
        0x08002478:    4621        !F      MOV      r1,r4
        0x0800247a:    9a17        ..      LDR      r2,[sp,#0x5c]
        0x0800247c:    9805        ..      LDR      r0,[sp,#0x14]
        0x0800247e:    f000f9b3    ....    BL       _printf_pre_padding ; 0x80027e8
        0x08002482:    4405        .D      ADD      r5,r5,r0
        0x08002484:    2700        .'      MOVS     r7,#0
        0x08002486:    e006        ..      B        0x8002496 ; _printf_core + 942
        0x08002488:    a801        ..      ADD      r0,sp,#4
        0x0800248a:    465a        ZF      MOV      r2,r11
        0x0800248c:    5dc0        .]      LDRB     r0,[r0,r7]
        0x0800248e:    9917        ..      LDR      r1,[sp,#0x5c]
        0x08002490:    4790        .G      BLX      r2
        0x08002492:    1c6d        m.      ADDS     r5,r5,#1
        0x08002494:    1c7f        ..      ADDS     r7,r7,#1
        0x08002496:    4547        GE      CMP      r7,r8
        0x08002498:    dbf6        ..      BLT      0x8002488 ; _printf_core + 928
        0x0800249a:    03e0        ..      LSLS     r0,r4,#15
        0x0800249c:    d50c        ..      BPL      0x80024b8 ; _printf_core + 976
        0x0800249e:    465b        [F      MOV      r3,r11
        0x080024a0:    4621        !F      MOV      r1,r4
        0x080024a2:    9a17        ..      LDR      r2,[sp,#0x5c]
        0x080024a4:    9805        ..      LDR      r0,[sp,#0x14]
        0x080024a6:    f000f99f    ....    BL       _printf_pre_padding ; 0x80027e8
        0x080024aa:    4405        .D      ADD      r5,r5,r0
        0x080024ac:    e004        ..      B        0x80024b8 ; _printf_core + 976
        0x080024ae:    2030        0       MOVS     r0,#0x30
        0x080024b0:    465a        ZF      MOV      r2,r11
        0x080024b2:    9917        ..      LDR      r1,[sp,#0x5c]
        0x080024b4:    4790        .G      BLX      r2
        0x080024b6:    1c6d        m.      ADDS     r5,r5,#1
        0x080024b8:    9900        ..      LDR      r1,[sp,#0]
        0x080024ba:    1e48        H.      SUBS     r0,r1,#1
        0x080024bc:    9000        ..      STR      r0,[sp,#0]
        0x080024be:    2900        .)      CMP      r1,#0
        0x080024c0:    dcf5        ..      BGT      0x80024ae ; _printf_core + 966
        0x080024c2:    e008        ..      B        0x80024d6 ; _printf_core + 1006
        0x080024c4:    9802        ..      LDR      r0,[sp,#8]
        0x080024c6:    9902        ..      LDR      r1,[sp,#8]
        0x080024c8:    465a        ZF      MOV      r2,r11
        0x080024ca:    7800        .x      LDRB     r0,[r0,#0]
        0x080024cc:    1c49        I.      ADDS     r1,r1,#1
        0x080024ce:    9102        ..      STR      r1,[sp,#8]
        0x080024d0:    9917        ..      LDR      r1,[sp,#0x5c]
        0x080024d2:    4790        .G      BLX      r2
        0x080024d4:    1c6d        m.      ADDS     r5,r5,#1
        0x080024d6:    f1ba0100    ....    SUBS     r1,r10,#0
        0x080024da:    f1aa0a01    ....    SUB      r10,r10,#1
        0x080024de:    dcf1        ..      BGT      0x80024c4 ; _printf_core + 988
        0x080024e0:    e165        e.      B        0x80027ae ; _printf_core + 1734
    $d
        0x080024e2:    0000        ..      DCW    0
        0x080024e4:    00012809    .(..    DCD    75785
        0x080024e8:    33323130    0123    DCD    858927408
        0x080024ec:    37363534    4567    DCD    926299444
        0x080024f0:    62613938    89ab    DCD    1650538808
        0x080024f4:    66656463    cdef    DCD    1717920867
        0x080024f8:    00000000    ....    DCD    0
        0x080024fc:    33323130    0123    DCD    858927408
        0x08002500:    37363534    4567    DCD    926299444
        0x08002504:    42413938    89AB    DCD    1111570744
        0x08002508:    46454443    CDEF    DCD    1178944579
        0x0800250c:    00000000    ....    DCD    0
    $t
        0x08002510:    f000f958    ..X.    BL       _printf_post_padding ; 0x80027c4
        0x08002514:    4405        .D      ADD      r5,r5,r0
        0x08002516:    1c76        v.      ADDS     r6,r6,#1
        0x08002518:    7830        0x      LDRB     r0,[r6,#0]
        0x0800251a:    2800        .(      CMP      r0,#0
        0x0800251c:    f47fadec    ....    BNE      0x80020f8 ; _printf_core + 16
        0x08002520:    b019        ..      ADD      sp,sp,#0x64
        0x08002522:    4628        (F      MOV      r0,r5
        0x08002524:    e8bd8ff0    ....    POP      {r4-r11,pc}
        0x08002528:    0762        b.      LSLS     r2,r4,#29
        0x0800252a:    d400        ..      BMI      0x800252e ; _printf_core + 1094
        0x0800252c:    2706        .'      MOVS     r7,#6
        0x0800252e:    f1090207    ....    ADD      r2,r9,#7
        0x08002532:    f0220c07    "...    BIC      r12,r2,#7
        0x08002536:    e8fc2302    ...#    LDRD     r2,r3,[r12],#8
        0x0800253a:    46e1        .F      MOV      r9,r12
        0x0800253c:    f0034800    ...H    AND      r8,r3,#0x80000000
        0x08002540:    ea5f0c08    _...    MOVS     r12,r8
        0x08002544:    d002        ..      BEQ      0x800254c ; _printf_core + 1124
        0x08002546:    f20f2c70    ..p,    ADR.W    r12,{pc}+0x272 ; 0x80027b8
        0x0800254a:    e00d        ..      B        0x8002568 ; _printf_core + 1152
        0x0800254c:    ea5f5c04    _..\    LSLS     r12,r4,#20
        0x08002550:    d502        ..      BPL      0x8002558 ; _printf_core + 1136
        0x08002552:    f20f2c68    ..h,    ADR.W    r12,{pc}+0x26a ; 0x80027bc
        0x08002556:    e007        ..      B        0x8002568 ; _printf_core + 1152
        0x08002558:    ea5f7cc4    _..|    LSLS     r12,r4,#31
        0x0800255c:    d002        ..      BEQ      0x8002564 ; _printf_core + 1148
        0x0800255e:    f20f2c60    ..`,    ADR.W    r12,{pc}+0x262 ; 0x80027c0
        0x08002562:    e001        ..      B        0x8002568 ; _printf_core + 1152
        0x08002564:    f2af0c70    ..p.    ADR      r12,{pc}-0x6c ; 0x80024f8
        0x08002568:    f04f38ff    O..8    MOV      r8,#0xffffffff
        0x0800256c:    f0234300    #..C    BIC      r3,r3,#0x80000000
        0x08002570:    f8cdc050    ..P.    STR      r12,[sp,#0x50]
        0x08002574:    2865        e(      CMP      r0,#0x65
        0x08002576:    d00c        ..      BEQ      0x8002592 ; _printf_core + 1194
        0x08002578:    dc06        ..      BGT      0x8002588 ; _printf_core + 1184
        0x0800257a:    2845        E(      CMP      r0,#0x45
        0x0800257c:    d009        ..      BEQ      0x8002592 ; _printf_core + 1194
        0x0800257e:    2846        F(      CMP      r0,#0x46
        0x08002580:    d01d        ..      BEQ      0x80025be ; _printf_core + 1238
        0x08002582:    2847        G(      CMP      r0,#0x47
        0x08002584:    d13d        =.      BNE      0x8002602 ; _printf_core + 1306
        0x08002586:    e03d        =.      B        0x8002604 ; _printf_core + 1308
        0x08002588:    2866        f(      CMP      r0,#0x66
        0x0800258a:    d018        ..      BEQ      0x80025be ; _printf_core + 1238
        0x0800258c:    2867        g(      CMP      r0,#0x67
        0x0800258e:    d17e        ~.      BNE      0x800268e ; _printf_core + 1446
        0x08002590:    e038        8.      B        0x8002604 ; _printf_core + 1308
        0x08002592:    2100        .!      MOVS     r1,#0
        0x08002594:    2f11        ./      CMP      r7,#0x11
        0x08002596:    db01        ..      BLT      0x800259c ; _printf_core + 1204
        0x08002598:    2011        .       MOVS     r0,#0x11
        0x0800259a:    e000        ..      B        0x800259e ; _printf_core + 1206
        0x0800259c:    1c78        x.      ADDS     r0,r7,#1
        0x0800259e:    e9cd0100    ....    STRD     r0,r1,[sp,#0]
        0x080025a2:    a906        ..      ADD      r1,sp,#0x18
        0x080025a4:    a80e        ..      ADD      r0,sp,#0x38
        0x080025a6:    f7fffcdd    ....    BL       _fp_digits ; 0x8001f64
        0x080025aa:    e9dd010f    ....    LDRD     r0,r1,[sp,#0x3c]
        0x080025ae:    9a0e        ..      LDR      r2,[sp,#0x38]
        0x080025b0:    9103        ..      STR      r1,[sp,#0xc]
        0x080025b2:    2100        .!      MOVS     r1,#0
        0x080025b4:    9200        ..      STR      r2,[sp,#0]
        0x080025b6:    f1070a01    ....    ADD      r10,r7,#1
        0x080025ba:    9104        ..      STR      r1,[sp,#0x10]
        0x080025bc:    e04d        M.      B        0x800265a ; _printf_core + 1394
        0x080025be:    f04f4000    O..@    MOV      r0,#0x80000000
        0x080025c2:    9700        ..      STR      r7,[sp,#0]
        0x080025c4:    e9cd1001    ....    STRD     r1,r0,[sp,#4]
        0x080025c8:    a906        ..      ADD      r1,sp,#0x18
        0x080025ca:    a80e        ..      ADD      r0,sp,#0x38
        0x080025cc:    f7fffcca    ....    BL       _fp_digits ; 0x8001f64
        0x080025d0:    e9dd020f    ....    LDRD     r0,r2,[sp,#0x3c]
        0x080025d4:    9203        ..      STR      r2,[sp,#0xc]
        0x080025d6:    9b0e        ..      LDR      r3,[sp,#0x38]
        0x080025d8:    9911        ..      LDR      r1,[sp,#0x44]
        0x080025da:    2200        ."      MOVS     r2,#0
        0x080025dc:    f8dda00c    ....    LDR      r10,[sp,#0xc]
        0x080025e0:    9300        ..      STR      r3,[sp,#0]
        0x080025e2:    9204        ..      STR      r2,[sp,#0x10]
        0x080025e4:    b911        ..      CBNZ     r1,0x80025ec ; _printf_core + 1284
        0x080025e6:    1c79        y.      ADDS     r1,r7,#1
        0x080025e8:    eb000a01    ....    ADD      r10,r0,r1
        0x080025ec:    ebb7000a    ....    SUBS     r0,r7,r10
        0x080025f0:    d404        ..      BMI      0x80025fc ; _printf_core + 1300
        0x080025f2:    f1c030ff    ...0    RSB      r0,r0,#0xffffffff
        0x080025f6:    f1070a01    ....    ADD      r10,r7,#1
        0x080025fa:    9004        ..      STR      r0,[sp,#0x10]
        0x080025fc:    ebaa0007    ....    SUB      r0,r10,r7
        0x08002600:    9001        ..      STR      r0,[sp,#4]
        0x08002602:    e044        D.      B        0x800268e ; _printf_core + 1446
        0x08002604:    2f01        ./      CMP      r7,#1
        0x08002606:    da00        ..      BGE      0x800260a ; _printf_core + 1314
        0x08002608:    2701        .'      MOVS     r7,#1
        0x0800260a:    2100        .!      MOVS     r1,#0
        0x0800260c:    2f11        ./      CMP      r7,#0x11
        0x0800260e:    dd01        ..      BLE      0x8002614 ; _printf_core + 1324
        0x08002610:    2011        .       MOVS     r0,#0x11
        0x08002612:    e000        ..      B        0x8002616 ; _printf_core + 1326
        0x08002614:    4638        8F      MOV      r0,r7
        0x08002616:    e9cd0100    ....    STRD     r0,r1,[sp,#0]
        0x0800261a:    a906        ..      ADD      r1,sp,#0x18
        0x0800261c:    a80e        ..      ADD      r0,sp,#0x38
        0x0800261e:    f7fffca1    ....    BL       _fp_digits ; 0x8001f64
        0x08002622:    e9dd010f    ....    LDRD     r0,r1,[sp,#0x3c]
        0x08002626:    9a0e        ..      LDR      r2,[sp,#0x38]
        0x08002628:    9103        ..      STR      r1,[sp,#0xc]
        0x0800262a:    2100        .!      MOVS     r1,#0
        0x0800262c:    9104        ..      STR      r1,[sp,#0x10]
        0x0800262e:    9200        ..      STR      r2,[sp,#0]
        0x08002630:    46ba        .F      MOV      r10,r7
        0x08002632:    0721        !.      LSLS     r1,r4,#28
        0x08002634:    d40c        ..      BMI      0x8002650 ; _printf_core + 1384
        0x08002636:    9903        ..      LDR      r1,[sp,#0xc]
        0x08002638:    4551        QE      CMP      r1,r10
        0x0800263a:    da00        ..      BGE      0x800263e ; _printf_core + 1366
        0x0800263c:    468a        .F      MOV      r10,r1
        0x0800263e:    f1ba0f01    ....    CMP      r10,#1
        0x08002642:    dd05        ..      BLE      0x8002650 ; _printf_core + 1384
        0x08002644:    9a00        ..      LDR      r2,[sp,#0]
        0x08002646:    f1aa0101    ....    SUB      r1,r10,#1
        0x0800264a:    5c51        Q\      LDRB     r1,[r2,r1]
        0x0800264c:    2930        0)      CMP      r1,#0x30
        0x0800264e:    d008        ..      BEQ      0x8002662 ; _printf_core + 1402
        0x08002650:    42b8        .B      CMP      r0,r7
        0x08002652:    da02        ..      BGE      0x800265a ; _printf_core + 1394
        0x08002654:    f1100f04    ....    CMN      r0,#4
        0x08002658:    da06        ..      BGE      0x8002668 ; _printf_core + 1408
        0x0800265a:    2101        .!      MOVS     r1,#1
        0x0800265c:    e9cd1001    ....    STRD     r1,r0,[sp,#4]
        0x08002660:    e015        ..      B        0x800268e ; _printf_core + 1446
        0x08002662:    f1aa0101    ....    SUB      r1,r10,#1
        0x08002666:    e7e9        ..      B        0x800263c ; _printf_core + 1364
        0x08002668:    2800        .(      CMP      r0,#0
        0x0800266a:    dc05        ..      BGT      0x8002678 ; _printf_core + 1424
        0x0800266c:    9904        ..      LDR      r1,[sp,#0x10]
        0x0800266e:    4401        .D      ADD      r1,r1,r0
        0x08002670:    9104        ..      STR      r1,[sp,#0x10]
        0x08002672:    ebaa0100    ....    SUB      r1,r10,r0
        0x08002676:    e002        ..      B        0x800267e ; _printf_core + 1430
        0x08002678:    1c41        A.      ADDS     r1,r0,#1
        0x0800267a:    4551        QE      CMP      r1,r10
        0x0800267c:    dd00        ..      BLE      0x8002680 ; _printf_core + 1432
        0x0800267e:    468a        .F      MOV      r10,r1
        0x08002680:    9904        ..      LDR      r1,[sp,#0x10]
        0x08002682:    1a40        @.      SUBS     r0,r0,r1
        0x08002684:    1c40        @.      ADDS     r0,r0,#1
        0x08002686:    9001        ..      STR      r0,[sp,#4]
        0x08002688:    f04f4000    O..@    MOV      r0,#0x80000000
        0x0800268c:    9002        ..      STR      r0,[sp,#8]
        0x0800268e:    0720         .      LSLS     r0,r4,#28
        0x08002690:    d404        ..      BMI      0x800269c ; _printf_core + 1460
        0x08002692:    9801        ..      LDR      r0,[sp,#4]
        0x08002694:    4550        PE      CMP      r0,r10
        0x08002696:    db01        ..      BLT      0x800269c ; _printf_core + 1460
        0x08002698:    f8cd8004    ....    STR      r8,[sp,#4]
        0x0800269c:    2000        .       MOVS     r0,#0
        0x0800269e:    f88d004f    ..O.    STRB     r0,[sp,#0x4f]
        0x080026a2:    9802        ..      LDR      r0,[sp,#8]
        0x080026a4:    f10d074f    ..O.    ADD      r7,sp,#0x4f
        0x080026a8:    f1b04f00    ...O    CMP      r0,#0x80000000
        0x080026ac:    d025        %.      BEQ      0x80026fa ; _printf_core + 1554
        0x080026ae:    202b        +       MOVS     r0,#0x2b
        0x080026b0:    900e        ..      STR      r0,[sp,#0x38]
        0x080026b2:    9802        ..      LDR      r0,[sp,#8]
        0x080026b4:    f04f0802    O...    MOV      r8,#2
        0x080026b8:    2800        .(      CMP      r0,#0
        0x080026ba:    da0c        ..      BGE      0x80026d6 ; _printf_core + 1518
        0x080026bc:    4240        @B      RSBS     r0,r0,#0
        0x080026be:    9002        ..      STR      r0,[sp,#8]
        0x080026c0:    202d        -       MOVS     r0,#0x2d
        0x080026c2:    900e        ..      STR      r0,[sp,#0x38]
        0x080026c4:    e007        ..      B        0x80026d6 ; _printf_core + 1518
        0x080026c6:    210a        .!      MOVS     r1,#0xa
        0x080026c8:    9802        ..      LDR      r0,[sp,#8]
        0x080026ca:    f7fdfe84    ....    BL       __aeabi_uidiv ; 0x80003d6
        0x080026ce:    3130        01      ADDS     r1,r1,#0x30
        0x080026d0:    9002        ..      STR      r0,[sp,#8]
        0x080026d2:    f8071d01    ....    STRB     r1,[r7,#-1]!
        0x080026d6:    f1b80100    ....    SUBS     r1,r8,#0
        0x080026da:    f1a80801    ....    SUB      r8,r8,#1
        0x080026de:    dcf2        ..      BGT      0x80026c6 ; _printf_core + 1502
        0x080026e0:    9802        ..      LDR      r0,[sp,#8]
        0x080026e2:    2800        .(      CMP      r0,#0
        0x080026e4:    d1ef        ..      BNE      0x80026c6 ; _printf_core + 1502
        0x080026e6:    1e79        y.      SUBS     r1,r7,#1
        0x080026e8:    980e        ..      LDR      r0,[sp,#0x38]
        0x080026ea:    7008        .p      STRB     r0,[r1,#0]
        0x080026ec:    7830        0x      LDRB     r0,[r6,#0]
        0x080026ee:    f0000020    .. .    AND      r0,r0,#0x20
        0x080026f2:    f0400045    @.E.    ORR      r0,r0,#0x45
        0x080026f6:    f8070d02    ....    STRB     r0,[r7,#-2]!
        0x080026fa:    a812        ..      ADD      r0,sp,#0x48
        0x080026fc:    1bc0        ..      SUBS     r0,r0,r7
        0x080026fe:    f1000807    ....    ADD      r8,r0,#7
        0x08002702:    9814        ..      LDR      r0,[sp,#0x50]
        0x08002704:    7800        .x      LDRB     r0,[r0,#0]
        0x08002706:    b100        ..      CBZ      r0,0x800270a ; _printf_core + 1570
        0x08002708:    2001        .       MOVS     r0,#1
        0x0800270a:    eb00010a    ....    ADD      r1,r0,r10
        0x0800270e:    9801        ..      LDR      r0,[sp,#4]
        0x08002710:    eb0171e0    ...q    ADD      r1,r1,r0,ASR #31
        0x08002714:    9805        ..      LDR      r0,[sp,#0x14]
        0x08002716:    4441        AD      ADD      r1,r1,r8
        0x08002718:    1a40        @.      SUBS     r0,r0,r1
        0x0800271a:    1e40        @.      SUBS     r0,r0,#1
        0x0800271c:    9005        ..      STR      r0,[sp,#0x14]
        0x0800271e:    03e0        ..      LSLS     r0,r4,#15
        0x08002720:    d406        ..      BMI      0x8002730 ; _printf_core + 1608
        0x08002722:    465b        [F      MOV      r3,r11
        0x08002724:    4621        !F      MOV      r1,r4
        0x08002726:    9a17        ..      LDR      r2,[sp,#0x5c]
        0x08002728:    9805        ..      LDR      r0,[sp,#0x14]
        0x0800272a:    f000f85d    ..].    BL       _printf_pre_padding ; 0x80027e8
        0x0800272e:    4405        .D      ADD      r5,r5,r0
        0x08002730:    9814        ..      LDR      r0,[sp,#0x50]
        0x08002732:    7800        .x      LDRB     r0,[r0,#0]
        0x08002734:    b118        ..      CBZ      r0,0x800273e ; _printf_core + 1622
        0x08002736:    465a        ZF      MOV      r2,r11
        0x08002738:    9917        ..      LDR      r1,[sp,#0x5c]
        0x0800273a:    4790        .G      BLX      r2
        0x0800273c:    1c6d        m.      ADDS     r5,r5,#1
        0x0800273e:    03e0        ..      LSLS     r0,r4,#15
        0x08002740:    d524        $.      BPL      0x800278c ; _printf_core + 1700
        0x08002742:    465b        [F      MOV      r3,r11
        0x08002744:    4621        !F      MOV      r1,r4
        0x08002746:    9a17        ..      LDR      r2,[sp,#0x5c]
        0x08002748:    9805        ..      LDR      r0,[sp,#0x14]
        0x0800274a:    f000f84d    ..M.    BL       _printf_pre_padding ; 0x80027e8
        0x0800274e:    4405        .D      ADD      r5,r5,r0
        0x08002750:    e01c        ..      B        0x800278c ; _printf_core + 1700
        0x08002752:    9804        ..      LDR      r0,[sp,#0x10]
        0x08002754:    2800        .(      CMP      r0,#0
        0x08002756:    db07        ..      BLT      0x8002768 ; _printf_core + 1664
        0x08002758:    e9dd0103    ....    LDRD     r0,r1,[sp,#0xc]
        0x0800275c:    4288        .B      CMP      r0,r1
        0x0800275e:    dd03        ..      BLE      0x8002768 ; _printf_core + 1664
        0x08002760:    9800        ..      LDR      r0,[sp,#0]
        0x08002762:    5c40        @\      LDRB     r0,[r0,r1]
        0x08002764:    9917        ..      LDR      r1,[sp,#0x5c]
        0x08002766:    e001        ..      B        0x800276c ; _printf_core + 1668
        0x08002768:    9917        ..      LDR      r1,[sp,#0x5c]
        0x0800276a:    2030        0       MOVS     r0,#0x30
        0x0800276c:    465a        ZF      MOV      r2,r11
        0x0800276e:    4790        .G      BLX      r2
        0x08002770:    9804        ..      LDR      r0,[sp,#0x10]
        0x08002772:    f1050501    ....    ADD      r5,r5,#1
        0x08002776:    1c40        @.      ADDS     r0,r0,#1
        0x08002778:    9004        ..      STR      r0,[sp,#0x10]
        0x0800277a:    9801        ..      LDR      r0,[sp,#4]
        0x0800277c:    1e40        @.      SUBS     r0,r0,#1
        0x0800277e:    9001        ..      STR      r0,[sp,#4]
        0x08002780:    d104        ..      BNE      0x800278c ; _printf_core + 1700
        0x08002782:    202e        .       MOVS     r0,#0x2e
        0x08002784:    465a        ZF      MOV      r2,r11
        0x08002786:    9917        ..      LDR      r1,[sp,#0x5c]
        0x08002788:    4790        .G      BLX      r2
        0x0800278a:    1c6d        m.      ADDS     r5,r5,#1
        0x0800278c:    f1ba0100    ....    SUBS     r1,r10,#0
        0x08002790:    f1aa0a01    ....    SUB      r10,r10,#1
        0x08002794:    dcdd        ..      BGT      0x8002752 ; _printf_core + 1642
        0x08002796:    e005        ..      B        0x80027a4 ; _printf_core + 1724
        0x08002798:    f8170b01    ....    LDRB     r0,[r7],#1
        0x0800279c:    465a        ZF      MOV      r2,r11
        0x0800279e:    9917        ..      LDR      r1,[sp,#0x5c]
        0x080027a0:    4790        .G      BLX      r2
        0x080027a2:    1c6d        m.      ADDS     r5,r5,#1
        0x080027a4:    f1b80100    ....    SUBS     r1,r8,#0
        0x080027a8:    f1a80801    ....    SUB      r8,r8,#1
        0x080027ac:    dcf4        ..      BGT      0x8002798 ; _printf_core + 1712
        0x080027ae:    465b        [F      MOV      r3,r11
        0x080027b0:    4621        !F      MOV      r1,r4
        0x080027b2:    9a17        ..      LDR      r2,[sp,#0x5c]
        0x080027b4:    9805        ..      LDR      r0,[sp,#0x14]
        0x080027b6:    e6ab        ..      B        0x8002510 ; _printf_core + 1064
    $d
        0x080027b8:    0000002d    -...    DCD    45
        0x080027bc:    0000002b    +...    DCD    43
        0x080027c0:    00000020     ...    DCD    32
    $t
    i._printf_post_padding
    _printf_post_padding
        0x080027c4:    e92d41f0    -..A    PUSH     {r4-r8,lr}
        0x080027c8:    4604        .F      MOV      r4,r0
        0x080027ca:    2500        .%      MOVS     r5,#0
        0x080027cc:    461e        .F      MOV      r6,r3
        0x080027ce:    4617        .F      MOV      r7,r2
        0x080027d0:    0488        ..      LSLS     r0,r1,#18
        0x080027d2:    d404        ..      BMI      0x80027de ; _printf_post_padding + 26
        0x080027d4:    e005        ..      B        0x80027e2 ; _printf_post_padding + 30
        0x080027d6:    4639        9F      MOV      r1,r7
        0x080027d8:    2020                MOVS     r0,#0x20
        0x080027da:    47b0        .G      BLX      r6
        0x080027dc:    1c6d        m.      ADDS     r5,r5,#1
        0x080027de:    1e64        d.      SUBS     r4,r4,#1
        0x080027e0:    d5f9        ..      BPL      0x80027d6 ; _printf_post_padding + 18
        0x080027e2:    4628        (F      MOV      r0,r5
        0x080027e4:    e8bd81f0    ....    POP      {r4-r8,pc}
    i._printf_pre_padding
    _printf_pre_padding
        0x080027e8:    e92d41f0    -..A    PUSH     {r4-r8,lr}
        0x080027ec:    4604        .F      MOV      r4,r0
        0x080027ee:    2500        .%      MOVS     r5,#0
        0x080027f0:    461e        .F      MOV      r6,r3
        0x080027f2:    4690        .F      MOV      r8,r2
        0x080027f4:    03c8        ..      LSLS     r0,r1,#15
        0x080027f6:    d501        ..      BPL      0x80027fc ; _printf_pre_padding + 20
        0x080027f8:    2730        0'      MOVS     r7,#0x30
        0x080027fa:    e000        ..      B        0x80027fe ; _printf_pre_padding + 22
        0x080027fc:    2720         '      MOVS     r7,#0x20
        0x080027fe:    0488        ..      LSLS     r0,r1,#18
        0x08002800:    d504        ..      BPL      0x800280c ; _printf_pre_padding + 36
        0x08002802:    e005        ..      B        0x8002810 ; _printf_pre_padding + 40
        0x08002804:    4641        AF      MOV      r1,r8
        0x08002806:    4638        8F      MOV      r0,r7
        0x08002808:    47b0        .G      BLX      r6
        0x0800280a:    1c6d        m.      ADDS     r5,r5,#1
        0x0800280c:    1e64        d.      SUBS     r4,r4,#1
        0x0800280e:    d5f9        ..      BPL      0x8002804 ; _printf_pre_padding + 28
        0x08002810:    4628        (F      MOV      r0,r5
        0x08002812:    e8bd81f0    ....    POP      {r4-r8,pc}
        0x08002816:    0000        ..      MOVS     r0,r0
    i.putchar
    putchar
        0x08002818:    4901        .I      LDR      r1,[pc,#4] ; [0x8002820] = 0x20000000
        0x0800281a:    f7ffbb09    ....    B        fputc ; 0x8001e30
    $d
        0x0800281e:    0000        ..      DCW    0
        0x08002820:    20000000    ...     DCD    536870912
    $t
    i.puts
    puts
        0x08002824:    b510        ..      PUSH     {r4,lr}
        0x08002826:    4604        .F      MOV      r4,r0
        0x08002828:    e001        ..      B        0x800282e ; puts + 10
        0x0800282a:    f7fffb01    ....    BL       fputc ; 0x8001e30
        0x0800282e:    f8140b01    ....    LDRB     r0,[r4],#1
        0x08002832:    4904        .I      LDR      r1,[pc,#16] ; [0x8002844] = 0x20000000
        0x08002834:    2800        .(      CMP      r0,#0
        0x08002836:    d1f8        ..      BNE      0x800282a ; puts + 6
        0x08002838:    e8bd4010    ...@    POP      {r4,lr}
        0x0800283c:    200a        .       MOVS     r0,#0xa
        0x0800283e:    f7ffbaf7    ....    B        fputc ; 0x8001e30
    $d
        0x08002842:    0000        ..      DCW    0
        0x08002844:    20000000    ...     DCD    536870912
    $d.realdata
    .L.str.8
        0x08002848:    59524844    DHRY    DCD    1498564676
        0x0800284c:    4e4f5453    STON    DCD    1313821779
        0x08002850:    52502045    E PR    DCD    1380982853
        0x08002854:    4152474f    OGRA    DCD    1095911247
        0x08002858:    32202c4d    M, 2    DCD    840969293
        0x0800285c:    20444e27    'ND     DCD    541347367
        0x08002860:    49525453    STRI    DCD    1230132307
        0x08002864:    0000474e    NG..    DCD    18254
    .L.str.3
        0x08002868:    706d6f63    comp    DCD    1886220131
        0x0800286c:    64656c69    iled    DCD    1684368489
        0x08002870:    6d697420     tim    DCD    1835627552
        0x08002874:    25203a65    e: %    DCD    622869093
        0x08002878:    73252073    s %s    DCD    1931812979
        0x0800287c:    0a0d        ..      DCW    2573
        0x0800287e:    00          .       DCB    0
    .L.str
        0x0800287f:    25          %       DCB    37
        0x08002880:    55434d73    sMCU    DCD    1430474099
        0x08002884:    69686320     chi    DCD    1768448800
        0x08002888:    53203a70    p: S    DCD    1394621040
        0x0800288c:    32334d54    TM32    DCD    842222932
        0x08002890:    33303146    F103    DCD    858796358
        0x08002894:    4d454420     DEM    DCD    1296385056
        0x08002898:    0d73254f    O%s.    DCD    225649999
        0x0800289c:    000a        ..      DCW    10
    .L.str.4
        0x0800289e:    6546        Fe      DCW    25926
        0x080028a0:    38202062    b  8    DCD    941629538
        0x080028a4:    32303220     202    DCD    842019360
        0x080028a8:    0032        2.      DCW    50
    .L.str.5
        0x080028aa:    3631        16      DCW    13873
        0x080028ac:    3a35353a    :55:    DCD    976565562
        0x080028b0:    3335        53      DCW    13109
        0x080028b2:    00          .       DCB    0
    .L.str.2
        0x080028b3:    1b          .       DCB    27
        0x080028b4:    006d305b    [0m.    DCD    7155803
    .L.str.1
        0x080028b8:    3b345b1b    .[4;    DCD    993286939
        0x080028bc:    006d3134    41m.    DCD    7156020
    .L.str
        0x080028c0:    6d726554    Term    DCD    1836213588
        0x080028c4:    6c616e69    inal    DCD    1818324585
        0x080028c8:    00          .       DCB    0
    .L.str.39
        0x080028c9:    757365      use     DCB    117,115,101
        0x080028cc:    6d697420     tim    DCD    1835627552
        0x080028d0:    25203a65    e: %    DCD    622869093
        0x080028d4:    6d20646c    ld m    DCD    1830839404
        0x080028d8:    000a0d73    s...    DCD    658803
    .L.str.43
        0x080028dc:    312e3625    %6.1    DCD    825112101
        0x080028e0:    000a2066    f ..    DCD    663654
    .L.str.46
        0x080028e4:    322e3625    %6.2    DCD    841889317
        0x080028e8:    0a20666c    lf .    DCD    169895532
        0x080028ec:    00          .       DCB    0
    .L.str.15
        0x080028ed:    43685f      Ch_     DCB    67,104,95
        0x080028f0:    6c475f31    1_Gl    DCD    1816616753
        0x080028f4:    203a626f    ob:     DCD    540697199
        0x080028f8:    20202020            DCD    538976288
        0x080028fc:    20202020            DCD    538976288
        0x08002900:    63252020      %c    DCD    1663377440
        0x08002904:    000a        ..      DCW    10
    .L.str.17
        0x08002906:    6843        Ch      DCW    26691
        0x08002908:    475f325f    _2_G    DCD    1197421151
        0x0800290c:    3a626f6c    lob:    DCD    979529580
        0x08002910:    20202020            DCD    538976288
        0x08002914:    20202020            DCD    538976288
        0x08002918:    25202020       %    DCD    622862368
        0x0800291c:    0a63        c.      DCW    2659
        0x0800291e:    00          .       DCB    0
    .L.str.16
        0x0800291f:    20                  DCB    32
        0x08002920:    20202020            DCD    538976288
        0x08002924:    73202020       s    DCD    1931485216
        0x08002928:    6c756f68    houl    DCD    1819635560
        0x0800292c:    65622064    d be    DCD    1700929636
        0x08002930:    2020203a    :       DCD    538976314
        0x08002934:    000a6325    %c..    DCD    680741
    .L.str.24
        0x08002938:    69442020      Di    DCD    1766072352
        0x0800293c:    3a726373    scr:    DCD    980575091
        0x08002940:    20202020            DCD    538976288
        0x08002944:    20202020            DCD    538976288
        0x08002948:    20202020            DCD    538976288
        0x0800294c:    0a642520     %d.    DCD    174335264
        0x08002950:    00          .       DCB    0
    .L.str.12
        0x08002951:    496e74      Int     DCB    73,110,116
        0x08002954:    6f6c475f    _Glo    DCD    1869367135
        0x08002958:    20203a62    b:      DCD    538983010
        0x0800295c:    20202020            DCD    538976288
        0x08002960:    20202020            DCD    538976288
        0x08002964:    64252020      %d    DCD    1680154656
        0x08002968:    000a        ..      DCW    10
    .L.str.34
        0x0800296a:    6e45        En      DCW    28229
        0x0800296c:    4c5f6d75    um_L    DCD    1281322357
        0x08002970:    203a636f    oc:     DCD    540697455
        0x08002974:    20202020            DCD    538976288
        0x08002978:    20202020            DCD    538976288
        0x0800297c:    25202020       %    DCD    622862368
        0x08002980:    0a64        d.      DCW    2660
        0x08002982:    00          .       DCB    0
    .L.str.14
        0x08002983:    42          B       DCB    66
        0x08002984:    5f6c6f6f    ool_    DCD    1600941935
        0x08002988:    626f6c47    Glob    DCD    1651469383
        0x0800298c:    2020203a    :       DCD    538976314
        0x08002990:    20202020            DCD    538976288
        0x08002994:    20202020            DCD    538976288
        0x08002998:    000a6425    %d..    DCD    680997
    .L.str.31
        0x0800299c:    5f746e49    Int_    DCD    1601465929
        0x080029a0:    6f4c5f31    1_Lo    DCD    1867276081
        0x080029a4:    20203a63    c:      DCD    538983011
        0x080029a8:    20202020            DCD    538976288
        0x080029ac:    20202020            DCD    538976288
        0x080029b0:    0a642520     %d.    DCD    174335264
        0x080029b4:    00          .       DCB    0
    .L.str.32
        0x080029b5:    496e74      Int     DCB    73,110,116
        0x080029b8:    4c5f325f    _2_L    DCD    1281307231
        0x080029bc:    203a636f    oc:     DCD    540697455
        0x080029c0:    20202020            DCD    538976288
        0x080029c4:    20202020            DCD    538976288
        0x080029c8:    64252020      %d    DCD    1680154656
        0x080029cc:    000a        ..      DCW    10
    .L.str.33
        0x080029ce:    6e49        In      DCW    28233
        0x080029d0:    5f335f74    t_3_    DCD    1597202292
        0x080029d4:    3a636f4c    Loc:    DCD    979595084
        0x080029d8:    20202020            DCD    538976288
        0x080029dc:    20202020            DCD    538976288
        0x080029e0:    25202020       %    DCD    622862368
        0x080029e4:    0a64        d.      DCW    2660
        0x080029e6:    00          .       DCB    0
    .L.str.22
        0x080029e7:    20                  DCB    32
        0x080029e8:    72745020     Ptr    DCD    1920225312
        0x080029ec:    6d6f435f    _Com    DCD    1836008287
        0x080029f0:    20203a70    p:      DCD    538983024
        0x080029f4:    20202020            DCD    538976288
        0x080029f8:    20202020            DCD    538976288
        0x080029fc:    000a6425    %d..    DCD    680997
    .L.str.26
        0x08002a00:    6e492020      In    DCD    1850286112
        0x08002a04:    6f435f74    t_Co    DCD    1866686324
        0x08002a08:    203a706d    mp:     DCD    540700781
        0x08002a0c:    20202020            DCD    538976288
        0x08002a10:    20202020            DCD    538976288
        0x08002a14:    0a642520     %d.    DCD    174335264
        0x08002a18:    00          .       DCB    0
    .L.str.25
        0x08002a19:    202045        E     DCB    32,32,69
        0x08002a1c:    5f6d756e    num_    DCD    1601009006
        0x08002a20:    706d6f43    Comp    DCD    1886220099
        0x08002a24:    2020203a    :       DCD    538976314
        0x08002a28:    20202020            DCD    538976288
        0x08002a2c:    64252020      %d    DCD    1680154656
        0x08002a30:    000a        ..      DCW    10
    .L.str.18
        0x08002a32:    7241        Ar      DCW    29249
        0x08002a34:    5f315f72    r_1_    DCD    1597071218
        0x08002a38:    626f6c47    Glob    DCD    1651469383
        0x08002a3c:    3a5d385b    [8]:    DCD    979187803
        0x08002a40:    20202020            DCD    538976288
        0x08002a44:    25202020       %    DCD    622862368
        0x08002a48:    0a64        d.      DCW    2660
        0x08002a4a:    00          .       DCB    0
    .L.str.19
        0x08002a4b:    41          A       DCB    65
        0x08002a4c:    325f7272    rr_2    DCD    845116018
        0x08002a50:    6f6c475f    _Glo    DCD    1869367135
        0x08002a54:    5d385b62    b[8]    DCD    1563974498
        0x08002a58:    3a5d375b    [7]:    DCD    979187547
        0x08002a5c:    20202020            DCD    538976288
        0x08002a60:    000a6425    %d..    DCD    680997
    .L.str.13
        0x08002a64:    20202020            DCD    538976288
        0x08002a68:    20202020            DCD    538976288
        0x08002a6c:    756f6873    shou    DCD    1970235507
        0x08002a70:    6220646c    ld b    DCD    1646290028
        0x08002a74:    20203a65    e:      DCD    538983013
        0x08002a78:    0a642520     %d.    DCD    174335264
        0x08002a7c:    00          .       DCB    0
    .L.str.35
        0x08002a7d:    537472      Str     DCB    83,116,114
        0x08002a80:    4c5f315f    _1_L    DCD    1281306975
        0x08002a84:    203a636f    oc:     DCD    540697455
        0x08002a88:    20202020            DCD    538976288
        0x08002a8c:    20202020            DCD    538976288
        0x08002a90:    73252020      %s    DCD    1931812896
        0x08002a94:    000a        ..      DCW    10
    .L.str.37
        0x08002a96:    7453        St      DCW    29779
        0x08002a98:    5f325f72    r_2_    DCD    1597136754
        0x08002a9c:    3a636f4c    Loc:    DCD    979595084
        0x08002aa0:    20202020            DCD    538976288
        0x08002aa4:    20202020            DCD    538976288
        0x08002aa8:    25202020       %    DCD    622862368
        0x08002aac:    0a73        s.      DCW    2675
        0x08002aae:    00          .       DCB    0
    .L.str.27
        0x08002aaf:    20                  DCB    32
        0x08002ab0:    72745320     Str    DCD    1920226080
        0x08002ab4:    6d6f435f    _Com    DCD    1836008287
        0x08002ab8:    20203a70    p:      DCD    538983024
        0x08002abc:    20202020            DCD    538976288
        0x08002ac0:    20202020            DCD    538976288
        0x08002ac4:    000a7325    %s..    DCD    684837
    .L.str.45
        0x08002ac8:    50494d44    DMIP    DCD    1346981188
        0x08002acc:    203d2053    S =     DCD    540876883
        0x08002ad0:    20202020            DCD    538976288
        0x08002ad4:    20202020            DCD    538976288
        0x08002ad8:    20202020            DCD    538976288
        0x08002adc:    20202020            DCD    538976288
        0x08002ae0:    20202020            DCD    538976288
        0x08002ae4:    20202020            DCD    538976288
        0x08002ae8:    0020         .      DCW    32
    .L.str.47
        0x08002aea:    4d44        DM      DCW    19780
        0x08002aec:    2f535049    IPS/    DCD    793989193
        0x08002af0:    207a484d    MHz     DCD    544884813
        0x08002af4:    2020203d    =       DCD    538976317
        0x08002af8:    20202020            DCD    538976288
        0x08002afc:    20202020            DCD    538976288
        0x08002b00:    20202020            DCD    538976288
        0x08002b04:    20202020            DCD    538976288
        0x08002b08:    20202020            DCD    538976288
        0x08002b0c:    00202020       .    DCD    2105376
    .L.str.44
        0x08002b10:    79726844    Dhry    DCD    2037540932
        0x08002b14:    6e6f7473    ston    DCD    1852798067
        0x08002b18:    70207365    es p    DCD    1881174885
        0x08002b1c:    53207265    er S    DCD    1394635365
        0x08002b20:    6e6f6365    econ    DCD    1852793701
        0x08002b24:    20203a64    d:      DCD    538983012
        0x08002b28:    20202020            DCD    538976288
        0x08002b2c:    20202020            DCD    538976288
        0x08002b30:    20202020            DCD    538976288
        0x08002b34:    20202020            DCD    538976288
        0x08002b38:    20202020            DCD    538976288
        0x08002b3c:    00          .       DCB    0
    .L.str.42
        0x08002b3d:    4d6963      Mic     DCB    77,105,99
        0x08002b40:    65736f72    rose    DCD    1702063986
        0x08002b44:    646e6f63    cond    DCD    1684959075
        0x08002b48:    6f662073    s fo    DCD    1868963955
        0x08002b4c:    6e6f2072    r on    DCD    1852776562
        0x08002b50:    75722065    e ru    DCD    1970413669
        0x08002b54:    6874206e    n th    DCD    1752440942
        0x08002b58:    67756f72    roug    DCD    1735749490
        0x08002b5c:    68442068    h Dh    DCD    1749295208
        0x08002b60:    74737972    ryst    DCD    1953724786
        0x08002b64:    3a656e6f    one:    DCD    979725935
        0x08002b68:    0020         .      DCW    32
    .Lstr
        0x08002b6a:    6844        Dh      DCW    26692
        0x08002b6c:    74737972    ryst    DCD    1953724786
        0x08002b70:    20656e6f    one     DCD    543518319
        0x08002b74:    636e6542    Benc    DCD    1668179266
        0x08002b78:    72616d68    hmar    DCD    1918987624
        0x08002b7c:    56202c6b    k, V    DCD    1444949099
        0x08002b80:    69737265    ersi    DCD    1769173605
        0x08002b84:    32206e6f    on 2    DCD    840986223
        0x08002b88:    2820312e    .1 (    DCD    673198382
        0x08002b8c:    676e614c    Lang    DCD    1735287116
        0x08002b90:    65676175    uage    DCD    1701273973
        0x08002b94:    2943203a    : C)    DCD    692265018
        0x08002b98:    00          .       DCB    0
    .Lstr.53
        0x08002b99:    202020              DCB    32,32,32
        0x08002b9c:    20202020            DCD    538976288
        0x08002ba0:    6f687320     sho    DCD    1869116192
        0x08002ba4:    20646c75    uld     DCD    543452277
        0x08002ba8:    203a6562    be:     DCD    540697954
        0x08002bac:    69282020      (i    DCD    1764237344
        0x08002bb0:    656c706d    mple    DCD    1701605485
        0x08002bb4:    746e656d    ment    DCD    1953391981
        0x08002bb8:    6f697461    atio    DCD    1869182049
        0x08002bbc:    65642d6e    n-de    DCD    1701064046
        0x08002bc0:    646e6570    pend    DCD    1684956528
        0x08002bc4:    29746e65    ent)    DCD    695496293
        0x08002bc8:    00          .       DCB    0
    .Lstr.51
        0x08002bc9:    202020              DCB    32,32,32
        0x08002bcc:    20202020            DCD    538976288
        0x08002bd0:    6f687320     sho    DCD    1869116192
        0x08002bd4:    20646c75    uld     DCD    543452277
        0x08002bd8:    203a6562    be:     DCD    540697954
        0x08002bdc:    754e2020      Nu    DCD    1968054304
        0x08002be0:    7265626d    mber    DCD    1919246957
        0x08002be4:    5f664f5f    _Of_    DCD    1600540511
        0x08002be8:    736e7552    Runs    DCD    1936618834
        0x08002bec:    31202b20     + 1    DCD    824191776
        0x08002bf0:    0030        0.      DCW    48
    .Lstr.50
        0x08002bf2:    6946        Fi      DCW    26950
        0x08002bf4:    206c616e    nal     DCD    543973742
        0x08002bf8:    756c6176    valu    DCD    1970037110
        0x08002bfc:    6f207365    es o    DCD    1864397669
        0x08002c00:    68742066    f th    DCD    1752440934
        0x08002c04:    61762065    e va    DCD    1635131493
        0x08002c08:    62616972    riab    DCD    1650551154
        0x08002c0c:    2073656c    les     DCD    544433516
        0x08002c10:    64657375    used    DCD    1684370293
        0x08002c14:    206e6920     in     DCD    544106784
        0x08002c18:    20656874    the     DCD    543516788
        0x08002c1c:    636e6562    benc    DCD    1668179298
        0x08002c20:    72616d68    hmar    DCD    1918987624
        0x08002c24:    3a6b        k:      DCW    14955
        0x08002c26:    00          .       DCB    0
    .Lstr.55
        0x08002c27:    4e          N       DCB    78
        0x08002c28:    5f747865    ext_    DCD    1601468517
    .Lstr.52
        0x08002c2c:    5f727450    Ptr_    DCD    1601336400
        0x08002c30:    626f6c47    Glob    DCD    1651469383
        0x08002c34:    3e2d        ->      DCW    15917
        0x08002c36:    00          .       DCB    0
    .Lstr.59
        0x08002c37:    20                  DCB    32
        0x08002c38:    20202020            DCD    538976288
        0x08002c3c:    73202020       s    DCD    1931485216
        0x08002c40:    6c756f68    houl    DCD    1819635560
        0x08002c44:    65622064    d be    DCD    1700929636
        0x08002c48:    2020203a    :       DCD    538976314
        0x08002c4c:    59524844    DHRY    DCD    1498564676
        0x08002c50:    4e4f5453    STON    DCD    1313821779
        0x08002c54:    52502045    E PR    DCD    1380982853
        0x08002c58:    4152474f    OGRA    DCD    1095911247
        0x08002c5c:    32202c4d    M, 2    DCD    840969293
        0x08002c60:    20444e27    'ND     DCD    541347367
        0x08002c64:    49525453    STRI    DCD    1230132307
        0x08002c68:    474e        NG      DCW    18254
        0x08002c6a:    00          .       DCB    0
    .Lstr.57
        0x08002c6b:    20                  DCB    32
        0x08002c6c:    20202020            DCD    538976288
        0x08002c70:    73202020       s    DCD    1931485216
        0x08002c74:    6c756f68    houl    DCD    1819635560
        0x08002c78:    65622064    d be    DCD    1700929636
        0x08002c7c:    2020203a    :       DCD    538976314
        0x08002c80:    59524844    DHRY    DCD    1498564676
        0x08002c84:    4e4f5453    STON    DCD    1313821779
        0x08002c88:    52502045    E PR    DCD    1380982853
        0x08002c8c:    4152474f    OGRA    DCD    1095911247
        0x08002c90:    53202c4d    M, S    DCD    1394617421
        0x08002c94:    20454d4f    OME     DCD    541412687
        0x08002c98:    49525453    STRI    DCD    1230132307
        0x08002c9c:    474e        NG      DCW    18254
        0x08002c9e:    00          .       DCB    0
    .Lstr.58
        0x08002c9f:    20                  DCB    32
        0x08002ca0:    20202020            DCD    538976288
        0x08002ca4:    73202020       s    DCD    1931485216
        0x08002ca8:    6c756f68    houl    DCD    1819635560
        0x08002cac:    65622064    d be    DCD    1700929636
        0x08002cb0:    2020203a    :       DCD    538976314
        0x08002cb4:    59524844    DHRY    DCD    1498564676
        0x08002cb8:    4e4f5453    STON    DCD    1313821779
        0x08002cbc:    52502045    E PR    DCD    1380982853
        0x08002cc0:    4152474f    OGRA    DCD    1095911247
        0x08002cc4:    31202c4d    M, 1    DCD    824192077
        0x08002cc8:    20545327    'ST     DCD    542397223
        0x08002ccc:    49525453    STRI    DCD    1230132307
        0x08002cd0:    474e        NG      DCW    18254
        0x08002cd2:    00          .       DCB    0
    .Lstr.62
        0x08002cd3:    50          P       DCB    80
        0x08002cd4:    72676f72    rogr    DCD    1919381362
        0x08002cd8:    63206d61    am c    DCD    1663069537
        0x08002cdc:    69706d6f    ompi    DCD    1768975727
        0x08002ce0:    2064656c    led     DCD    543450476
        0x08002ce4:    68746977    with    DCD    1752459639
        0x08002ce8:    65722720     're    DCD    1701979936
        0x08002cec:    74736967    gist    DCD    1953720679
        0x08002cf0:    20277265    er'     DCD    539456101
        0x08002cf4:    72747461    attr    DCD    1920234593
        0x08002cf8:    74756269    ibut    DCD    1953849961
        0x08002cfc:    0065        e.      DCW    101
    .Lstr.48
        0x08002cfe:    7250        Pr      DCW    29264
        0x08002d00:    6172676f    ogra    DCD    1634887535
        0x08002d04:    6f63206d    m co    DCD    1868767341
        0x08002d08:    6c69706d    mpil    DCD    1818849389
        0x08002d0c:    77206465    ed w    DCD    1998611557
        0x08002d10:    6f687469    itho    DCD    1869116521
        0x08002d14:    27207475    ut '    DCD    656438389
        0x08002d18:    69676572    regi    DCD    1768383858
        0x08002d1c:    72657473    ster    DCD    1919251571
        0x08002d20:    74612027    ' at    DCD    1952522279
        0x08002d24:    62697274    trib    DCD    1651077748
        0x08002d28:    00657475    ute.    DCD    6648949
    .Lstr.56
        0x08002d2c:    20202020            DCD    538976288
        0x08002d30:    20202020            DCD    538976288
        0x08002d34:    756f6873    shou    DCD    1970235507
        0x08002d38:    6220646c    ld b    DCD    1646290028
        0x08002d3c:    20203a65    e:      DCD    538983013
        0x08002d40:    6d692820     (im    DCD    1835608096
        0x08002d44:    6d656c70    plem    DCD    1835363440
        0x08002d48:    61746e65    enta    DCD    1635020389
        0x08002d4c:    6e6f6974    tion    DCD    1852795252
        0x08002d50:    7065642d    -dep    DCD    1885692973
        0x08002d54:    65646e65    ende    DCD    1701080677
        0x08002d58:    2c29746e    nt),    DCD    740914286
        0x08002d5c:    6d617320     sam    DCD    1835103008
        0x08002d60:    73612065    e as    DCD    1935745125
        0x08002d64:    6f626120     abo    DCD    1868718368
        0x08002d68:    6576        ve      DCW    25974
        0x08002d6a:    00          .       DCB    0
    .Lstr.49
        0x08002d6b:    45          E       DCB    69
        0x08002d6c:    75636578    xecu    DCD    1969448312
        0x08002d70:    6e6f6974    tion    DCD    1852795252
        0x08002d74:    646e6520     end    DCD    1684956448
        0x08002d78:    0073        s.      DCW    115
    .Lstr.61
        0x08002d7a:    6c50        Pl      DCW    27728
        0x08002d7c:    65736165    ease    DCD    1702060389
        0x08002d80:    636e6920     inc    DCD    1668180256
        0x08002d84:    73616572    reas    DCD    1935762802
        0x08002d88:    756e2065    e nu    DCD    1970151525
        0x08002d8c:    7265626d    mber    DCD    1919246957
        0x08002d90:    20666f20     of     DCD    543584032
        0x08002d94:    736e7572    runs    DCD    1936618866
        0x08002d98:    00          .       DCB    0
    .Lstr.60
        0x08002d99:    4d6561      Mea     DCB    77,101,97
        0x08002d9c:    65727573    sure    DCD    1701999987
        0x08002da0:    69742064    d ti    DCD    1769218148
        0x08002da4:    7420656d    me t    DCD    1948280173
        0x08002da8:    73206f6f    oo s    DCD    1931505519
        0x08002dac:    6c6c616d    mall    DCD    1819042157
        0x08002db0:    206f7420     to     DCD    544175136
        0x08002db4:    6174626f    obta    DCD    1635017327
        0x08002db8:    6d206e69    in m    DCD    1830841961
        0x08002dbc:    696e6165    eani    DCD    1768841573
        0x08002dc0:    7566676e    ngfu    DCD    1969645422
        0x08002dc4:    6572206c    l re    DCD    1701978220
        0x08002dc8:    746c7573    sult    DCD    1953265011
        0x08002dcc:    00000073    s...    DCD    115
    .L.str.9
        0x08002dd0:    59524844    DHRY    DCD    1498564676
        0x08002dd4:    4e4f5453    STON    DCD    1313821779
        0x08002dd8:    52502045    E PR    DCD    1380982853
        0x08002ddc:    4152474f    OGRA    DCD    1095911247
        0x08002de0:    33202c4d    M, 3    DCD    857746509
        0x08002de4:    20445227    'RD     DCD    541348391
        0x08002de8:    49525453    STRI    DCD    1230132307
        0x08002dec:    0000474e    NG..    DCD    18254
    .L.str
        0x08002df0:    59524844    DHRY    DCD    1498564676
        0x08002df4:    4e4f5453    STON    DCD    1313821779
        0x08002df8:    52502045    E PR    DCD    1380982853
        0x08002dfc:    4152474f    OGRA    DCD    1095911247
        0x08002e00:    53202c4d    M, S    DCD    1394617421
        0x08002e04:    20454d4f    OME     DCD    541412687
        0x08002e08:    49525453    STRI    DCD    1230132307
        0x08002e0c:    0000474e    NG..    DCD    18254
    Region$$Table$$Base
        0x08002e10:    08002e30    0...    DCD    134229552
        0x08002e14:    20000000    ...     DCD    536870912
        0x08002e18:    00000008    ....    DCD    8
        0x08002e1c:    08001f44    D...    DCD    134225732
        0x08002e20:    08002e38    8...    DCD    134229560
        0x08002e24:    20000008    ...     DCD    536870920
        0x08002e28:    00003570    p5..    DCD    13680
        0x08002e2c:    08001f54    T...    DCD    134225748
    Region$$Table$$Limit

** Section #2 'RW_IRAM1' (SHT_PROGBITS) [SHF_ALLOC + SHF_WRITE]
    Size   : 8 bytes (alignment 8)
    Address: 0x20000000


** Section #3 'RW_IRAM1' (SHT_NOBITS) [SHF_ALLOC + SHF_WRITE]
    Size   : 13680 bytes (alignment 8)
    Address: 0x20000008


** Section #4 '.debug_abbrev' (SHT_PROGBITS)
    Size   : 2652 bytes


** Section #5 '.debug_frame' (SHT_PROGBITS)
    Size   : 2984 bytes


** Section #6 '.debug_info' (SHT_PROGBITS)
    Size   : 16521 bytes


** Section #7 '.debug_line' (SHT_PROGBITS)
    Size   : 10749 bytes


** Section #8 '.debug_loc' (SHT_PROGBITS)
    Size   : 18222 bytes


** Section #9 '.debug_str' (SHT_PROGBITS)
    Size   : 6418 bytes


** Section #10 '.debug_ranges' (SHT_PROGBITS)
    Size   : 1768 bytes


** Section #11 '.symtab' (SHT_SYMTAB)
    Size   : 6848 bytes (alignment 4)
    String table #12 '.strtab'
    Last local symbol no. 236


** Section #12 '.strtab' (SHT_STRTAB)
    Size   : 5256 bytes


** Section #13 '.note' (SHT_NOTE)
    Size   : 28 bytes (alignment 4)


** Section #14 '.comment' (SHT_PROGBITS)
    Size   : 1932 bytes


** Section #15 '.shstrtab' (SHT_STRTAB)
    Size   : 148 bytes


