Component: ARM Compiler 5.06 update 7 (build 960) Tool: armlink [4d3601]

==============================================================================

Image Symbol Table

    Local Symbols

    Symbol Name                              Value     Ov Type        Size  Object(Section)

    RESET                                    0x00000000   Section      640  startup_hc32f46x.o(RESET)
    ../clib/microlib/ctype/ctype.c           0x00000000   Number         0  isblank_o.o ABSOLUTE
    ../clib/microlib/ctype/ctype.c           0x00000000   Number         0  isspace_o.o ABSOLUTE
    ../clib/microlib/ctype/ctype.c           0x00000000   Number         0  isupper_o.o ABSOLUTE
    ../clib/microlib/ctype/ctype.c           0x00000000   Number         0  ctype_o.o ABSOLUTE
    ../clib/microlib/ctype/ctype.c           0x00000000   Number         0  isalnum_o.o ABSOLUTE
    ../clib/microlib/ctype/ctype.c           0x00000000   Number         0  isalpha_o.o ABSOLUTE
    ../clib/microlib/ctype/ctype.c           0x00000000   Number         0  isxdigit_o.o ABSOLUTE
    ../clib/microlib/ctype/ctype.c           0x00000000   Number         0  iscntrl_o.o ABSOLUTE
    ../clib/microlib/ctype/ctype.c           0x00000000   Number         0  isdigit_o.o ABSOLUTE
    ../clib/microlib/ctype/ctype.c           0x00000000   Number         0  isgraph_o.o ABSOLUTE
    ../clib/microlib/ctype/ctype.c           0x00000000   Number         0  islower_o.o ABSOLUTE
    ../clib/microlib/ctype/ctype.c           0x00000000   Number         0  isprint_o.o ABSOLUTE
    ../clib/microlib/ctype/ctype.c           0x00000000   Number         0  ispunct_o.o ABSOLUTE
    ../clib/microlib/division.c              0x00000000   Number         0  uidiv.o ABSOLUTE
    ../clib/microlib/division.c              0x00000000   Number         0  uldiv.o ABSOLUTE
    ../clib/microlib/division.c              0x00000000   Number         0  ldiv.o ABSOLUTE
    ../clib/microlib/errno.c                 0x00000000   Number         0  errno.o ABSOLUTE
    ../clib/microlib/init/entry.s            0x00000000   Number         0  entry11b.o ABSOLUTE
    ../clib/microlib/init/entry.s            0x00000000   Number         0  entry9a.o ABSOLUTE
    ../clib/microlib/init/entry.s            0x00000000   Number         0  entry12b.o ABSOLUTE
    ../clib/microlib/init/entry.s            0x00000000   Number         0  entry8b.o ABSOLUTE
    ../clib/microlib/init/entry.s            0x00000000   Number         0  entry7b.o ABSOLUTE
    ../clib/microlib/init/entry.s            0x00000000   Number         0  entry9b.o ABSOLUTE
    ../clib/microlib/init/entry.s            0x00000000   Number         0  entry12a.o ABSOLUTE
    ../clib/microlib/init/entry.s            0x00000000   Number         0  entry.o ABSOLUTE
    ../clib/microlib/init/entry.s            0x00000000   Number         0  entry10a.o ABSOLUTE
    ../clib/microlib/init/entry.s            0x00000000   Number         0  entry8a.o ABSOLUTE
    ../clib/microlib/init/entry.s            0x00000000   Number         0  entry2.o ABSOLUTE
    ../clib/microlib/init/entry.s            0x00000000   Number         0  entry5.o ABSOLUTE
    ../clib/microlib/init/entry.s            0x00000000   Number         0  entry10b.o ABSOLUTE
    ../clib/microlib/init/entry.s            0x00000000   Number         0  entry7a.o ABSOLUTE
    ../clib/microlib/init/entry.s            0x00000000   Number         0  entry11a.o ABSOLUTE
    ../clib/microlib/longlong.c              0x00000000   Number         0  llsshr.o ABSOLUTE
    ../clib/microlib/longlong.c              0x00000000   Number         0  llshl.o ABSOLUTE
    ../clib/microlib/longlong.c              0x00000000   Number         0  llushr.o ABSOLUTE
    ../clib/microlib/printf/printf.c         0x00000000   Number         0  printf3.o ABSOLUTE
    ../clib/microlib/printf/printf.c         0x00000000   Number         0  printf4.o ABSOLUTE
    ../clib/microlib/printf/printf.c         0x00000000   Number         0  printf5.o ABSOLUTE
    ../clib/microlib/printf/printf.c         0x00000000   Number         0  printf1.o ABSOLUTE
    ../clib/microlib/printf/printf.c         0x00000000   Number         0  printf7.o ABSOLUTE
    ../clib/microlib/printf/printf.c         0x00000000   Number         0  printf8.o ABSOLUTE
    ../clib/microlib/printf/printf.c         0x00000000   Number         0  printfa.o ABSOLUTE
    ../clib/microlib/printf/printf.c         0x00000000   Number         0  printf0.o ABSOLUTE
    ../clib/microlib/printf/printf.c         0x00000000   Number         0  printfb.o ABSOLUTE
    ../clib/microlib/printf/printf.c         0x00000000   Number         0  printf2.o ABSOLUTE
    ../clib/microlib/printf/printf.c         0x00000000   Number         0  printf6.o ABSOLUTE
    ../clib/microlib/printf/stubs.s          0x00000000   Number         0  stubs.o ABSOLUTE
    ../clib/microlib/stdio/streams.c         0x00000000   Number         0  stdout.o ABSOLUTE
    ../clib/microlib/string/memcpy.c         0x00000000   Number         0  memcpya.o ABSOLUTE
    ../clib/microlib/string/memcpy.c         0x00000000   Number         0  memmoveb.o ABSOLUTE
    ../clib/microlib/string/memcpy.c         0x00000000   Number         0  memmovea.o ABSOLUTE
    ../clib/microlib/string/memcpy.c         0x00000000   Number         0  memcpyb.o ABSOLUTE
    ../clib/microlib/string/memset.c         0x00000000   Number         0  memseta.o ABSOLUTE
    ../clib/microlib/string/strcpy.c         0x00000000   Number         0  strcpy.o ABSOLUTE
    ../clib/microlib/string/strlen.c         0x00000000   Number         0  strlen.o ABSOLUTE
    ../clib/microlib/stubs.s                 0x00000000   Number         0  iusefp.o ABSOLUTE
    ../fplib/microlib/d2f.c                  0x00000000   Number         0  d2f.o ABSOLUTE
    ../fplib/microlib/f2d.c                  0x00000000   Number         0  f2d.o ABSOLUTE
    ../fplib/microlib/fpadd.c                0x00000000   Number         0  dadd.o ABSOLUTE
    ../fplib/microlib/fpadd.c                0x00000000   Number         0  fadd.o ABSOLUTE
    ../fplib/microlib/fpdiv.c                0x00000000   Number         0  fdiv.o ABSOLUTE
    ../fplib/microlib/fpdiv.c                0x00000000   Number         0  ddiv.o ABSOLUTE
    ../fplib/microlib/fpepilogue.c           0x00000000   Number         0  depilogue.o ABSOLUTE
    ../fplib/microlib/fpepilogue.c           0x00000000   Number         0  fepilogue.o ABSOLUTE
    ../fplib/microlib/fpfix.c                0x00000000   Number         0  ffixir.o ABSOLUTE
    ../fplib/microlib/fpfix.c                0x00000000   Number         0  dfixul.o ABSOLUTE
    ../fplib/microlib/fpfix.c                0x00000000   Number         0  ffixi.o ABSOLUTE
    ../fplib/microlib/fpfix.c                0x00000000   Number         0  ffixui.o ABSOLUTE
    ../fplib/microlib/fpfix.c                0x00000000   Number         0  ffixl.o ABSOLUTE
    ../fplib/microlib/fpflt.c                0x00000000   Number         0  fflti.o ABSOLUTE
    ../fplib/microlib/fpflt.c                0x00000000   Number         0  ffltui.o ABSOLUTE
    ../fplib/microlib/fpflt.c                0x00000000   Number         0  dfltui.o ABSOLUTE
    ../fplib/microlib/fpflt.c                0x00000000   Number         0  dflti.o ABSOLUTE
    ../fplib/microlib/fpmul.c                0x00000000   Number         0  fmul.o ABSOLUTE
    ../fplib/microlib/fpmul.c                0x00000000   Number         0  dmul.o ABSOLUTE
    ../fplib/microlib/fprnd.c                0x00000000   Number         0  frnd.o ABSOLUTE
    ../fplib/microlib/fpscalb.c              0x00000000   Number         0  dscalb.o ABSOLUTE
    ../fplib/microlib/fpscalb.c              0x00000000   Number         0  fscalb.o ABSOLUTE
    ../fplib/microlib/fpsqrt.c               0x00000000   Number         0  dsqrt.o ABSOLUTE
    ../fplib/microlib/fpsqrt.c               0x00000000   Number         0  fsqrt.o ABSOLUTE
    ../fplib/microlib/fpstat.c               0x00000000   Number         0  fpstat.o ABSOLUTE
    ../mathlib/dunder.c                      0x00000000   Number         0  dunder.o ABSOLUTE
    ../mathlib/expf.c                        0x00000000   Number         0  expf.o ABSOLUTE
    ../mathlib/expf.c                        0x00000000   Number         0  expf_x.o ABSOLUTE
    ../mathlib/fpclassifyf.c                 0x00000000   Number         0  fpclassifyf.o ABSOLUTE
    ../mathlib/funder.c                      0x00000000   Number         0  funder.o ABSOLUTE
    ../mathlib/log.c                         0x00000000   Number         0  log.o ABSOLUTE
    ../mathlib/log.c                         0x00000000   Number         0  log_x.o ABSOLUTE
    ../mathlib/logf.c                        0x00000000   Number         0  logf.o ABSOLUTE
    ../mathlib/logf.c                        0x00000000   Number         0  logf_x.o ABSOLUTE
    ../mathlib/poly.c                        0x00000000   Number         0  poly.o ABSOLUTE
    ../mathlib/powf.c                        0x00000000   Number         0  powf.o ABSOLUTE
    ../mathlib/powf.c                        0x00000000   Number         0  powf_x.o ABSOLUTE
    ../mathlib/qnan.c                        0x00000000   Number         0  qnan.o ABSOLUTE
    ../mathlib/sqrt.c                        0x00000000   Number         0  sqrt_x.o ABSOLUTE
    ../mathlib/sqrt.c                        0x00000000   Number         0  sqrt.o ABSOLUTE
    ../mathlib/sqrtf.c                       0x00000000   Number         0  sqrtf.o ABSOLUTE
    ../mathlib/sqrtf.c                       0x00000000   Number         0  sqrtf_x.o ABSOLUTE
    ../mathlib/tanhf.c                       0x00000000   Number         0  tanhf.o ABSOLUTE
    ../mathlib/tanhf.c                       0x00000000   Number         0  tanhf_x.o ABSOLUTE
    ..\HAL\mcu_sdk\mcu_api.c                 0x00000000   Number         0  mcu_api.o ABSOLUTE
    ..\HAL\mcu_sdk\protocol.c                0x00000000   Number         0  protocol.o ABSOLUTE
    ..\HAL\mcu_sdk\system.c                  0x00000000   Number         0  system.o ABSOLUTE
    ..\HAL\src\adc.c                         0x00000000   Number         0  adc.o ABSOLUTE
    ..\HAL\src\gpio.c                        0x00000000   Number         0  gpio.o ABSOLUTE
    ..\HAL\src\led.c                         0x00000000   Number         0  led.o ABSOLUTE
    ..\HAL\src\sysclk.c                      0x00000000   Number         0  sysclk.o ABSOLUTE
    ..\HAL\src\test_usart.c                  0x00000000   Number         0  test_usart.o ABSOLUTE
    ..\HAL\src\timera_pwm.c                  0x00000000   Number         0  timera_pwm.o ABSOLUTE
    ..\HAL\src\usart.c                       0x00000000   Number         0  usart.o ABSOLUTE
    ..\\HAL\\mcu_sdk\\protocol.c             0x00000000   Number         0  protocol.o ABSOLUTE
    ..\\HAL\\src\\adc.c                      0x00000000   Number         0  adc.o ABSOLUTE
    ..\\HAL\\src\\gpio.c                     0x00000000   Number         0  gpio.o ABSOLUTE
    ..\\HAL\\src\\led.c                      0x00000000   Number         0  led.o ABSOLUTE
    ..\\HAL\\src\\sysclk.c                   0x00000000   Number         0  sysclk.o ABSOLUTE
    ..\\HAL\\src\\test_usart.c               0x00000000   Number         0  test_usart.o ABSOLUTE
    ..\\HAL\\src\\timera_pwm.c               0x00000000   Number         0  timera_pwm.o ABSOLUTE
    ..\\HAL\\src\\usart.c                    0x00000000   Number         0  usart.o ABSOLUTE
    ..\\app\\app\\app.c                      0x00000000   Number         0  app.o ABSOLUTE
    ..\\app\\distance_measure\\src\\apfft.c  0x00000000   Number         0  apfft.o ABSOLUTE
    ..\\app\\distance_measure\\src\\corrcoef.c 0x00000000   Number         0  corrcoef.o ABSOLUTE
    ..\\app\\distance_measure\\src\\filter.c 0x00000000   Number         0  filter.o ABSOLUTE
    ..\\app\\distance_measure\\src\\micromotion_detection.c 0x00000000   Number         0  micromotion_detection.o ABSOLUTE
    ..\\app\\distance_measure\\src\\pd_calculation.c 0x00000000   Number         0  pd_calculation.o ABSOLUTE
    ..\\common\\src\\system_hc32f46x.c       0x00000000   Number         0  system_hc32f46x.o ABSOLUTE
    ..\\driver\\src\\hc32f46x_adc.c          0x00000000   Number         0  hc32f46x_adc.o ABSOLUTE
    ..\\driver\\src\\hc32f46x_clk.c          0x00000000   Number         0  hc32f46x_clk.o ABSOLUTE
    ..\\driver\\src\\hc32f46x_dmac.c         0x00000000   Number         0  hc32f46x_dmac.o ABSOLUTE
    ..\\driver\\src\\hc32f46x_efm.c          0x00000000   Number         0  hc32f46x_efm.o ABSOLUTE
    ..\\driver\\src\\hc32f46x_exint_nmi_swi.c 0x00000000   Number         0  hc32f46x_exint_nmi_swi.o ABSOLUTE
    ..\\driver\\src\\hc32f46x_gpio.c         0x00000000   Number         0  hc32f46x_gpio.o ABSOLUTE
    ..\\driver\\src\\hc32f46x_icg.c          0x00000000   Number         0  hc32f46x_icg.o ABSOLUTE
    ..\\driver\\src\\hc32f46x_interrupts.c   0x00000000   Number         0  hc32f46x_interrupts.o ABSOLUTE
    ..\\driver\\src\\hc32f46x_pwc.c          0x00000000   Number         0  hc32f46x_pwc.o ABSOLUTE
    ..\\driver\\src\\hc32f46x_sram.c         0x00000000   Number         0  hc32f46x_sram.o ABSOLUTE
    ..\\driver\\src\\hc32f46x_timer0.c       0x00000000   Number         0  hc32f46x_timer0.o ABSOLUTE
    ..\\driver\\src\\hc32f46x_timera.c       0x00000000   Number         0  hc32f46x_timera.o ABSOLUTE
    ..\\driver\\src\\hc32f46x_usart.c        0x00000000   Number         0  hc32f46x_usart.o ABSOLUTE
    ..\\driver\\src\\hc32f46x_utility.c      0x00000000   Number         0  hc32f46x_utility.o ABSOLUTE
    ..\\main.c                               0x00000000   Number         0  main.o ABSOLUTE
    ..\app\app\app.c                         0x00000000   Number         0  app.o ABSOLUTE
    ..\app\distance_measure\src\alpha_filter.c 0x00000000   Number         0  alpha_filter.o ABSOLUTE
    ..\app\distance_measure\src\apfft.c      0x00000000   Number         0  apfft.o ABSOLUTE
    ..\app\distance_measure\src\comp_table.c 0x00000000   Number         0  comp_table.o ABSOLUTE
    ..\app\distance_measure\src\corrcoef.c   0x00000000   Number         0  corrcoef.o ABSOLUTE
    ..\app\distance_measure\src\distance_measure.c 0x00000000   Number         0  distance_measure.o ABSOLUTE
    ..\app\distance_measure\src\filter.c     0x00000000   Number         0  filter.o ABSOLUTE
    ..\app\distance_measure\src\freq_linspace.c 0x00000000   Number         0  freq_linspace.o ABSOLUTE
    ..\app\distance_measure\src\hamming.c    0x00000000   Number         0  hamming.o ABSOLUTE
    ..\app\distance_measure\src\hanning_conv.c 0x00000000   Number         0  hanning_conv.o ABSOLUTE
    ..\app\distance_measure\src\micromotion_detection.c 0x00000000   Number         0  micromotion_detection.o ABSOLUTE
    ..\app\distance_measure\src\pd_calculation.c 0x00000000   Number         0  pd_calculation.o ABSOLUTE
    ..\app\rtt\SEGGER_RTT.c                  0x00000000   Number         0  segger_rtt.o ABSOLUTE
    ..\app\rtt\SEGGER_RTT_printf.c           0x00000000   Number         0  segger_rtt_printf.o ABSOLUTE
    ..\common\src\memalloc.c                 0x00000000   Number         0  memalloc.o ABSOLUTE
    ..\common\src\ringbuffer.c               0x00000000   Number         0  ringbuffer.o ABSOLUTE
    ..\common\src\system_hc32f46x.c          0x00000000   Number         0  system_hc32f46x.o ABSOLUTE
    ..\driver\src\hc32f46x_adc.c             0x00000000   Number         0  hc32f46x_adc.o ABSOLUTE
    ..\driver\src\hc32f46x_clk.c             0x00000000   Number         0  hc32f46x_clk.o ABSOLUTE
    ..\driver\src\hc32f46x_dmac.c            0x00000000   Number         0  hc32f46x_dmac.o ABSOLUTE
    ..\driver\src\hc32f46x_efm.c             0x00000000   Number         0  hc32f46x_efm.o ABSOLUTE
    ..\driver\src\hc32f46x_exint_nmi_swi.c   0x00000000   Number         0  hc32f46x_exint_nmi_swi.o ABSOLUTE
    ..\driver\src\hc32f46x_gpio.c            0x00000000   Number         0  hc32f46x_gpio.o ABSOLUTE
    ..\driver\src\hc32f46x_icg.c             0x00000000   Number         0  hc32f46x_icg.o ABSOLUTE
    ..\driver\src\hc32f46x_interrupts.c      0x00000000   Number         0  hc32f46x_interrupts.o ABSOLUTE
    ..\driver\src\hc32f46x_pwc.c             0x00000000   Number         0  hc32f46x_pwc.o ABSOLUTE
    ..\driver\src\hc32f46x_sram.c            0x00000000   Number         0  hc32f46x_sram.o ABSOLUTE
    ..\driver\src\hc32f46x_timer0.c          0x00000000   Number         0  hc32f46x_timer0.o ABSOLUTE
    ..\driver\src\hc32f46x_timera.c          0x00000000   Number         0  hc32f46x_timera.o ABSOLUTE
    ..\driver\src\hc32f46x_usart.c           0x00000000   Number         0  hc32f46x_usart.o ABSOLUTE
    ..\driver\src\hc32f46x_utility.c         0x00000000   Number         0  hc32f46x_utility.o ABSOLUTE
    ..\dsp\math_fp.c                         0x00000000   Number         0  math_fp.o ABSOLUTE
    ..\main.c                                0x00000000   Number         0  main.o ABSOLUTE
    cdcmple.s                                0x00000000   Number         0  cdcmple.o ABSOLUTE
    cdrcmple.s                               0x00000000   Number         0  cdrcmple.o ABSOLUTE
    cfcmple.s                                0x00000000   Number         0  cfcmple.o ABSOLUTE
    cfrcmple.s                               0x00000000   Number         0  cfrcmple.o ABSOLUTE
    d:\Keil_v5\Arm\Packs\ARM\CMSIS\5.8.0\CMSIS\DSP\Source\BasicMathFunctions\BasicMathFunctions.c 0x00000000   Number         0  basicmathfunctions.o ABSOLUTE
    d:\Keil_v5\Arm\Packs\ARM\CMSIS\5.8.0\CMSIS\DSP\Source\BasicMathFunctions\BasicMathFunctionsF16.c 0x00000000   Number         0  basicmathfunctionsf16.o ABSOLUTE
    d:\Keil_v5\Arm\Packs\ARM\CMSIS\5.8.0\CMSIS\DSP\Source\BayesFunctions\BayesFunctions.c 0x00000000   Number         0  bayesfunctions.o ABSOLUTE
    d:\Keil_v5\Arm\Packs\ARM\CMSIS\5.8.0\CMSIS\DSP\Source\BayesFunctions\BayesFunctionsF16.c 0x00000000   Number         0  bayesfunctionsf16.o ABSOLUTE
    d:\Keil_v5\Arm\Packs\ARM\CMSIS\5.8.0\CMSIS\DSP\Source\CommonTables\CommonTables.c 0x00000000   Number         0  commontables.o ABSOLUTE
    d:\Keil_v5\Arm\Packs\ARM\CMSIS\5.8.0\CMSIS\DSP\Source\CommonTables\CommonTablesF16.c 0x00000000   Number         0  commontablesf16.o ABSOLUTE
    d:\Keil_v5\Arm\Packs\ARM\CMSIS\5.8.0\CMSIS\DSP\Source\ComplexMathFunctions\ComplexMathFunctions.c 0x00000000   Number         0  complexmathfunctions.o ABSOLUTE
    d:\Keil_v5\Arm\Packs\ARM\CMSIS\5.8.0\CMSIS\DSP\Source\ComplexMathFunctions\ComplexMathFunctionsF16.c 0x00000000   Number         0  complexmathfunctionsf16.o ABSOLUTE
    d:\Keil_v5\Arm\Packs\ARM\CMSIS\5.8.0\CMSIS\DSP\Source\ControllerFunctions\ControllerFunctions.c 0x00000000   Number         0  controllerfunctions.o ABSOLUTE
    d:\Keil_v5\Arm\Packs\ARM\CMSIS\5.8.0\CMSIS\DSP\Source\DistanceFunctions\DistanceFunctions.c 0x00000000   Number         0  distancefunctions.o ABSOLUTE
    d:\Keil_v5\Arm\Packs\ARM\CMSIS\5.8.0\CMSIS\DSP\Source\DistanceFunctions\DistanceFunctionsF16.c 0x00000000   Number         0  distancefunctionsf16.o ABSOLUTE
    d:\Keil_v5\Arm\Packs\ARM\CMSIS\5.8.0\CMSIS\DSP\Source\FastMathFunctions\FastMathFunctions.c 0x00000000   Number         0  fastmathfunctions.o ABSOLUTE
    d:\Keil_v5\Arm\Packs\ARM\CMSIS\5.8.0\CMSIS\DSP\Source\FastMathFunctions\FastMathFunctionsF16.c 0x00000000   Number         0  fastmathfunctionsf16.o ABSOLUTE
    d:\Keil_v5\Arm\Packs\ARM\CMSIS\5.8.0\CMSIS\DSP\Source\FilteringFunctions\FilteringFunctions.c 0x00000000   Number         0  filteringfunctions.o ABSOLUTE
    d:\Keil_v5\Arm\Packs\ARM\CMSIS\5.8.0\CMSIS\DSP\Source\FilteringFunctions\FilteringFunctionsF16.c 0x00000000   Number         0  filteringfunctionsf16.o ABSOLUTE
    d:\Keil_v5\Arm\Packs\ARM\CMSIS\5.8.0\CMSIS\DSP\Source\InterpolationFunctions\InterpolationFunctions.c 0x00000000   Number         0  interpolationfunctions.o ABSOLUTE
    d:\Keil_v5\Arm\Packs\ARM\CMSIS\5.8.0\CMSIS\DSP\Source\InterpolationFunctions\InterpolationFunctionsF16.c 0x00000000   Number         0  interpolationfunctionsf16.o ABSOLUTE
    d:\Keil_v5\Arm\Packs\ARM\CMSIS\5.8.0\CMSIS\DSP\Source\MatrixFunctions\MatrixFunctions.c 0x00000000   Number         0  matrixfunctions.o ABSOLUTE
    d:\Keil_v5\Arm\Packs\ARM\CMSIS\5.8.0\CMSIS\DSP\Source\MatrixFunctions\MatrixFunctionsF16.c 0x00000000   Number         0  matrixfunctionsf16.o ABSOLUTE
    d:\Keil_v5\Arm\Packs\ARM\CMSIS\5.8.0\CMSIS\DSP\Source\QuaternionMathFunctions\QuaternionMathFunctions.c 0x00000000   Number         0  quaternionmathfunctions.o ABSOLUTE
    d:\Keil_v5\Arm\Packs\ARM\CMSIS\5.8.0\CMSIS\DSP\Source\SVMFunctions\SVMFunctions.c 0x00000000   Number         0  svmfunctions.o ABSOLUTE
    d:\Keil_v5\Arm\Packs\ARM\CMSIS\5.8.0\CMSIS\DSP\Source\SVMFunctions\SVMFunctionsF16.c 0x00000000   Number         0  svmfunctionsf16.o ABSOLUTE
    d:\Keil_v5\Arm\Packs\ARM\CMSIS\5.8.0\CMSIS\DSP\Source\StatisticsFunctions\StatisticsFunctions.c 0x00000000   Number         0  statisticsfunctions.o ABSOLUTE
    d:\Keil_v5\Arm\Packs\ARM\CMSIS\5.8.0\CMSIS\DSP\Source\StatisticsFunctions\StatisticsFunctionsF16.c 0x00000000   Number         0  statisticsfunctionsf16.o ABSOLUTE
    d:\Keil_v5\Arm\Packs\ARM\CMSIS\5.8.0\CMSIS\DSP\Source\SupportFunctions\SupportFunctions.c 0x00000000   Number         0  supportfunctions.o ABSOLUTE
    d:\Keil_v5\Arm\Packs\ARM\CMSIS\5.8.0\CMSIS\DSP\Source\SupportFunctions\SupportFunctionsF16.c 0x00000000   Number         0  supportfunctionsf16.o ABSOLUTE
    d:\Keil_v5\Arm\Packs\ARM\CMSIS\5.8.0\CMSIS\DSP\Source\TransformFunctions\TransformFunctions.c 0x00000000   Number         0  transformfunctions.o ABSOLUTE
    d:\Keil_v5\Arm\Packs\ARM\CMSIS\5.8.0\CMSIS\DSP\Source\TransformFunctions\TransformFunctionsF16.c 0x00000000   Number         0  transformfunctionsf16.o ABSOLUTE
    d:\\Keil_v5\\Arm\\Packs\\ARM\\CMSIS\\5.8.0\\CMSIS\\DSP\\Source\\BasicMathFunctions\\BasicMathFunctions.c 0x00000000   Number         0  basicmathfunctions.o ABSOLUTE
    d:\\Keil_v5\\Arm\\Packs\\ARM\\CMSIS\\5.8.0\\CMSIS\\DSP\\Source\\BasicMathFunctions\\BasicMathFunctionsF16.c 0x00000000   Number         0  basicmathfunctionsf16.o ABSOLUTE
    d:\\Keil_v5\\Arm\\Packs\\ARM\\CMSIS\\5.8.0\\CMSIS\\DSP\\Source\\BayesFunctions\\BayesFunctions.c 0x00000000   Number         0  bayesfunctions.o ABSOLUTE
    d:\\Keil_v5\\Arm\\Packs\\ARM\\CMSIS\\5.8.0\\CMSIS\\DSP\\Source\\BayesFunctions\\BayesFunctionsF16.c 0x00000000   Number         0  bayesfunctionsf16.o ABSOLUTE
    d:\\Keil_v5\\Arm\\Packs\\ARM\\CMSIS\\5.8.0\\CMSIS\\DSP\\Source\\CommonTables\\CommonTables.c 0x00000000   Number         0  commontables.o ABSOLUTE
    d:\\Keil_v5\\Arm\\Packs\\ARM\\CMSIS\\5.8.0\\CMSIS\\DSP\\Source\\CommonTables\\CommonTablesF16.c 0x00000000   Number         0  commontablesf16.o ABSOLUTE
    d:\\Keil_v5\\Arm\\Packs\\ARM\\CMSIS\\5.8.0\\CMSIS\\DSP\\Source\\ComplexMathFunctions\\ComplexMathFunctions.c 0x00000000   Number         0  complexmathfunctions.o ABSOLUTE
    d:\\Keil_v5\\Arm\\Packs\\ARM\\CMSIS\\5.8.0\\CMSIS\\DSP\\Source\\ComplexMathFunctions\\ComplexMathFunctionsF16.c 0x00000000   Number         0  complexmathfunctionsf16.o ABSOLUTE
    d:\\Keil_v5\\Arm\\Packs\\ARM\\CMSIS\\5.8.0\\CMSIS\\DSP\\Source\\ControllerFunctions\\ControllerFunctions.c 0x00000000   Number         0  controllerfunctions.o ABSOLUTE
    d:\\Keil_v5\\Arm\\Packs\\ARM\\CMSIS\\5.8.0\\CMSIS\\DSP\\Source\\DistanceFunctions\\DistanceFunctions.c 0x00000000   Number         0  distancefunctions.o ABSOLUTE
    d:\\Keil_v5\\Arm\\Packs\\ARM\\CMSIS\\5.8.0\\CMSIS\\DSP\\Source\\DistanceFunctions\\DistanceFunctionsF16.c 0x00000000   Number         0  distancefunctionsf16.o ABSOLUTE
    d:\\Keil_v5\\Arm\\Packs\\ARM\\CMSIS\\5.8.0\\CMSIS\\DSP\\Source\\FastMathFunctions\\FastMathFunctions.c 0x00000000   Number         0  fastmathfunctions.o ABSOLUTE
    d:\\Keil_v5\\Arm\\Packs\\ARM\\CMSIS\\5.8.0\\CMSIS\\DSP\\Source\\FastMathFunctions\\FastMathFunctionsF16.c 0x00000000   Number         0  fastmathfunctionsf16.o ABSOLUTE
    d:\\Keil_v5\\Arm\\Packs\\ARM\\CMSIS\\5.8.0\\CMSIS\\DSP\\Source\\FilteringFunctions\\FilteringFunctions.c 0x00000000   Number         0  filteringfunctions.o ABSOLUTE
    d:\\Keil_v5\\Arm\\Packs\\ARM\\CMSIS\\5.8.0\\CMSIS\\DSP\\Source\\FilteringFunctions\\FilteringFunctionsF16.c 0x00000000   Number         0  filteringfunctionsf16.o ABSOLUTE
    d:\\Keil_v5\\Arm\\Packs\\ARM\\CMSIS\\5.8.0\\CMSIS\\DSP\\Source\\InterpolationFunctions\\InterpolationFunctions.c 0x00000000   Number         0  interpolationfunctions.o ABSOLUTE
    d:\\Keil_v5\\Arm\\Packs\\ARM\\CMSIS\\5.8.0\\CMSIS\\DSP\\Source\\InterpolationFunctions\\InterpolationFunctionsF16.c 0x00000000   Number         0  interpolationfunctionsf16.o ABSOLUTE
    d:\\Keil_v5\\Arm\\Packs\\ARM\\CMSIS\\5.8.0\\CMSIS\\DSP\\Source\\MatrixFunctions\\MatrixFunctions.c 0x00000000   Number         0  matrixfunctions.o ABSOLUTE
    d:\\Keil_v5\\Arm\\Packs\\ARM\\CMSIS\\5.8.0\\CMSIS\\DSP\\Source\\MatrixFunctions\\MatrixFunctionsF16.c 0x00000000   Number         0  matrixfunctionsf16.o ABSOLUTE
    d:\\Keil_v5\\Arm\\Packs\\ARM\\CMSIS\\5.8.0\\CMSIS\\DSP\\Source\\QuaternionMathFunctions\\QuaternionMathFunctions.c 0x00000000   Number         0  quaternionmathfunctions.o ABSOLUTE
    d:\\Keil_v5\\Arm\\Packs\\ARM\\CMSIS\\5.8.0\\CMSIS\\DSP\\Source\\SVMFunctions\\SVMFunctions.c 0x00000000   Number         0  svmfunctions.o ABSOLUTE
    d:\\Keil_v5\\Arm\\Packs\\ARM\\CMSIS\\5.8.0\\CMSIS\\DSP\\Source\\SVMFunctions\\SVMFunctionsF16.c 0x00000000   Number         0  svmfunctionsf16.o ABSOLUTE
    d:\\Keil_v5\\Arm\\Packs\\ARM\\CMSIS\\5.8.0\\CMSIS\\DSP\\Source\\StatisticsFunctions\\StatisticsFunctions.c 0x00000000   Number         0  statisticsfunctions.o ABSOLUTE
    d:\\Keil_v5\\Arm\\Packs\\ARM\\CMSIS\\5.8.0\\CMSIS\\DSP\\Source\\StatisticsFunctions\\StatisticsFunctionsF16.c 0x00000000   Number         0  statisticsfunctionsf16.o ABSOLUTE
    d:\\Keil_v5\\Arm\\Packs\\ARM\\CMSIS\\5.8.0\\CMSIS\\DSP\\Source\\SupportFunctions\\SupportFunctions.c 0x00000000   Number         0  supportfunctions.o ABSOLUTE
    d:\\Keil_v5\\Arm\\Packs\\ARM\\CMSIS\\5.8.0\\CMSIS\\DSP\\Source\\SupportFunctions\\SupportFunctionsF16.c 0x00000000   Number         0  supportfunctionsf16.o ABSOLUTE
    d:\\Keil_v5\\Arm\\Packs\\ARM\\CMSIS\\5.8.0\\CMSIS\\DSP\\Source\\TransformFunctions\\TransformFunctions.c 0x00000000   Number         0  transformfunctions.o ABSOLUTE
    d:\\Keil_v5\\Arm\\Packs\\ARM\\CMSIS\\5.8.0\\CMSIS\\DSP\\Source\\TransformFunctions\\TransformFunctionsF16.c 0x00000000   Number         0  transformfunctionsf16.o ABSOLUTE
    dc.s                                     0x00000000   Number         0  dc.o ABSOLUTE
    handlers.s                               0x00000000   Number         0  handlers.o ABSOLUTE
    init.s                                   0x00000000   Number         0  init.o ABSOLUTE
    startup_hc32f46x.s                       0x00000000   Number         0  startup_hc32f46x.o ABSOLUTE
    .ARM.Collect$$$$00000000                 0x00000280   Section        0  entry.o(.ARM.Collect$$$$00000000)
    .ARM.Collect$$$$00000001                 0x00000280   Section        4  entry2.o(.ARM.Collect$$$$00000001)
    .ARM.Collect$$$$00000004                 0x00000284   Section        4  entry5.o(.ARM.Collect$$$$00000004)
    .ARM.Collect$$$$00000008                 0x00000288   Section        0  entry7b.o(.ARM.Collect$$$$00000008)
    .ARM.Collect$$$$0000000A                 0x00000288   Section        0  entry8b.o(.ARM.Collect$$$$0000000A)
    .ARM.Collect$$$$0000000B                 0x00000288   Section        8  entry9a.o(.ARM.Collect$$$$0000000B)
    .ARM.Collect$$$$0000000E                 0x00000290   Section        4  entry12b.o(.ARM.Collect$$$$0000000E)
    .ARM.Collect$$$$0000000F                 0x00000294   Section        0  entry10a.o(.ARM.Collect$$$$0000000F)
    .ARM.Collect$$$$00000011                 0x00000294   Section        0  entry11a.o(.ARM.Collect$$$$00000011)
    .ARM.Collect$$$$00002712                 0x00000294   Section        4  entry2.o(.ARM.Collect$$$$00002712)
    __lit__00000000                          0x00000294   Data           4  entry2.o(.ARM.Collect$$$$00002712)
    .text                                    0x00000298   Section       92  startup_hc32f46x.o(.text)
    .text                                    0x000002f4   Section        0  uldiv.o(.text)
    .text                                    0x00000356   Section        0  ldiv.o(.text)
    .text                                    0x000003b8   Section        0  llshl.o(.text)
    .text                                    0x000003d6   Section        0  llsshr.o(.text)
    .text                                    0x000003fa   Section        0  iusefp.o(.text)
    i.__scatterload_null                     0x000003fa   Section        2  handlers.o(i.__scatterload_null)
    .ARM.__AT_0x00000400                     0x00000400   Section       32  hc32f46x_icg.o(.ARM.__AT_0x00000400)
    .text                                    0x00000448   Section        0  memmovea.o(.text)
    .text                                    0x00000488   Section        0  memseta.o(.text)
    .text                                    0x000004ac   Section        0  strcpy.o(.text)
    .text                                    0x000004be   Section        0  fadd.o(.text)
    .text                                    0x0000056e   Section        0  fmul.o(.text)
    .text                                    0x000005d2   Section        0  fdiv.o(.text)
    .text                                    0x0000064e   Section        0  fscalb.o(.text)
    .text                                    0x00000666   Section        0  dadd.o(.text)
    .text                                    0x000007b4   Section        0  dmul.o(.text)
    .text                                    0x00000898   Section        0  fflti.o(.text)
    .text                                    0x000008aa   Section        0  ffltui.o(.text)
    .text                                    0x000008b4   Section        0  ffixi.o(.text)
    .text                                    0x000008e6   Section        0  ffixui.o(.text)
    .text                                    0x0000090e   Section        0  f2d.o(.text)
    .text                                    0x00000934   Section       48  cdrcmple.o(.text)
    .text                                    0x00000964   Section        0  d2f.o(.text)
    .text                                    0x0000099c   Section       20  cfcmple.o(.text)
    .text                                    0x000009b0   Section       20  cfrcmple.o(.text)
    .text                                    0x000009c4   Section        0  uidiv.o(.text)
    .text                                    0x000009f0   Section        0  llushr.o(.text)
    .text                                    0x00000a10   Section        0  fepilogue.o(.text)
    .text                                    0x00000a7e   Section        0  depilogue.o(.text)
    .text                                    0x00000b38   Section       36  init.o(.text)
    i.ADC1B_IrqHandler                       0x00000b5c   Section        0  adc.o(i.ADC1B_IrqHandler)
    i.ADC_AddAdcChannel                      0x00000b78   Section        0  hc32f46x_adc.o(i.ADC_AddAdcChannel)
    i.ADC_ClrEocFlag                         0x00000c58   Section        0  hc32f46x_adc.o(i.ADC_ClrEocFlag)
    i.ADC_ConfigTriggerSrc                   0x00000cb4   Section        0  hc32f46x_adc.o(i.ADC_ConfigTriggerSrc)
    i.ADC_GetEocFlag                         0x00001518   Section        0  hc32f46x_adc.o(i.ADC_GetEocFlag)
    i.ADC_Init                               0x00001578   Section        0  hc32f46x_adc.o(i.ADC_Init)
    i.ADC_TriggerSrcCmd                      0x000016a4   Section        0  hc32f46x_adc.o(i.ADC_TriggerSrcCmd)
    i.AdcChannelConfig                       0x00001730   Section        0  adc.o(i.AdcChannelConfig)
    i.AdcClockConfig                         0x00001770   Section        0  adc.o(i.AdcClockConfig)
    i.AdcConfig                              0x000017d2   Section        0  adc.o(i.AdcConfig)
    i.AdcInitConfig                          0x000017ec   Section        0  adc.o(i.AdcInitConfig)
    i.AdcSetChannelPinMode                   0x00001828   Section        0  adc.o(i.AdcSetChannelPinMode)
    i.AdcSetPinMode                          0x00001870   Section        0  adc.o(i.AdcSetPinMode)
    i.AdcTriggerConfig                       0x00001928   Section        0  adc.o(i.AdcTriggerConfig)
    i.BusFault_Handler                       0x00001968   Section        0  hc32f46x_interrupts.o(i.BusFault_Handler)
    i.CLK_GetFlagStatus                      0x00001970   Section        0  hc32f46x_clk.o(i.CLK_GetFlagStatus)
    i.CLK_MpllCmd                            0x00001a2c   Section        0  hc32f46x_clk.o(i.CLK_MpllCmd)
    i.CLK_MpllConfig                         0x00001af0   Section        0  hc32f46x_clk.o(i.CLK_MpllConfig)
    i.CLK_SetPeriClkSource                   0x00001ca4   Section        0  hc32f46x_clk.o(i.CLK_SetPeriClkSource)
    i.CLK_SetPllSource                       0x00001d1c   Section        0  hc32f46x_clk.o(i.CLK_SetPllSource)
    i.CLK_SetSysClkSource                    0x00001d94   Section        0  hc32f46x_clk.o(i.CLK_SetSysClkSource)
    i.CLK_SysClkConfig                       0x00001eb4   Section        0  hc32f46x_clk.o(i.CLK_SysClkConfig)
    i.CLK_UpllCmd                            0x00002050   Section        0  hc32f46x_clk.o(i.CLK_UpllCmd)
    i.CLK_UpllConfig                         0x00002100   Section        0  hc32f46x_clk.o(i.CLK_UpllConfig)
    i.CLK_XtalCmd                            0x000022bc   Section        0  hc32f46x_clk.o(i.CLK_XtalCmd)
    i.CLK_XtalConfig                         0x000023c8   Section        0  hc32f46x_clk.o(i.CLK_XtalConfig)
    i.DMA_ChannelCfg                         0x0000242c   Section        0  hc32f46x_dmac.o(i.DMA_ChannelCfg)
    i.DMA_ChannelCmd                         0x00002700   Section        0  hc32f46x_dmac.o(i.DMA_ChannelCmd)
    i.DMA_ClearIrqFlag                       0x00002914   Section        0  hc32f46x_dmac.o(i.DMA_ClearIrqFlag)
    i.DMA_Cmd                                0x00002a08   Section        0  hc32f46x_dmac.o(i.DMA_Cmd)
    i.DMA_DisableIrq                         0x00002a74   Section        0  hc32f46x_dmac.o(i.DMA_DisableIrq)
    i.DMA_InitChannel                        0x00002b68   Section        0  hc32f46x_dmac.o(i.DMA_InitChannel)
    i.DMA_SetTriggerSrc                      0x00002d84   Section        0  hc32f46x_dmac.o(i.DMA_SetTriggerSrc)
    i.Ddl_AssertHandler                      0x00002df8   Section        0  hc32f46x_utility.o(i.Ddl_AssertHandler)
    i.DebugMon_Handler                       0x00002e3c   Section        0  hc32f46x_interrupts.o(i.DebugMon_Handler)
    i.DebugOutput                            0x00002e44   Section        0  hc32f46x_utility.o(i.DebugOutput)
    i.Dma1Btc0_IrqHandler                    0x00002e5c   Section        0  adc.o(i.Dma1Btc0_IrqHandler)
    i.Dma1Btc1_IrqHandler                    0x00002e78   Section        0  adc.o(i.Dma1Btc1_IrqHandler)
    i.DmaConfig                              0x00002e8c   Section        0  adc.o(i.DmaConfig)
    i.DmaInitConfig                          0x00002e98   Section        0  adc.o(i.DmaInitConfig)
    i.DmaIrqConfig                           0x00003068   Section        0  adc.o(i.DmaIrqConfig)
    i.DmaIrqRegister                         0x00003088   Section        0  adc.o(i.DmaIrqRegister)
    i.HardFault_Handler                      0x00003134   Section        0  hc32f46x_interrupts.o(i.HardFault_Handler)
    i.IRQ000_Handler                         0x0000313c   Section        0  hc32f46x_interrupts.o(i.IRQ000_Handler)
    i.IRQ001_Handler                         0x00003150   Section        0  hc32f46x_interrupts.o(i.IRQ001_Handler)
    i.IRQ002_Handler                         0x00003164   Section        0  hc32f46x_interrupts.o(i.IRQ002_Handler)
    i.IRQ003_Handler                         0x00003178   Section        0  hc32f46x_interrupts.o(i.IRQ003_Handler)
    i.IRQ004_Handler                         0x0000318c   Section        0  hc32f46x_interrupts.o(i.IRQ004_Handler)
    i.IRQ005_Handler                         0x000031a0   Section        0  hc32f46x_interrupts.o(i.IRQ005_Handler)
    i.IRQ006_Handler                         0x000031b4   Section        0  hc32f46x_interrupts.o(i.IRQ006_Handler)
    i.IRQ007_Handler                         0x000031c8   Section        0  hc32f46x_interrupts.o(i.IRQ007_Handler)
    i.IRQ008_Handler                         0x000031dc   Section        0  hc32f46x_interrupts.o(i.IRQ008_Handler)
    i.IRQ009_Handler                         0x000031f0   Section        0  hc32f46x_interrupts.o(i.IRQ009_Handler)
    i.IRQ010_Handler                         0x00003204   Section        0  hc32f46x_interrupts.o(i.IRQ010_Handler)
    i.IRQ011_Handler                         0x00003218   Section        0  hc32f46x_interrupts.o(i.IRQ011_Handler)
    i.IRQ012_Handler                         0x0000322c   Section        0  hc32f46x_interrupts.o(i.IRQ012_Handler)
    i.IRQ013_Handler                         0x00003240   Section        0  hc32f46x_interrupts.o(i.IRQ013_Handler)
    i.IRQ014_Handler                         0x00003254   Section        0  hc32f46x_interrupts.o(i.IRQ014_Handler)
    i.IRQ015_Handler                         0x00003268   Section        0  hc32f46x_interrupts.o(i.IRQ015_Handler)
    i.IRQ016_Handler                         0x0000327c   Section        0  hc32f46x_interrupts.o(i.IRQ016_Handler)
    i.IRQ017_Handler                         0x00003290   Section        0  hc32f46x_interrupts.o(i.IRQ017_Handler)
    i.IRQ018_Handler                         0x000032a4   Section        0  hc32f46x_interrupts.o(i.IRQ018_Handler)
    i.IRQ019_Handler                         0x000032b8   Section        0  hc32f46x_interrupts.o(i.IRQ019_Handler)
    i.IRQ020_Handler                         0x000032cc   Section        0  hc32f46x_interrupts.o(i.IRQ020_Handler)
    i.IRQ021_Handler                         0x000032e0   Section        0  hc32f46x_interrupts.o(i.IRQ021_Handler)
    i.IRQ022_Handler                         0x000032f4   Section        0  hc32f46x_interrupts.o(i.IRQ022_Handler)
    i.IRQ023_Handler                         0x00003308   Section        0  hc32f46x_interrupts.o(i.IRQ023_Handler)
    i.IRQ024_Handler                         0x0000331c   Section        0  hc32f46x_interrupts.o(i.IRQ024_Handler)
    i.IRQ025_Handler                         0x00003330   Section        0  hc32f46x_interrupts.o(i.IRQ025_Handler)
    i.IRQ026_Handler                         0x00003344   Section        0  hc32f46x_interrupts.o(i.IRQ026_Handler)
    i.IRQ027_Handler                         0x00003358   Section        0  hc32f46x_interrupts.o(i.IRQ027_Handler)
    i.IRQ028_Handler                         0x0000336c   Section        0  hc32f46x_interrupts.o(i.IRQ028_Handler)
    i.IRQ029_Handler                         0x00003380   Section        0  hc32f46x_interrupts.o(i.IRQ029_Handler)
    i.IRQ030_Handler                         0x00003394   Section        0  hc32f46x_interrupts.o(i.IRQ030_Handler)
    i.IRQ031_Handler                         0x000033a8   Section        0  hc32f46x_interrupts.o(i.IRQ031_Handler)
    i.IRQ032_Handler                         0x000033bc   Section        0  hc32f46x_interrupts.o(i.IRQ032_Handler)
    i.IRQ033_Handler                         0x000033d4   Section        0  hc32f46x_interrupts.o(i.IRQ033_Handler)
    i.IRQ034_Handler                         0x000033ec   Section        0  hc32f46x_interrupts.o(i.IRQ034_Handler)
    i.IRQ035_Handler                         0x00003404   Section        0  hc32f46x_interrupts.o(i.IRQ035_Handler)
    i.IRQ036_Handler                         0x0000341c   Section        0  hc32f46x_interrupts.o(i.IRQ036_Handler)
    i.IRQ037_Handler                         0x00003434   Section        0  hc32f46x_interrupts.o(i.IRQ037_Handler)
    i.IRQ038_Handler                         0x0000344c   Section        0  hc32f46x_interrupts.o(i.IRQ038_Handler)
    i.IRQ039_Handler                         0x00003464   Section        0  hc32f46x_interrupts.o(i.IRQ039_Handler)
    i.IRQ040_Handler                         0x0000347c   Section        0  hc32f46x_interrupts.o(i.IRQ040_Handler)
    i.IRQ041_Handler                         0x00003494   Section        0  hc32f46x_interrupts.o(i.IRQ041_Handler)
    i.IRQ042_Handler                         0x000034ac   Section        0  hc32f46x_interrupts.o(i.IRQ042_Handler)
    i.IRQ043_Handler                         0x000034c4   Section        0  hc32f46x_interrupts.o(i.IRQ043_Handler)
    i.IRQ044_Handler                         0x000034dc   Section        0  hc32f46x_interrupts.o(i.IRQ044_Handler)
    i.IRQ045_Handler                         0x000034f4   Section        0  hc32f46x_interrupts.o(i.IRQ045_Handler)
    i.IRQ046_Handler                         0x0000350c   Section        0  hc32f46x_interrupts.o(i.IRQ046_Handler)
    i.IRQ047_Handler                         0x00003524   Section        0  hc32f46x_interrupts.o(i.IRQ047_Handler)
    i.IRQ048_Handler                         0x0000353c   Section        0  hc32f46x_interrupts.o(i.IRQ048_Handler)
    i.IRQ049_Handler                         0x00003554   Section        0  hc32f46x_interrupts.o(i.IRQ049_Handler)
    i.IRQ050_Handler                         0x0000356c   Section        0  hc32f46x_interrupts.o(i.IRQ050_Handler)
    i.IRQ051_Handler                         0x00003584   Section        0  hc32f46x_interrupts.o(i.IRQ051_Handler)
    i.IRQ052_Handler                         0x0000359c   Section        0  hc32f46x_interrupts.o(i.IRQ052_Handler)
    i.IRQ053_Handler                         0x000035b4   Section        0  hc32f46x_interrupts.o(i.IRQ053_Handler)
    i.IRQ054_Handler                         0x000035cc   Section        0  hc32f46x_interrupts.o(i.IRQ054_Handler)
    i.IRQ055_Handler                         0x000035e4   Section        0  hc32f46x_interrupts.o(i.IRQ055_Handler)
    i.IRQ056_Handler                         0x000035fc   Section        0  hc32f46x_interrupts.o(i.IRQ056_Handler)
    i.IRQ057_Handler                         0x00003614   Section        0  hc32f46x_interrupts.o(i.IRQ057_Handler)
    i.IRQ058_Handler                         0x0000362c   Section        0  hc32f46x_interrupts.o(i.IRQ058_Handler)
    i.IRQ059_Handler                         0x00003644   Section        0  hc32f46x_interrupts.o(i.IRQ059_Handler)
    i.IRQ060_Handler                         0x0000365c   Section        0  hc32f46x_interrupts.o(i.IRQ060_Handler)
    i.IRQ061_Handler                         0x00003674   Section        0  hc32f46x_interrupts.o(i.IRQ061_Handler)
    i.IRQ062_Handler                         0x0000368c   Section        0  hc32f46x_interrupts.o(i.IRQ062_Handler)
    i.IRQ063_Handler                         0x000036a4   Section        0  hc32f46x_interrupts.o(i.IRQ063_Handler)
    i.IRQ064_Handler                         0x000036bc   Section        0  hc32f46x_interrupts.o(i.IRQ064_Handler)
    i.IRQ065_Handler                         0x000036d4   Section        0  hc32f46x_interrupts.o(i.IRQ065_Handler)
    i.IRQ066_Handler                         0x000036ec   Section        0  hc32f46x_interrupts.o(i.IRQ066_Handler)
    i.IRQ067_Handler                         0x00003704   Section        0  hc32f46x_interrupts.o(i.IRQ067_Handler)
    i.IRQ068_Handler                         0x0000371c   Section        0  hc32f46x_interrupts.o(i.IRQ068_Handler)
    i.IRQ069_Handler                         0x00003734   Section        0  hc32f46x_interrupts.o(i.IRQ069_Handler)
    i.IRQ070_Handler                         0x0000374c   Section        0  hc32f46x_interrupts.o(i.IRQ070_Handler)
    i.IRQ071_Handler                         0x00003764   Section        0  hc32f46x_interrupts.o(i.IRQ071_Handler)
    i.IRQ072_Handler                         0x0000377c   Section        0  hc32f46x_interrupts.o(i.IRQ072_Handler)
    i.IRQ073_Handler                         0x00003794   Section        0  hc32f46x_interrupts.o(i.IRQ073_Handler)
    i.IRQ074_Handler                         0x000037ac   Section        0  hc32f46x_interrupts.o(i.IRQ074_Handler)
    i.IRQ075_Handler                         0x000037c4   Section        0  hc32f46x_interrupts.o(i.IRQ075_Handler)
    i.IRQ076_Handler                         0x000037dc   Section        0  hc32f46x_interrupts.o(i.IRQ076_Handler)
    i.IRQ077_Handler                         0x000037f4   Section        0  hc32f46x_interrupts.o(i.IRQ077_Handler)
    i.IRQ078_Handler                         0x0000380c   Section        0  hc32f46x_interrupts.o(i.IRQ078_Handler)
    i.IRQ079_Handler                         0x00003824   Section        0  hc32f46x_interrupts.o(i.IRQ079_Handler)
    i.IRQ080_Handler                         0x0000383c   Section        0  hc32f46x_interrupts.o(i.IRQ080_Handler)
    i.IRQ081_Handler                         0x00003854   Section        0  hc32f46x_interrupts.o(i.IRQ081_Handler)
    i.IRQ082_Handler                         0x0000386c   Section        0  hc32f46x_interrupts.o(i.IRQ082_Handler)
    i.IRQ083_Handler                         0x00003884   Section        0  hc32f46x_interrupts.o(i.IRQ083_Handler)
    i.IRQ084_Handler                         0x0000389c   Section        0  hc32f46x_interrupts.o(i.IRQ084_Handler)
    i.IRQ085_Handler                         0x000038b4   Section        0  hc32f46x_interrupts.o(i.IRQ085_Handler)
    i.IRQ086_Handler                         0x000038cc   Section        0  hc32f46x_interrupts.o(i.IRQ086_Handler)
    i.IRQ087_Handler                         0x000038e4   Section        0  hc32f46x_interrupts.o(i.IRQ087_Handler)
    i.IRQ088_Handler                         0x000038fc   Section        0  hc32f46x_interrupts.o(i.IRQ088_Handler)
    i.IRQ089_Handler                         0x00003914   Section        0  hc32f46x_interrupts.o(i.IRQ089_Handler)
    i.IRQ090_Handler                         0x0000392c   Section        0  hc32f46x_interrupts.o(i.IRQ090_Handler)
    i.IRQ091_Handler                         0x00003944   Section        0  hc32f46x_interrupts.o(i.IRQ091_Handler)
    i.IRQ092_Handler                         0x0000395c   Section        0  hc32f46x_interrupts.o(i.IRQ092_Handler)
    i.IRQ093_Handler                         0x00003974   Section        0  hc32f46x_interrupts.o(i.IRQ093_Handler)
    i.IRQ094_Handler                         0x0000398c   Section        0  hc32f46x_interrupts.o(i.IRQ094_Handler)
    i.IRQ095_Handler                         0x000039a4   Section        0  hc32f46x_interrupts.o(i.IRQ095_Handler)
    i.IRQ096_Handler                         0x000039bc   Section        0  hc32f46x_interrupts.o(i.IRQ096_Handler)
    i.IRQ097_Handler                         0x000039d4   Section        0  hc32f46x_interrupts.o(i.IRQ097_Handler)
    i.IRQ098_Handler                         0x000039ec   Section        0  hc32f46x_interrupts.o(i.IRQ098_Handler)
    i.IRQ099_Handler                         0x00003a04   Section        0  hc32f46x_interrupts.o(i.IRQ099_Handler)
    i.IRQ100_Handler                         0x00003a1c   Section        0  hc32f46x_interrupts.o(i.IRQ100_Handler)
    i.IRQ101_Handler                         0x00003a34   Section        0  hc32f46x_interrupts.o(i.IRQ101_Handler)
    i.IRQ102_Handler                         0x00003a4c   Section        0  hc32f46x_interrupts.o(i.IRQ102_Handler)
    i.IRQ103_Handler                         0x00003a64   Section        0  hc32f46x_interrupts.o(i.IRQ103_Handler)
    i.IRQ104_Handler                         0x00003a7c   Section        0  hc32f46x_interrupts.o(i.IRQ104_Handler)
    i.IRQ105_Handler                         0x00003a94   Section        0  hc32f46x_interrupts.o(i.IRQ105_Handler)
    i.IRQ106_Handler                         0x00003aac   Section        0  hc32f46x_interrupts.o(i.IRQ106_Handler)
    i.IRQ107_Handler                         0x00003ac4   Section        0  hc32f46x_interrupts.o(i.IRQ107_Handler)
    i.IRQ108_Handler                         0x00003adc   Section        0  hc32f46x_interrupts.o(i.IRQ108_Handler)
    i.IRQ109_Handler                         0x00003af4   Section        0  hc32f46x_interrupts.o(i.IRQ109_Handler)
    i.IRQ110_Handler                         0x00003b0c   Section        0  hc32f46x_interrupts.o(i.IRQ110_Handler)
    i.IRQ111_Handler                         0x00003b24   Section        0  hc32f46x_interrupts.o(i.IRQ111_Handler)
    i.IRQ112_Handler                         0x00003b3c   Section        0  hc32f46x_interrupts.o(i.IRQ112_Handler)
    i.IRQ113_Handler                         0x00003b54   Section        0  hc32f46x_interrupts.o(i.IRQ113_Handler)
    i.IRQ114_Handler                         0x00003b6c   Section        0  hc32f46x_interrupts.o(i.IRQ114_Handler)
    i.IRQ115_Handler                         0x00003b84   Section        0  hc32f46x_interrupts.o(i.IRQ115_Handler)
    i.IRQ116_Handler                         0x00003b9c   Section        0  hc32f46x_interrupts.o(i.IRQ116_Handler)
    i.IRQ117_Handler                         0x00003bb4   Section        0  hc32f46x_interrupts.o(i.IRQ117_Handler)
    i.IRQ118_Handler                         0x00003bcc   Section        0  hc32f46x_interrupts.o(i.IRQ118_Handler)
    i.IRQ119_Handler                         0x00003be4   Section        0  hc32f46x_interrupts.o(i.IRQ119_Handler)
    i.IRQ120_Handler                         0x00003bfc   Section        0  hc32f46x_interrupts.o(i.IRQ120_Handler)
    i.IRQ121_Handler                         0x00003c14   Section        0  hc32f46x_interrupts.o(i.IRQ121_Handler)
    i.IRQ122_Handler                         0x00003c2c   Section        0  hc32f46x_interrupts.o(i.IRQ122_Handler)
    i.IRQ123_Handler                         0x00003c44   Section        0  hc32f46x_interrupts.o(i.IRQ123_Handler)
    i.IRQ124_Handler                         0x00003c5c   Section        0  hc32f46x_interrupts.o(i.IRQ124_Handler)
    i.IRQ125_Handler                         0x00003c74   Section        0  hc32f46x_interrupts.o(i.IRQ125_Handler)
    i.IRQ126_Handler                         0x00003c8c   Section        0  hc32f46x_interrupts.o(i.IRQ126_Handler)
    i.IRQ127_Handler                         0x00003ca4   Section        0  hc32f46x_interrupts.o(i.IRQ127_Handler)
    i.IRQ128_Handler                         0x00003cbc   Section        0  hc32f46x_interrupts.o(i.IRQ128_Handler)
    i.IRQ129_Handler                         0x00003e0c   Section        0  hc32f46x_interrupts.o(i.IRQ129_Handler)
    i.IRQ130_Handler                         0x00004274   Section        0  hc32f46x_interrupts.o(i.IRQ130_Handler)
    i.IRQ131_Handler                         0x00004350   Section        0  hc32f46x_interrupts.o(i.IRQ131_Handler)
    i.IRQ132_Handler                         0x00004618   Section        0  hc32f46x_interrupts.o(i.IRQ132_Handler)
    i.IRQ136_Handler                         0x00004788   Section        0  hc32f46x_interrupts.o(i.IRQ136_Handler)
    i.IRQ137_Handler                         0x00004aa8   Section        0  hc32f46x_interrupts.o(i.IRQ137_Handler)
    i.IRQ138_Handler                         0x00004d30   Section        0  hc32f46x_interrupts.o(i.IRQ138_Handler)
    i.IRQ139_Handler                         0x00004f6c   Section        0  hc32f46x_interrupts.o(i.IRQ139_Handler)
    i.IRQ140_Handler                         0x00005094   Section        0  hc32f46x_interrupts.o(i.IRQ140_Handler)
    i.IRQ141_Handler                         0x000052a8   Section        0  hc32f46x_interrupts.o(i.IRQ141_Handler)
    i.IRQ142_Handler                         0x00005504   Section        0  hc32f46x_interrupts.o(i.IRQ142_Handler)
    i.IRQ143_Handler                         0x00005618   Section        0  hc32f46x_interrupts.o(i.IRQ143_Handler)
    i.MemManage_Handler                      0x00005728   Section        0  hc32f46x_interrupts.o(i.MemManage_Handler)
    i.NMI_Handler                            0x00005730   Section        0  hc32f46x_interrupts.o(i.NMI_Handler)
    i.NMI_IrqHandler                         0x00005738   Section        0  hc32f46x_exint_nmi_swi.o(i.NMI_IrqHandler)
    i.PORT_Init                              0x00005784   Section        0  hc32f46x_gpio.o(i.PORT_Init)
    i.PORT_Lock                              0x00005984   Section        0  hc32f46x_gpio.o(i.PORT_Lock)
    i.PORT_ResetBits                         0x00005994   Section        0  hc32f46x_gpio.o(i.PORT_ResetBits)
    i.PORT_SetBits                           0x000059f8   Section        0  hc32f46x_gpio.o(i.PORT_SetBits)
    i.PORT_SetFunc                           0x00005a5c   Section        0  hc32f46x_gpio.o(i.PORT_SetFunc)
    i.PORT_Unlock                            0x00005c20   Section        0  hc32f46x_gpio.o(i.PORT_Unlock)
    i.PWC_Fcg0PeriphClockCmd                 0x00005c30   Section        0  hc32f46x_pwc.o(i.PWC_Fcg0PeriphClockCmd)
    i.PWC_Fcg1PeriphClockCmd                 0x00005cb8   Section        0  hc32f46x_pwc.o(i.PWC_Fcg1PeriphClockCmd)
    i.PWC_Fcg2PeriphClockCmd                 0x00005d30   Section        0  hc32f46x_pwc.o(i.PWC_Fcg2PeriphClockCmd)
    i.PWC_Fcg3PeriphClockCmd                 0x00005da8   Section        0  hc32f46x_pwc.o(i.PWC_Fcg3PeriphClockCmd)
    i.PendSV_Handler                         0x00005e20   Section        0  hc32f46x_interrupts.o(i.PendSV_Handler)
    i.Queue_Read_Byte                        0x00005e28   Section        0  system.o(i.Queue_Read_Byte)
    i.SEGGER_RTT_ConfigUpBuffer              0x00005e64   Section        0  segger_rtt.o(i.SEGGER_RTT_ConfigUpBuffer)
    i.SEGGER_RTT_Init                        0x00005ed8   Section        0  segger_rtt.o(i.SEGGER_RTT_Init)
    i.SEGGER_RTT_Write                       0x00005ee0   Section        0  segger_rtt.o(i.SEGGER_RTT_Write)
    i.SEGGER_RTT_WriteNoLock                 0x00005f28   Section        0  segger_rtt.o(i.SEGGER_RTT_WriteNoLock)
    i.SEGGER_RTT_printf                      0x00005fac   Section        0  segger_rtt_printf.o(i.SEGGER_RTT_printf)
    i.SEGGER_RTT_vprintf                     0x00005fce   Section        0  segger_rtt_printf.o(i.SEGGER_RTT_vprintf)
    i.SVC_Handler                            0x000061d8   Section        0  hc32f46x_interrupts.o(i.SVC_Handler)
    i.SetClkSyncBaudrate                     0x000061e0   Section        0  hc32f46x_usart.o(i.SetClkSyncBaudrate)
    SetClkSyncBaudrate                       0x000061e1   Thumb Code   278  hc32f46x_usart.o(i.SetClkSyncBaudrate)
    i.SetScBaudrate                          0x0000630c   Section        0  hc32f46x_usart.o(i.SetScBaudrate)
    SetScBaudrate                            0x0000630d   Thumb Code   328  hc32f46x_usart.o(i.SetScBaudrate)
    i.SetUartBaudrate                        0x0000646c   Section        0  hc32f46x_usart.o(i.SetUartBaudrate)
    SetUartBaudrate                          0x0000646d   Thumb Code   348  hc32f46x_usart.o(i.SetUartBaudrate)
    i.SysClkInit                             0x000065dc   Section        0  sysclk.o(i.SysClkInit)
    i.SysTick_GetTick                        0x0000669c   Section        0  hc32f46x_utility.o(i.SysTick_GetTick)
    i.SysTick_Handler                        0x000066a8   Section        0  hc32f46x_interrupts.o(i.SysTick_Handler)
    i.SysTick_IncTick                        0x000066b0   Section        0  hc32f46x_utility.o(i.SysTick_IncTick)
    i.SysTick_Init                           0x000066c8   Section        0  hc32f46x_utility.o(i.SysTick_Init)
    i.SysTick_IrqHandler                     0x00006740   Section        0  app.o(i.SysTick_IrqHandler)
    i.SystemCoreClockUpdate                  0x00006748   Section        0  system_hc32f46x.o(i.SystemCoreClockUpdate)
    i.SystemInit                             0x00006834   Section        0  system_hc32f46x.o(i.SystemInit)
    i.TIMERA_BaseInit                        0x0000683c   Section        0  hc32f46x_timera.o(i.TIMERA_BaseInit)
    i.TIMERA_Cmd                             0x0000698c   Section        0  hc32f46x_timera.o(i.TIMERA_Cmd)
    i.TIMERA_CompareCmd                      0x00006a18   Section        0  hc32f46x_timera.o(i.TIMERA_CompareCmd)
    i.TIMERA_CompareInit                     0x00006ae0   Section        0  hc32f46x_timera.o(i.TIMERA_CompareInit)
    i.Timera1_en                             0x00006d40   Section        0  timera_pwm.o(i.Timera1_en)
    i.Timera1_init                           0x00006d60   Section        0  timera_pwm.o(i.Timera1_init)
    i.Timera_Config                          0x00006e10   Section        0  timera_pwm.o(i.Timera_Config)
    i.USART_FuncCmd                          0x00006ecc   Section        0  hc32f46x_usart.o(i.USART_FuncCmd)
    i.USART_RecData                          0x00007110   Section        0  hc32f46x_usart.o(i.USART_RecData)
    i.USART_SetBaudrate                      0x00007174   Section        0  hc32f46x_usart.o(i.USART_SetBaudrate)
    i.USART_UART_Init                        0x000071dc   Section        0  hc32f46x_usart.o(i.USART_UART_Init)
    i.UsageFault_Handler                     0x000075a0   Section        0  hc32f46x_interrupts.o(i.UsageFault_Handler)
    i.UsartGetClk                            0x000075a8   Section        0  hc32f46x_usart.o(i.UsartGetClk)
    UsartGetClk                              0x000075a9   Thumb Code    86  hc32f46x_usart.o(i.UsartGetClk)
    i.UsartRxIrqCallback                     0x00007638   Section        0  usart.o(i.UsartRxIrqCallback)
    UsartRxIrqCallback                       0x00007639   Thumb Code    24  usart.o(i.UsartRxIrqCallback)
    i._DoInit                                0x00007654   Section        0  segger_rtt.o(i._DoInit)
    _DoInit                                  0x00007655   Thumb Code    74  segger_rtt.o(i._DoInit)
    i._GetAvailWriteSpace                    0x000076c4   Section        0  segger_rtt.o(i._GetAvailWriteSpace)
    _GetAvailWriteSpace                      0x000076c5   Thumb Code    28  segger_rtt.o(i._GetAvailWriteSpace)
    i._PrintInt                              0x000076e0   Section        0  segger_rtt_printf.o(i._PrintInt)
    _PrintInt                                0x000076e1   Thumb Code   236  segger_rtt_printf.o(i._PrintInt)
    i._PrintUnsigned                         0x000077cc   Section        0  segger_rtt_printf.o(i._PrintUnsigned)
    _PrintUnsigned                           0x000077cd   Thumb Code   230  segger_rtt_printf.o(i._PrintUnsigned)
    i._StoreChar                             0x000078b8   Section        0  segger_rtt_printf.o(i._StoreChar)
    _StoreChar                               0x000078b9   Thumb Code    68  segger_rtt_printf.o(i._StoreChar)
    i._WriteBlocking                         0x000078fc   Section        0  segger_rtt.o(i._WriteBlocking)
    _WriteBlocking                           0x000078fd   Thumb Code   118  segger_rtt.o(i._WriteBlocking)
    i._WriteNoCheck                          0x00007972   Section        0  segger_rtt.o(i._WriteNoCheck)
    _WriteNoCheck                            0x00007973   Thumb Code    88  segger_rtt.o(i._WriteNoCheck)
    i.__0printf$3                            0x000079cc   Section        0  printf3.o(i.__0printf$3)
    i.__scatterload_copy                     0x000079ec   Section       14  handlers.o(i.__scatterload_copy)
    i.__scatterload_zeroinit                 0x000079fa   Section       14  handlers.o(i.__scatterload_zeroinit)
    i._printf_core                           0x00007a08   Section        0  printf3.o(i._printf_core)
    _printf_core                             0x00007a09   Thumb Code   436  printf3.o(i._printf_core)
    i.accumulate_data                        0x00007bc0   Section        0  distance_measure.o(i.accumulate_data)
    i.alloc_mem                              0x00007bdc   Section        0  memalloc.o(i.alloc_mem)
    i.alpha_filter                           0x00007c9c   Section        0  alpha_filter.o(i.alpha_filter)
    i.apfft                                  0x00007d50   Section        0  apfft.o(i.apfft)
    i.app                                    0x00007e50   Section        0  app.o(i.app)
    i.arctan                                 0x00007e8c   Section        0  math_fp.o(i.arctan)
    i.arctan2                                0x00007ec4   Section        0  math_fp.o(i.arctan2)
    i.arm_absmax_q31                         0x00007f90   Section        0  statisticsfunctions.o(i.arm_absmax_q31)
    i.arm_bitreversal_32                     0x00008028   Section        0  transformfunctions.o(i.arm_bitreversal_32)
    i.arm_cfft_q31                           0x00008064   Section        0  transformfunctions.o(i.arm_cfft_q31)
    i.arm_cfft_radix4by2_inverse_q31         0x00008110   Section        0  transformfunctions.o(i.arm_cfft_radix4by2_inverse_q31)
    i.arm_cfft_radix4by2_q31                 0x000081d0   Section        0  transformfunctions.o(i.arm_cfft_radix4by2_q31)
    i.arm_cmplx_mag_q31                      0x00008290   Section        0  complexmathfunctions.o(i.arm_cmplx_mag_q31)
    i.arm_max_q31                            0x000082bc   Section        0  statisticsfunctions.o(i.arm_max_q31)
    i.arm_mean_q15                           0x000082dc   Section        0  statisticsfunctions.o(i.arm_mean_q15)
    i.arm_mean_q31                           0x000082f8   Section        0  statisticsfunctions.o(i.arm_mean_q31)
    i.arm_offset_q15                         0x00008328   Section        0  basicmathfunctions.o(i.arm_offset_q15)
    i.arm_radix4_butterfly_inverse_q31       0x00008340   Section        0  transformfunctions.o(i.arm_radix4_butterfly_inverse_q31)
    i.arm_radix4_butterfly_q31               0x00008714   Section        0  transformfunctions.o(i.arm_radix4_butterfly_q31)
    i.arm_rfft_init_q31                      0x00008ae4   Section        0  transformfunctions.o(i.arm_rfft_init_q31)
    i.arm_rfft_q31                           0x00008bac   Section        0  transformfunctions.o(i.arm_rfft_q31)
    i.arm_shift_q31                          0x00008c10   Section        0  basicmathfunctions.o(i.arm_shift_q31)
    i.arm_split_rfft_q31                     0x00008c5a   Section        0  transformfunctions.o(i.arm_split_rfft_q31)
    i.arm_split_rifft_q31                    0x00008d30   Section        0  transformfunctions.o(i.arm_split_rifft_q31)
    i.arm_sqrt_q31                           0x00008d94   Section        0  fastmathfunctions.o(i.arm_sqrt_q31)
    i.bt_protocol_init                       0x00008e74   Section        0  mcu_api.o(i.bt_protocol_init)
    i.bt_uart_service                        0x00008e98   Section        0  mcu_api.o(i.bt_uart_service)
    i.cfar_ca                                0x00008f24   Section        0  micromotion_detection.o(i.cfar_ca)
    i.close_process                          0x00008f74   Section        0  app.o(i.close_process)
    i.data_handle                            0x00008fb8   Section        0  system.o(i.data_handle)
    i.enIrqRegistration                      0x000090c8   Section        0  hc32f46x_interrupts.o(i.enIrqRegistration)
    i.enShareIrqEnable                       0x00009188   Section        0  hc32f46x_interrupts.o(i.enShareIrqEnable)
    i.find_max_peak                          0x000091ac   Section        0  pd_calculation.o(i.find_max_peak)
    i.fputc                                  0x000091e4   Section        0  hc32f46x_utility.o(i.fputc)
    i.free_mem                               0x000091f4   Section        0  memalloc.o(i.free_mem)
    i.get_queue_total_data                   0x00009238   Section        0  system.o(i.get_queue_total_data)
    i.get_sample_data                        0x00009254   Section        0  adc.o(i.get_sample_data)
    i.gpio_init                              0x0000926c   Section        0  gpio.o(i.gpio_init)
    i.idle_process                           0x00009298   Section        0  app.o(i.idle_process)
    i.init_mem                               0x00009390   Section        0  memalloc.o(i.init_mem)
    i.leave_s0                               0x000093bc   Section        0  app.o(i.leave_s0)
    i.leave_s1                               0x000093e8   Section        0  app.o(i.leave_s1)
    i.led_init                               0x0000940c   Section        0  led.o(i.led_init)
    i.main                                   0x00009474   Section        0  main.o(i.main)
    i.mcu_common_uart_data_unpack            0x00009550   Section        0  mcu_api.o(i.mcu_common_uart_data_unpack)
    mcu_common_uart_data_unpack              0x00009551   Thumb Code   274  mcu_api.o(i.mcu_common_uart_data_unpack)
    i.measure_distance                       0x00009678   Section        0  distance_measure.o(i.measure_distance)
    i.micromotion_detection                  0x00009768   Section        0  micromotion_detection.o(i.micromotion_detection)
    i.my_memcpy                              0x000098a8   Section        0  mcu_api.o(i.my_memcpy)
    i.my_memset                              0x000098ec   Section        0  mcu_api.o(i.my_memset)
    i.pd_calculation                         0x00009910   Section        0  pd_calculation.o(i.pd_calculation)
    i.ring_buffer_get                        0x00009bfc   Section        0  ringbuffer.o(i.ring_buffer_get)
    i.ring_buffer_put                        0x00009c90   Section        0  ringbuffer.o(i.ring_buffer_put)
    i.rtt_init                               0x00009d20   Section        0  main.o(i.rtt_init)
    i.send_d1_response                       0x00009e10   Section        0  system.o(i.send_d1_response)
    i.send_d2_response                       0x00009e84   Section        0  system.o(i.send_d2_response)
    i.send_d3_response                       0x00009ef8   Section        0  system.o(i.send_d3_response)
    i.send_d4_response                       0x00009ff8   Section        0  system.o(i.send_d4_response)
    i.tick_init                              0x0000a078   Section        0  app.o(i.tick_init)
    i.uart_receive_input                     0x0000a0b0   Section        0  mcu_api.o(i.uart_receive_input)
    i.uart_transmit_output                   0x0000a110   Section        0  protocol.o(i.uart_transmit_output)
    i.usart_init                             0x0000a128   Section        0  usart.o(i.usart_init)
    .constdata                               0x0000a234   Section       16  hc32f46x_usart.o(.constdata)
    .constdata                               0x0000a244   Section        9  usart.o(.constdata)
    .constdata                               0x0000a250   Section        8  micromotion_detection.o(.constdata)
    .constdata                               0x0000a258   Section     2048  hamming.o(.constdata)
    .constdata                               0x0000aa58   Section     2044  hanning_conv.o(.constdata)
    .constdata                               0x0000b254   Section     2048  freq_linspace.o(.constdata)
    .constdata                               0x0000ba54   Section       16  segger_rtt_printf.o(.constdata)
    _aV2C                                    0x0000ba54   Data          16  segger_rtt_printf.o(.constdata)
    .constdata                               0x0000ba64   Section       96  commontables.o(.constdata)
    .constdata                               0x0000bac4   Section      192  commontables.o(.constdata)
    .constdata                               0x0000bb84   Section      384  commontables.o(.constdata)
    .constdata                               0x0000bd04   Section      768  commontables.o(.constdata)
    .constdata                               0x0000c004   Section     1536  commontables.o(.constdata)
    .constdata                               0x0000c604   Section     3072  commontables.o(.constdata)
    .constdata                               0x0000d204   Section     6144  commontables.o(.constdata)
    .constdata                               0x0000ea04   Section    12288  commontables.o(.constdata)
    .constdata                               0x00011a04   Section    24576  commontables.o(.constdata)
    .constdata                               0x00017a04   Section       24  commontables.o(.constdata)
    .constdata                               0x00017a1c   Section       48  commontables.o(.constdata)
    .constdata                               0x00017a4c   Section      112  commontables.o(.constdata)
    .constdata                               0x00017abc   Section      224  commontables.o(.constdata)
    .constdata                               0x00017b9c   Section      480  commontables.o(.constdata)
    .constdata                               0x00017d7c   Section      960  commontables.o(.constdata)
    .constdata                               0x0001813c   Section     1984  commontables.o(.constdata)
    .constdata                               0x000188fc   Section     3968  commontables.o(.constdata)
    .constdata                               0x0001987c   Section     8064  commontables.o(.constdata)
    .constdata                               0x0001b7fc   Section    32768  commontables.o(.constdata)
    .constdata                               0x000237fc   Section    32768  commontables.o(.constdata)
    .constdata                               0x0002b7fc   Section       16  commontables.o(.constdata)
    .constdata                               0x0002b80c   Section       16  commontables.o(.constdata)
    .constdata                               0x0002b81c   Section       16  commontables.o(.constdata)
    .constdata                               0x0002b82c   Section       16  commontables.o(.constdata)
    .constdata                               0x0002b83c   Section       16  commontables.o(.constdata)
    .constdata                               0x0002b84c   Section       16  commontables.o(.constdata)
    .constdata                               0x0002b85c   Section       16  commontables.o(.constdata)
    .constdata                               0x0002b86c   Section       16  commontables.o(.constdata)
    .constdata                               0x0002b87c   Section       16  commontables.o(.constdata)
    i.EFM_InstructionCacheCmd                0x1fff800c   Section        0  hc32f46x_efm.o(i.EFM_InstructionCacheCmd)
    i.EFM_Lock                               0x1fff8058   Section        0  hc32f46x_efm.o(i.EFM_Lock)
    i.EFM_SetLatency                         0x1fff8070   Section        0  hc32f46x_efm.o(i.EFM_SetLatency)
    i.EFM_Unlock                             0x1fff80f4   Section        0  hc32f46x_efm.o(i.EFM_Unlock)
    .data                                    0x1fff8108   Section        4  memalloc.o(.data)
    total                                    0x1fff8108   Data           4  memalloc.o(.data)
    .data                                    0x1fff810c   Section       36  main.o(.data)
    .data                                    0x1fff8130   Section       36  app.o(.data)
    finish_tick                              0x1fff814c   Data           4  app.o(.data)
    start_tick                               0x1fff8150   Data           4  app.o(.data)
    .data                                    0x1fff8154   Section        8  hc32f46x_utility.o(.data)
    m_u32TickStep                            0x1fff8154   Data           4  hc32f46x_utility.o(.data)
    m_u32TickCount                           0x1fff8158   Data           4  hc32f46x_utility.o(.data)
    .data                                    0x1fff815c   Section        1  hc32f46x_dmac.o(.data)
    DmaChEnState                             0x1fff815c   Data           1  hc32f46x_dmac.o(.data)
    .data                                    0x1fff8160   Section        4  hc32f46x_exint_nmi_swi.o(.data)
    pfnNmiCallback                           0x1fff8160   Data           4  hc32f46x_exint_nmi_swi.o(.data)
    .data                                    0x1fff8164   Section        8  system_hc32f46x.o(.data)
    .data                                    0x1fff816c   Section       24  adc.o(.data)
    .data                                    0x1fff8184   Section        4  distance_measure.o(.data)
    data_index                               0x1fff8184   Data           4  distance_measure.o(.data)
    .data                                    0x1fff8188   Section       10  mcu_api.o(.data)
    current_uart_rev_state_type              0x1fff8188   Data           1  mcu_api.o(.data)
    bt_uart_rx_buf_temp                      0x1fff8189   Data           3  mcu_api.o(.data)
    uart_data_len                            0x1fff818c   Data           2  mcu_api.o(.data)
    UART_RX_Count                            0x1fff818e   Data           2  mcu_api.o(.data)
    rx_in                                    0x1fff8190   Data           2  mcu_api.o(.data)
    .data                                    0x1fff8194   Section        8  protocol.o(.data)
    .data                                    0x1fff819c   Section       13  system.o(.data)
    mcu_reset_state                          0x1fff81a8   Data           1  system.o(.data)
    .data                                    0x1fff81ac   Section        4  stdout.o(.data)
    .bss                                     0x1fff81b0   Section    30960  memalloc.o(.bss)
    chunks                                   0x1fff81b0   Data         240  memalloc.o(.bss)
    reserved_mem                             0x1fff82a0   Data       30720  memalloc.o(.bss)
    .bss                                     0x1ffffaa0   Section    16896  main.o(.bss)
    .bss                                     0x20003ca0   Section      512  hc32f46x_interrupts.o(.bss)
    .bss                                     0x20003ea0   Section     2276  adc.o(.bss)
    stcLlpDesc                               0x200046c4   Data         128  adc.o(.bss)
    light_llp_desc                           0x20004744   Data          64  adc.o(.bss)
    .bss                                     0x20004784   Section     2048  distance_measure.o(.bss)
    .bss                                     0x20004f84   Section      671  system.o(.bss)
    .bss                                     0x20005224   Section     1208  segger_rtt.o(.bss)
    _acUpBuffer                              0x200052cc   Data        1024  segger_rtt.o(.bss)
    _acDownBuffer                            0x200056cc   Data          16  segger_rtt.o(.bss)
    STACK                                    0x200056e0   Section     1536  startup_hc32f46x.o(STACK)

    Global Symbols

    Symbol Name                              Value     Ov Type        Size  Object(Section)

    BuildAttributes$$THM_ISAv4$E$P$D$K$B$S$7EM$PE$A:L22UL41UL21$X:L11$S22US41US21$IEEE1$IW$USESV6$~STKCKD$USESV7$~SHL$OTIME$ROPI$IEEEX$EBA8$MICROLIB$REQ8$PRES8$EABIv2 0x00000000   Number         0  anon$$obj.o ABSOLUTE
    __ARM_use_no_argv                        0x00000000   Number         0  main.o ABSOLUTE
    __Vectors                                0x00000000   Data           4  startup_hc32f46x.o(RESET)
    _printf_a                                0x00000000   Number         0  stubs.o ABSOLUTE
    _printf_c                                0x00000000   Number         0  stubs.o ABSOLUTE
    _printf_charcount                        0x00000000   Number         0  stubs.o ABSOLUTE
    _printf_d                                0x00000000   Number         0  stubs.o ABSOLUTE
    _printf_e                                0x00000000   Number         0  stubs.o ABSOLUTE
    _printf_f                                0x00000000   Number         0  stubs.o ABSOLUTE
    _printf_flags                            0x00000000   Number         0  stubs.o ABSOLUTE
    _printf_fp_dec                           0x00000000   Number         0  stubs.o ABSOLUTE
    _printf_fp_hex                           0x00000000   Number         0  stubs.o ABSOLUTE
    _printf_g                                0x00000000   Number         0  stubs.o ABSOLUTE
    _printf_i                                0x00000000   Number         0  stubs.o ABSOLUTE
    _printf_int_dec                          0x00000000   Number         0  stubs.o ABSOLUTE
    _printf_l                                0x00000000   Number         0  stubs.o ABSOLUTE
    _printf_lc                               0x00000000   Number         0  stubs.o ABSOLUTE
    _printf_ll                               0x00000000   Number         0  stubs.o ABSOLUTE
    _printf_lld                              0x00000000   Number         0  stubs.o ABSOLUTE
    _printf_lli                              0x00000000   Number         0  stubs.o ABSOLUTE
    _printf_llo                              0x00000000   Number         0  stubs.o ABSOLUTE
    _printf_llu                              0x00000000   Number         0  stubs.o ABSOLUTE
    _printf_llx                              0x00000000   Number         0  stubs.o ABSOLUTE
    _printf_longlong_dec                     0x00000000   Number         0  stubs.o ABSOLUTE
    _printf_longlong_hex                     0x00000000   Number         0  stubs.o ABSOLUTE
    _printf_longlong_oct                     0x00000000   Number         0  stubs.o ABSOLUTE
    _printf_ls                               0x00000000   Number         0  stubs.o ABSOLUTE
    _printf_mbtowc                           0x00000000   Number         0  stubs.o ABSOLUTE
    _printf_n                                0x00000000   Number         0  stubs.o ABSOLUTE
    _printf_o                                0x00000000   Number         0  stubs.o ABSOLUTE
    _printf_p                                0x00000000   Number         0  stubs.o ABSOLUTE
    _printf_percent                          0x00000000   Number         0  stubs.o ABSOLUTE
    _printf_pre_padding                      0x00000000   Number         0  stubs.o ABSOLUTE
    _printf_return_value                     0x00000000   Number         0  stubs.o ABSOLUTE
    _printf_s                                0x00000000   Number         0  stubs.o ABSOLUTE
    _printf_sizespec                         0x00000000   Number         0  stubs.o ABSOLUTE
    _printf_str                              0x00000000   Number         0  stubs.o ABSOLUTE
    _printf_truncate_signed                  0x00000000   Number         0  stubs.o ABSOLUTE
    _printf_truncate_unsigned                0x00000000   Number         0  stubs.o ABSOLUTE
    _printf_u                                0x00000000   Number         0  stubs.o ABSOLUTE
    _printf_wc                               0x00000000   Number         0  stubs.o ABSOLUTE
    _printf_wctomb                           0x00000000   Number         0  stubs.o ABSOLUTE
    _printf_widthprec                        0x00000000   Number         0  stubs.o ABSOLUTE
    _printf_x                                0x00000000   Number         0  stubs.o ABSOLUTE
    ADC1A_IrqHandler                          - Undefined Weak Reference
    ADC1ChCmp_IrqHandler                      - Undefined Weak Reference
    ADC1SeqCmp_IrqHandler                     - Undefined Weak Reference
    ADC2A_IrqHandler                          - Undefined Weak Reference
    ADC2B_IrqHandler                          - Undefined Weak Reference
    ADC2ChCmp_IrqHandler                      - Undefined Weak Reference
    ADC2SeqCmp_IrqHandler                     - Undefined Weak Reference
    BusFault_IrqHandler                       - Undefined Weak Reference
    Can_IrqHandler                            - Undefined Weak Reference
    Dcu1_IrqHandler                           - Undefined Weak Reference
    Dcu2_IrqHandler                           - Undefined Weak Reference
    Dcu3_IrqHandler                           - Undefined Weak Reference
    Dcu4_IrqHandler                           - Undefined Weak Reference
    DebugMon_IrqHandler                       - Undefined Weak Reference
    Dma1Btc2_IrqHandler                       - Undefined Weak Reference
    Dma1Btc3_IrqHandler                       - Undefined Weak Reference
    Dma1Err0_IrqHandler                       - Undefined Weak Reference
    Dma1Err1_IrqHandler                       - Undefined Weak Reference
    Dma1Err2_IrqHandler                       - Undefined Weak Reference
    Dma1Err3_IrqHandler                       - Undefined Weak Reference
    Dma1Tc0_IrqHandler                        - Undefined Weak Reference
    Dma1Tc1_IrqHandler                        - Undefined Weak Reference
    Dma1Tc2_IrqHandler                        - Undefined Weak Reference
    Dma1Tc3_IrqHandler                        - Undefined Weak Reference
    Dma2Btc0_IrqHandler                       - Undefined Weak Reference
    Dma2Btc1_IrqHandler                       - Undefined Weak Reference
    Dma2Btc2_IrqHandler                       - Undefined Weak Reference
    Dma2Btc3_IrqHandler                       - Undefined Weak Reference
    Dma2Err0_IrqHandler                       - Undefined Weak Reference
    Dma2Err1_IrqHandler                       - Undefined Weak Reference
    Dma2Err2_IrqHandler                       - Undefined Weak Reference
    Dma2Err3_IrqHandler                       - Undefined Weak Reference
    Dma2Tc0_IrqHandler                        - Undefined Weak Reference
    Dma2Tc1_IrqHandler                        - Undefined Weak Reference
    Dma2Tc2_IrqHandler                        - Undefined Weak Reference
    Dma2Tc3_IrqHandler                        - Undefined Weak Reference
    EfmColErr_IrqHandler                      - Undefined Weak Reference
    EfmOpEnd_IrqHandler                       - Undefined Weak Reference
    EfmPgmEraseErr_IrqHandler                 - Undefined Weak Reference
    Emb1_IrqHandler                           - Undefined Weak Reference
    Emb2_IrqHandler                           - Undefined Weak Reference
    Emb3_IrqHandler                           - Undefined Weak Reference
    Emb4_IrqHandler                           - Undefined Weak Reference
    Extint00_IrqHandler                       - Undefined Weak Reference
    Extint01_IrqHandler                       - Undefined Weak Reference
    Extint02_IrqHandler                       - Undefined Weak Reference
    Extint03_IrqHandler                       - Undefined Weak Reference
    Extint04_IrqHandler                       - Undefined Weak Reference
    Extint05_IrqHandler                       - Undefined Weak Reference
    Extint06_IrqHandler                       - Undefined Weak Reference
    Extint07_IrqHandler                       - Undefined Weak Reference
    Extint08_IrqHandler                       - Undefined Weak Reference
    Extint09_IrqHandler                       - Undefined Weak Reference
    Extint10_IrqHandler                       - Undefined Weak Reference
    Extint11_IrqHandler                       - Undefined Weak Reference
    Extint12_IrqHandler                       - Undefined Weak Reference
    Extint13_IrqHandler                       - Undefined Weak Reference
    Extint14_IrqHandler                       - Undefined Weak Reference
    Extint15_IrqHandler                       - Undefined Weak Reference
    FcmEnd_IrqHandler                         - Undefined Weak Reference
    FcmErr_IrqHandler                         - Undefined Weak Reference
    FcmOV_IrqHandler                          - Undefined Weak Reference
    HardFault_IrqHandler                      - Undefined Weak Reference
    I2c1Err_IrqHandler                        - Undefined Weak Reference
    I2c1RxEnd_IrqHandler                      - Undefined Weak Reference
    I2c1TxEmpty_IrqHandler                    - Undefined Weak Reference
    I2c1TxEnd_IrqHandler                      - Undefined Weak Reference
    I2c2Err_IrqHandler                        - Undefined Weak Reference
    I2c2RxEnd_IrqHandler                      - Undefined Weak Reference
    I2c2TxEmpty_IrqHandler                    - Undefined Weak Reference
    I2c2TxEnd_IrqHandler                      - Undefined Weak Reference
    I2c3Err_IrqHandler                        - Undefined Weak Reference
    I2c3RxEnd_IrqHandler                      - Undefined Weak Reference
    I2c3TxEmpty_IrqHandler                    - Undefined Weak Reference
    I2c3TxEnd_IrqHandler                      - Undefined Weak Reference
    I2s1Err_IrqHandler                        - Undefined Weak Reference
    I2s1Rx_IrqHandler                         - Undefined Weak Reference
    I2s1Tx_IrqHandler                         - Undefined Weak Reference
    I2s2Err_IrqHandler                        - Undefined Weak Reference
    I2s2Rx_IrqHandler                         - Undefined Weak Reference
    I2s2Tx_IrqHandler                         - Undefined Weak Reference
    I2s3Err_IrqHandler                        - Undefined Weak Reference
    I2s3Rx_IrqHandler                         - Undefined Weak Reference
    I2s3Tx_IrqHandler                         - Undefined Weak Reference
    I2s4Err_IrqHandler                        - Undefined Weak Reference
    I2s4Rx_IrqHandler                         - Undefined Weak Reference
    I2s4Tx_IrqHandler                         - Undefined Weak Reference
    MainOscStop_IrqHandler                    - Undefined Weak Reference
    MemManage_IrqHandler                      - Undefined Weak Reference
    PendSV_IrqHandler                         - Undefined Weak Reference
    Pvd1_IrqHandler                           - Undefined Weak Reference
    Pvd2_IrqHandler                           - Undefined Weak Reference
    QspiInt_IrqHandler                        - Undefined Weak Reference
    SVC_IrqHandler                            - Undefined Weak Reference
    Sdio1_IrqHandler                          - Undefined Weak Reference
    Sdio2_IrqHandler                          - Undefined Weak Reference
    Spi1Err_IrqHandler                        - Undefined Weak Reference
    Spi1Idle_IrqHandler                       - Undefined Weak Reference
    Spi1RxEnd_IrqHandler                      - Undefined Weak Reference
    Spi1TxEmpty_IrqHandler                    - Undefined Weak Reference
    Spi2Err_IrqHandler                        - Undefined Weak Reference
    Spi2Idle_IrqHandler                       - Undefined Weak Reference
    Spi2RxEnd_IrqHandler                      - Undefined Weak Reference
    Spi2TxEmpty_IrqHandler                    - Undefined Weak Reference
    Spi3Err_IrqHandler                        - Undefined Weak Reference
    Spi3Idle_IrqHandler                       - Undefined Weak Reference
    Spi3RxEnd_IrqHandler                      - Undefined Weak Reference
    Spi3TxEmpty_IrqHandler                    - Undefined Weak Reference
    Spi4Err_IrqHandler                        - Undefined Weak Reference
    Spi4Idle_IrqHandler                       - Undefined Weak Reference
    Spi4RxEnd_IrqHandler                      - Undefined Weak Reference
    Spi4TxEmpty_IrqHandler                    - Undefined Weak Reference
    Swdt_IrqHandler                           - Undefined Weak Reference
    Timer01GCMA_IrqHandler                    - Undefined Weak Reference
    Timer01GCMB_IrqHandler                    - Undefined Weak Reference
    Timer02GCMA_IrqHandler                    - Undefined Weak Reference
    Timer02GCMB_IrqHandler                    - Undefined Weak Reference
    Timer41GCMUH_IrqHandler                   - Undefined Weak Reference
    Timer41GCMUL_IrqHandler                   - Undefined Weak Reference
    Timer41GCMVH_IrqHandler                   - Undefined Weak Reference
    Timer41GCMVL_IrqHandler                   - Undefined Weak Reference
    Timer41GCMWH_IrqHandler                   - Undefined Weak Reference
    Timer41GCMWL_IrqHandler                   - Undefined Weak Reference
    Timer41GOV_IrqHandler                     - Undefined Weak Reference
    Timer41GUD_IrqHandler                     - Undefined Weak Reference
    Timer41ReloadU_IrqHandler                 - Undefined Weak Reference
    Timer41ReloadV_IrqHandler                 - Undefined Weak Reference
    Timer41ReloadW_IrqHandler                 - Undefined Weak Reference
    Timer42GCMVH_IrqHandler                   - Undefined Weak Reference
    Timer42GCMVL_IrqHandler                   - Undefined Weak Reference
    Timer42GCMWH_IrqHandler                   - Undefined Weak Reference
    Timer42GCMWL_IrqHandler                   - Undefined Weak Reference
    Timer42GOV_IrqHandler                     - Undefined Weak Reference
    Timer42GUD_IrqHandler                     - Undefined Weak Reference
    Timer42ReloadU_IrqHandler                 - Undefined Weak Reference
    Timer42ReloadV_IrqHandler                 - Undefined Weak Reference
    Timer42ReloadW_IrqHandler                 - Undefined Weak Reference
    Timer43GCMUH_IrqHandler                   - Undefined Weak Reference
    Timer43GCMUL_IrqHandler                   - Undefined Weak Reference
    Timer43GCMVH_IrqHandler                   - Undefined Weak Reference
    Timer43GCMVL_IrqHandler                   - Undefined Weak Reference
    Timer43GCMWH_IrqHandler                   - Undefined Weak Reference
    Timer43GCMWL_IrqHandler                   - Undefined Weak Reference
    Timer43GOV_IrqHandler                     - Undefined Weak Reference
    Timer43GUD_IrqHandler                     - Undefined Weak Reference
    Timer43ReloadV_IrqHandler                 - Undefined Weak Reference
    Timer43ReloadW_IrqHandler                 - Undefined Weak Reference
    Timer61GCMA_IrqHandler                    - Undefined Weak Reference
    Timer61GCMB_IrqHandler                    - Undefined Weak Reference
    Timer61GCMC_IrqHandler                    - Undefined Weak Reference
    Timer61GCMD_IrqHandler                    - Undefined Weak Reference
    Timer61GCME_IrqHandler                    - Undefined Weak Reference
    Timer61GCMF_IrqHandler                    - Undefined Weak Reference
    Timer61GDT_IrqHandler                     - Undefined Weak Reference
    Timer61GOV_IrqHandler                     - Undefined Weak Reference
    Timer61GUD_IrqHandler                     - Undefined Weak Reference
    Timer61SCMA_IrqHandler                    - Undefined Weak Reference
    Timer61SCMB_IrqHandler                    - Undefined Weak Reference
    Timer62GCMA_IrqHandler                    - Undefined Weak Reference
    Timer62GCMB_IrqHandler                    - Undefined Weak Reference
    Timer62GCMC_IrqHandler                    - Undefined Weak Reference
    Timer62GCMD_IrqHandler                    - Undefined Weak Reference
    Timer62GCME_IrqHandler                    - Undefined Weak Reference
    Timer62GCMF_IrqHandler                    - Undefined Weak Reference
    Timer62GDT_IrqHandler                     - Undefined Weak Reference
    Timer62GOV_IrqHandler                     - Undefined Weak Reference
    Timer62GUD_IrqHandler                     - Undefined Weak Reference
    Timer62SCMA_IrqHandler                    - Undefined Weak Reference
    Timer62SCMB_IrqHandler                    - Undefined Weak Reference
    Timer63GCMA_IrqHandler                    - Undefined Weak Reference
    Timer63GCMB_IrqHandler                    - Undefined Weak Reference
    Timer63GCMC_IrqHandler                    - Undefined Weak Reference
    Timer63GCMD_IrqHandler                    - Undefined Weak Reference
    Timer63GCME_IrqHandler                    - Undefined Weak Reference
    Timer63GCMF_IrqHandler                    - Undefined Weak Reference
    Timer63GDT_IrqHandler                     - Undefined Weak Reference
    Timer63GOV_IrqHandler                     - Undefined Weak Reference
    Timer63GUD_IrqHandler                     - Undefined Weak Reference
    Timer63SCMA_IrqHandler                    - Undefined Weak Reference
    Timer63SCMB_IrqHandler                    - Undefined Weak Reference
    TimerA1CMP_IrqHandler                     - Undefined Weak Reference
    TimerA1OV_IrqHandler                      - Undefined Weak Reference
    TimerA1UD_IrqHandler                      - Undefined Weak Reference
    TimerA2CMP_IrqHandler                     - Undefined Weak Reference
    TimerA2OV_IrqHandler                      - Undefined Weak Reference
    TimerA2UD_IrqHandler                      - Undefined Weak Reference
    TimerA3CMP_IrqHandler                     - Undefined Weak Reference
    TimerA3OV_IrqHandler                      - Undefined Weak Reference
    TimerA3UD_IrqHandler                      - Undefined Weak Reference
    TimerA4CMP_IrqHandler                     - Undefined Weak Reference
    TimerA4OV_IrqHandler                      - Undefined Weak Reference
    TimerA4UD_IrqHandler                      - Undefined Weak Reference
    TimerA5CMP_IrqHandler                     - Undefined Weak Reference
    TimerA5OV_IrqHandler                      - Undefined Weak Reference
    TimerA5UD_IrqHandler                      - Undefined Weak Reference
    TimerA6CMP_IrqHandler                     - Undefined Weak Reference
    TimerA6OV_IrqHandler                      - Undefined Weak Reference
    TimerA6UD_IrqHandler                      - Undefined Weak Reference
    UsageFault_IrqHandler                     - Undefined Weak Reference
    Usart1RxEnd_IrqHandler                    - Undefined Weak Reference
    Usart1RxErr_IrqHandler                    - Undefined Weak Reference
    Usart1RxTO_IrqHandler                     - Undefined Weak Reference
    Usart1TxEmpty_IrqHandler                  - Undefined Weak Reference
    Usart1TxEnd_IrqHandler                    - Undefined Weak Reference
    Usart2RxEnd_IrqHandler                    - Undefined Weak Reference
    Usart2RxErr_IrqHandler                    - Undefined Weak Reference
    Usart2RxTO_IrqHandler                     - Undefined Weak Reference
    Usart2TxEmpty_IrqHandler                  - Undefined Weak Reference
    Usart2TxEnd_IrqHandler                    - Undefined Weak Reference
    Usart3RxEnd_IrqHandler                    - Undefined Weak Reference
    Usart3RxErr_IrqHandler                    - Undefined Weak Reference
    Usart3RxTO_IrqHandler                     - Undefined Weak Reference
    Usart3TxEmpty_IrqHandler                  - Undefined Weak Reference
    Usart3TxEnd_IrqHandler                    - Undefined Weak Reference
    Usart4RxEnd_IrqHandler                    - Undefined Weak Reference
    Usart4RxErr_IrqHandler                    - Undefined Weak Reference
    Usart4RxTO_IrqHandler                     - Undefined Weak Reference
    Usart4TxEmpty_IrqHandler                  - Undefined Weak Reference
    Usart4TxEnd_IrqHandler                    - Undefined Weak Reference
    UsbGlobal_IrqHandler                      - Undefined Weak Reference
    WakeupTimer_IrqHandler                    - Undefined Weak Reference
    Wdt_IrqHandler                            - Undefined Weak Reference
    __arm_fini_                               - Undefined Weak Reference
    __cpp_initialize__aeabi_                  - Undefined Weak Reference
    __cxa_finalize                            - Undefined Weak Reference
    __decompress                              - Undefined Weak Reference
    _clock_init                               - Undefined Weak Reference
    _microlib_exit                            - Undefined Weak Reference
    __Vectors_End                            0x00000280   Data           0  startup_hc32f46x.o(RESET)
    __Vectors_Size                           0x00000280   Number         0  startup_hc32f46x.o ABSOLUTE
    __main                                   0x00000281   Thumb Code     0  entry.o(.ARM.Collect$$$$00000000)
    _main_stk                                0x00000281   Thumb Code     0  entry2.o(.ARM.Collect$$$$00000001)
    _main_scatterload                        0x00000285   Thumb Code     0  entry5.o(.ARM.Collect$$$$00000004)
    __main_after_scatterload                 0x00000289   Thumb Code     0  entry5.o(.ARM.Collect$$$$00000004)
    _main_clock                              0x00000289   Thumb Code     0  entry7b.o(.ARM.Collect$$$$00000008)
    _main_cpp_init                           0x00000289   Thumb Code     0  entry8b.o(.ARM.Collect$$$$0000000A)
    _main_init                               0x00000289   Thumb Code     0  entry9a.o(.ARM.Collect$$$$0000000B)
    __rt_lib_shutdown_fini                   0x00000291   Thumb Code     0  entry12b.o(.ARM.Collect$$$$0000000E)
    __rt_final_cpp                           0x00000295   Thumb Code     0  entry10a.o(.ARM.Collect$$$$0000000F)
    __rt_final_exit                          0x00000295   Thumb Code     0  entry11a.o(.ARM.Collect$$$$00000011)
    Reset_Handler                            0x00000299   Thumb Code    46  startup_hc32f46x.o(.text)
    IRQ133_Handler                           0x000002d9   Thumb Code     0  startup_hc32f46x.o(.text)
    IRQ134_Handler                           0x000002d9   Thumb Code     0  startup_hc32f46x.o(.text)
    IRQ135_Handler                           0x000002d9   Thumb Code     0  startup_hc32f46x.o(.text)
    __aeabi_uldivmod                         0x000002f5   Thumb Code    98  uldiv.o(.text)
    __aeabi_ldivmod                          0x00000357   Thumb Code    98  ldiv.o(.text)
    __aeabi_llsl                             0x000003b9   Thumb Code    30  llshl.o(.text)
    _ll_shift_l                              0x000003b9   Thumb Code     0  llshl.o(.text)
    __aeabi_lasr                             0x000003d7   Thumb Code    36  llsshr.o(.text)
    _ll_sshift_r                             0x000003d7   Thumb Code     0  llsshr.o(.text)
    __I$use$fp                               0x000003fb   Thumb Code     0  iusefp.o(.text)
    __scatterload_null                       0x000003fb   Thumb Code     2  handlers.o(i.__scatterload_null)
    u32ICG                                   0x00000400   Data          32  hc32f46x_icg.o(.ARM.__AT_0x00000400)
    Long Thumb to Thumb Veneer to EFM_Unlock 0x00000421   Thumb Code    10  anon$$obj.o(Veneer$$Code)
    Long Thumb to Thumb Veneer to EFM_SetLatency 0x0000042b   Thumb Code    10  anon$$obj.o(Veneer$$Code)
    Long Thumb to Thumb Veneer to EFM_InstructionCacheCmd 0x00000435   Thumb Code    10  anon$$obj.o(Veneer$$Code)
    Long Thumb to Thumb Veneer to EFM_Lock   0x0000043f   Thumb Code    10  anon$$obj.o(Veneer$$Code)
    ___aeabi_memcpy8$move                    0x00000449   Thumb Code     0  memmovea.o(.text)
    __aeabi_memcpy                           0x00000449   Thumb Code    64  memmovea.o(.text)
    __aeabi_memcpy4                          0x00000449   Thumb Code     0  memmovea.o(.text)
    __aeabi_memmove                          0x00000449   Thumb Code     0  memmovea.o(.text)
    __aeabi_memmove4                         0x00000449   Thumb Code     0  memmovea.o(.text)
    __aeabi_memmove8                         0x00000449   Thumb Code     0  memmovea.o(.text)
    __aeabi_memset                           0x00000489   Thumb Code    14  memseta.o(.text)
    __aeabi_memset4                          0x00000489   Thumb Code     0  memseta.o(.text)
    __aeabi_memset8                          0x00000489   Thumb Code     0  memseta.o(.text)
    __aeabi_memclr                           0x00000497   Thumb Code     4  memseta.o(.text)
    __aeabi_memclr4                          0x00000497   Thumb Code     0  memseta.o(.text)
    __aeabi_memclr8                          0x00000497   Thumb Code     0  memseta.o(.text)
    _memset$wrapper                          0x0000049b   Thumb Code    18  memseta.o(.text)
    strcpy                                   0x000004ad   Thumb Code    18  strcpy.o(.text)
    __aeabi_fadd                             0x000004bf   Thumb Code   164  fadd.o(.text)
    __aeabi_fsub                             0x00000563   Thumb Code     6  fadd.o(.text)
    __aeabi_frsub                            0x00000569   Thumb Code     6  fadd.o(.text)
    __aeabi_fmul                             0x0000056f   Thumb Code   100  fmul.o(.text)
    __aeabi_fdiv                             0x000005d3   Thumb Code   124  fdiv.o(.text)
    __ARM_scalbnf                            0x0000064f   Thumb Code    24  fscalb.o(.text)
    scalbnf                                  0x0000064f   Thumb Code     0  fscalb.o(.text)
    __aeabi_dadd                             0x00000667   Thumb Code   322  dadd.o(.text)
    __aeabi_dsub                             0x000007a9   Thumb Code     6  dadd.o(.text)
    __aeabi_drsub                            0x000007af   Thumb Code     6  dadd.o(.text)
    __aeabi_dmul                             0x000007b5   Thumb Code   228  dmul.o(.text)
    __aeabi_i2f                              0x00000899   Thumb Code    18  fflti.o(.text)
    __aeabi_ui2f                             0x000008ab   Thumb Code    10  ffltui.o(.text)
    __aeabi_f2iz                             0x000008b5   Thumb Code    50  ffixi.o(.text)
    __aeabi_f2uiz                            0x000008e7   Thumb Code    40  ffixui.o(.text)
    __aeabi_f2d                              0x0000090f   Thumb Code    38  f2d.o(.text)
    __aeabi_cdrcmple                         0x00000935   Thumb Code    48  cdrcmple.o(.text)
    __aeabi_d2f                              0x00000965   Thumb Code    56  d2f.o(.text)
    __aeabi_cfcmpeq                          0x0000099d   Thumb Code     0  cfcmple.o(.text)
    __aeabi_cfcmple                          0x0000099d   Thumb Code    20  cfcmple.o(.text)
    __aeabi_cfrcmple                         0x000009b1   Thumb Code    20  cfrcmple.o(.text)
    __aeabi_uidiv                            0x000009c5   Thumb Code     0  uidiv.o(.text)
    __aeabi_uidivmod                         0x000009c5   Thumb Code    44  uidiv.o(.text)
    __aeabi_llsr                             0x000009f1   Thumb Code    32  llushr.o(.text)
    _ll_ushift_r                             0x000009f1   Thumb Code     0  llushr.o(.text)
    _float_round                             0x00000a11   Thumb Code    18  fepilogue.o(.text)
    _float_epilogue                          0x00000a23   Thumb Code    92  fepilogue.o(.text)
    _double_round                            0x00000a7f   Thumb Code    30  depilogue.o(.text)
    _double_epilogue                         0x00000a9d   Thumb Code   156  depilogue.o(.text)
    __scatterload                            0x00000b39   Thumb Code    28  init.o(.text)
    __scatterload_rt2                        0x00000b39   Thumb Code     0  init.o(.text)
    ADC1B_IrqHandler                         0x00000b5d   Thumb Code    24  adc.o(i.ADC1B_IrqHandler)
    ADC_AddAdcChannel                        0x00000b79   Thumb Code   184  hc32f46x_adc.o(i.ADC_AddAdcChannel)
    ADC_ClrEocFlag                           0x00000c59   Thumb Code    52  hc32f46x_adc.o(i.ADC_ClrEocFlag)
    ADC_ConfigTriggerSrc                     0x00000cb5   Thumb Code  2138  hc32f46x_adc.o(i.ADC_ConfigTriggerSrc)
    ADC_GetEocFlag                           0x00001519   Thumb Code    54  hc32f46x_adc.o(i.ADC_GetEocFlag)
    ADC_Init                                 0x00001579   Thumb Code   258  hc32f46x_adc.o(i.ADC_Init)
    ADC_TriggerSrcCmd                        0x000016a5   Thumb Code    98  hc32f46x_adc.o(i.ADC_TriggerSrcCmd)
    AdcChannelConfig                         0x00001731   Thumb Code    54  adc.o(i.AdcChannelConfig)
    AdcClockConfig                           0x00001771   Thumb Code    98  adc.o(i.AdcClockConfig)
    AdcConfig                                0x000017d3   Thumb Code    24  adc.o(i.AdcConfig)
    AdcInitConfig                            0x000017ed   Thumb Code    56  adc.o(i.AdcInitConfig)
    AdcSetChannelPinMode                     0x00001829   Thumb Code    66  adc.o(i.AdcSetChannelPinMode)
    AdcSetPinMode                            0x00001871   Thumb Code   182  adc.o(i.AdcSetPinMode)
    AdcTriggerConfig                         0x00001929   Thumb Code    58  adc.o(i.AdcTriggerConfig)
    BusFault_Handler                         0x00001969   Thumb Code     8  hc32f46x_interrupts.o(i.BusFault_Handler)
    CLK_GetFlagStatus                        0x00001971   Thumb Code   152  hc32f46x_clk.o(i.CLK_GetFlagStatus)
    CLK_MpllCmd                              0x00001a2d   Thumb Code   156  hc32f46x_clk.o(i.CLK_MpllCmd)
    CLK_MpllConfig                           0x00001af1   Thumb Code   372  hc32f46x_clk.o(i.CLK_MpllConfig)
    CLK_SetPeriClkSource                     0x00001ca5   Thumb Code    78  hc32f46x_clk.o(i.CLK_SetPeriClkSource)
    CLK_SetPllSource                         0x00001d1d   Thumb Code    80  hc32f46x_clk.o(i.CLK_SetPllSource)
    CLK_SetSysClkSource                      0x00001d95   Thumb Code   234  hc32f46x_clk.o(i.CLK_SetSysClkSource)
    CLK_SysClkConfig                         0x00001eb5   Thumb Code   360  hc32f46x_clk.o(i.CLK_SysClkConfig)
    CLK_UpllCmd                              0x00002051   Thumb Code   134  hc32f46x_clk.o(i.CLK_UpllCmd)
    CLK_UpllConfig                           0x00002101   Thumb Code   380  hc32f46x_clk.o(i.CLK_UpllConfig)
    CLK_XtalCmd                              0x000022bd   Thumb Code   224  hc32f46x_clk.o(i.CLK_XtalCmd)
    CLK_XtalConfig                           0x000023c9   Thumb Code    92  hc32f46x_clk.o(i.CLK_XtalConfig)
    DMA_ChannelCfg                           0x0000242d   Thumb Code   684  hc32f46x_dmac.o(i.DMA_ChannelCfg)
    DMA_ChannelCmd                           0x00002701   Thumb Code   486  hc32f46x_dmac.o(i.DMA_ChannelCmd)
    DMA_ClearIrqFlag                         0x00002915   Thumb Code   202  hc32f46x_dmac.o(i.DMA_ClearIrqFlag)
    DMA_Cmd                                  0x00002a09   Thumb Code    66  hc32f46x_dmac.o(i.DMA_Cmd)
    DMA_DisableIrq                           0x00002a75   Thumb Code   202  hc32f46x_dmac.o(i.DMA_DisableIrq)
    DMA_InitChannel                          0x00002b69   Thumb Code   494  hc32f46x_dmac.o(i.DMA_InitChannel)
    DMA_SetTriggerSrc                        0x00002d85   Thumb Code    72  hc32f46x_dmac.o(i.DMA_SetTriggerSrc)
    Ddl_AssertHandler                        0x00002df9   Thumb Code    20  hc32f46x_utility.o(i.Ddl_AssertHandler)
    DebugMon_Handler                         0x00002e3d   Thumb Code     8  hc32f46x_interrupts.o(i.DebugMon_Handler)
    DebugOutput                              0x00002e45   Thumb Code    20  hc32f46x_utility.o(i.DebugOutput)
    Dma1Btc0_IrqHandler                      0x00002e5d   Thumb Code    20  adc.o(i.Dma1Btc0_IrqHandler)
    Dma1Btc1_IrqHandler                      0x00002e79   Thumb Code    14  adc.o(i.Dma1Btc1_IrqHandler)
    DmaConfig                                0x00002e8d   Thumb Code    12  adc.o(i.DmaConfig)
    DmaInitConfig                            0x00002e99   Thumb Code   448  adc.o(i.DmaInitConfig)
    DmaIrqConfig                             0x00003069   Thumb Code    28  adc.o(i.DmaIrqConfig)
    DmaIrqRegister                           0x00003089   Thumb Code   158  adc.o(i.DmaIrqRegister)
    HardFault_Handler                        0x00003135   Thumb Code     8  hc32f46x_interrupts.o(i.HardFault_Handler)
    IRQ000_Handler                           0x0000313d   Thumb Code    16  hc32f46x_interrupts.o(i.IRQ000_Handler)
    IRQ001_Handler                           0x00003151   Thumb Code    16  hc32f46x_interrupts.o(i.IRQ001_Handler)
    IRQ002_Handler                           0x00003165   Thumb Code    16  hc32f46x_interrupts.o(i.IRQ002_Handler)
    IRQ003_Handler                           0x00003179   Thumb Code    16  hc32f46x_interrupts.o(i.IRQ003_Handler)
    IRQ004_Handler                           0x0000318d   Thumb Code    16  hc32f46x_interrupts.o(i.IRQ004_Handler)
    IRQ005_Handler                           0x000031a1   Thumb Code    16  hc32f46x_interrupts.o(i.IRQ005_Handler)
    IRQ006_Handler                           0x000031b5   Thumb Code    16  hc32f46x_interrupts.o(i.IRQ006_Handler)
    IRQ007_Handler                           0x000031c9   Thumb Code    16  hc32f46x_interrupts.o(i.IRQ007_Handler)
    IRQ008_Handler                           0x000031dd   Thumb Code    16  hc32f46x_interrupts.o(i.IRQ008_Handler)
    IRQ009_Handler                           0x000031f1   Thumb Code    16  hc32f46x_interrupts.o(i.IRQ009_Handler)
    IRQ010_Handler                           0x00003205   Thumb Code    16  hc32f46x_interrupts.o(i.IRQ010_Handler)
    IRQ011_Handler                           0x00003219   Thumb Code    16  hc32f46x_interrupts.o(i.IRQ011_Handler)
    IRQ012_Handler                           0x0000322d   Thumb Code    16  hc32f46x_interrupts.o(i.IRQ012_Handler)
    IRQ013_Handler                           0x00003241   Thumb Code    16  hc32f46x_interrupts.o(i.IRQ013_Handler)
    IRQ014_Handler                           0x00003255   Thumb Code    16  hc32f46x_interrupts.o(i.IRQ014_Handler)
    IRQ015_Handler                           0x00003269   Thumb Code    16  hc32f46x_interrupts.o(i.IRQ015_Handler)
    IRQ016_Handler                           0x0000327d   Thumb Code    16  hc32f46x_interrupts.o(i.IRQ016_Handler)
    IRQ017_Handler                           0x00003291   Thumb Code    16  hc32f46x_interrupts.o(i.IRQ017_Handler)
    IRQ018_Handler                           0x000032a5   Thumb Code    16  hc32f46x_interrupts.o(i.IRQ018_Handler)
    IRQ019_Handler                           0x000032b9   Thumb Code    16  hc32f46x_interrupts.o(i.IRQ019_Handler)
    IRQ020_Handler                           0x000032cd   Thumb Code    16  hc32f46x_interrupts.o(i.IRQ020_Handler)
    IRQ021_Handler                           0x000032e1   Thumb Code    16  hc32f46x_interrupts.o(i.IRQ021_Handler)
    IRQ022_Handler                           0x000032f5   Thumb Code    16  hc32f46x_interrupts.o(i.IRQ022_Handler)
    IRQ023_Handler                           0x00003309   Thumb Code    16  hc32f46x_interrupts.o(i.IRQ023_Handler)
    IRQ024_Handler                           0x0000331d   Thumb Code    16  hc32f46x_interrupts.o(i.IRQ024_Handler)
    IRQ025_Handler                           0x00003331   Thumb Code    16  hc32f46x_interrupts.o(i.IRQ025_Handler)
    IRQ026_Handler                           0x00003345   Thumb Code    16  hc32f46x_interrupts.o(i.IRQ026_Handler)
    IRQ027_Handler                           0x00003359   Thumb Code    16  hc32f46x_interrupts.o(i.IRQ027_Handler)
    IRQ028_Handler                           0x0000336d   Thumb Code    16  hc32f46x_interrupts.o(i.IRQ028_Handler)
    IRQ029_Handler                           0x00003381   Thumb Code    16  hc32f46x_interrupts.o(i.IRQ029_Handler)
    IRQ030_Handler                           0x00003395   Thumb Code    16  hc32f46x_interrupts.o(i.IRQ030_Handler)
    IRQ031_Handler                           0x000033a9   Thumb Code    16  hc32f46x_interrupts.o(i.IRQ031_Handler)
    IRQ032_Handler                           0x000033bd   Thumb Code    20  hc32f46x_interrupts.o(i.IRQ032_Handler)
    IRQ033_Handler                           0x000033d5   Thumb Code    20  hc32f46x_interrupts.o(i.IRQ033_Handler)
    IRQ034_Handler                           0x000033ed   Thumb Code    20  hc32f46x_interrupts.o(i.IRQ034_Handler)
    IRQ035_Handler                           0x00003405   Thumb Code    20  hc32f46x_interrupts.o(i.IRQ035_Handler)
    IRQ036_Handler                           0x0000341d   Thumb Code    20  hc32f46x_interrupts.o(i.IRQ036_Handler)
    IRQ037_Handler                           0x00003435   Thumb Code    20  hc32f46x_interrupts.o(i.IRQ037_Handler)
    IRQ038_Handler                           0x0000344d   Thumb Code    20  hc32f46x_interrupts.o(i.IRQ038_Handler)
    IRQ039_Handler                           0x00003465   Thumb Code    20  hc32f46x_interrupts.o(i.IRQ039_Handler)
    IRQ040_Handler                           0x0000347d   Thumb Code    20  hc32f46x_interrupts.o(i.IRQ040_Handler)
    IRQ041_Handler                           0x00003495   Thumb Code    20  hc32f46x_interrupts.o(i.IRQ041_Handler)
    IRQ042_Handler                           0x000034ad   Thumb Code    20  hc32f46x_interrupts.o(i.IRQ042_Handler)
    IRQ043_Handler                           0x000034c5   Thumb Code    20  hc32f46x_interrupts.o(i.IRQ043_Handler)
    IRQ044_Handler                           0x000034dd   Thumb Code    20  hc32f46x_interrupts.o(i.IRQ044_Handler)
    IRQ045_Handler                           0x000034f5   Thumb Code    20  hc32f46x_interrupts.o(i.IRQ045_Handler)
    IRQ046_Handler                           0x0000350d   Thumb Code    20  hc32f46x_interrupts.o(i.IRQ046_Handler)
    IRQ047_Handler                           0x00003525   Thumb Code    20  hc32f46x_interrupts.o(i.IRQ047_Handler)
    IRQ048_Handler                           0x0000353d   Thumb Code    20  hc32f46x_interrupts.o(i.IRQ048_Handler)
    IRQ049_Handler                           0x00003555   Thumb Code    20  hc32f46x_interrupts.o(i.IRQ049_Handler)
    IRQ050_Handler                           0x0000356d   Thumb Code    20  hc32f46x_interrupts.o(i.IRQ050_Handler)
    IRQ051_Handler                           0x00003585   Thumb Code    20  hc32f46x_interrupts.o(i.IRQ051_Handler)
    IRQ052_Handler                           0x0000359d   Thumb Code    20  hc32f46x_interrupts.o(i.IRQ052_Handler)
    IRQ053_Handler                           0x000035b5   Thumb Code    20  hc32f46x_interrupts.o(i.IRQ053_Handler)
    IRQ054_Handler                           0x000035cd   Thumb Code    20  hc32f46x_interrupts.o(i.IRQ054_Handler)
    IRQ055_Handler                           0x000035e5   Thumb Code    20  hc32f46x_interrupts.o(i.IRQ055_Handler)
    IRQ056_Handler                           0x000035fd   Thumb Code    20  hc32f46x_interrupts.o(i.IRQ056_Handler)
    IRQ057_Handler                           0x00003615   Thumb Code    20  hc32f46x_interrupts.o(i.IRQ057_Handler)
    IRQ058_Handler                           0x0000362d   Thumb Code    20  hc32f46x_interrupts.o(i.IRQ058_Handler)
    IRQ059_Handler                           0x00003645   Thumb Code    20  hc32f46x_interrupts.o(i.IRQ059_Handler)
    IRQ060_Handler                           0x0000365d   Thumb Code    20  hc32f46x_interrupts.o(i.IRQ060_Handler)
    IRQ061_Handler                           0x00003675   Thumb Code    20  hc32f46x_interrupts.o(i.IRQ061_Handler)
    IRQ062_Handler                           0x0000368d   Thumb Code    20  hc32f46x_interrupts.o(i.IRQ062_Handler)
    IRQ063_Handler                           0x000036a5   Thumb Code    20  hc32f46x_interrupts.o(i.IRQ063_Handler)
    IRQ064_Handler                           0x000036bd   Thumb Code    20  hc32f46x_interrupts.o(i.IRQ064_Handler)
    IRQ065_Handler                           0x000036d5   Thumb Code    20  hc32f46x_interrupts.o(i.IRQ065_Handler)
    IRQ066_Handler                           0x000036ed   Thumb Code    20  hc32f46x_interrupts.o(i.IRQ066_Handler)
    IRQ067_Handler                           0x00003705   Thumb Code    20  hc32f46x_interrupts.o(i.IRQ067_Handler)
    IRQ068_Handler                           0x0000371d   Thumb Code    20  hc32f46x_interrupts.o(i.IRQ068_Handler)
    IRQ069_Handler                           0x00003735   Thumb Code    20  hc32f46x_interrupts.o(i.IRQ069_Handler)
    IRQ070_Handler                           0x0000374d   Thumb Code    20  hc32f46x_interrupts.o(i.IRQ070_Handler)
    IRQ071_Handler                           0x00003765   Thumb Code    20  hc32f46x_interrupts.o(i.IRQ071_Handler)
    IRQ072_Handler                           0x0000377d   Thumb Code    20  hc32f46x_interrupts.o(i.IRQ072_Handler)
    IRQ073_Handler                           0x00003795   Thumb Code    20  hc32f46x_interrupts.o(i.IRQ073_Handler)
    IRQ074_Handler                           0x000037ad   Thumb Code    20  hc32f46x_interrupts.o(i.IRQ074_Handler)
    IRQ075_Handler                           0x000037c5   Thumb Code    20  hc32f46x_interrupts.o(i.IRQ075_Handler)
    IRQ076_Handler                           0x000037dd   Thumb Code    20  hc32f46x_interrupts.o(i.IRQ076_Handler)
    IRQ077_Handler                           0x000037f5   Thumb Code    20  hc32f46x_interrupts.o(i.IRQ077_Handler)
    IRQ078_Handler                           0x0000380d   Thumb Code    20  hc32f46x_interrupts.o(i.IRQ078_Handler)
    IRQ079_Handler                           0x00003825   Thumb Code    20  hc32f46x_interrupts.o(i.IRQ079_Handler)
    IRQ080_Handler                           0x0000383d   Thumb Code    20  hc32f46x_interrupts.o(i.IRQ080_Handler)
    IRQ081_Handler                           0x00003855   Thumb Code    20  hc32f46x_interrupts.o(i.IRQ081_Handler)
    IRQ082_Handler                           0x0000386d   Thumb Code    20  hc32f46x_interrupts.o(i.IRQ082_Handler)
    IRQ083_Handler                           0x00003885   Thumb Code    20  hc32f46x_interrupts.o(i.IRQ083_Handler)
    IRQ084_Handler                           0x0000389d   Thumb Code    20  hc32f46x_interrupts.o(i.IRQ084_Handler)
    IRQ085_Handler                           0x000038b5   Thumb Code    20  hc32f46x_interrupts.o(i.IRQ085_Handler)
    IRQ086_Handler                           0x000038cd   Thumb Code    20  hc32f46x_interrupts.o(i.IRQ086_Handler)
    IRQ087_Handler                           0x000038e5   Thumb Code    20  hc32f46x_interrupts.o(i.IRQ087_Handler)
    IRQ088_Handler                           0x000038fd   Thumb Code    20  hc32f46x_interrupts.o(i.IRQ088_Handler)
    IRQ089_Handler                           0x00003915   Thumb Code    20  hc32f46x_interrupts.o(i.IRQ089_Handler)
    IRQ090_Handler                           0x0000392d   Thumb Code    20  hc32f46x_interrupts.o(i.IRQ090_Handler)
    IRQ091_Handler                           0x00003945   Thumb Code    20  hc32f46x_interrupts.o(i.IRQ091_Handler)
    IRQ092_Handler                           0x0000395d   Thumb Code    20  hc32f46x_interrupts.o(i.IRQ092_Handler)
    IRQ093_Handler                           0x00003975   Thumb Code    20  hc32f46x_interrupts.o(i.IRQ093_Handler)
    IRQ094_Handler                           0x0000398d   Thumb Code    20  hc32f46x_interrupts.o(i.IRQ094_Handler)
    IRQ095_Handler                           0x000039a5   Thumb Code    20  hc32f46x_interrupts.o(i.IRQ095_Handler)
    IRQ096_Handler                           0x000039bd   Thumb Code    20  hc32f46x_interrupts.o(i.IRQ096_Handler)
    IRQ097_Handler                           0x000039d5   Thumb Code    20  hc32f46x_interrupts.o(i.IRQ097_Handler)
    IRQ098_Handler                           0x000039ed   Thumb Code    20  hc32f46x_interrupts.o(i.IRQ098_Handler)
    IRQ099_Handler                           0x00003a05   Thumb Code    20  hc32f46x_interrupts.o(i.IRQ099_Handler)
    IRQ100_Handler                           0x00003a1d   Thumb Code    20  hc32f46x_interrupts.o(i.IRQ100_Handler)
    IRQ101_Handler                           0x00003a35   Thumb Code    20  hc32f46x_interrupts.o(i.IRQ101_Handler)
    IRQ102_Handler                           0x00003a4d   Thumb Code    20  hc32f46x_interrupts.o(i.IRQ102_Handler)
    IRQ103_Handler                           0x00003a65   Thumb Code    20  hc32f46x_interrupts.o(i.IRQ103_Handler)
    IRQ104_Handler                           0x00003a7d   Thumb Code    20  hc32f46x_interrupts.o(i.IRQ104_Handler)
    IRQ105_Handler                           0x00003a95   Thumb Code    20  hc32f46x_interrupts.o(i.IRQ105_Handler)
    IRQ106_Handler                           0x00003aad   Thumb Code    20  hc32f46x_interrupts.o(i.IRQ106_Handler)
    IRQ107_Handler                           0x00003ac5   Thumb Code    20  hc32f46x_interrupts.o(i.IRQ107_Handler)
    IRQ108_Handler                           0x00003add   Thumb Code    20  hc32f46x_interrupts.o(i.IRQ108_Handler)
    IRQ109_Handler                           0x00003af5   Thumb Code    20  hc32f46x_interrupts.o(i.IRQ109_Handler)
    IRQ110_Handler                           0x00003b0d   Thumb Code    20  hc32f46x_interrupts.o(i.IRQ110_Handler)
    IRQ111_Handler                           0x00003b25   Thumb Code    20  hc32f46x_interrupts.o(i.IRQ111_Handler)
    IRQ112_Handler                           0x00003b3d   Thumb Code    20  hc32f46x_interrupts.o(i.IRQ112_Handler)
    IRQ113_Handler                           0x00003b55   Thumb Code    20  hc32f46x_interrupts.o(i.IRQ113_Handler)
    IRQ114_Handler                           0x00003b6d   Thumb Code    20  hc32f46x_interrupts.o(i.IRQ114_Handler)
    IRQ115_Handler                           0x00003b85   Thumb Code    20  hc32f46x_interrupts.o(i.IRQ115_Handler)
    IRQ116_Handler                           0x00003b9d   Thumb Code    20  hc32f46x_interrupts.o(i.IRQ116_Handler)
    IRQ117_Handler                           0x00003bb5   Thumb Code    20  hc32f46x_interrupts.o(i.IRQ117_Handler)
    IRQ118_Handler                           0x00003bcd   Thumb Code    20  hc32f46x_interrupts.o(i.IRQ118_Handler)
    IRQ119_Handler                           0x00003be5   Thumb Code    20  hc32f46x_interrupts.o(i.IRQ119_Handler)
    IRQ120_Handler                           0x00003bfd   Thumb Code    20  hc32f46x_interrupts.o(i.IRQ120_Handler)
    IRQ121_Handler                           0x00003c15   Thumb Code    20  hc32f46x_interrupts.o(i.IRQ121_Handler)
    IRQ122_Handler                           0x00003c2d   Thumb Code    20  hc32f46x_interrupts.o(i.IRQ122_Handler)
    IRQ123_Handler                           0x00003c45   Thumb Code    20  hc32f46x_interrupts.o(i.IRQ123_Handler)
    IRQ124_Handler                           0x00003c5d   Thumb Code    20  hc32f46x_interrupts.o(i.IRQ124_Handler)
    IRQ125_Handler                           0x00003c75   Thumb Code    20  hc32f46x_interrupts.o(i.IRQ125_Handler)
    IRQ126_Handler                           0x00003c8d   Thumb Code    20  hc32f46x_interrupts.o(i.IRQ126_Handler)
    IRQ127_Handler                           0x00003ca5   Thumb Code    20  hc32f46x_interrupts.o(i.IRQ127_Handler)
    IRQ128_Handler                           0x00003cbd   Thumb Code   326  hc32f46x_interrupts.o(i.IRQ128_Handler)
    IRQ129_Handler                           0x00003e0d   Thumb Code  1126  hc32f46x_interrupts.o(i.IRQ129_Handler)
    IRQ130_Handler                           0x00004275   Thumb Code   190  hc32f46x_interrupts.o(i.IRQ130_Handler)
    IRQ131_Handler                           0x00004351   Thumb Code   684  hc32f46x_interrupts.o(i.IRQ131_Handler)
    IRQ132_Handler                           0x00004619   Thumb Code   350  hc32f46x_interrupts.o(i.IRQ132_Handler)
    IRQ136_Handler                           0x00004789   Thumb Code   750  hc32f46x_interrupts.o(i.IRQ136_Handler)
    IRQ137_Handler                           0x00004aa9   Thumb Code   620  hc32f46x_interrupts.o(i.IRQ137_Handler)
    IRQ138_Handler                           0x00004d31   Thumb Code   558  hc32f46x_interrupts.o(i.IRQ138_Handler)
    IRQ139_Handler                           0x00004f6d   Thumb Code   286  hc32f46x_interrupts.o(i.IRQ139_Handler)
    IRQ140_Handler                           0x00005095   Thumb Code   490  hc32f46x_interrupts.o(i.IRQ140_Handler)
    IRQ141_Handler                           0x000052a9   Thumb Code   542  hc32f46x_interrupts.o(i.IRQ141_Handler)
    IRQ142_Handler                           0x00005505   Thumb Code   242  hc32f46x_interrupts.o(i.IRQ142_Handler)
    IRQ143_Handler                           0x00005619   Thumb Code   256  hc32f46x_interrupts.o(i.IRQ143_Handler)
    MemManage_Handler                        0x00005729   Thumb Code     8  hc32f46x_interrupts.o(i.MemManage_Handler)
    NMI_Handler                              0x00005731   Thumb Code     8  hc32f46x_interrupts.o(i.NMI_Handler)
    NMI_IrqHandler                           0x00005739   Thumb Code    32  hc32f46x_exint_nmi_swi.o(i.NMI_IrqHandler)
    PORT_Init                                0x00005785   Thumb Code   474  hc32f46x_gpio.o(i.PORT_Init)
    PORT_Lock                                0x00005985   Thumb Code    10  hc32f46x_gpio.o(i.PORT_Lock)
    PORT_ResetBits                           0x00005995   Thumb Code    62  hc32f46x_gpio.o(i.PORT_ResetBits)
    PORT_SetBits                             0x000059f9   Thumb Code    62  hc32f46x_gpio.o(i.PORT_SetBits)
    PORT_SetFunc                             0x00005a5d   Thumb Code   414  hc32f46x_gpio.o(i.PORT_SetFunc)
    PORT_Unlock                              0x00005c21   Thumb Code    10  hc32f46x_gpio.o(i.PORT_Unlock)
    PWC_Fcg0PeriphClockCmd                   0x00005c31   Thumb Code    92  hc32f46x_pwc.o(i.PWC_Fcg0PeriphClockCmd)
    PWC_Fcg1PeriphClockCmd                   0x00005cb9   Thumb Code    80  hc32f46x_pwc.o(i.PWC_Fcg1PeriphClockCmd)
    PWC_Fcg2PeriphClockCmd                   0x00005d31   Thumb Code    80  hc32f46x_pwc.o(i.PWC_Fcg2PeriphClockCmd)
    PWC_Fcg3PeriphClockCmd                   0x00005da9   Thumb Code    84  hc32f46x_pwc.o(i.PWC_Fcg3PeriphClockCmd)
    PendSV_Handler                           0x00005e21   Thumb Code     8  hc32f46x_interrupts.o(i.PendSV_Handler)
    Queue_Read_Byte                          0x00005e29   Thumb Code    46  system.o(i.Queue_Read_Byte)
    SEGGER_RTT_ConfigUpBuffer                0x00005e65   Thumb Code   112  segger_rtt.o(i.SEGGER_RTT_ConfigUpBuffer)
    SEGGER_RTT_Init                          0x00005ed9   Thumb Code     8  segger_rtt.o(i.SEGGER_RTT_Init)
    SEGGER_RTT_Write                         0x00005ee1   Thumb Code    68  segger_rtt.o(i.SEGGER_RTT_Write)
    SEGGER_RTT_WriteNoLock                   0x00005f29   Thumb Code   126  segger_rtt.o(i.SEGGER_RTT_WriteNoLock)
    SEGGER_RTT_printf                        0x00005fad   Thumb Code    34  segger_rtt_printf.o(i.SEGGER_RTT_printf)
    SEGGER_RTT_vprintf                       0x00005fcf   Thumb Code   522  segger_rtt_printf.o(i.SEGGER_RTT_vprintf)
    SVC_Handler                              0x000061d9   Thumb Code     8  hc32f46x_interrupts.o(i.SVC_Handler)
    SysClkInit                               0x000065dd   Thumb Code   190  sysclk.o(i.SysClkInit)
    SysTick_GetTick                          0x0000669d   Thumb Code     6  hc32f46x_utility.o(i.SysTick_GetTick)
    SysTick_Handler                          0x000066a9   Thumb Code     8  hc32f46x_interrupts.o(i.SysTick_Handler)
    SysTick_IncTick                          0x000066b1   Thumb Code    16  hc32f46x_utility.o(i.SysTick_IncTick)
    SysTick_Init                             0x000066c9   Thumb Code   104  hc32f46x_utility.o(i.SysTick_Init)
    SysTick_IrqHandler                       0x00006741   Thumb Code     8  app.o(i.SysTick_IrqHandler)
    SystemCoreClockUpdate                    0x00006749   Thumb Code   206  system_hc32f46x.o(i.SystemCoreClockUpdate)
    SystemInit                               0x00006835   Thumb Code     8  system_hc32f46x.o(i.SystemInit)
    TIMERA_BaseInit                          0x0000683d   Thumb Code   280  hc32f46x_timera.o(i.TIMERA_BaseInit)
    TIMERA_Cmd                               0x0000698d   Thumb Code    84  hc32f46x_timera.o(i.TIMERA_Cmd)
    TIMERA_CompareCmd                        0x00006a19   Thumb Code   144  hc32f46x_timera.o(i.TIMERA_CompareCmd)
    TIMERA_CompareInit                       0x00006ae1   Thumb Code   550  hc32f46x_timera.o(i.TIMERA_CompareInit)
    Timera1_en                               0x00006d41   Thumb Code    26  timera_pwm.o(i.Timera1_en)
    Timera1_init                             0x00006d61   Thumb Code   172  timera_pwm.o(i.Timera1_init)
    Timera_Config                            0x00006e11   Thumb Code   184  timera_pwm.o(i.Timera_Config)
    USART_FuncCmd                            0x00006ecd   Thumb Code   562  hc32f46x_usart.o(i.USART_FuncCmd)
    USART_RecData                            0x00007111   Thumb Code    52  hc32f46x_usart.o(i.USART_RecData)
    USART_SetBaudrate                        0x00007175   Thumb Code    86  hc32f46x_usart.o(i.USART_SetBaudrate)
    USART_UART_Init                          0x000071dd   Thumb Code   914  hc32f46x_usart.o(i.USART_UART_Init)
    UsageFault_Handler                       0x000075a1   Thumb Code     8  hc32f46x_interrupts.o(i.UsageFault_Handler)
    __0printf$3                              0x000079cd   Thumb Code    22  printf3.o(i.__0printf$3)
    __1printf$3                              0x000079cd   Thumb Code     0  printf3.o(i.__0printf$3)
    __2printf                                0x000079cd   Thumb Code     0  printf3.o(i.__0printf$3)
    __scatterload_copy                       0x000079ed   Thumb Code    14  handlers.o(i.__scatterload_copy)
    __scatterload_zeroinit                   0x000079fb   Thumb Code    14  handlers.o(i.__scatterload_zeroinit)
    accumulate_data                          0x00007bc1   Thumb Code    28  distance_measure.o(i.accumulate_data)
    alloc_mem                                0x00007bdd   Thumb Code   156  memalloc.o(i.alloc_mem)
    alpha_filter                             0x00007c9d   Thumb Code   170  alpha_filter.o(i.alpha_filter)
    apfft                                    0x00007d51   Thumb Code   252  apfft.o(i.apfft)
    app                                      0x00007e51   Thumb Code    54  app.o(i.app)
    arctan                                   0x00007e8d   Thumb Code    56  math_fp.o(i.arctan)
    arctan2                                  0x00007ec5   Thumb Code   194  math_fp.o(i.arctan2)
    arm_absmax_q31                           0x00007f91   Thumb Code   152  statisticsfunctions.o(i.arm_absmax_q31)
    arm_bitreversal_32                       0x00008029   Thumb Code    60  transformfunctions.o(i.arm_bitreversal_32)
    arm_cfft_q31                             0x00008065   Thumb Code   172  transformfunctions.o(i.arm_cfft_q31)
    arm_cfft_radix4by2_inverse_q31           0x00008111   Thumb Code   192  transformfunctions.o(i.arm_cfft_radix4by2_inverse_q31)
    arm_cfft_radix4by2_q31                   0x000081d1   Thumb Code   192  transformfunctions.o(i.arm_cfft_radix4by2_q31)
    arm_cmplx_mag_q31                        0x00008291   Thumb Code    44  complexmathfunctions.o(i.arm_cmplx_mag_q31)
    arm_max_q31                              0x000082bd   Thumb Code    32  statisticsfunctions.o(i.arm_max_q31)
    arm_mean_q15                             0x000082dd   Thumb Code    28  statisticsfunctions.o(i.arm_mean_q15)
    arm_mean_q31                             0x000082f9   Thumb Code    48  statisticsfunctions.o(i.arm_mean_q31)
    arm_offset_q15                           0x00008329   Thumb Code    24  basicmathfunctions.o(i.arm_offset_q15)
    arm_radix4_butterfly_inverse_q31         0x00008341   Thumb Code   980  transformfunctions.o(i.arm_radix4_butterfly_inverse_q31)
    arm_radix4_butterfly_q31                 0x00008715   Thumb Code   976  transformfunctions.o(i.arm_radix4_butterfly_q31)
    arm_rfft_init_q31                        0x00008ae5   Thumb Code   154  transformfunctions.o(i.arm_rfft_init_q31)
    arm_rfft_q31                             0x00008bad   Thumb Code   100  transformfunctions.o(i.arm_rfft_q31)
    arm_shift_q31                            0x00008c11   Thumb Code    74  basicmathfunctions.o(i.arm_shift_q31)
    arm_split_rfft_q31                       0x00008c5b   Thumb Code   214  transformfunctions.o(i.arm_split_rfft_q31)
    arm_split_rifft_q31                      0x00008d31   Thumb Code   100  transformfunctions.o(i.arm_split_rifft_q31)
    arm_sqrt_q31                             0x00008d95   Thumb Code   218  fastmathfunctions.o(i.arm_sqrt_q31)
    bt_protocol_init                         0x00008e75   Thumb Code    18  mcu_api.o(i.bt_protocol_init)
    bt_uart_service                          0x00008e99   Thumb Code    98  mcu_api.o(i.bt_uart_service)
    cfar_ca                                  0x00008f25   Thumb Code    72  micromotion_detection.o(i.cfar_ca)
    close_process                            0x00008f75   Thumb Code    56  app.o(i.close_process)
    data_handle                              0x00008fb9   Thumb Code   236  system.o(i.data_handle)
    enIrqRegistration                        0x000090c9   Thumb Code   146  hc32f46x_interrupts.o(i.enIrqRegistration)
    enShareIrqEnable                         0x00009189   Thumb Code    32  hc32f46x_interrupts.o(i.enShareIrqEnable)
    find_max_peak                            0x000091ad   Thumb Code    56  pd_calculation.o(i.find_max_peak)
    fputc                                    0x000091e5   Thumb Code    16  hc32f46x_utility.o(i.fputc)
    free_mem                                 0x000091f5   Thumb Code    58  memalloc.o(i.free_mem)
    get_queue_total_data                     0x00009239   Thumb Code    20  system.o(i.get_queue_total_data)
    get_sample_data                          0x00009255   Thumb Code    18  adc.o(i.get_sample_data)
    gpio_init                                0x0000926d   Thumb Code    44  gpio.o(i.gpio_init)
    idle_process                             0x00009299   Thumb Code   208  app.o(i.idle_process)
    init_mem                                 0x00009391   Thumb Code    34  memalloc.o(i.init_mem)
    leave_s0                                 0x000093bd   Thumb Code    28  app.o(i.leave_s0)
    leave_s1                                 0x000093e9   Thumb Code    32  app.o(i.leave_s1)
    led_init                                 0x0000940d   Thumb Code   104  led.o(i.led_init)
    main                                     0x00009475   Thumb Code   200  main.o(i.main)
    measure_distance                         0x00009679   Thumb Code   208  distance_measure.o(i.measure_distance)
    micromotion_detection                    0x00009769   Thumb Code   316  micromotion_detection.o(i.micromotion_detection)
    my_memcpy                                0x000098a9   Thumb Code    68  mcu_api.o(i.my_memcpy)
    my_memset                                0x000098ed   Thumb Code    34  mcu_api.o(i.my_memset)
    pd_calculation                           0x00009911   Thumb Code   720  pd_calculation.o(i.pd_calculation)
    ring_buffer_get                          0x00009bfd   Thumb Code   118  ringbuffer.o(i.ring_buffer_get)
    ring_buffer_put                          0x00009c91   Thumb Code    98  ringbuffer.o(i.ring_buffer_put)
    rtt_init                                 0x00009d21   Thumb Code    70  main.o(i.rtt_init)
    send_d1_response                         0x00009e11   Thumb Code    90  system.o(i.send_d1_response)
    send_d2_response                         0x00009e85   Thumb Code    90  system.o(i.send_d2_response)
    send_d3_response                         0x00009ef9   Thumb Code   198  system.o(i.send_d3_response)
    send_d4_response                         0x00009ff9   Thumb Code   102  system.o(i.send_d4_response)
    tick_init                                0x0000a079   Thumb Code    48  app.o(i.tick_init)
    uart_receive_input                       0x0000a0b1   Thumb Code    84  mcu_api.o(i.uart_receive_input)
    uart_transmit_output                     0x0000a111   Thumb Code    20  protocol.o(i.uart_transmit_output)
    usart_init                               0x0000a129   Thumb Code   244  usart.o(i.usart_init)
    cfar_param                               0x0000a250   Data           8  micromotion_detection.o(.constdata)
    hamming_TAB512                           0x0000a258   Data        2048  hamming.o(.constdata)
    hanning_conv_TAB511                      0x0000aa58   Data        2044  hanning_conv.o(.constdata)
    freq_linspace_f                          0x0000b254   Data        2048  freq_linspace.o(.constdata)
    twiddleCoef_16_q31                       0x0000ba64   Data          96  commontables.o(.constdata)
    twiddleCoef_32_q31                       0x0000bac4   Data         192  commontables.o(.constdata)
    twiddleCoef_64_q31                       0x0000bb84   Data         384  commontables.o(.constdata)
    twiddleCoef_128_q31                      0x0000bd04   Data         768  commontables.o(.constdata)
    twiddleCoef_256_q31                      0x0000c004   Data        1536  commontables.o(.constdata)
    twiddleCoef_512_q31                      0x0000c604   Data        3072  commontables.o(.constdata)
    twiddleCoef_1024_q31                     0x0000d204   Data        6144  commontables.o(.constdata)
    twiddleCoef_2048_q31                     0x0000ea04   Data       12288  commontables.o(.constdata)
    twiddleCoef_4096_q31                     0x00011a04   Data       24576  commontables.o(.constdata)
    armBitRevIndexTable_fixed_16             0x00017a04   Data          24  commontables.o(.constdata)
    armBitRevIndexTable_fixed_32             0x00017a1c   Data          48  commontables.o(.constdata)
    armBitRevIndexTable_fixed_64             0x00017a4c   Data         112  commontables.o(.constdata)
    armBitRevIndexTable_fixed_128            0x00017abc   Data         224  commontables.o(.constdata)
    armBitRevIndexTable_fixed_256            0x00017b9c   Data         480  commontables.o(.constdata)
    armBitRevIndexTable_fixed_512            0x00017d7c   Data         960  commontables.o(.constdata)
    armBitRevIndexTable_fixed_1024           0x0001813c   Data        1984  commontables.o(.constdata)
    armBitRevIndexTable_fixed_2048           0x000188fc   Data        3968  commontables.o(.constdata)
    armBitRevIndexTable_fixed_4096           0x0001987c   Data        8064  commontables.o(.constdata)
    realCoefAQ31                             0x0001b7fc   Data       32768  commontables.o(.constdata)
    realCoefBQ31                             0x000237fc   Data       32768  commontables.o(.constdata)
    arm_cfft_sR_q31_len16                    0x0002b7fc   Data          16  commontables.o(.constdata)
    arm_cfft_sR_q31_len32                    0x0002b80c   Data          16  commontables.o(.constdata)
    arm_cfft_sR_q31_len64                    0x0002b81c   Data          16  commontables.o(.constdata)
    arm_cfft_sR_q31_len128                   0x0002b82c   Data          16  commontables.o(.constdata)
    arm_cfft_sR_q31_len256                   0x0002b83c   Data          16  commontables.o(.constdata)
    arm_cfft_sR_q31_len512                   0x0002b84c   Data          16  commontables.o(.constdata)
    arm_cfft_sR_q31_len1024                  0x0002b85c   Data          16  commontables.o(.constdata)
    arm_cfft_sR_q31_len2048                  0x0002b86c   Data          16  commontables.o(.constdata)
    arm_cfft_sR_q31_len4096                  0x0002b87c   Data          16  commontables.o(.constdata)
    Region$$Table$$Base                      0x0002b88c   Number         0  anon$$obj.o(Region$$Table)
    Region$$Table$$Limit                     0x0002b8bc   Number         0  anon$$obj.o(Region$$Table)
    Long Thumb to Thumb Veneer to Ddl_AssertHandler 0x1fff8001   Thumb Code    10  anon$$obj.o(Veneer$$Code)
    EFM_InstructionCacheCmd                  0x1fff800d   Thumb Code    40  hc32f46x_efm.o(i.EFM_InstructionCacheCmd)
    EFM_Lock                                 0x1fff8059   Thumb Code    20  hc32f46x_efm.o(i.EFM_Lock)
    EFM_SetLatency                           0x1fff8071   Thumb Code    94  hc32f46x_efm.o(i.EFM_SetLatency)
    EFM_Unlock                               0x1fff80f5   Thumb Code    16  hc32f46x_efm.o(i.EFM_Unlock)
    measure_th                               0x1fff810c   Data          20  main.o(.data)
    state                                    0x1fff8120   Data           4  main.o(.data)
    distance_f                               0x1fff8124   Data           4  main.o(.data)
    speed_f                                  0x1fff8128   Data           4  main.o(.data)
    mag_f                                    0x1fff812c   Data           4  main.o(.data)
    radar_onoff_                             0x1fff8130   Data           4  app.o(.data)
    dis_limit1                               0x1fff8134   Data           2  app.o(.data)
    leave_timer                              0x1fff8138   Data           4  app.o(.data)
    start_tick                               0x1fff813c   Data           4  app.o(.data)
    now_tick                                 0x1fff8140   Data           4  app.o(.data)
    diff_tick                                0x1fff8144   Data           4  app.o(.data)
    leave_en                                 0x1fff8148   Data           4  app.o(.data)
    HRC_VALUE                                0x1fff8164   Data           4  system_hc32f46x.o(.data)
    SystemCoreClock                          0x1fff8168   Data           4  system_hc32f46x.o(.data)
    ring_buffer                              0x1fff816c   Data          12  adc.o(.data)
    light_buffer                             0x1fff8178   Data           4  adc.o(.data)
    light_real_data                          0x1fff817c   Data           2  adc.o(.data)
    TaskVal                                  0x1fff817e   Data           1  adc.o(.data)
    TaskState                                0x1fff817f   Data           1  adc.o(.data)
    pTaskCBS                                 0x1fff8180   Data           4  adc.o(.data)
    updata_data                              0x1fff8194   Data           8  protocol.o(.data)
    queue_in                                 0x1fff819c   Data           4  system.o(.data)
    queue_out                                0x1fff81a0   Data           4  system.o(.data)
    stop_update_flag                         0x1fff81a4   Data           1  system.o(.data)
    reset_bt_flag                            0x1fff81a5   Data           1  system.o(.data)
    set_btmode_flag                          0x1fff81a6   Data           1  system.o(.data)
    bt_work_state                            0x1fff81a7   Data           1  system.o(.data)
    __stdout                                 0x1fff81ac   Data           4  stdout.o(.data)
    data_buf                                 0x1ffffaa0   Data         512  main.o(.bss)
    m_JS_RTT_UpBuffer                        0x1ffffca0   Data       16384  main.o(.bss)
    IrqHandler                               0x20003ca0   Data         512  hc32f46x_interrupts.o(.bss)
    Adc1SaValue                              0x20003ea0   Data          34  adc.o(.bss)
    buffer                                   0x20003ec4   Data        2048  adc.o(.bss)
    data_cumulation_1                        0x20004784   Data        1024  distance_measure.o(.bss)
    data_cumulation_2                        0x20004b84   Data        1024  distance_measure.o(.bss)
    bt_queue_buf                             0x20004f84   Data          21  system.o(.bss)
    bt_uart_rx_buf                           0x20004f99   Data         133  system.o(.bss)
    bt_uart_tx_buf                           0x2000501e   Data         517  system.o(.bss)
    _SEGGER_RTT                              0x20005224   Data         168  segger_rtt.o(.bss)
    __initial_sp                             0x20005ce0   Data           0  startup_hc32f46x.o(STACK)



==============================================================================

Memory Map of the image

  Image Entry point : 0x00000281

  Load Region LR_IROM1 (Base: 0x00000000, Size: 0x0002ba6c, Max: 0x00080000, ABSOLUTE)

    Execution Region ER_IROM1 (Exec base: 0x00000000, Load base: 0x00000000, Size: 0x0002b8bc, Max: 0x00080000, ABSOLUTE)

    Exec Addr    Load Addr    Size         Type   Attr      Idx    E Section Name        Object

    0x00000000   0x00000000   0x00000280   Data   RO           85    RESET               startup_hc32f46x.o
    0x00000280   0x00000280   0x00000000   Code   RO         9754  * .ARM.Collect$$$$00000000  mc_w.l(entry.o)
    0x00000280   0x00000280   0x00000004   Code   RO        10141    .ARM.Collect$$$$00000001  mc_w.l(entry2.o)
    0x00000284   0x00000284   0x00000004   Code   RO        10144    .ARM.Collect$$$$00000004  mc_w.l(entry5.o)
    0x00000288   0x00000288   0x00000000   Code   RO        10146    .ARM.Collect$$$$00000008  mc_w.l(entry7b.o)
    0x00000288   0x00000288   0x00000000   Code   RO        10148    .ARM.Collect$$$$0000000A  mc_w.l(entry8b.o)
    0x00000288   0x00000288   0x00000008   Code   RO        10149    .ARM.Collect$$$$0000000B  mc_w.l(entry9a.o)
    0x00000290   0x00000290   0x00000004   Code   RO        10156    .ARM.Collect$$$$0000000E  mc_w.l(entry12b.o)
    0x00000294   0x00000294   0x00000000   Code   RO        10151    .ARM.Collect$$$$0000000F  mc_w.l(entry10a.o)
    0x00000294   0x00000294   0x00000000   Code   RO        10153    .ARM.Collect$$$$00000011  mc_w.l(entry11a.o)
    0x00000294   0x00000294   0x00000004   Code   RO        10142    .ARM.Collect$$$$00002712  mc_w.l(entry2.o)
    0x00000298   0x00000298   0x0000005c   Code   RO           86    .text               startup_hc32f46x.o
    0x000002f4   0x000002f4   0x00000062   Code   RO         9757    .text               mc_w.l(uldiv.o)
    0x00000356   0x00000356   0x00000062   Code   RO         9759    .text               mc_w.l(ldiv.o)
    0x000003b8   0x000003b8   0x0000001e   Code   RO         9761    .text               mc_w.l(llshl.o)
    0x000003d6   0x000003d6   0x00000024   Code   RO         9763    .text               mc_w.l(llsshr.o)
    0x000003fa   0x000003fa   0x00000000   Code   RO        10169    .text               mc_w.l(iusefp.o)
    0x000003fa   0x000003fa   0x00000002   Code   RO        10193    i.__scatterload_null  mc_w.l(handlers.o)
    0x000003fc   0x000003fc   0x00000004   PAD
    0x00000400   0x00000400   0x00000020   Data   RO          330    .ARM.__AT_0x00000400  hc32f46x_icg.o
    0x00000420   0x00000420   0x0000000a   Ven    RO        10198    Veneer$$Code        anon$$obj.o
    0x0000042a   0x0000042a   0x0000000a   Ven    RO        10199    Veneer$$Code        anon$$obj.o
    0x00000434   0x00000434   0x0000000a   Ven    RO        10200    Veneer$$Code        anon$$obj.o
    0x0000043e   0x0000043e   0x0000000a   Ven    RO        10201    Veneer$$Code        anon$$obj.o
    0x00000448   0x00000448   0x00000040   Code   RO         9795    .text               mc_w.l(memmovea.o)
    0x00000488   0x00000488   0x00000024   Code   RO         9797    .text               mc_w.l(memseta.o)
    0x000004ac   0x000004ac   0x00000012   Code   RO         9801    .text               mc_w.l(strcpy.o)
    0x000004be   0x000004be   0x000000b0   Code   RO        10068    .text               mf_w.l(fadd.o)
    0x0000056e   0x0000056e   0x00000064   Code   RO        10070    .text               mf_w.l(fmul.o)
    0x000005d2   0x000005d2   0x0000007c   Code   RO        10072    .text               mf_w.l(fdiv.o)
    0x0000064e   0x0000064e   0x00000018   Code   RO        10074    .text               mf_w.l(fscalb.o)
    0x00000666   0x00000666   0x0000014e   Code   RO        10076    .text               mf_w.l(dadd.o)
    0x000007b4   0x000007b4   0x000000e4   Code   RO        10078    .text               mf_w.l(dmul.o)
    0x00000898   0x00000898   0x00000012   Code   RO        10084    .text               mf_w.l(fflti.o)
    0x000008aa   0x000008aa   0x0000000a   Code   RO        10086    .text               mf_w.l(ffltui.o)
    0x000008b4   0x000008b4   0x00000032   Code   RO        10090    .text               mf_w.l(ffixi.o)
    0x000008e6   0x000008e6   0x00000028   Code   RO        10092    .text               mf_w.l(ffixui.o)
    0x0000090e   0x0000090e   0x00000026   Code   RO        10096    .text               mf_w.l(f2d.o)
    0x00000934   0x00000934   0x00000030   Code   RO        10100    .text               mf_w.l(cdrcmple.o)
    0x00000964   0x00000964   0x00000038   Code   RO        10102    .text               mf_w.l(d2f.o)
    0x0000099c   0x0000099c   0x00000014   Code   RO        10104    .text               mf_w.l(cfcmple.o)
    0x000009b0   0x000009b0   0x00000014   Code   RO        10106    .text               mf_w.l(cfrcmple.o)
    0x000009c4   0x000009c4   0x0000002c   Code   RO        10158    .text               mc_w.l(uidiv.o)
    0x000009f0   0x000009f0   0x00000020   Code   RO        10160    .text               mc_w.l(llushr.o)
    0x00000a10   0x00000a10   0x0000006e   Code   RO        10170    .text               mf_w.l(fepilogue.o)
    0x00000a7e   0x00000a7e   0x000000ba   Code   RO        10176    .text               mf_w.l(depilogue.o)
    0x00000b38   0x00000b38   0x00000024   Code   RO        10188    .text               mc_w.l(init.o)
    0x00000b5c   0x00000b5c   0x0000001c   Code   RO         3341    i.ADC1B_IrqHandler  adc.o
    0x00000b78   0x00000b78   0x000000e0   Code   RO          456    i.ADC_AddAdcChannel  hc32f46x_adc.o
    0x00000c58   0x00000c58   0x0000005c   Code   RO          465    i.ADC_ClrEocFlag    hc32f46x_adc.o
    0x00000cb4   0x00000cb4   0x00000864   Code   RO          470    i.ADC_ConfigTriggerSrc  hc32f46x_adc.o
    0x00001518   0x00001518   0x00000060   Code   RO          480    i.ADC_GetEocFlag    hc32f46x_adc.o
    0x00001578   0x00001578   0x0000012c   Code   RO          482    i.ADC_Init          hc32f46x_adc.o
    0x000016a4   0x000016a4   0x0000008c   Code   RO          491    i.ADC_TriggerSrcCmd  hc32f46x_adc.o
    0x00001730   0x00001730   0x00000040   Code   RO         3342    i.AdcChannelConfig  adc.o
    0x00001770   0x00001770   0x00000062   Code   RO         3343    i.AdcClockConfig    adc.o
    0x000017d2   0x000017d2   0x00000018   Code   RO         3344    i.AdcConfig         adc.o
    0x000017ea   0x000017ea   0x00000002   PAD
    0x000017ec   0x000017ec   0x0000003c   Code   RO         3345    i.AdcInitConfig     adc.o
    0x00001828   0x00001828   0x00000048   Code   RO         3346    i.AdcSetChannelPinMode  adc.o
    0x00001870   0x00001870   0x000000b6   Code   RO         3347    i.AdcSetPinMode     adc.o
    0x00001926   0x00001926   0x00000002   PAD
    0x00001928   0x00001928   0x00000040   Code   RO         3348    i.AdcTriggerConfig  adc.o
    0x00001968   0x00001968   0x00000008   Code   RO         1204    i.BusFault_Handler  hc32f46x_interrupts.o
    0x00001970   0x00001970   0x000000bc   Code   RO          696    i.CLK_GetFlagStatus  hc32f46x_clk.o
    0x00001a2c   0x00001a2c   0x000000c4   Code   RO          704    i.CLK_MpllCmd       hc32f46x_clk.o
    0x00001af0   0x00001af0   0x000001b4   Code   RO          705    i.CLK_MpllConfig    hc32f46x_clk.o
    0x00001ca4   0x00001ca4   0x00000078   Code   RO          711    i.CLK_SetPeriClkSource  hc32f46x_clk.o
    0x00001d1c   0x00001d1c   0x00000078   Code   RO          712    i.CLK_SetPllSource  hc32f46x_clk.o
    0x00001d94   0x00001d94   0x00000120   Code   RO          713    i.CLK_SetSysClkSource  hc32f46x_clk.o
    0x00001eb4   0x00001eb4   0x0000019c   Code   RO          715    i.CLK_SysClkConfig  hc32f46x_clk.o
    0x00002050   0x00002050   0x000000b0   Code   RO          718    i.CLK_UpllCmd       hc32f46x_clk.o
    0x00002100   0x00002100   0x000001bc   Code   RO          719    i.CLK_UpllConfig    hc32f46x_clk.o
    0x000022bc   0x000022bc   0x0000010c   Code   RO          722    i.CLK_XtalCmd       hc32f46x_clk.o
    0x000023c8   0x000023c8   0x00000064   Code   RO          723    i.CLK_XtalConfig    hc32f46x_clk.o
    0x0000242c   0x0000242c   0x000002d4   Code   RO         2803    i.DMA_ChannelCfg    hc32f46x_dmac.o
    0x00002700   0x00002700   0x00000214   Code   RO         2804    i.DMA_ChannelCmd    hc32f46x_dmac.o
    0x00002914   0x00002914   0x000000f4   Code   RO         2805    i.DMA_ClearIrqFlag  hc32f46x_dmac.o
    0x00002a08   0x00002a08   0x0000006c   Code   RO         2806    i.DMA_Cmd           hc32f46x_dmac.o
    0x00002a74   0x00002a74   0x000000f4   Code   RO         2808    i.DMA_DisableIrq    hc32f46x_dmac.o
    0x00002b68   0x00002b68   0x0000021c   Code   RO         2812    i.DMA_InitChannel   hc32f46x_dmac.o
    0x00002d84   0x00002d84   0x00000074   Code   RO         2830    i.DMA_SetTriggerSrc  hc32f46x_dmac.o
    0x00002df8   0x00002df8   0x00000044   Code   RO          355    i.Ddl_AssertHandler  hc32f46x_utility.o
    0x00002e3c   0x00002e3c   0x00000008   Code   RO         1205    i.DebugMon_Handler  hc32f46x_interrupts.o
    0x00002e44   0x00002e44   0x00000018   Code   RO          359    i.DebugOutput       hc32f46x_utility.o
    0x00002e5c   0x00002e5c   0x0000001c   Code   RO         3349    i.Dma1Btc0_IrqHandler  adc.o
    0x00002e78   0x00002e78   0x00000014   Code   RO         3350    i.Dma1Btc1_IrqHandler  adc.o
    0x00002e8c   0x00002e8c   0x0000000c   Code   RO         3351    i.DmaConfig         adc.o
    0x00002e98   0x00002e98   0x000001d0   Code   RO         3352    i.DmaInitConfig     adc.o
    0x00003068   0x00003068   0x00000020   Code   RO         3353    i.DmaIrqConfig      adc.o
    0x00003088   0x00003088   0x000000ac   Code   RO         3354    i.DmaIrqRegister    adc.o
    0x00003134   0x00003134   0x00000008   Code   RO         1206    i.HardFault_Handler  hc32f46x_interrupts.o
    0x0000313c   0x0000313c   0x00000014   Code   RO         1207    i.IRQ000_Handler    hc32f46x_interrupts.o
    0x00003150   0x00003150   0x00000014   Code   RO         1208    i.IRQ001_Handler    hc32f46x_interrupts.o
    0x00003164   0x00003164   0x00000014   Code   RO         1209    i.IRQ002_Handler    hc32f46x_interrupts.o
    0x00003178   0x00003178   0x00000014   Code   RO         1210    i.IRQ003_Handler    hc32f46x_interrupts.o
    0x0000318c   0x0000318c   0x00000014   Code   RO         1211    i.IRQ004_Handler    hc32f46x_interrupts.o
    0x000031a0   0x000031a0   0x00000014   Code   RO         1212    i.IRQ005_Handler    hc32f46x_interrupts.o
    0x000031b4   0x000031b4   0x00000014   Code   RO         1213    i.IRQ006_Handler    hc32f46x_interrupts.o
    0x000031c8   0x000031c8   0x00000014   Code   RO         1214    i.IRQ007_Handler    hc32f46x_interrupts.o
    0x000031dc   0x000031dc   0x00000014   Code   RO         1215    i.IRQ008_Handler    hc32f46x_interrupts.o
    0x000031f0   0x000031f0   0x00000014   Code   RO         1216    i.IRQ009_Handler    hc32f46x_interrupts.o
    0x00003204   0x00003204   0x00000014   Code   RO         1217    i.IRQ010_Handler    hc32f46x_interrupts.o
    0x00003218   0x00003218   0x00000014   Code   RO         1218    i.IRQ011_Handler    hc32f46x_interrupts.o
    0x0000322c   0x0000322c   0x00000014   Code   RO         1219    i.IRQ012_Handler    hc32f46x_interrupts.o
    0x00003240   0x00003240   0x00000014   Code   RO         1220    i.IRQ013_Handler    hc32f46x_interrupts.o
    0x00003254   0x00003254   0x00000014   Code   RO         1221    i.IRQ014_Handler    hc32f46x_interrupts.o
    0x00003268   0x00003268   0x00000014   Code   RO         1222    i.IRQ015_Handler    hc32f46x_interrupts.o
    0x0000327c   0x0000327c   0x00000014   Code   RO         1223    i.IRQ016_Handler    hc32f46x_interrupts.o
    0x00003290   0x00003290   0x00000014   Code   RO         1224    i.IRQ017_Handler    hc32f46x_interrupts.o
    0x000032a4   0x000032a4   0x00000014   Code   RO         1225    i.IRQ018_Handler    hc32f46x_interrupts.o
    0x000032b8   0x000032b8   0x00000014   Code   RO         1226    i.IRQ019_Handler    hc32f46x_interrupts.o
    0x000032cc   0x000032cc   0x00000014   Code   RO         1227    i.IRQ020_Handler    hc32f46x_interrupts.o
    0x000032e0   0x000032e0   0x00000014   Code   RO         1228    i.IRQ021_Handler    hc32f46x_interrupts.o
    0x000032f4   0x000032f4   0x00000014   Code   RO         1229    i.IRQ022_Handler    hc32f46x_interrupts.o
    0x00003308   0x00003308   0x00000014   Code   RO         1230    i.IRQ023_Handler    hc32f46x_interrupts.o
    0x0000331c   0x0000331c   0x00000014   Code   RO         1231    i.IRQ024_Handler    hc32f46x_interrupts.o
    0x00003330   0x00003330   0x00000014   Code   RO         1232    i.IRQ025_Handler    hc32f46x_interrupts.o
    0x00003344   0x00003344   0x00000014   Code   RO         1233    i.IRQ026_Handler    hc32f46x_interrupts.o
    0x00003358   0x00003358   0x00000014   Code   RO         1234    i.IRQ027_Handler    hc32f46x_interrupts.o
    0x0000336c   0x0000336c   0x00000014   Code   RO         1235    i.IRQ028_Handler    hc32f46x_interrupts.o
    0x00003380   0x00003380   0x00000014   Code   RO         1236    i.IRQ029_Handler    hc32f46x_interrupts.o
    0x00003394   0x00003394   0x00000014   Code   RO         1237    i.IRQ030_Handler    hc32f46x_interrupts.o
    0x000033a8   0x000033a8   0x00000014   Code   RO         1238    i.IRQ031_Handler    hc32f46x_interrupts.o
    0x000033bc   0x000033bc   0x00000018   Code   RO         1239    i.IRQ032_Handler    hc32f46x_interrupts.o
    0x000033d4   0x000033d4   0x00000018   Code   RO         1240    i.IRQ033_Handler    hc32f46x_interrupts.o
    0x000033ec   0x000033ec   0x00000018   Code   RO         1241    i.IRQ034_Handler    hc32f46x_interrupts.o
    0x00003404   0x00003404   0x00000018   Code   RO         1242    i.IRQ035_Handler    hc32f46x_interrupts.o
    0x0000341c   0x0000341c   0x00000018   Code   RO         1243    i.IRQ036_Handler    hc32f46x_interrupts.o
    0x00003434   0x00003434   0x00000018   Code   RO         1244    i.IRQ037_Handler    hc32f46x_interrupts.o
    0x0000344c   0x0000344c   0x00000018   Code   RO         1245    i.IRQ038_Handler    hc32f46x_interrupts.o
    0x00003464   0x00003464   0x00000018   Code   RO         1246    i.IRQ039_Handler    hc32f46x_interrupts.o
    0x0000347c   0x0000347c   0x00000018   Code   RO         1247    i.IRQ040_Handler    hc32f46x_interrupts.o
    0x00003494   0x00003494   0x00000018   Code   RO         1248    i.IRQ041_Handler    hc32f46x_interrupts.o
    0x000034ac   0x000034ac   0x00000018   Code   RO         1249    i.IRQ042_Handler    hc32f46x_interrupts.o
    0x000034c4   0x000034c4   0x00000018   Code   RO         1250    i.IRQ043_Handler    hc32f46x_interrupts.o
    0x000034dc   0x000034dc   0x00000018   Code   RO         1251    i.IRQ044_Handler    hc32f46x_interrupts.o
    0x000034f4   0x000034f4   0x00000018   Code   RO         1252    i.IRQ045_Handler    hc32f46x_interrupts.o
    0x0000350c   0x0000350c   0x00000018   Code   RO         1253    i.IRQ046_Handler    hc32f46x_interrupts.o
    0x00003524   0x00003524   0x00000018   Code   RO         1254    i.IRQ047_Handler    hc32f46x_interrupts.o
    0x0000353c   0x0000353c   0x00000018   Code   RO         1255    i.IRQ048_Handler    hc32f46x_interrupts.o
    0x00003554   0x00003554   0x00000018   Code   RO         1256    i.IRQ049_Handler    hc32f46x_interrupts.o
    0x0000356c   0x0000356c   0x00000018   Code   RO         1257    i.IRQ050_Handler    hc32f46x_interrupts.o
    0x00003584   0x00003584   0x00000018   Code   RO         1258    i.IRQ051_Handler    hc32f46x_interrupts.o
    0x0000359c   0x0000359c   0x00000018   Code   RO         1259    i.IRQ052_Handler    hc32f46x_interrupts.o
    0x000035b4   0x000035b4   0x00000018   Code   RO         1260    i.IRQ053_Handler    hc32f46x_interrupts.o
    0x000035cc   0x000035cc   0x00000018   Code   RO         1261    i.IRQ054_Handler    hc32f46x_interrupts.o
    0x000035e4   0x000035e4   0x00000018   Code   RO         1262    i.IRQ055_Handler    hc32f46x_interrupts.o
    0x000035fc   0x000035fc   0x00000018   Code   RO         1263    i.IRQ056_Handler    hc32f46x_interrupts.o
    0x00003614   0x00003614   0x00000018   Code   RO         1264    i.IRQ057_Handler    hc32f46x_interrupts.o
    0x0000362c   0x0000362c   0x00000018   Code   RO         1265    i.IRQ058_Handler    hc32f46x_interrupts.o
    0x00003644   0x00003644   0x00000018   Code   RO         1266    i.IRQ059_Handler    hc32f46x_interrupts.o
    0x0000365c   0x0000365c   0x00000018   Code   RO         1267    i.IRQ060_Handler    hc32f46x_interrupts.o
    0x00003674   0x00003674   0x00000018   Code   RO         1268    i.IRQ061_Handler    hc32f46x_interrupts.o
    0x0000368c   0x0000368c   0x00000018   Code   RO         1269    i.IRQ062_Handler    hc32f46x_interrupts.o
    0x000036a4   0x000036a4   0x00000018   Code   RO         1270    i.IRQ063_Handler    hc32f46x_interrupts.o
    0x000036bc   0x000036bc   0x00000018   Code   RO         1271    i.IRQ064_Handler    hc32f46x_interrupts.o
    0x000036d4   0x000036d4   0x00000018   Code   RO         1272    i.IRQ065_Handler    hc32f46x_interrupts.o
    0x000036ec   0x000036ec   0x00000018   Code   RO         1273    i.IRQ066_Handler    hc32f46x_interrupts.o
    0x00003704   0x00003704   0x00000018   Code   RO         1274    i.IRQ067_Handler    hc32f46x_interrupts.o
    0x0000371c   0x0000371c   0x00000018   Code   RO         1275    i.IRQ068_Handler    hc32f46x_interrupts.o
    0x00003734   0x00003734   0x00000018   Code   RO         1276    i.IRQ069_Handler    hc32f46x_interrupts.o
    0x0000374c   0x0000374c   0x00000018   Code   RO         1277    i.IRQ070_Handler    hc32f46x_interrupts.o
    0x00003764   0x00003764   0x00000018   Code   RO         1278    i.IRQ071_Handler    hc32f46x_interrupts.o
    0x0000377c   0x0000377c   0x00000018   Code   RO         1279    i.IRQ072_Handler    hc32f46x_interrupts.o
    0x00003794   0x00003794   0x00000018   Code   RO         1280    i.IRQ073_Handler    hc32f46x_interrupts.o
    0x000037ac   0x000037ac   0x00000018   Code   RO         1281    i.IRQ074_Handler    hc32f46x_interrupts.o
    0x000037c4   0x000037c4   0x00000018   Code   RO         1282    i.IRQ075_Handler    hc32f46x_interrupts.o
    0x000037dc   0x000037dc   0x00000018   Code   RO         1283    i.IRQ076_Handler    hc32f46x_interrupts.o
    0x000037f4   0x000037f4   0x00000018   Code   RO         1284    i.IRQ077_Handler    hc32f46x_interrupts.o
    0x0000380c   0x0000380c   0x00000018   Code   RO         1285    i.IRQ078_Handler    hc32f46x_interrupts.o
    0x00003824   0x00003824   0x00000018   Code   RO         1286    i.IRQ079_Handler    hc32f46x_interrupts.o
    0x0000383c   0x0000383c   0x00000018   Code   RO         1287    i.IRQ080_Handler    hc32f46x_interrupts.o
    0x00003854   0x00003854   0x00000018   Code   RO         1288    i.IRQ081_Handler    hc32f46x_interrupts.o
    0x0000386c   0x0000386c   0x00000018   Code   RO         1289    i.IRQ082_Handler    hc32f46x_interrupts.o
    0x00003884   0x00003884   0x00000018   Code   RO         1290    i.IRQ083_Handler    hc32f46x_interrupts.o
    0x0000389c   0x0000389c   0x00000018   Code   RO         1291    i.IRQ084_Handler    hc32f46x_interrupts.o
    0x000038b4   0x000038b4   0x00000018   Code   RO         1292    i.IRQ085_Handler    hc32f46x_interrupts.o
    0x000038cc   0x000038cc   0x00000018   Code   RO         1293    i.IRQ086_Handler    hc32f46x_interrupts.o
    0x000038e4   0x000038e4   0x00000018   Code   RO         1294    i.IRQ087_Handler    hc32f46x_interrupts.o
    0x000038fc   0x000038fc   0x00000018   Code   RO         1295    i.IRQ088_Handler    hc32f46x_interrupts.o
    0x00003914   0x00003914   0x00000018   Code   RO         1296    i.IRQ089_Handler    hc32f46x_interrupts.o
    0x0000392c   0x0000392c   0x00000018   Code   RO         1297    i.IRQ090_Handler    hc32f46x_interrupts.o
    0x00003944   0x00003944   0x00000018   Code   RO         1298    i.IRQ091_Handler    hc32f46x_interrupts.o
    0x0000395c   0x0000395c   0x00000018   Code   RO         1299    i.IRQ092_Handler    hc32f46x_interrupts.o
    0x00003974   0x00003974   0x00000018   Code   RO         1300    i.IRQ093_Handler    hc32f46x_interrupts.o
    0x0000398c   0x0000398c   0x00000018   Code   RO         1301    i.IRQ094_Handler    hc32f46x_interrupts.o
    0x000039a4   0x000039a4   0x00000018   Code   RO         1302    i.IRQ095_Handler    hc32f46x_interrupts.o
    0x000039bc   0x000039bc   0x00000018   Code   RO         1303    i.IRQ096_Handler    hc32f46x_interrupts.o
    0x000039d4   0x000039d4   0x00000018   Code   RO         1304    i.IRQ097_Handler    hc32f46x_interrupts.o
    0x000039ec   0x000039ec   0x00000018   Code   RO         1305    i.IRQ098_Handler    hc32f46x_interrupts.o
    0x00003a04   0x00003a04   0x00000018   Code   RO         1306    i.IRQ099_Handler    hc32f46x_interrupts.o
    0x00003a1c   0x00003a1c   0x00000018   Code   RO         1307    i.IRQ100_Handler    hc32f46x_interrupts.o
    0x00003a34   0x00003a34   0x00000018   Code   RO         1308    i.IRQ101_Handler    hc32f46x_interrupts.o
    0x00003a4c   0x00003a4c   0x00000018   Code   RO         1309    i.IRQ102_Handler    hc32f46x_interrupts.o
    0x00003a64   0x00003a64   0x00000018   Code   RO         1310    i.IRQ103_Handler    hc32f46x_interrupts.o
    0x00003a7c   0x00003a7c   0x00000018   Code   RO         1311    i.IRQ104_Handler    hc32f46x_interrupts.o
    0x00003a94   0x00003a94   0x00000018   Code   RO         1312    i.IRQ105_Handler    hc32f46x_interrupts.o
    0x00003aac   0x00003aac   0x00000018   Code   RO         1313    i.IRQ106_Handler    hc32f46x_interrupts.o
    0x00003ac4   0x00003ac4   0x00000018   Code   RO         1314    i.IRQ107_Handler    hc32f46x_interrupts.o
    0x00003adc   0x00003adc   0x00000018   Code   RO         1315    i.IRQ108_Handler    hc32f46x_interrupts.o
    0x00003af4   0x00003af4   0x00000018   Code   RO         1316    i.IRQ109_Handler    hc32f46x_interrupts.o
    0x00003b0c   0x00003b0c   0x00000018   Code   RO         1317    i.IRQ110_Handler    hc32f46x_interrupts.o
    0x00003b24   0x00003b24   0x00000018   Code   RO         1318    i.IRQ111_Handler    hc32f46x_interrupts.o
    0x00003b3c   0x00003b3c   0x00000018   Code   RO         1319    i.IRQ112_Handler    hc32f46x_interrupts.o
    0x00003b54   0x00003b54   0x00000018   Code   RO         1320    i.IRQ113_Handler    hc32f46x_interrupts.o
    0x00003b6c   0x00003b6c   0x00000018   Code   RO         1321    i.IRQ114_Handler    hc32f46x_interrupts.o
    0x00003b84   0x00003b84   0x00000018   Code   RO         1322    i.IRQ115_Handler    hc32f46x_interrupts.o
    0x00003b9c   0x00003b9c   0x00000018   Code   RO         1323    i.IRQ116_Handler    hc32f46x_interrupts.o
    0x00003bb4   0x00003bb4   0x00000018   Code   RO         1324    i.IRQ117_Handler    hc32f46x_interrupts.o
    0x00003bcc   0x00003bcc   0x00000018   Code   RO         1325    i.IRQ118_Handler    hc32f46x_interrupts.o
    0x00003be4   0x00003be4   0x00000018   Code   RO         1326    i.IRQ119_Handler    hc32f46x_interrupts.o
    0x00003bfc   0x00003bfc   0x00000018   Code   RO         1327    i.IRQ120_Handler    hc32f46x_interrupts.o
    0x00003c14   0x00003c14   0x00000018   Code   RO         1328    i.IRQ121_Handler    hc32f46x_interrupts.o
    0x00003c2c   0x00003c2c   0x00000018   Code   RO         1329    i.IRQ122_Handler    hc32f46x_interrupts.o
    0x00003c44   0x00003c44   0x00000018   Code   RO         1330    i.IRQ123_Handler    hc32f46x_interrupts.o
    0x00003c5c   0x00003c5c   0x00000018   Code   RO         1331    i.IRQ124_Handler    hc32f46x_interrupts.o
    0x00003c74   0x00003c74   0x00000018   Code   RO         1332    i.IRQ125_Handler    hc32f46x_interrupts.o
    0x00003c8c   0x00003c8c   0x00000018   Code   RO         1333    i.IRQ126_Handler    hc32f46x_interrupts.o
    0x00003ca4   0x00003ca4   0x00000018   Code   RO         1334    i.IRQ127_Handler    hc32f46x_interrupts.o
    0x00003cbc   0x00003cbc   0x00000150   Code   RO         1335    i.IRQ128_Handler    hc32f46x_interrupts.o
    0x00003e0c   0x00003e0c   0x00000466   Code   RO         1336    i.IRQ129_Handler    hc32f46x_interrupts.o
    0x00004272   0x00004272   0x00000002   PAD
    0x00004274   0x00004274   0x000000dc   Code   RO         1337    i.IRQ130_Handler    hc32f46x_interrupts.o
    0x00004350   0x00004350   0x000002c8   Code   RO         1338    i.IRQ131_Handler    hc32f46x_interrupts.o
    0x00004618   0x00004618   0x00000170   Code   RO         1339    i.IRQ132_Handler    hc32f46x_interrupts.o
    0x00004788   0x00004788   0x00000320   Code   RO         1340    i.IRQ136_Handler    hc32f46x_interrupts.o
    0x00004aa8   0x00004aa8   0x00000288   Code   RO         1341    i.IRQ137_Handler    hc32f46x_interrupts.o
    0x00004d30   0x00004d30   0x0000023c   Code   RO         1342    i.IRQ138_Handler    hc32f46x_interrupts.o
    0x00004f6c   0x00004f6c   0x00000128   Code   RO         1343    i.IRQ139_Handler    hc32f46x_interrupts.o
    0x00005094   0x00005094   0x00000214   Code   RO         1344    i.IRQ140_Handler    hc32f46x_interrupts.o
    0x000052a8   0x000052a8   0x0000025c   Code   RO         1345    i.IRQ141_Handler    hc32f46x_interrupts.o
    0x00005504   0x00005504   0x00000114   Code   RO         1346    i.IRQ142_Handler    hc32f46x_interrupts.o
    0x00005618   0x00005618   0x00000110   Code   RO         1347    i.IRQ143_Handler    hc32f46x_interrupts.o
    0x00005728   0x00005728   0x00000008   Code   RO         1348    i.MemManage_Handler  hc32f46x_interrupts.o
    0x00005730   0x00005730   0x00000008   Code   RO         1349    i.NMI_Handler       hc32f46x_interrupts.o
    0x00005738   0x00005738   0x0000004c   Code   RO         2998    i.NMI_IrqHandler    hc32f46x_exint_nmi_swi.o
    0x00005784   0x00005784   0x00000200   Code   RO         1089    i.PORT_Init         hc32f46x_gpio.o
    0x00005984   0x00005984   0x00000010   Code   RO         1090    i.PORT_Lock         hc32f46x_gpio.o
    0x00005994   0x00005994   0x00000064   Code   RO         1093    i.PORT_ResetBits    hc32f46x_gpio.o
    0x000059f8   0x000059f8   0x00000064   Code   RO         1095    i.PORT_SetBits      hc32f46x_gpio.o
    0x00005a5c   0x00005a5c   0x000001c4   Code   RO         1096    i.PORT_SetFunc      hc32f46x_gpio.o
    0x00005c20   0x00005c20   0x00000010   Code   RO         1100    i.PORT_Unlock       hc32f46x_gpio.o
    0x00005c30   0x00005c30   0x00000088   Code   RO         2194    i.PWC_Fcg0PeriphClockCmd  hc32f46x_pwc.o
    0x00005cb8   0x00005cb8   0x00000078   Code   RO         2195    i.PWC_Fcg1PeriphClockCmd  hc32f46x_pwc.o
    0x00005d30   0x00005d30   0x00000078   Code   RO         2196    i.PWC_Fcg2PeriphClockCmd  hc32f46x_pwc.o
    0x00005da8   0x00005da8   0x00000078   Code   RO         2197    i.PWC_Fcg3PeriphClockCmd  hc32f46x_pwc.o
    0x00005e20   0x00005e20   0x00000008   Code   RO         1350    i.PendSV_Handler    hc32f46x_interrupts.o
    0x00005e28   0x00005e28   0x0000003c   Code   RO         4380    i.Queue_Read_Byte   system.o
    0x00005e64   0x00005e64   0x00000074   Code   RO         4493    i.SEGGER_RTT_ConfigUpBuffer  segger_rtt.o
    0x00005ed8   0x00005ed8   0x00000008   Code   RO         4500    i.SEGGER_RTT_Init   segger_rtt.o
    0x00005ee0   0x00005ee0   0x00000048   Code   RO         4515    i.SEGGER_RTT_Write  segger_rtt.o
    0x00005f28   0x00005f28   0x00000084   Code   RO         4518    i.SEGGER_RTT_WriteNoLock  segger_rtt.o
    0x00005fac   0x00005fac   0x00000022   Code   RO         4720    i.SEGGER_RTT_printf  segger_rtt_printf.o
    0x00005fce   0x00005fce   0x0000020a   Code   RO         4721    i.SEGGER_RTT_vprintf  segger_rtt_printf.o
    0x000061d8   0x000061d8   0x00000008   Code   RO         1351    i.SVC_Handler       hc32f46x_interrupts.o
    0x000061e0   0x000061e0   0x0000012c   Code   RO         2572    i.SetClkSyncBaudrate  hc32f46x_usart.o
    0x0000630c   0x0000630c   0x00000160   Code   RO         2573    i.SetScBaudrate     hc32f46x_usart.o
    0x0000646c   0x0000646c   0x00000170   Code   RO         2574    i.SetUartBaudrate   hc32f46x_usart.o
    0x000065dc   0x000065dc   0x000000be   Code   RO         3559    i.SysClkInit        sysclk.o
    0x0000669a   0x0000669a   0x00000002   PAD
    0x0000669c   0x0000669c   0x0000000c   Code   RO          362    i.SysTick_GetTick   hc32f46x_utility.o
    0x000066a8   0x000066a8   0x00000008   Code   RO         1352    i.SysTick_Handler   hc32f46x_interrupts.o
    0x000066b0   0x000066b0   0x00000018   Code   RO          363    i.SysTick_IncTick   hc32f46x_utility.o
    0x000066c8   0x000066c8   0x00000078   Code   RO          364    i.SysTick_Init      hc32f46x_utility.o
    0x00006740   0x00006740   0x00000008   Code   RO          255    i.SysTick_IrqHandler  app.o
    0x00006748   0x00006748   0x000000ec   Code   RO         3305    i.SystemCoreClockUpdate  system_hc32f46x.o
    0x00006834   0x00006834   0x00000008   Code   RO         3306    i.SystemInit        system_hc32f46x.o
    0x0000683c   0x0000683c   0x00000150   Code   RO         3071    i.TIMERA_BaseInit   hc32f46x_timera.o
    0x0000698c   0x0000698c   0x0000008c   Code   RO         3075    i.TIMERA_Cmd        hc32f46x_timera.o
    0x00006a18   0x00006a18   0x000000c8   Code   RO         3077    i.TIMERA_CompareCmd  hc32f46x_timera.o
    0x00006ae0   0x00006ae0   0x00000260   Code   RO         3078    i.TIMERA_CompareInit  hc32f46x_timera.o
    0x00006d40   0x00006d40   0x00000020   Code   RO         3635    i.Timera1_en        timera_pwm.o
    0x00006d60   0x00006d60   0x000000b0   Code   RO         3636    i.Timera1_init      timera_pwm.o
    0x00006e10   0x00006e10   0x000000bc   Code   RO         3637    i.Timera_Config     timera_pwm.o
    0x00006ecc   0x00006ecc   0x00000244   Code   RO         2578    i.USART_FuncCmd     hc32f46x_usart.o
    0x00007110   0x00007110   0x00000064   Code   RO         2591    i.USART_RecData     hc32f46x_usart.o
    0x00007174   0x00007174   0x00000068   Code   RO         2594    i.USART_SetBaudrate  hc32f46x_usart.o
    0x000071dc   0x000071dc   0x000003c4   Code   RO         2606    i.USART_UART_Init   hc32f46x_usart.o
    0x000075a0   0x000075a0   0x00000008   Code   RO         1353    i.UsageFault_Handler  hc32f46x_interrupts.o
    0x000075a8   0x000075a8   0x00000090   Code   RO         2607    i.UsartGetClk       hc32f46x_usart.o
    0x00007638   0x00007638   0x0000001c   Code   RO         3590    i.UsartRxIrqCallback  usart.o
    0x00007654   0x00007654   0x00000070   Code   RO         4522    i._DoInit           segger_rtt.o
    0x000076c4   0x000076c4   0x0000001c   Code   RO         4523    i._GetAvailWriteSpace  segger_rtt.o
    0x000076e0   0x000076e0   0x000000ec   Code   RO         4722    i._PrintInt         segger_rtt_printf.o
    0x000077cc   0x000077cc   0x000000ec   Code   RO         4723    i._PrintUnsigned    segger_rtt_printf.o
    0x000078b8   0x000078b8   0x00000044   Code   RO         4724    i._StoreChar        segger_rtt_printf.o
    0x000078fc   0x000078fc   0x00000076   Code   RO         4525    i._WriteBlocking    segger_rtt.o
    0x00007972   0x00007972   0x00000058   Code   RO         4526    i._WriteNoCheck     segger_rtt.o
    0x000079ca   0x000079ca   0x00000002   PAD
    0x000079cc   0x000079cc   0x00000020   Code   RO         9896    i.__0printf$3       mc_w.l(printf3.o)
    0x000079ec   0x000079ec   0x0000000e   Code   RO        10192    i.__scatterload_copy  mc_w.l(handlers.o)
    0x000079fa   0x000079fa   0x0000000e   Code   RO        10194    i.__scatterload_zeroinit  mc_w.l(handlers.o)
    0x00007a08   0x00007a08   0x000001b8   Code   RO         9903    i._printf_core      mc_w.l(printf3.o)
    0x00007bc0   0x00007bc0   0x0000001c   Code   RO         3732    i.accumulate_data   distance_measure.o
    0x00007bdc   0x00007bdc   0x000000c0   Code   RO            1    i.alloc_mem         memalloc.o
    0x00007c9c   0x00007c9c   0x000000b4   Code   RO         4006    i.alpha_filter      alpha_filter.o
    0x00007d50   0x00007d50   0x00000100   Code   RO         3913    i.apfft             apfft.o
    0x00007e50   0x00007e50   0x0000003c   Code   RO          256    i.app               app.o
    0x00007e8c   0x00007e8c   0x00000038   Code   RO         3278    i.arctan            math_fp.o
    0x00007ec4   0x00007ec4   0x000000cc   Code   RO         3279    i.arctan2           math_fp.o
    0x00007f90   0x00007f90   0x00000098   Code   RO         8166    i.arm_absmax_q31    statisticsfunctions.o
    0x00008028   0x00008028   0x0000003c   Code   RO         8977    i.arm_bitreversal_32  transformfunctions.o
    0x00008064   0x00008064   0x000000ac   Code   RO         8989    i.arm_cfft_q31      transformfunctions.o
    0x00008110   0x00008110   0x000000c0   Code   RO         9004    i.arm_cfft_radix4by2_inverse_q31  transformfunctions.o
    0x000081d0   0x000081d0   0x000000c0   Code   RO         9006    i.arm_cfft_radix4by2_q31  transformfunctions.o
    0x00008290   0x00008290   0x0000002c   Code   RO         5607    i.arm_cmplx_mag_q31  complexmathfunctions.o
    0x000082bc   0x000082bc   0x00000020   Code   RO         8181    i.arm_max_q31       statisticsfunctions.o
    0x000082dc   0x000082dc   0x0000001c   Code   RO         8184    i.arm_mean_q15      statisticsfunctions.o
    0x000082f8   0x000082f8   0x00000030   Code   RO         8185    i.arm_mean_q31      statisticsfunctions.o
    0x00008328   0x00008328   0x00000018   Code   RO         4788    i.arm_offset_q15    basicmathfunctions.o
    0x00008340   0x00008340   0x000003d4   Code   RO         9025    i.arm_radix4_butterfly_inverse_q31  transformfunctions.o
    0x00008714   0x00008714   0x000003d0   Code   RO         9027    i.arm_radix4_butterfly_q31  transformfunctions.o
    0x00008ae4   0x00008ae4   0x000000c8   Code   RO         9052    i.arm_rfft_init_q31  transformfunctions.o
    0x00008bac   0x00008bac   0x00000064   Code   RO         9054    i.arm_rfft_q31      transformfunctions.o
    0x00008c10   0x00008c10   0x0000004a   Code   RO         4799    i.arm_shift_q31     basicmathfunctions.o
    0x00008c5a   0x00008c5a   0x000000d6   Code   RO         9057    i.arm_split_rfft_q31  transformfunctions.o
    0x00008d30   0x00008d30   0x00000064   Code   RO         9060    i.arm_split_rifft_q31  transformfunctions.o
    0x00008d94   0x00008d94   0x000000e0   Code   RO         6189    i.arm_sqrt_q31      fastmathfunctions.o
    0x00008e74   0x00008e74   0x00000024   Code   RO         4052    i.bt_protocol_init  mcu_api.o
    0x00008e98   0x00008e98   0x0000008c   Code   RO         4053    i.bt_uart_service   mcu_api.o
    0x00008f24   0x00008f24   0x00000050   Code   RO         3770    i.cfar_ca           micromotion_detection.o
    0x00008f74   0x00008f74   0x00000044   Code   RO          257    i.close_process     app.o
    0x00008fb8   0x00008fb8   0x00000110   Code   RO         4383    i.data_handle       system.o
    0x000090c8   0x000090c8   0x000000c0   Code   RO         1360    i.enIrqRegistration  hc32f46x_interrupts.o
    0x00009188   0x00009188   0x00000024   Code   RO         1363    i.enShareIrqEnable  hc32f46x_interrupts.o
    0x000091ac   0x000091ac   0x00000038   Code   RO         4021    i.find_max_peak     pd_calculation.o
    0x000091e4   0x000091e4   0x00000010   Code   RO          367    i.fputc             hc32f46x_utility.o
    0x000091f4   0x000091f4   0x00000044   Code   RO            2    i.free_mem          memalloc.o
    0x00009238   0x00009238   0x0000001c   Code   RO         4388    i.get_queue_total_data  system.o
    0x00009254   0x00009254   0x00000018   Code   RO         3356    i.get_sample_data   adc.o
    0x0000926c   0x0000926c   0x0000002c   Code   RO         3671    i.gpio_init         gpio.o
    0x00009298   0x00009298   0x000000f8   Code   RO          258    i.idle_process      app.o
    0x00009390   0x00009390   0x0000002c   Code   RO            3    i.init_mem          memalloc.o
    0x000093bc   0x000093bc   0x0000002c   Code   RO          259    i.leave_s0          app.o
    0x000093e8   0x000093e8   0x00000024   Code   RO          260    i.leave_s1          app.o
    0x0000940c   0x0000940c   0x00000068   Code   RO         3480    i.led_init          led.o
    0x00009474   0x00009474   0x000000dc   Code   RO           94    i.main              main.o
    0x00009550   0x00009550   0x00000128   Code   RO         4057    i.mcu_common_uart_data_unpack  mcu_api.o
    0x00009678   0x00009678   0x000000f0   Code   RO         3733    i.measure_distance  distance_measure.o
    0x00009768   0x00009768   0x00000140   Code   RO         3771    i.micromotion_detection  micromotion_detection.o
    0x000098a8   0x000098a8   0x00000044   Code   RO         4072    i.my_memcpy         mcu_api.o
    0x000098ec   0x000098ec   0x00000022   Code   RO         4073    i.my_memset         mcu_api.o
    0x0000990e   0x0000990e   0x00000002   PAD
    0x00009910   0x00009910   0x000002ec   Code   RO         4022    i.pd_calculation    pd_calculation.o
    0x00009bfc   0x00009bfc   0x00000094   Code   RO           59    i.ring_buffer_get   ringbuffer.o
    0x00009c90   0x00009c90   0x00000090   Code   RO           60    i.ring_buffer_put   ringbuffer.o
    0x00009d20   0x00009d20   0x000000f0   Code   RO           95    i.rtt_init          main.o
    0x00009e10   0x00009e10   0x00000074   Code   RO         4391    i.send_d1_response  system.o
    0x00009e84   0x00009e84   0x00000074   Code   RO         4392    i.send_d2_response  system.o
    0x00009ef8   0x00009ef8   0x00000100   Code   RO         4393    i.send_d3_response  system.o
    0x00009ff8   0x00009ff8   0x00000080   Code   RO         4394    i.send_d4_response  system.o
    0x0000a078   0x0000a078   0x00000038   Code   RO          261    i.tick_init         app.o
    0x0000a0b0   0x0000a0b0   0x00000060   Code   RO         4075    i.uart_receive_input  mcu_api.o
    0x0000a110   0x0000a110   0x00000018   Code   RO         4237    i.uart_transmit_output  protocol.o
    0x0000a128   0x0000a128   0x0000010c   Code   RO         3591    i.usart_init        usart.o
    0x0000a234   0x0000a234   0x00000010   Data   RO         2608    .constdata          hc32f46x_usart.o
    0x0000a244   0x0000a244   0x00000009   Data   RO         3592    .constdata          usart.o
    0x0000a24d   0x0000a24d   0x00000003   PAD
    0x0000a250   0x0000a250   0x00000008   Data   RO         3772    .constdata          micromotion_detection.o
    0x0000a258   0x0000a258   0x00000800   Data   RO         3970    .constdata          hamming.o
    0x0000aa58   0x0000aa58   0x000007fc   Data   RO         3979    .constdata          hanning_conv.o
    0x0000b254   0x0000b254   0x00000800   Data   RO         3988    .constdata          freq_linspace.o
    0x0000ba54   0x0000ba54   0x00000010   Data   RO         4725    .constdata          segger_rtt_printf.o
    0x0000ba64   0x0000ba64   0x00000060   Data   RO         5371    .constdata          commontables.o
    0x0000bac4   0x0000bac4   0x000000c0   Data   RO         5372    .constdata          commontables.o
    0x0000bb84   0x0000bb84   0x00000180   Data   RO         5373    .constdata          commontables.o
    0x0000bd04   0x0000bd04   0x00000300   Data   RO         5374    .constdata          commontables.o
    0x0000c004   0x0000c004   0x00000600   Data   RO         5375    .constdata          commontables.o
    0x0000c604   0x0000c604   0x00000c00   Data   RO         5376    .constdata          commontables.o
    0x0000d204   0x0000d204   0x00001800   Data   RO         5377    .constdata          commontables.o
    0x0000ea04   0x0000ea04   0x00003000   Data   RO         5378    .constdata          commontables.o
    0x00011a04   0x00011a04   0x00006000   Data   RO         5379    .constdata          commontables.o
    0x00017a04   0x00017a04   0x00000018   Data   RO         5407    .constdata          commontables.o
    0x00017a1c   0x00017a1c   0x00000030   Data   RO         5408    .constdata          commontables.o
    0x00017a4c   0x00017a4c   0x00000070   Data   RO         5409    .constdata          commontables.o
    0x00017abc   0x00017abc   0x000000e0   Data   RO         5410    .constdata          commontables.o
    0x00017b9c   0x00017b9c   0x000001e0   Data   RO         5411    .constdata          commontables.o
    0x00017d7c   0x00017d7c   0x000003c0   Data   RO         5412    .constdata          commontables.o
    0x0001813c   0x0001813c   0x000007c0   Data   RO         5413    .constdata          commontables.o
    0x000188fc   0x000188fc   0x00000f80   Data   RO         5414    .constdata          commontables.o
    0x0001987c   0x0001987c   0x00001f80   Data   RO         5415    .constdata          commontables.o
    0x0001b7fc   0x0001b7fc   0x00008000   Data   RO         5434    .constdata          commontables.o
    0x000237fc   0x000237fc   0x00008000   Data   RO         5435    .constdata          commontables.o
    0x0002b7fc   0x0002b7fc   0x00000010   Data   RO         5485    .constdata          commontables.o
    0x0002b80c   0x0002b80c   0x00000010   Data   RO         5486    .constdata          commontables.o
    0x0002b81c   0x0002b81c   0x00000010   Data   RO         5487    .constdata          commontables.o
    0x0002b82c   0x0002b82c   0x00000010   Data   RO         5488    .constdata          commontables.o
    0x0002b83c   0x0002b83c   0x00000010   Data   RO         5489    .constdata          commontables.o
    0x0002b84c   0x0002b84c   0x00000010   Data   RO         5490    .constdata          commontables.o
    0x0002b85c   0x0002b85c   0x00000010   Data   RO         5491    .constdata          commontables.o
    0x0002b86c   0x0002b86c   0x00000010   Data   RO         5492    .constdata          commontables.o
    0x0002b87c   0x0002b87c   0x00000010   Data   RO         5493    .constdata          commontables.o
    0x0002b88c   0x0002b88c   0x00000030   Data   RO        10190    Region$$Table       anon$$obj.o


    Execution Region RW_IRAM1 (Exec base: 0x1fff8000, Load base: 0x0002b8bc, Size: 0x0000dce0, Max: 0x0002f000, ABSOLUTE)

    Exec Addr    Load Addr    Size         Type   Attr      Idx    E Section Name        Object

    0x1fff8000   0x0002b8bc   0x0000000a   Ven    RO        10202    Veneer$$Code        anon$$obj.o
    0x1fff800a   0x0002b8c6   0x00000002   PAD
    0x1fff800c   0x0002b8c8   0x0000004c   Code   RO          935    i.EFM_InstructionCacheCmd  hc32f46x_efm.o
    0x1fff8058   0x0002b914   0x00000018   Code   RO          937    i.EFM_Lock          hc32f46x_efm.o
    0x1fff8070   0x0002b92c   0x00000084   Code   RO          946    i.EFM_SetLatency    hc32f46x_efm.o
    0x1fff80f4   0x0002b9b0   0x00000014   Code   RO          951    i.EFM_Unlock        hc32f46x_efm.o
    0x1fff8108   0x0002b9c4   0x00000004   Data   RW            5    .data               memalloc.o
    0x1fff810c   0x0002b9c8   0x00000024   Data   RW           98    .data               main.o
    0x1fff8130   0x0002b9ec   0x00000024   Data   RW          262    .data               app.o
    0x1fff8154   0x0002ba10   0x00000008   Data   RW          368    .data               hc32f46x_utility.o
    0x1fff815c   0x0002ba18   0x00000001   Data   RW         2831    .data               hc32f46x_dmac.o
    0x1fff815d   0x0002ba19   0x00000003   PAD
    0x1fff8160   0x0002ba1c   0x00000004   Data   RW         3001    .data               hc32f46x_exint_nmi_swi.o
    0x1fff8164   0x0002ba20   0x00000008   Data   RW         3307    .data               system_hc32f46x.o
    0x1fff816c   0x0002ba28   0x00000018   Data   RW         3358    .data               adc.o
    0x1fff8184   0x0002ba40   0x00000004   Data   RW         3735    .data               distance_measure.o
    0x1fff8188   0x0002ba44   0x0000000a   Data   RW         4076    .data               mcu_api.o
    0x1fff8192   0x0002ba4e   0x00000002   PAD
    0x1fff8194   0x0002ba50   0x00000008   Data   RW         4239    .data               protocol.o
    0x1fff819c   0x0002ba58   0x0000000d   Data   RW         4398    .data               system.o
    0x1fff81a9   0x0002ba65   0x00000003   PAD
    0x1fff81ac   0x0002ba68   0x00000004   Data   RW        10157    .data               mc_w.l(stdout.o)
    0x1fff81b0        -       0x000078f0   Zero   RW            4    .bss                memalloc.o
    0x1ffffaa0        -       0x00004200   Zero   RW           96    .bss                main.o
    0x20003ca0        -       0x00000200   Zero   RW         1364    .bss                hc32f46x_interrupts.o
    0x20003ea0        -       0x000008e4   Zero   RW         3357    .bss                adc.o
    0x20004784        -       0x00000800   Zero   RW         3734    .bss                distance_measure.o
    0x20004f84        -       0x0000029f   Zero   RW         4397    .bss                system.o
    0x20005223   0x0002ba6c   0x00000001   PAD
    0x20005224        -       0x000004b8   Zero   RW         4527    .bss                segger_rtt.o
    0x200056dc   0x0002ba6c   0x00000004   PAD
    0x200056e0        -       0x00000600   Zero   RW           83    STACK               startup_hc32f46x.o



  Load Region LR_IROM2 (Base: 0x03000c00, Size: 0x00000000, Max: 0x000003c0, ABSOLUTE)

    Execution Region ER_IROM2 (Exec base: 0x03000c00, Load base: 0x03000c00, Size: 0x00000000, Max: 0x000003c0, ABSOLUTE)

    **** No section assigned to this execution region ****

