
========================================================================

** ELF Header Information

    File Name: D:\cccc2020\CODE\workspace\bfsk_pt32\embedded\test_uart\MDK\output\ramcode\ramcode.axf

    Machine class: ELFCLASS32 (32-bit)
    Data encoding: ELFDATA2LSB (Little endian)
    Header version: EV_CURRENT (Current version)
    Operating System ABI: none
    ABI Version: 0
    File Type: ET_EXEC (Executable) (2)
    Machine: EM_ARM (ARM)

    Image Entry point: 0x20000131
    Flags: EF_ARM_HASENTRY + EF_ARM_ABI_FLOAT_SOFT (0x05000202)

    ARM ELF revision: 5 (ABI version 2)

    Conforms to Soft float procedure-call standard

    Built with
    Component: ARM Compiler 6.14.1 Tool: armasm [5db06d00]
    Component: ARM Compiler 6.14.1 Tool: armlink [5db06d00]

    Header size: 52 bytes (0x34)
    Program header entry size: 32 bytes (0x20)
    Section header entry size: 40 bytes (0x28)

    Program header entries: 1
    Section header entries: 16

    Program header offset: 66088 (0x00010228)
    Section header offset: 66120 (0x00010248)

    Section header string table index: 15

========================================================================

** Program header #0 (PT_LOAD) [PF_X + PF_W + PF_R + PF_ARM_ENTRY]
    Size : 8712 bytes (3448 bytes in file)
    Virtual address: 0x20000000 (Alignment 8)


========================================================================

** Section #1 'ER_IROM1' (SHT_PROGBITS) [SHF_ALLOC + SHF_EXECINSTR]
    Size   : 3428 bytes (alignment 4)
    Address: 0x20000000

    $d.realdata
    RESET
    __Vectors
        0x20000000:    200114a0    ...     DCD    536941728
        0x20000004:    20000145    E..     DCD    536871237
        0x20000008:    200002bd    ...     DCD    536871613
        0x2000000c:    20000269    i..     DCD    536871529
        0x20000010:    20000151    Q..     DCD    536871249
        0x20000014:    20000153    S..     DCD    536871251
        0x20000018:    20000155    U..     DCD    536871253
        0x2000001c:    00000000    ....    DCD    0
        0x20000020:    00000000    ....    DCD    0
        0x20000024:    00000000    ....    DCD    0
        0x20000028:    00000000    ....    DCD    0
        0x2000002c:    200006e5    ...     DCD    536872677
        0x20000030:    20000159    Y..     DCD    536871257
        0x20000034:    00000000    ....    DCD    0
        0x20000038:    20000367    g..     DCD    536871783
        0x2000003c:    200006e9    ...     DCD    536872681
        0x20000040:    2000015f    _..     DCD    536871263
        0x20000044:    00000000    ....    DCD    0
        0x20000048:    00000000    ....    DCD    0
        0x2000004c:    20000369    i..     DCD    536871785
        0x20000050:    200001dd    ...     DCD    536871389
        0x20000054:    2000015f    _..     DCD    536871263
        0x20000058:    2000031d    ...     DCD    536871709
        0x2000005c:    2000031f    ...     DCD    536871711
        0x20000060:    20000321    !..     DCD    536871713
        0x20000064:    20000365    e..     DCD    536871781
        0x20000068:    00000000    ....    DCD    0
        0x2000006c:    200001b3    ...     DCD    536871347
        0x20000070:    00000000    ....    DCD    0
        0x20000074:    00000000    ....    DCD    0
        0x20000078:    00000000    ....    DCD    0
        0x2000007c:    00000000    ....    DCD    0
        0x20000080:    00000000    ....    DCD    0
        0x20000084:    00000000    ....    DCD    0
        0x20000088:    200001b1    ...     DCD    536871345
        0x2000008c:    00000000    ....    DCD    0
        0x20000090:    00000000    ....    DCD    0
        0x20000094:    00000000    ....    DCD    0
        0x20000098:    00000000    ....    DCD    0
        0x2000009c:    00000000    ....    DCD    0
        0x200000a0:    200007c9    ...     DCD    536872905
        0x200000a4:    200007cb    ...     DCD    536872907
        0x200000a8:    00000000    ....    DCD    0
        0x200000ac:    00000000    ....    DCD    0
        0x200000b0:    200007cd    ...     DCD    536872909
        0x200000b4:    200007cf    ...     DCD    536872911
        0x200000b8:    200007d1    ...     DCD    536872913
        0x200000bc:    2000015f    _..     DCD    536871263
        0x200000c0:    00000000    ....    DCD    0
        0x200000c4:    00000000    ....    DCD    0
        0x200000c8:    00000000    ....    DCD    0
        0x200000cc:    200006e1    ...     DCD    536872673
        0x200000d0:    200006e3    ...     DCD    536872675
        0x200000d4:    200007d5    ...     DCD    536872917
        0x200000d8:    200007d7    ...     DCD    536872919
        0x200000dc:    200007d9    ...     DCD    536872921
        0x200000e0:    00000000    ....    DCD    0
        0x200000e4:    00000000    ....    DCD    0
        0x200000e8:    00000000    ....    DCD    0
        0x200000ec:    00000000    ....    DCD    0
        0x200000f0:    00000000    ....    DCD    0
        0x200000f4:    00000000    ....    DCD    0
        0x200000f8:    00000000    ....    DCD    0
        0x200000fc:    00000000    ....    DCD    0
        0x20000100:    00000000    ....    DCD    0
        0x20000104:    2000015f    _..     DCD    536871263
        0x20000108:    00000000    ....    DCD    0
        0x2000010c:    2000015f    _..     DCD    536871263
        0x20000110:    00000000    ....    DCD    0
        0x20000114:    00000000    ....    DCD    0
        0x20000118:    00000000    ....    DCD    0
        0x2000011c:    00000000    ....    DCD    0
        0x20000120:    00000000    ....    DCD    0
        0x20000124:    200007d3    ...     DCD    536872915
        0x20000128:    00000000    ....    DCD    0
        0x2000012c:    2000015f    _..     DCD    536871263
    $t
    .ARM.Collect$$$$00000000
    .ARM.Collect$$$$00000001
    __Vectors_End
    __main
    _main_stk
        0x20000130:    f8dfd00c    ....    LDR      sp,__lit__00000000 ; [0x20000140] = 0x200114a0
    .ARM.Collect$$$$00000004
    _main_scatterload
        0x20000134:    f000f82a    ..*.    BL       __scatterload ; 0x2000018c
    .ARM.Collect$$$$00000008
    .ARM.Collect$$$$0000000A
    .ARM.Collect$$$$0000000B
    __main_after_scatterload
    _main_clock
    _main_cpp_init
    _main_init
        0x20000138:    4800        .H      LDR      r0,[pc,#0] ; [0x2000013c] = 0x20000be9
        0x2000013a:    4700        .G      BX       r0
    $d
        0x2000013c:    20000be9    ...     DCD    536873961
    .ARM.Collect$$$$00002712
    __lit__00000000
    .ARM.Collect$$$$0000000D
    .ARM.Collect$$$$0000000F
    __rt_final_cpp
    __rt_final_exit
        0x20000140:    200114a0    ...     DCD    536941728
    $t
    .text
    Reset_Handler
        0x20000144:    4806        .H      LDR      r0,[pc,#24] ; [0x20000160] = 0x20000735
        0x20000146:    4780        .G      BLX      r0
        0x20000148:    4806        .H      LDR      r0,[pc,#24] ; [0x20000164] = 0x20000131
        0x2000014a:    4700        .G      BX       r0
        0x2000014c:    e7fe        ..      B        0x2000014c ; Reset_Handler + 8
        0x2000014e:    e7fe        ..      B        0x2000014e ; Reset_Handler + 10
    MemManage_Handler
        0x20000150:    e7fe        ..      B        MemManage_Handler ; 0x20000150
    BusFault_Handler
        0x20000152:    e7fe        ..      B        BusFault_Handler ; 0x20000152
    UsageFault_Handler
        0x20000154:    e7fe        ..      B        UsageFault_Handler ; 0x20000154
        0x20000156:    e7fe        ..      B        0x20000156 ; UsageFault_Handler + 2
    DebugMon_Handler
        0x20000158:    e7fe        ..      B        DebugMon_Handler ; 0x20000158
        0x2000015a:    e7fe        ..      B        0x2000015a ; DebugMon_Handler + 2
        0x2000015c:    e7fe        ..      B        0x2000015c ; DebugMon_Handler + 4
    AES_Handler
    I2C_Handler
    QSPI_Handler
    RCC_Handler
    USB11_Handler
    WDG_Handler
        0x2000015e:    e7fe        ..      B        AES_Handler ; 0x2000015e
    $d
        0x20000160:    20000735    5..     DCD    536872757
        0x20000164:    20000131    1..     DCD    536871217
    $t
    .text
    __aeabi_memcpy
    __aeabi_memcpy4
    __aeabi_memcpy8
        0x20000168:    ea400301    @...    ORR      r3,r0,r1
        0x2000016c:    079b        ..      LSLS     r3,r3,#30
        0x2000016e:    d003        ..      BEQ      0x20000178 ; __aeabi_memcpy + 16
        0x20000170:    e009        ..      B        0x20000186 ; __aeabi_memcpy + 30
        0x20000172:    c908        ..      LDM      r1!,{r3}
        0x20000174:    1f12        ..      SUBS     r2,r2,#4
        0x20000176:    c008        ..      STM      r0!,{r3}
        0x20000178:    2a04        .*      CMP      r2,#4
        0x2000017a:    d2fa        ..      BCS      0x20000172 ; __aeabi_memcpy + 10
        0x2000017c:    e003        ..      B        0x20000186 ; __aeabi_memcpy + 30
        0x2000017e:    f8113b01    ...;    LDRB     r3,[r1],#1
        0x20000182:    f8003b01    ...;    STRB     r3,[r0],#1
        0x20000186:    1e52        R.      SUBS     r2,r2,#1
        0x20000188:    d2f9        ..      BCS      0x2000017e ; __aeabi_memcpy + 22
        0x2000018a:    4770        pG      BX       lr
    .text
    __scatterload
    __scatterload_rt2
        0x2000018c:    4c06        .L      LDR      r4,[pc,#24] ; [0x200001a8] = 0x20000d44
        0x2000018e:    4d07        .M      LDR      r5,[pc,#28] ; [0x200001ac] = 0x20000d64
        0x20000190:    e006        ..      B        0x200001a0 ; __scatterload + 20
        0x20000192:    68e0        .h      LDR      r0,[r4,#0xc]
        0x20000194:    f0400301    @...    ORR      r3,r0,#1
        0x20000198:    e8940007    ....    LDM      r4,{r0-r2}
        0x2000019c:    4798        .G      BLX      r3
        0x2000019e:    3410        .4      ADDS     r4,r4,#0x10
        0x200001a0:    42ac        .B      CMP      r4,r5
        0x200001a2:    d3f6        ..      BCC      0x20000192 ; __scatterload + 6
        0x200001a4:    f7ffffc8    ....    BL       __main_after_scatterload ; 0x20000138
    $d
        0x200001a8:    20000d44    D..     DCD    536874308
        0x200001ac:    20000d64    d..     DCD    536874340
    $t.16
    ADC_Handler
        0x200001b0:    4770        pG      BX       lr
    DMA_Handler
        0x200001b2:    4770        pG      BX       lr
    Delay_ms
        0x200001b4:    b081        ..      SUB      sp,sp,#4
        0x200001b6:    9000        ..      STR      r0,[sp,#0]
        0x200001b8:    4806        .H      LDR      r0,[pc,#24] ; [0x200001d4] = 0x20010024
        0x200001ba:    9900        ..      LDR      r1,[sp,#0]
        0x200001bc:    6001        .`      STR      r1,[r0,#0]
        0x200001be:    4906        .I      LDR      r1,[pc,#24] ; [0x200001d8] = 0xe000e010
        0x200001c0:    680a        .h      LDR      r2,[r1,#0]
        0x200001c2:    f0420201    B...    ORR      r2,r2,#1
        0x200001c6:    600a        .`      STR      r2,[r1,#0]
        0x200001c8:    6801        .h      LDR      r1,[r0,#0]
        0x200001ca:    2900        .)      CMP      r1,#0
        0x200001cc:    d1fc        ..      BNE      0x200001c8 ; Delay_ms + 20
        0x200001ce:    b001        ..      ADD      sp,sp,#4
        0x200001d0:    4770        pG      BX       lr
        0x200001d2:    bf00        ..      NOP      
    $d.1
    __arm_cp.0_0
        0x200001d4:    20010024    $..     DCD    536936484
    __arm_cp.0_1
        0x200001d8:    e000e010    ....    DCD    3758153744
    $t.8
    FLASH_Handler
        0x200001dc:    4770        pG      BX       lr
    GPIO_ClearITPendingBit
        0x200001de:    6381        .c      STR      r1,[r0,#0x38]
        0x200001e0:    4770        pG      BX       lr
    GPIO_ITConfig
        0x200001e2:    2320         #      MOVS     r3,#0x20
        0x200001e4:    2a00        .*      CMP      r2,#0
        0x200001e6:    bf08        ..      IT       EQ
        0x200001e8:    2324        $#      MOVEQ    r3,#0x24
        0x200001ea:    50c1        .P      STR      r1,[r0,r3]
        0x200001ec:    4770        pG      BX       lr
    GPIO_Init
        0x200001ee:    b510        ..      PUSH     {r4,lr}
        0x200001f0:    790b        .y      LDRB     r3,[r1,#4]
        0x200001f2:    680a        .h      LDR      r2,[r1,#0]
        0x200001f4:    1e5c        \.      SUBS     r4,r3,#1
        0x200001f6:    2c01        .,      CMP      r4,#1
        0x200001f8:    d805        ..      BHI      0x20000206 ; GPIO_Init + 24
        0x200001fa:    6102        .a      STR      r2,[r0,#0x10]
        0x200001fc:    2b02        .+      CMP      r3,#2
        0x200001fe:    bf0c        ..      ITE      EQ
        0x20000200:    6442        Bd      STREQ    r2,[r0,#0x44]
        0x20000202:    6482        .d      STRNE    r2,[r0,#0x48]
        0x20000204:    bd10        ..      POP      {r4,pc}
        0x20000206:    2b03        .+      CMP      r3,#3
        0x20000208:    6142        Ba      STR      r2,[r0,#0x14]
        0x2000020a:    d009        ..      BEQ      0x20000220 ; GPIO_Init + 50
        0x2000020c:    7949        Iy      LDRB     r1,[r1,#5]
        0x2000020e:    2902        .)      CMP      r1,#2
        0x20000210:    d004        ..      BEQ      0x2000021c ; GPIO_Init + 46
        0x20000212:    2901        .)      CMP      r1,#1
        0x20000214:    d005        ..      BEQ      0x20000222 ; GPIO_Init + 52
        0x20000216:    b919        ..      CBNZ     r1,0x20000220 ; GPIO_Init + 50
        0x20000218:    6502        .e      STR      r2,[r0,#0x50]
        0x2000021a:    e000        ..      B        0x2000021e ; GPIO_Init + 48
        0x2000021c:    64c2        .d      STR      r2,[r0,#0x4c]
        0x2000021e:    6402        .d      STR      r2,[r0,#0x40]
        0x20000220:    bd10        ..      POP      {r4,pc}
        0x20000222:    63c2        .c      STR      r2,[r0,#0x3c]
        0x20000224:    6502        .e      STR      r2,[r0,#0x50]
        0x20000226:    bd10        ..      POP      {r4,pc}
    GPIO_PinAFConfig
        0x20000228:    0049        I.      LSLS     r1,r1,#1
        0x2000022a:    fa02f101    ....    LSL      r1,r2,r1
        0x2000022e:    6982        .i      LDR      r2,[r0,#0x18]
        0x20000230:    4311        .C      ORRS     r1,r1,r2
        0x20000232:    6181        .a      STR      r1,[r0,#0x18]
        0x20000234:    4770        pG      BX       lr
    GPIO_SetBits
        0x20000236:    6842        Bh      LDR      r2,[r0,#4]
        0x20000238:    4311        .C      ORRS     r1,r1,r2
        0x2000023a:    6041        A`      STR      r1,[r0,#4]
        0x2000023c:    4770        pG      BX       lr
        0x2000023e:    0000        ..      MOVS     r0,r0
    GPIO_TriTypeConfig
        0x20000240:    2a04        .*      CMP      r2,#4
        0x20000242:    d810        ..      BHI      0x20000266 ; GPIO_TriTypeConfig + 38
        0x20000244:    e8dff002    ....    TBB      [pc,r2]
    $d.16
        0x20000248:    09070503    ....    DCD    151454979
        0x2000024c:    000c        ..      DCW    12
    $t.17
        0x2000024e:    6281        .b      STR      r1,[r0,#0x28]
        0x20000250:    e004        ..      B        0x2000025c ; GPIO_TriTypeConfig + 28
        0x20000252:    6281        .b      STR      r1,[r0,#0x28]
        0x20000254:    e005        ..      B        0x20000262 ; GPIO_TriTypeConfig + 34
        0x20000256:    6081        .`      STR      r1,[r0,#8]
        0x20000258:    4770        pG      BX       lr
        0x2000025a:    62c1        .b      STR      r1,[r0,#0x2c]
        0x2000025c:    6301        .c      STR      r1,[r0,#0x30]
        0x2000025e:    e001        ..      B        0x20000264 ; GPIO_TriTypeConfig + 36
        0x20000260:    62c1        .b      STR      r1,[r0,#0x2c]
        0x20000262:    6341        Ac      STR      r1,[r0,#0x34]
        0x20000264:    60c1        .`      STR      r1,[r0,#0xc]
        0x20000266:    4770        pG      BX       lr
    HardFault_Handler
        0x20000268:    e7fe        ..      B        HardFault_Handler ; 0x20000268
        0x2000026a:    0000        ..      MOVS     r0,r0
    LED_GPIO_Config
        0x2000026c:    b57c        |.      PUSH     {r2-r6,lr}
        0x2000026e:    2001        .       MOVS     r0,#1
        0x20000270:    4c34        4L      LDR      r4,[pc,#208] ; [0x20000344] = 0x40012000
        0x20000272:    466d        mF      MOV      r5,sp
        0x20000274:    4e0f        .N      LDR      r6,[pc,#60] ; [0x200002b4] = 0x200001ef
        0x20000276:    f8ad0004    ....    STRH     r0,[sp,#4]
        0x2000027a:    2040        @       MOVS     r0,#0x40
        0x2000027c:    4629        )F      MOV      r1,r5
        0x2000027e:    9000        ..      STR      r0,[sp,#0]
        0x20000280:    4620         F      MOV      r0,r4
        0x20000282:    47b0        .G      BLX      r6
        0x20000284:    2080        .       MOVS     r0,#0x80
        0x20000286:    4629        )F      MOV      r1,r5
        0x20000288:    9000        ..      STR      r0,[sp,#0]
        0x2000028a:    4620         F      MOV      r0,r4
        0x2000028c:    47b0        .G      BLX      r6
        0x2000028e:    f44f7080    O..p    MOV      r0,#0x100
        0x20000292:    4629        )F      MOV      r1,r5
        0x20000294:    9000        ..      STR      r0,[sp,#0]
        0x20000296:    4620         F      MOV      r0,r4
        0x20000298:    47b0        .G      BLX      r6
        0x2000029a:    4d07        .M      LDR      r5,[pc,#28] ; [0x200002b8] = 0x20000237
        0x2000029c:    4620         F      MOV      r0,r4
        0x2000029e:    2140        @!      MOVS     r1,#0x40
        0x200002a0:    47a8        .G      BLX      r5
        0x200002a2:    4620         F      MOV      r0,r4
        0x200002a4:    2180        .!      MOVS     r1,#0x80
        0x200002a6:    47a8        .G      BLX      r5
        0x200002a8:    4620         F      MOV      r0,r4
        0x200002aa:    f44f7180    O..q    MOV      r1,#0x100
        0x200002ae:    47a8        .G      BLX      r5
        0x200002b0:    bd7c        |.      POP      {r2-r6,pc}
        0x200002b2:    bf00        ..      NOP      
    $d.7
    __arm_cp.3_1
        0x200002b4:    200001ef    ...     DCD    536871407
    __arm_cp.3_2
        0x200002b8:    20000237    7..     DCD    536871479
    $t.0
    NMI_Handler
        0x200002bc:    4770        pG      BX       lr
        0x200002be:    0000        ..      MOVS     r0,r0
    NVIC_Init
        0x200002c0:    b5b0        ..      PUSH     {r4,r5,r7,lr}
        0x200002c2:    7883        .x      LDRB     r3,[r0,#2]
        0x200002c4:    7802        .x      LDRB     r2,[r0,#0]
        0x200002c6:    4914        .I      LDR      r1,[pc,#80] ; [0x20000318] = 0xe000e100
        0x200002c8:    b1eb        ..      CBZ      r3,0x20000306 ; NVIC_Init + 70
        0x200002ca:    2318        .#      MOVS     r3,#0x18
        0x200002cc:    24ff        .$      MOVS     r4,#0xff
        0x200002ce:    ea0303c2    ....    AND      r3,r3,r2,LSL #3
        0x200002d2:    eb010292    ....    ADD      r2,r1,r2,LSR #2
        0x200002d6:    f8925300    ...S    LDRB     r5,[r2,#0x300]
        0x200002da:    409c        .@      LSLS     r4,r4,r3
        0x200002dc:    ea250404    %...    BIC      r4,r5,r4
        0x200002e0:    7845        Ex      LDRB     r5,[r0,#1]
        0x200002e2:    01ad        ..      LSLS     r5,r5,#6
        0x200002e4:    b2ed        ..      UXTB     r5,r5
        0x200002e6:    fa05f303    ....    LSL      r3,r5,r3
        0x200002ea:    4323        #C      ORRS     r3,r3,r4
        0x200002ec:    f8823300    ...3    STRB     r3,[r2,#0x300]
        0x200002f0:    2301        .#      MOVS     r3,#1
        0x200002f2:    7800        .x      LDRB     r0,[r0,#0]
        0x200002f4:    f000021f    ....    AND      r2,r0,#0x1f
        0x200002f8:    f3c01042    ..B.    UBFX     r0,r0,#5,#3
        0x200002fc:    fa03f202    ....    LSL      r2,r3,r2
        0x20000300:    f8412020    A.      STR      r2,[r1,r0,LSL #2]
        0x20000304:    bdb0        ..      POP      {r4,r5,r7,pc}
        0x20000306:    f002001f    ....    AND      r0,r2,#0x1f
        0x2000030a:    2201        ."      MOVS     r2,#1
        0x2000030c:    fa02f000    ....    LSL      r0,r2,r0
        0x20000310:    f8c10080    ....    STR      r0,[r1,#0x80]
        0x20000314:    bdb0        ..      POP      {r4,r5,r7,pc}
        0x20000316:    bf00        ..      NOP      
    $d.1
    __arm_cp.0_0
        0x20000318:    e000e100    ....    DCD    3758153984
    $t.9
    PA_Handler
        0x2000031c:    4770        pG      BX       lr
    PB_Handler
        0x2000031e:    4770        pG      BX       lr
    PC_Handler
        0x20000320:    b510        ..      PUSH     {r4,lr}
        0x20000322:    4c08        .L      LDR      r4,[pc,#32] ; [0x20000344] = 0x40012000
        0x20000324:    f44f6180    O..a    MOV      r1,#0x400
        0x20000328:    4620         F      MOV      r0,r4
        0x2000032a:    f7ffff58    ..X.    BL       GPIO_ClearITPendingBit ; 0x200001de
        0x2000032e:    4620         F      MOV      r0,r4
        0x20000330:    f44f6100    O..a    MOV      r1,#0x800
        0x20000334:    f7ffff53    ..S.    BL       GPIO_ClearITPendingBit ; 0x200001de
        0x20000338:    a103        ..      ADR      r1,{pc}+0x10 ; 0x20000348
        0x2000033a:    2000        .       MOVS     r0,#0
        0x2000033c:    e8bd4010    ...@    POP      {r4,lr}
        0x20000340:    f000b85c    ..\.    B.W      SEGGER_RTT_printf ; 0x200003fc
    $d.12
    __arm_cp.10_0
        0x20000344:    40012000    . .@    DCD    1073815552
        0x20000348:    72657375    user    DCD    1919251317
        0x2000034c:    74756220     but    DCD    1953849888
        0x20000350:    206e6f74    ton     DCD    544108404
        0x20000354:    73657270    pres    DCD    1936028272
        0x20000358:    21646573    sed!    DCD    560227699
        0x2000035c:    0a0d2121    !!..    DCD    168632609
        0x20000360:    00000000    ....    DCD    0
    $t.13
    PD_Handler
        0x20000364:    4770        pG      BX       lr
    PendSV_Handler
        0x20000366:    4770        pG      BX       lr
    RTC_Handler
        0x20000368:    4770        pG      BX       lr
    SEGGER_RTT_Init
        0x2000036a:    f000baef    ....    B.W      _DoInit ; 0x2000094c
        0x2000036e:    0000        ..      MOVS     r0,r0
    SEGGER_RTT_Write
        0x20000370:    b5f8        ..      PUSH     {r3-r7,lr}
        0x20000372:    4606        .F      MOV      r6,r0
        0x20000374:    4820         H      LDR      r0,[pc,#128] ; [0x200003f8] = 0x20010028
        0x20000376:    4614        .F      MOV      r4,r2
        0x20000378:    460d        .F      MOV      r5,r1
        0x2000037a:    7800        .x      LDRB     r0,[r0,#0]
        0x2000037c:    b908        ..      CBNZ     r0,0x20000382 ; SEGGER_RTT_Write + 18
        0x2000037e:    f000fae5    ....    BL       _DoInit ; 0x2000094c
        0x20000382:    f3ef8711    ....    MRS      r7,BASEPRI
        0x20000386:    f04f0120    O. .    MOV      r1,#0x20
        0x2000038a:    f3818811    ....    MSR      BASEPRI,r1
        0x2000038e:    4630        0F      MOV      r0,r6
        0x20000390:    4622        "F      MOV      r2,r4
        0x20000392:    4629        )F      MOV      r1,r5
        0x20000394:    f000f804    ....    BL       SEGGER_RTT_WriteNoLock ; 0x200003a0
        0x20000398:    f3878811    ....    MSR      BASEPRI,r7
        0x2000039c:    bdf8        ..      POP      {r3-r7,pc}
        0x2000039e:    bf00        ..      NOP      
    SEGGER_RTT_WriteNoLock
        0x200003a0:    b570        p.      PUSH     {r4-r6,lr}
        0x200003a2:    460d        .F      MOV      r5,r1
        0x200003a4:    4914        .I      LDR      r1,[pc,#80] ; [0x200003f8] = 0x20010028
        0x200003a6:    eb000040    ..@.    ADD      r0,r0,r0,LSL #1
        0x200003aa:    4614        .F      MOV      r4,r2
        0x200003ac:    eb0101c0    ....    ADD      r1,r1,r0,LSL #3
        0x200003b0:    6ac8        .j      LDR      r0,[r1,#0x2c]
        0x200003b2:    f1010618    ....    ADD      r6,r1,#0x18
        0x200003b6:    2802        .(      CMP      r0,#2
        0x200003b8:    d009        ..      BEQ      0x200003ce ; SEGGER_RTT_WriteNoLock + 46
        0x200003ba:    2801        .(      CMP      r0,#1
        0x200003bc:    d00e        ..      BEQ      0x200003dc ; SEGGER_RTT_WriteNoLock + 60
        0x200003be:    b920         .      CBNZ     r0,0x200003ca ; SEGGER_RTT_WriteNoLock + 42
        0x200003c0:    4630        0F      MOV      r0,r6
        0x200003c2:    f000faf5    ....    BL       _GetAvailWriteSpace ; 0x200009b0
        0x200003c6:    42a0        .B      CMP      r0,r4
        0x200003c8:    d20e        ..      BCS      0x200003e8 ; SEGGER_RTT_WriteNoLock + 72
        0x200003ca:    2400        .$      MOVS     r4,#0
        0x200003cc:    e011        ..      B        0x200003f2 ; SEGGER_RTT_WriteNoLock + 82
        0x200003ce:    4630        0F      MOV      r0,r6
        0x200003d0:    4629        )F      MOV      r1,r5
        0x200003d2:    4622        "F      MOV      r2,r4
        0x200003d4:    e8bd4070    ..p@    POP      {r4-r6,lr}
        0x200003d8:    f000bb86    ....    B.W      _WriteBlocking ; 0x20000ae8
        0x200003dc:    4630        0F      MOV      r0,r6
        0x200003de:    f000fae7    ....    BL       _GetAvailWriteSpace ; 0x200009b0
        0x200003e2:    42a0        .B      CMP      r0,r4
        0x200003e4:    bf38        8.      IT       CC
        0x200003e6:    4604        .F      MOVCC    r4,r0
        0x200003e8:    4630        0F      MOV      r0,r6
        0x200003ea:    4629        )F      MOV      r1,r5
        0x200003ec:    4622        "F      MOV      r2,r4
        0x200003ee:    f000fbad    ....    BL       _WriteNoCheck ; 0x20000b4c
        0x200003f2:    4620         F      MOV      r0,r4
        0x200003f4:    bd70        p.      POP      {r4-r6,pc}
        0x200003f6:    bf00        ..      NOP      
    $d.16
    __arm_cp.10_0
        0x200003f8:    20010028    (..     DCD    536936488
    $t.8
    SEGGER_RTT_printf
        0x200003fc:    b082        ..      SUB      sp,sp,#8
        0x200003fe:    b5e0        ..      PUSH     {r5-r7,lr}
        0x20000400:    e9cd2304    ...#    STRD     r2,r3,[sp,#0x10]
        0x20000404:    aa04        ..      ADD      r2,sp,#0x10
        0x20000406:    9201        ..      STR      r2,[sp,#4]
        0x20000408:    aa01        ..      ADD      r2,sp,#4
        0x2000040a:    f000f805    ....    BL       SEGGER_RTT_vprintf ; 0x20000418
        0x2000040e:    e8bd408c    ...@    POP      {r2,r3,r7,lr}
        0x20000412:    b002        ..      ADD      sp,sp,#8
        0x20000414:    4770        pG      BX       lr
        0x20000416:    0000        ..      MOVS     r0,r0
    SEGGER_RTT_vprintf
        0x20000418:    e92d4ff0    -..O    PUSH     {r4-r11,lr}
        0x2000041c:    f2ad4d2c    ..,M    SUB      sp,sp,#0x42c
        0x20000420:    9004        ..      STR      r0,[sp,#0x10]
        0x20000422:    f8cd0428    ..(.    STR      r0,[sp,#0x428]
        0x20000426:    f44f6080    O..`    MOV      r0,#0x400
        0x2000042a:    f04f0a00    O...    MOV      r10,#0
        0x2000042e:    4693        .F      MOV      r11,r2
        0x20000430:    460f        .F      MOV      r7,r1
        0x20000432:    f50d6683    ...f    ADD      r6,sp,#0x418
        0x20000436:    f04f0908    O...    MOV      r9,#8
        0x2000043a:    2400        .$      MOVS     r4,#0
        0x2000043c:    f8cd041c    ....    STR      r0,[sp,#0x41c]
        0x20000440:    a806        ..      ADD      r0,sp,#0x18
        0x20000442:    f8cda420    .. .    STR      r10,[sp,#0x420]
        0x20000446:    f8cda424    ..$.    STR      r10,[sp,#0x424]
        0x2000044a:    f8cd0418    ....    STR      r0,[sp,#0x418]
        0x2000044e:    463d        =F      MOV      r5,r7
        0x20000450:    f8151b01    ....    LDRB     r1,[r5],#1
        0x20000454:    2925        %)      CMP      r1,#0x25
        0x20000456:    d007        ..      BEQ      0x20000468 ; SEGGER_RTT_vprintf + 80
        0x20000458:    2900        .)      CMP      r1,#0
        0x2000045a:    f0008127    ..'.    BEQ.W    0x200006ac ; SEGGER_RTT_vprintf + 660
        0x2000045e:    4630        0F      MOV      r0,r6
        0x20000460:    f000fb22    ..".    BL       _StoreChar ; 0x20000aa8
        0x20000464:    462f        /F      MOV      r7,r5
        0x20000466:    e11a        ..      B        0x2000069e ; SEGGER_RTT_vprintf + 646
        0x20000468:    1cb9        ..      ADDS     r1,r7,#2
        0x2000046a:    f04f0800    O...    MOV      r8,#0
        0x2000046e:    782a        *x      LDRB     r2,[r5,#0]
        0x20000470:    2a23        #*      CMP      r2,#0x23
        0x20000472:    d008        ..      BEQ      0x20000486 ; SEGGER_RTT_vprintf + 110
        0x20000474:    2001        .       MOVS     r0,#1
        0x20000476:    2a2b        +*      CMP      r2,#0x2b
        0x20000478:    d007        ..      BEQ      0x2000048a ; SEGGER_RTT_vprintf + 114
        0x2000047a:    2a2d        -*      CMP      r2,#0x2d
        0x2000047c:    d006        ..      BEQ      0x2000048c ; SEGGER_RTT_vprintf + 116
        0x2000047e:    2a30        0*      CMP      r2,#0x30
        0x20000480:    d109        ..      BNE      0x20000496 ; SEGGER_RTT_vprintf + 126
        0x20000482:    2002        .       MOVS     r0,#2
        0x20000484:    e002        ..      B        0x2000048c ; SEGGER_RTT_vprintf + 116
        0x20000486:    2008        .       MOVS     r0,#8
        0x20000488:    e000        ..      B        0x2000048c ; SEGGER_RTT_vprintf + 116
        0x2000048a:    2004        .       MOVS     r0,#4
        0x2000048c:    ea480800    H...    ORR      r8,r8,r0
        0x20000490:    3101        .1      ADDS     r1,#1
        0x20000492:    3501        .5      ADDS     r5,#1
        0x20000494:    e7eb        ..      B        0x2000046e ; SEGGER_RTT_vprintf + 86
        0x20000496:    2000        .       MOVS     r0,#0
        0x20000498:    f1a20330    ..0.    SUB      r3,r2,#0x30
        0x2000049c:    2b09        .+      CMP      r3,#9
        0x2000049e:    d807        ..      BHI      0x200004b0 ; SEGGER_RTT_vprintf + 152
        0x200004a0:    eb000080    ....    ADD      r0,r0,r0,LSL #2
        0x200004a4:    eb020040    ..@.    ADD      r0,r2,r0,LSL #1
        0x200004a8:    f8112b01    ...+    LDRB     r2,[r1],#1
        0x200004ac:    3830        08      SUBS     r0,r0,#0x30
        0x200004ae:    e7f3        ..      B        0x20000498 ; SEGGER_RTT_vprintf + 128
        0x200004b0:    2a2e        .*      CMP      r2,#0x2e
        0x200004b2:    d10d        ..      BNE      0x200004d0 ; SEGGER_RTT_vprintf + 184
        0x200004b4:    2500        .%      MOVS     r5,#0
        0x200004b6:    780a        .x      LDRB     r2,[r1,#0]
        0x200004b8:    f1a20330    ..0.    SUB      r3,r2,#0x30
        0x200004bc:    2b09        .+      CMP      r3,#9
        0x200004be:    d809        ..      BHI      0x200004d4 ; SEGGER_RTT_vprintf + 188
        0x200004c0:    eb050385    ....    ADD      r3,r5,r5,LSL #2
        0x200004c4:    3101        .1      ADDS     r1,#1
        0x200004c6:    eb020243    ..C.    ADD      r2,r2,r3,LSL #1
        0x200004ca:    f1a20530    ..0.    SUB      r5,r2,#0x30
        0x200004ce:    e7f2        ..      B        0x200004b6 ; SEGGER_RTT_vprintf + 158
        0x200004d0:    3901        .9      SUBS     r1,#1
        0x200004d2:    2500        .%      MOVS     r5,#0
        0x200004d4:    1c4f        O.      ADDS     r7,r1,#1
        0x200004d6:    f1a20163    ..c.    SUB      r1,r2,#0x63
        0x200004da:    2909        .)      CMP      r1,#9
        0x200004dc:    d809        ..      BHI      0x200004f2 ; SEGGER_RTT_vprintf + 218
        0x200004de:    e8dff001    ....    TBB      [pc,r1]
    $d.1
        0x200004e2:    554d        MU      DCW    21837
        0x200004e4:    05dedede    ....    DCD    98492126
        0x200004e8:    05dedede    ....    DCD    98492126
    $t.2
        0x200004ec:    f8172b01    ...+    LDRB     r2,[r7],#1
        0x200004f0:    e7f1        ..      B        0x200004d6 ; SEGGER_RTT_vprintf + 190
        0x200004f2:    f1a20170    ..p.    SUB      r1,r2,#0x70
        0x200004f6:    2908        .)      CMP      r1,#8
        0x200004f8:    d812        ..      BHI      0x20000520 ; SEGGER_RTT_vprintf + 264
        0x200004fa:    e8dff001    ....    TBB      [pc,r1]
    $d.3
        0x200004fe:    d005        ..      DCW    53253
        0x20000500:    31d01dd0    ...1    DCD    835722704
        0x20000504:    0016d0d0    ....    DCD    1495248
    $t.4
        0x20000508:    f8db0000    ....    LDR      r0,[r11,#0]
        0x2000050c:    2210        ."      MOVS     r2,#0x10
        0x2000050e:    2308        .#      MOVS     r3,#8
        0x20000510:    1d01        ..      ADDS     r1,r0,#4
        0x20000512:    f8cb1000    ....    STR      r1,[r11,#0]
        0x20000516:    6801        .h      LDR      r1,[r0,#0]
        0x20000518:    4630        0F      MOV      r0,r6
        0x2000051a:    e9cd9a00    ....    STRD     r9,r10,[sp,#0]
        0x2000051e:    e02a        *.      B        0x20000576 ; SEGGER_RTT_vprintf + 350
        0x20000520:    2a25        %*      CMP      r2,#0x25
        0x20000522:    d05f        _.      BEQ      0x200005e4 ; SEGGER_RTT_vprintf + 460
        0x20000524:    2a58        X*      CMP      r2,#0x58
        0x20000526:    f04080ba    @...    BNE.W    0x2000069e ; SEGGER_RTT_vprintf + 646
        0x2000052a:    f8db1000    ....    LDR      r1,[r11,#0]
        0x2000052e:    1d0a        ..      ADDS     r2,r1,#4
        0x20000530:    f8cb2000    ...     STR      r2,[r11,#0]
        0x20000534:    2210        ."      MOVS     r2,#0x10
        0x20000536:    e019        ..      B        0x2000056c ; SEGGER_RTT_vprintf + 340
        0x20000538:    f8db0000    ....    LDR      r0,[r11,#0]
        0x2000053c:    1d01        ..      ADDS     r1,r0,#4
        0x2000053e:    f8cb1000    ....    STR      r1,[r11,#0]
        0x20000542:    6804        .h      LDR      r4,[r0,#0]
        0x20000544:    7821        !x      LDRB     r1,[r4,#0]
        0x20000546:    2900        .)      CMP      r1,#0
        0x20000548:    f00080a9    ....    BEQ.W    0x2000069e ; SEGGER_RTT_vprintf + 646
        0x2000054c:    4630        0F      MOV      r0,r6
        0x2000054e:    f000faab    ....    BL       _StoreChar ; 0x20000aa8
        0x20000552:    f8dd0424    ..$.    LDR      r0,[sp,#0x424]
        0x20000556:    3401        .4      ADDS     r4,#1
        0x20000558:    f1b03fff    ...?    CMP      r0,#0xffffffff
        0x2000055c:    dcf2        ..      BGT      0x20000544 ; SEGGER_RTT_vprintf + 300
        0x2000055e:    e09e        ..      B        0x2000069e ; SEGGER_RTT_vprintf + 646
        0x20000560:    f8db1000    ....    LDR      r1,[r11,#0]
        0x20000564:    1d0a        ..      ADDS     r2,r1,#4
        0x20000566:    f8cb2000    ...     STR      r2,[r11,#0]
        0x2000056a:    220a        ."      MOVS     r2,#0xa
        0x2000056c:    6809        .h      LDR      r1,[r1,#0]
        0x2000056e:    e9cd0800    ....    STRD     r0,r8,[sp,#0]
        0x20000572:    4630        0F      MOV      r0,r6
        0x20000574:    462b        +F      MOV      r3,r5
        0x20000576:    f000fa25    ..%.    BL       _PrintUnsigned ; 0x200009c4
        0x2000057a:    e090        ..      B        0x2000069e ; SEGGER_RTT_vprintf + 646
        0x2000057c:    f8db0000    ....    LDR      r0,[r11,#0]
        0x20000580:    1d01        ..      ADDS     r1,r0,#4
        0x20000582:    f8cb1000    ....    STR      r1,[r11,#0]
        0x20000586:    7801        .x      LDRB     r1,[r0,#0]
        0x20000588:    4630        0F      MOV      r0,r6
        0x2000058a:    e02d        -.      B        0x200005e8 ; SEGGER_RTT_vprintf + 464
        0x2000058c:    f8db1000    ....    LDR      r1,[r11,#0]
        0x20000590:    f8cdb014    ....    STR      r11,[sp,#0x14]
        0x20000594:    f04f0a01    O...    MOV      r10,#1
        0x20000598:    1d0a        ..      ADDS     r2,r1,#4
        0x2000059a:    f8cb2000    ...     STR      r2,[r11,#0]
        0x2000059e:    f8d1b000    ....    LDR      r11,[r1,#0]
        0x200005a2:    4659        YF      MOV      r1,r11
        0x200005a4:    f1cb0200    ....    RSB      r2,r11,#0
        0x200005a8:    f1bb0f00    ....    CMP      r11,#0
        0x200005ac:    bf48        H.      IT       MI
        0x200005ae:    f1cb0100    ....    RSBMI    r1,r11,#0
        0x200005b2:    9202        ..      STR      r2,[sp,#8]
        0x200005b4:    220a        ."      MOVS     r2,#0xa
        0x200005b6:    290a        .)      CMP      r1,#0xa
        0x200005b8:    d304        ..      BCC      0x200005c4 ; SEGGER_RTT_vprintf + 428
        0x200005ba:    fbb1f1f2    ....    UDIV     r1,r1,r2
        0x200005be:    f10a0a01    ....    ADD      r10,r10,#1
        0x200005c2:    e7f8        ..      B        0x200005b6 ; SEGGER_RTT_vprintf + 414
        0x200005c4:    45aa        .E      CMP      r10,r5
        0x200005c6:    bf38        8.      IT       CC
        0x200005c8:    46aa        .F      MOVCC    r10,r5
        0x200005ca:    b180        ..      CBZ      r0,0x200005ee ; SEGGER_RTT_vprintf + 470
        0x200005cc:    2100        .!      MOVS     r1,#0
        0x200005ce:    f1bb0f00    ....    CMP      r11,#0
        0x200005d2:    f0080204    ....    AND      r2,r8,#4
        0x200005d6:    bf48        H.      IT       MI
        0x200005d8:    2101        .!      MOVMI    r1,#1
        0x200005da:    ea410192    A...    ORR      r1,r1,r2,LSR #2
        0x200005de:    eba00901    ....    SUB      r9,r0,r1
        0x200005e2:    e006        ..      B        0x200005f2 ; SEGGER_RTT_vprintf + 474
        0x200005e4:    4630        0F      MOV      r0,r6
        0x200005e6:    2125        %!      MOVS     r1,#0x25
        0x200005e8:    f000fa5e    ..^.    BL       _StoreChar ; 0x20000aa8
        0x200005ec:    e057        W.      B        0x2000069e ; SEGGER_RTT_vprintf + 646
        0x200005ee:    f04f0900    O...    MOV      r9,#0
        0x200005f2:    f0180002    ....    ANDS     r0,r8,#2
        0x200005f6:    9003        ..      STR      r0,[sp,#0xc]
        0x200005f8:    d00a        ..      BEQ      0x20000610 ; SEGGER_RTT_vprintf + 504
        0x200005fa:    b94d        M.      CBNZ     r5,0x20000610 ; SEGGER_RTT_vprintf + 504
        0x200005fc:    2c00        .,      CMP      r4,#0
        0x200005fe:    d448        H.      BMI      0x20000692 ; SEGGER_RTT_vprintf + 634
        0x20000600:    f1bb0f00    ....    CMP      r11,#0
        0x20000604:    d417        ..      BMI      0x20000636 ; SEGGER_RTT_vprintf + 542
        0x20000606:    ea5f7048    _.Hp    LSLS     r0,r8,#29
        0x2000060a:    d417        ..      BMI      0x2000063c ; SEGGER_RTT_vprintf + 548
        0x2000060c:    465c        \F      MOV      r4,r11
        0x2000060e:    e01a        ..      B        0x20000646 ; SEGGER_RTT_vprintf + 558
        0x20000610:    ea5f70c8    _..p    LSLS     r0,r8,#31
        0x20000614:    d1f2        ..      BNE      0x200005fc ; SEGGER_RTT_vprintf + 484
        0x20000616:    f1b90f00    ....    CMP      r9,#0
        0x2000061a:    d0ef        ..      BEQ      0x200005fc ; SEGGER_RTT_vprintf + 484
        0x2000061c:    45ca        .E      CMP      r10,r9
        0x2000061e:    d2ed        ..      BCS      0x200005fc ; SEGGER_RTT_vprintf + 484
        0x20000620:    4630        0F      MOV      r0,r6
        0x20000622:    2120         !      MOVS     r1,#0x20
        0x20000624:    f000fa40    ..@.    BL       _StoreChar ; 0x20000aa8
        0x20000628:    f8dd4424    ..$D    LDR      r4,[sp,#0x424]
        0x2000062c:    f1a90901    ....    SUB      r9,r9,#1
        0x20000630:    2c00        .,      CMP      r4,#0
        0x20000632:    d5f3        ..      BPL      0x2000061c ; SEGGER_RTT_vprintf + 516
        0x20000634:    e02d        -.      B        0x20000692 ; SEGGER_RTT_vprintf + 634
        0x20000636:    9c02        ..      LDR      r4,[sp,#8]
        0x20000638:    212d        -!      MOVS     r1,#0x2d
        0x2000063a:    e001        ..      B        0x20000640 ; SEGGER_RTT_vprintf + 552
        0x2000063c:    212b        +!      MOVS     r1,#0x2b
        0x2000063e:    465c        \F      MOV      r4,r11
        0x20000640:    4630        0F      MOV      r0,r6
        0x20000642:    f000fa31    ..1.    BL       _StoreChar ; 0x20000aa8
        0x20000646:    f8dd0424    ..$.    LDR      r0,[sp,#0x424]
        0x2000064a:    2800        .(      CMP      r0,#0
        0x2000064c:    d421        !.      BMI      0x20000692 ; SEGGER_RTT_vprintf + 634
        0x2000064e:    9803        ..      LDR      r0,[sp,#0xc]
        0x20000650:    b960        `.      CBNZ     r0,0x2000066c ; SEGGER_RTT_vprintf + 596
        0x20000652:    f8ddb014    ....    LDR      r11,[sp,#0x14]
        0x20000656:    4630        0F      MOV      r0,r6
        0x20000658:    4621        !F      MOV      r1,r4
        0x2000065a:    220a        ."      MOVS     r2,#0xa
        0x2000065c:    462b        +F      MOV      r3,r5
        0x2000065e:    f04f0a00    O...    MOV      r10,#0
        0x20000662:    e9cd9800    ....    STRD     r9,r8,[sp,#0]
        0x20000666:    f000f9ad    ....    BL       _PrintUnsigned ; 0x200009c4
        0x2000066a:    e016        ..      B        0x2000069a ; SEGGER_RTT_vprintf + 642
        0x2000066c:    f0080001    ....    AND      r0,r8,#1
        0x20000670:    4328        (C      ORRS     r0,r0,r5
        0x20000672:    d1ee        ..      BNE      0x20000652 ; SEGGER_RTT_vprintf + 570
        0x20000674:    f1b90f00    ....    CMP      r9,#0
        0x20000678:    d0eb        ..      BEQ      0x20000652 ; SEGGER_RTT_vprintf + 570
        0x2000067a:    45ca        .E      CMP      r10,r9
        0x2000067c:    d2e9        ..      BCS      0x20000652 ; SEGGER_RTT_vprintf + 570
        0x2000067e:    4630        0F      MOV      r0,r6
        0x20000680:    2130        0!      MOVS     r1,#0x30
        0x20000682:    f000fa11    ....    BL       _StoreChar ; 0x20000aa8
        0x20000686:    f8dd0424    ..$.    LDR      r0,[sp,#0x424]
        0x2000068a:    f1a90901    ....    SUB      r9,r9,#1
        0x2000068e:    2800        .(      CMP      r0,#0
        0x20000690:    d5f3        ..      BPL      0x2000067a ; SEGGER_RTT_vprintf + 610
        0x20000692:    f8ddb014    ....    LDR      r11,[sp,#0x14]
        0x20000696:    f04f0a00    O...    MOV      r10,#0
        0x2000069a:    f04f0908    O...    MOV      r9,#8
        0x2000069e:    f8dd4424    ..$D    LDR      r4,[sp,#0x424]
        0x200006a2:    f1b43fff    ...?    CMP      r4,#0xffffffff
        0x200006a6:    f73faed2    ?...    BGT      0x2000044e ; SEGGER_RTT_vprintf + 54
        0x200006aa:    e00e        ..      B        0x200006ca ; SEGGER_RTT_vprintf + 690
        0x200006ac:    2c01        .,      CMP      r4,#1
        0x200006ae:    db0b        ..      BLT      0x200006c8 ; SEGGER_RTT_vprintf + 688
        0x200006b0:    f8dd5420    .. T    LDR      r5,[sp,#0x420]
        0x200006b4:    b125        %.      CBZ      r5,0x200006c0 ; SEGGER_RTT_vprintf + 680
        0x200006b6:    9804        ..      LDR      r0,[sp,#0x10]
        0x200006b8:    a906        ..      ADD      r1,sp,#0x18
        0x200006ba:    462a        *F      MOV      r2,r5
        0x200006bc:    f7fffe58    ..X.    BL       SEGGER_RTT_Write ; 0x20000370
        0x200006c0:    442c        ,D      ADD      r4,r4,r5
        0x200006c2:    f8cd4424    ..$D    STR      r4,[sp,#0x424]
        0x200006c6:    e000        ..      B        0x200006ca ; SEGGER_RTT_vprintf + 690
        0x200006c8:    2400        .$      MOVS     r4,#0
        0x200006ca:    4620         F      MOV      r0,r4
        0x200006cc:    f20d4d2c    ..,M    ADD      sp,sp,#0x42c
        0x200006d0:    e8bd8ff0    ....    POP      {r4-r11,pc}
    SERIAL_PutChar
        0x200006d4:    496b        kI      LDR      r1,[pc,#428] ; [0x20000884] = 0x40004c00
        0x200006d6:    690a        .i      LDR      r2,[r1,#0x10]
        0x200006d8:    0512        ..      LSLS     r2,r2,#20
        0x200006da:    d4fc        ..      BMI      0x200006d6 ; SERIAL_PutChar + 2
        0x200006dc:    6008        .`      STR      r0,[r1,#0]
        0x200006de:    4770        pG      BX       lr
    SPI0_Handler
        0x200006e0:    4770        pG      BX       lr
    SPI1_Handler
        0x200006e2:    4770        pG      BX       lr
    SVC_Handler
        0x200006e4:    4770        pG      BX       lr
        0x200006e6:    0000        ..      MOVS     r0,r0
    SysTick_Handler
        0x200006e8:    4803        .H      LDR      r0,[pc,#12] ; [0x200006f8] = 0x20010024
        0x200006ea:    6801        .h      LDR      r1,[r0,#0]
        0x200006ec:    b111        ..      CBZ      r1,0x200006f4 ; SysTick_Handler + 12
        0x200006ee:    6801        .h      LDR      r1,[r0,#0]
        0x200006f0:    3901        .9      SUBS     r1,#1
        0x200006f2:    6001        .`      STR      r1,[r0,#0]
        0x200006f4:    4770        pG      BX       lr
        0x200006f6:    bf00        ..      NOP      
    $d.5
    __arm_cp.4_0
        0x200006f8:    20010024    $..     DCD    536936484
    $t.10
    SysTick_Init
        0x200006fc:    480a        .H      LDR      r0,[pc,#40] ; [0x20000728] = 0x20010004
        0x200006fe:    f44f717a    O.zq    MOV      r1,#0x3e8
        0x20000702:    6800        .h      LDR      r0,[r0,#0]
        0x20000704:    fbb0f0f1    ....    UDIV     r0,r0,r1
        0x20000708:    3801        .8      SUBS     r0,#1
        0x2000070a:    f1b07f80    ....    CMP      r0,#0x1000000
        0x2000070e:    d300        ..      BCC      0x20000712 ; SysTick_Init + 22
        0x20000710:    e7fe        ..      B        0x20000710 ; SysTick_Init + 20
        0x20000712:    4906        .I      LDR      r1,[pc,#24] ; [0x2000072c] = 0xe000e010
        0x20000714:    22c0        ."      MOVS     r2,#0xc0
        0x20000716:    6048        H`      STR      r0,[r1,#4]
        0x20000718:    4805        .H      LDR      r0,[pc,#20] ; [0x20000730] = 0xe000ed23
        0x2000071a:    7002        .p      STRB     r2,[r0,#0]
        0x2000071c:    2000        .       MOVS     r0,#0
        0x2000071e:    6088        .`      STR      r0,[r1,#8]
        0x20000720:    2007        .       MOVS     r0,#7
        0x20000722:    6008        .`      STR      r0,[r1,#0]
        0x20000724:    4770        pG      BX       lr
        0x20000726:    bf00        ..      NOP      
    $d.11
    __arm_cp.5_0
        0x20000728:    20010004    ...     DCD    536936452
    __arm_cp.5_1
        0x2000072c:    e000e010    ....    DCD    3758153744
    __arm_cp.5_2
        0x20000730:    e000ed23    #...    DCD    3758157091
    $t.2
    SystemInit
        0x20000734:    b570        p.      PUSH     {r4-r6,lr}
        0x20000736:    4c1c        .L      LDR      r4,[pc,#112] ; [0x200007a8] = 0x40005808
        0x20000738:    4d1c        .M      LDR      r5,[pc,#112] ; [0x200007ac] = 0x4002100c
        0x2000073a:    491e        .I      LDR      r1,[pc,#120] ; [0x200007b4] = 0x16e3600
        0x2000073c:    6b20         k      LDR      r0,[r4,#0x30]
        0x2000073e:    f0200001     ...    BIC      r0,r0,#1
        0x20000742:    6320         c      STR      r0,[r4,#0x30]
        0x20000744:    6ae0        .j      LDR      r0,[r4,#0x2c]
        0x20000746:    f0200001     ...    BIC      r0,r0,#1
        0x2000074a:    62e0        .b      STR      r0,[r4,#0x2c]
        0x2000074c:    6828        (h      LDR      r0,[r5,#0]
        0x2000074e:    f0200040     .@.    BIC      r0,r0,#0x40
        0x20000752:    6028        (`      STR      r0,[r5,#0]
        0x20000754:    4816        .H      LDR      r0,[pc,#88] ; [0x200007b0] = 0x20010008
        0x20000756:    6001        .`      STR      r1,[r0,#0]
        0x20000758:    4817        .H      LDR      r0,[pc,#92] ; [0x200007b8] = 0x1a018
        0x2000075a:    60e0        .`      STR      r0,[r4,#0xc]
        0x2000075c:    f6405011    @..P    MOV      r0,#0xd11
        0x20000760:    60a0        .`      STR      r0,[r4,#8]
        0x20000762:    68a0        .h      LDR      r0,[r4,#8]
        0x20000764:    f0400010    @...    ORR      r0,r0,#0x10
        0x20000768:    60a0        .`      STR      r0,[r4,#8]
        0x2000076a:    68a0        .h      LDR      r0,[r4,#8]
        0x2000076c:    f1b03fff    ...?    CMP      r0,#0xffffffff
        0x20000770:    dcfb        ..      BGT      0x2000076a ; SystemInit + 54
        0x20000772:    4e14        .N      LDR      r6,[pc,#80] ; [0x200007c4] = 0x2000092d
        0x20000774:    4811        .H      LDR      r0,[pc,#68] ; [0x200007bc] = 0x4000f800
        0x20000776:    4912        .I      LDR      r1,[pc,#72] ; [0x200007c0] = 0xa5a500f0
        0x20000778:    6001        .`      STR      r1,[r0,#0]
        0x2000077a:    47b0        .G      BLX      r6
        0x2000077c:    6828        (h      LDR      r0,[r5,#0]
        0x2000077e:    f64f71fc    O..q    MOV      r1,#0xfffc
        0x20000782:    4008        .@      ANDS     r0,r0,r1
        0x20000784:    3002        .0      ADDS     r0,#2
        0x20000786:    6028        (`      STR      r0,[r5,#0]
        0x20000788:    47b0        .G      BLX      r6
        0x2000078a:    6828        (h      LDR      r0,[r5,#0]
        0x2000078c:    f64f417f    O..A    MOV      r1,#0xfc7f
        0x20000790:    f4406080    @..`    ORR      r0,r0,#0x400
        0x20000794:    6028        (`      STR      r0,[r5,#0]
        0x20000796:    6828        (h      LDR      r0,[r5,#0]
        0x20000798:    4008        .@      ANDS     r0,r0,r1
        0x2000079a:    6028        (`      STR      r0,[r5,#0]
        0x2000079c:    47b0        .G      BLX      r6
        0x2000079e:    6820         h      LDR      r0,[r4,#0]
        0x200007a0:    f0400001    @...    ORR      r0,r0,#1
        0x200007a4:    6020         `      STR      r0,[r4,#0]
        0x200007a6:    bd70        p.      POP      {r4-r6,pc}
    $d.3
    __arm_cp.1_0
        0x200007a8:    40005808    .X.@    DCD    1073764360
    __arm_cp.1_1
        0x200007ac:    4002100c    ...@    DCD    1073877004
    __arm_cp.1_2
        0x200007b0:    20010008    ...     DCD    536936456
    __arm_cp.1_3
        0x200007b4:    016e3600    .6n.    DCD    24000000
    __arm_cp.1_4
        0x200007b8:    0001a018    ....    DCD    106520
    __arm_cp.1_5
        0x200007bc:    4000f800    ...@    DCD    1073805312
    __arm_cp.1_6
        0x200007c0:    a5a500f0    ....    DCD    2779054320
    __arm_cp.1_7
        0x200007c4:    2000092d    -..     DCD    536873261
    $t.26
    TMR0_Handler
        0x200007c8:    4770        pG      BX       lr
    TMR1_Handler
        0x200007ca:    4770        pG      BX       lr
    TMR2_Handler
        0x200007cc:    4770        pG      BX       lr
    TMR3_Handler
        0x200007ce:    4770        pG      BX       lr
    TMR4_Handler
        0x200007d0:    4770        pG      BX       lr
    TMR5_Handler
        0x200007d2:    4770        pG      BX       lr
    UART0_Handler
        0x200007d4:    4770        pG      BX       lr
    UART1_Handler
        0x200007d6:    4770        pG      BX       lr
    UART2_Handler
        0x200007d8:    4802        .H      LDR      r0,[pc,#8] ; [0x200007e4] = 0x40004c00
        0x200007da:    a103        ..      ADR      r1,{pc}+0xe ; 0x200007e8
        0x200007dc:    6802        .h      LDR      r2,[r0,#0]
        0x200007de:    2000        .       MOVS     r0,#0
        0x200007e0:    f7ffbe0c    ....    B.W      SEGGER_RTT_printf ; 0x200003fc
    $d.22
    __arm_cp.19_0
        0x200007e4:    40004c00    .L.@    DCD    1073761280
        0x200007e8:    3a766572    rev:    DCD    980837746
        0x200007ec:    25783020     0x%    DCD    628633632
        0x200007f0:    0d583230    02X.    DCD    223883824
        0x200007f4:    0000000a    ....    DCD    10
    $t.3
    UART_Cmd
        0x200007f8:    6842        Bh      LDR      r2,[r0,#4]
        0x200007fa:    2900        .)      CMP      r1,#0
        0x200007fc:    f0420380    B...    ORR      r3,r2,#0x80
        0x20000800:    bf08        ..      IT       EQ
        0x20000802:    f0220380    "...    BICEQ    r3,r2,#0x80
        0x20000806:    6043        C`      STR      r3,[r0,#4]
        0x20000808:    4770        pG      BX       lr
        0x2000080a:    0000        ..      MOVS     r0,r0
    UART_Config
        0x2000080c:    b570        p.      PUSH     {r4-r6,lr}
        0x2000080e:    b086        ..      SUB      sp,sp,#0x18
        0x20000810:    4cf0        .L      LDR      r4,[pc,#960] ; [0x20000bd4] = 0x40004c00
        0x20000812:    210b        .!      MOVS     r1,#0xb
        0x20000814:    2201        ."      MOVS     r2,#1
        0x20000816:    2601        .&      MOVS     r6,#1
        0x20000818:    f5044544    ..DE    ADD      r5,r4,#0xc400
        0x2000081c:    4628        (F      MOV      r0,r5
        0x2000081e:    f7fffd03    ....    BL       GPIO_PinAFConfig ; 0x20000228
        0x20000822:    4628        (F      MOV      r0,r5
        0x20000824:    210a        .!      MOVS     r1,#0xa
        0x20000826:    2201        ."      MOVS     r2,#1
        0x20000828:    f7fffcfe    ....    BL       GPIO_PinAFConfig ; 0x20000228
        0x2000082c:    2020                MOVS     r0,#0x20
        0x2000082e:    4669        iF      MOV      r1,sp
        0x20000830:    f8ad6010    ...`    STRH     r6,[sp,#0x10]
        0x20000834:    f8ad0008    ....    STRH     r0,[sp,#8]
        0x20000838:    4808        .H      LDR      r0,[pc,#32] ; [0x2000085c] = 0x80001
        0x2000083a:    9001        ..      STR      r0,[sp,#4]
        0x2000083c:    f44f30e1    O..0    MOV      r0,#0x1c200
        0x20000840:    9000        ..      STR      r0,[sp,#0]
        0x20000842:    4807        .H      LDR      r0,[pc,#28] ; [0x20000860] = 0x9896800
        0x20000844:    9005        ..      STR      r0,[sp,#0x14]
        0x20000846:    2010        .       MOVS     r0,#0x10
        0x20000848:    9003        ..      STR      r0,[sp,#0xc]
        0x2000084a:    4620         F      MOV      r0,r4
        0x2000084c:    f000f824    ..$.    BL       UART_Init ; 0x20000898
        0x20000850:    4620         F      MOV      r0,r4
        0x20000852:    2101        .!      MOVS     r1,#1
        0x20000854:    f7ffffd0    ....    BL       UART_Cmd ; 0x200007f8
        0x20000858:    b006        ..      ADD      sp,sp,#0x18
        0x2000085a:    bd70        p.      POP      {r4-r6,pc}
    $d.5
    __arm_cp.2_1
        0x2000085c:    00080001    ....    DCD    524289
    __arm_cp.2_2
        0x20000860:    09896800    .h..    DCD    160000000
    $t.2
    UART_INT_Config
        0x20000864:    b5e0        ..      PUSH     {r5-r7,lr}
        0x20000866:    2001        .       MOVS     r0,#1
        0x20000868:    f88d0006    ....    STRB     r0,[sp,#6]
        0x2000086c:    2027        '       MOVS     r0,#0x27
        0x2000086e:    f8ad0004    ....    STRH     r0,[sp,#4]
        0x20000872:    a801        ..      ADD      r0,sp,#4
        0x20000874:    f7fffd24    ..$.    BL       NVIC_Init ; 0x200002c0
        0x20000878:    48d6        .H      LDR      r0,[pc,#856] ; [0x20000bd4] = 0x40004c00
        0x2000087a:    2101        .!      MOVS     r1,#1
        0x2000087c:    2201        ."      MOVS     r2,#1
        0x2000087e:    f000f803    ....    BL       UART_ITConfig ; 0x20000888
        0x20000882:    bd8c        ..      POP      {r2,r3,r7,pc}
    $d.3
    __arm_cp.1_0
        0x20000884:    40004c00    .L.@    DCD    1073761280
    $t.17
    UART_ITConfig
        0x20000888:    2a00        .*      CMP      r2,#0
        0x2000088a:    68c2        .h      LDR      r2,[r0,#0xc]
        0x2000088c:    bf0c        ..      ITE      EQ
        0x2000088e:    ea220101    "...    BICEQ    r1,r2,r1
        0x20000892:    4311        .C      ORRNE    r1,r1,r2
        0x20000894:    60c1        .`      STR      r1,[r0,#0xc]
        0x20000896:    4770        pG      BX       lr
    UART_Init
        0x20000898:    b5b0        ..      PUSH     {r4,r5,r7,lr}
        0x2000089a:    f64f72ff    O..r    MOV      r2,#0xffff
        0x2000089e:    6202        .b      STR      r2,[r0,#0x20]
        0x200008a0:    f04f32ff    O..2    MOV      r2,#0xffffffff
        0x200008a4:    61c2        .a      STR      r2,[r0,#0x1c]
        0x200008a6:    888a        ..      LDRH     r2,[r1,#4]
        0x200008a8:    88cb        ..      LDRH     r3,[r1,#6]
        0x200008aa:    431a        .C      ORRS     r2,r2,r3
        0x200008ac:    890b        ..      LDRH     r3,[r1,#8]
        0x200008ae:    431a        .C      ORRS     r2,r2,r3
        0x200008b0:    6042        B`      STR      r2,[r0,#4]
        0x200008b2:    8a0a        ..      LDRH     r2,[r1,#0x10]
        0x200008b4:    6843        Ch      LDR      r3,[r0,#4]
        0x200008b6:    f4437480    C..t    ORR      r4,r3,#0x100
        0x200008ba:    2a00        .*      CMP      r2,#0
        0x200008bc:    bf08        ..      IT       EQ
        0x200008be:    f4237480    #..t    BICEQ    r4,r3,#0x100
        0x200008c2:    6044        D`      STR      r4,[r0,#4]
        0x200008c4:    680b        .h      LDR      r3,[r1,#0]
        0x200008c6:    68ca        .h      LDR      r2,[r1,#0xc]
        0x200008c8:    6949        Ii      LDR      r1,[r1,#0x14]
        0x200008ca:    fb03f402    ....    MUL      r4,r3,r2
        0x200008ce:    fbb1f5f4    ....    UDIV     r5,r1,r4
        0x200008d2:    fb051114    ....    MLS      r1,r5,r4,r1
        0x200008d6:    0854        T.      LSRS     r4,r2,#1
        0x200008d8:    4363        cC      MULS     r3,r4,r3
        0x200008da:    4299        .B      CMP      r1,r3
        0x200008dc:    bf88        ..      IT       HI
        0x200008de:    3501        .5      ADDHI    r5,#1
        0x200008e0:    b2a9        ..      UXTH     r1,r5
        0x200008e2:    2a04        .*      CMP      r2,#4
        0x200008e4:    6081        .`      STR      r1,[r0,#8]
        0x200008e6:    d009        ..      BEQ      0x200008fc ; UART_Init + 100
        0x200008e8:    2a08        .*      CMP      r2,#8
        0x200008ea:    d00f        ..      BEQ      0x2000090c ; UART_Init + 116
        0x200008ec:    2a10        .*      CMP      r2,#0x10
        0x200008ee:    d115        ..      BNE      0x2000091c ; UART_Init + 132
        0x200008f0:    6881        .h      LDR      r1,[r0,#8]
        0x200008f2:    f4213140    !.@1    BIC      r1,r1,#0x30000
        0x200008f6:    6081        .`      STR      r1,[r0,#8]
        0x200008f8:    6881        .h      LDR      r1,[r0,#8]
        0x200008fa:    e00e        ..      B        0x2000091a ; UART_Init + 130
        0x200008fc:    6881        .h      LDR      r1,[r0,#8]
        0x200008fe:    f4213140    !.@1    BIC      r1,r1,#0x30000
        0x20000902:    6081        .`      STR      r1,[r0,#8]
        0x20000904:    6881        .h      LDR      r1,[r0,#8]
        0x20000906:    f4413180    A..1    ORR      r1,r1,#0x10000
        0x2000090a:    e006        ..      B        0x2000091a ; UART_Init + 130
        0x2000090c:    6881        .h      LDR      r1,[r0,#8]
        0x2000090e:    f4213140    !.@1    BIC      r1,r1,#0x30000
        0x20000912:    6081        .`      STR      r1,[r0,#8]
        0x20000914:    6881        .h      LDR      r1,[r0,#8]
        0x20000916:    f4413100    A..1    ORR      r1,r1,#0x20000
        0x2000091a:    6081        .`      STR      r1,[r0,#8]
        0x2000091c:    bdb0        ..      POP      {r4,r5,r7,pc}
    UART_SendData
        0x2000091e:    6902        .i      LDR      r2,[r0,#0x10]
        0x20000920:    0512        ..      LSLS     r2,r2,#20
        0x20000922:    d4fc        ..      BMI      UART_SendData ; 0x2000091e
        0x20000924:    f36f215f    o._!    BFC      r1,#9,#23
        0x20000928:    6001        .`      STR      r1,[r0,#0]
        0x2000092a:    4770        pG      BX       lr
    Wait_ClockReady
        0x2000092c:    b081        ..      SUB      sp,sp,#4
        0x2000092e:    2000        .       MOVS     r0,#0
        0x20000930:    9000        ..      STR      r0,[sp,#0]
        0x20000932:    4805        .H      LDR      r0,[pc,#20] ; [0x20000948] = 0x1387f
        0x20000934:    9900        ..      LDR      r1,[sp,#0]
        0x20000936:    4281        .B      CMP      r1,r0
        0x20000938:    bfc4        ..      ITT      GT
        0x2000093a:    b001        ..      ADDGT    sp,sp,#4
        0x2000093c:    4770        pG      BXGT     lr
        0x2000093e:    9900        ..      LDR      r1,[sp,#0]
        0x20000940:    3101        .1      ADDS     r1,#1
        0x20000942:    9100        ..      STR      r1,[sp,#0]
        0x20000944:    e7f6        ..      B        0x20000934 ; Wait_ClockReady + 8
        0x20000946:    bf00        ..      NOP      
    $d.1
    __arm_cp.0_0
        0x20000948:    0001387f    .8..    DCD    79999
    $t.2
    _DoInit
        0x2000094c:    4811        .H      LDR      r0,[pc,#68] ; [0x20000994] = 0x20010028
        0x2000094e:    2102        .!      MOVS     r1,#2
        0x20000950:    4a12        .J      LDR      r2,[pc,#72] ; [0x2000099c] = 0x200100a0
        0x20000952:    6101        .a      STR      r1,[r0,#0x10]
        0x20000954:    6141        Aa      STR      r1,[r0,#0x14]
        0x20000956:    4910        .I      LDR      r1,[pc,#64] ; [0x20000998] = 0x20000d38
        0x20000958:    6181        .a      STR      r1,[r0,#0x18]
        0x2000095a:    61c2        .a      STR      r2,[r0,#0x1c]
        0x2000095c:    f44f5280    O..R    MOV      r2,#0x1000
        0x20000960:    6202        .b      STR      r2,[r0,#0x20]
        0x20000962:    2200        ."      MOVS     r2,#0
        0x20000964:    6282        .b      STR      r2,[r0,#0x28]
        0x20000966:    6242        Bb      STR      r2,[r0,#0x24]
        0x20000968:    62c2        .b      STR      r2,[r0,#0x2c]
        0x2000096a:    6481        .d      STR      r1,[r0,#0x48]
        0x2000096c:    490c        .I      LDR      r1,[pc,#48] ; [0x200009a0] = 0x20010010
        0x2000096e:    3101        .1      ADDS     r1,#1
        0x20000970:    64c1        .d      STR      r1,[r0,#0x4c]
        0x20000972:    2110        .!      MOVS     r1,#0x10
        0x20000974:    6501        .e      STR      r1,[r0,#0x50]
        0x20000976:    490b        .I      LDR      r1,[pc,#44] ; [0x200009a4] = 0x524547
        0x20000978:    6582        .e      STR      r2,[r0,#0x58]
        0x2000097a:    6542        Be      STR      r2,[r0,#0x54]
        0x2000097c:    f8c01003    ....    STR      r1,[r0,#3]
        0x20000980:    4909        .I      LDR      r1,[pc,#36] ; [0x200009a8] = 0x545452
        0x20000982:    65c2        .e      STR      r2,[r0,#0x5c]
        0x20000984:    f8c01007    ....    STR      r1,[r0,#7]
        0x20000988:    4908        .I      LDR      r1,[pc,#32] ; [0x200009ac] = 0x47474553
        0x2000098a:    6001        .`      STR      r1,[r0,#0]
        0x2000098c:    2120         !      MOVS     r1,#0x20
        0x2000098e:    7181        .q      STRB     r1,[r0,#6]
        0x20000990:    4770        pG      BX       lr
        0x20000992:    bf00        ..      NOP      
    $d.3
    __arm_cp.1_0
        0x20000994:    20010028    (..     DCD    536936488
    __arm_cp.1_1
        0x20000998:    20000d38    8..     DCD    536874296
    __arm_cp.1_2
        0x2000099c:    200100a0    ...     DCD    536936608
    __arm_cp.1_3
        0x200009a0:    20010010    ...     DCD    536936464
    __arm_cp.1_4
        0x200009a4:    00524547    GER.    DCD    5391687
    __arm_cp.1_5
        0x200009a8:    00545452    RTT.    DCD    5526610
    __arm_cp.1_6
        0x200009ac:    47474553    SEGG    DCD    1195853139
    $t.12
    _GetAvailWriteSpace
        0x200009b0:    68c2        .h      LDR      r2,[r0,#0xc]
        0x200009b2:    6901        .i      LDR      r1,[r0,#0x10]
        0x200009b4:    4291        .B      CMP      r1,r2
        0x200009b6:    bf8f        ..      ITEEE    HI
        0x200009b8:    43d0        .C      MVNHI    r0,r2
        0x200009ba:    43d2        .C      MVNLS    r2,r2
        0x200009bc:    4411        .D      ADDLS    r1,r2
        0x200009be:    6880        .h      LDRLS    r0,[r0,#8]
        0x200009c0:    4408        .D      ADD      r0,r0,r1
        0x200009c2:    4770        pG      BX       lr
    _PrintUnsigned
        0x200009c4:    e92d4ff8    -..O    PUSH     {r3-r11,lr}
        0x200009c8:    4681        .F      MOV      r9,r0
        0x200009ca:    e9dda00a    ....    LDRD     r10,r0,[sp,#0x28]
        0x200009ce:    461f        .F      MOV      r7,r3
        0x200009d0:    4615        .F      MOV      r5,r2
        0x200009d2:    460e        .F      MOV      r6,r1
        0x200009d4:    f04f0b01    O...    MOV      r11,#1
        0x200009d8:    42a9        .B      CMP      r1,r5
        0x200009da:    d304        ..      BCC      0x200009e6 ; _PrintUnsigned + 34
        0x200009dc:    fbb1f1f5    ....    UDIV     r1,r1,r5
        0x200009e0:    f10b0b01    ....    ADD      r11,r11,#1
        0x200009e4:    e7f8        ..      B        0x200009d8 ; _PrintUnsigned + 20
        0x200009e6:    45bb        .E      CMP      r11,r7
        0x200009e8:    bf38        8.      IT       CC
        0x200009ea:    46bb        .F      MOVCC    r11,r7
        0x200009ec:    f0000401    ....    AND      r4,r0,#1
        0x200009f0:    f1ba0f00    ....    CMP      r10,#0
        0x200009f4:    d017        ..      BEQ      0x20000a26 ; _PrintUnsigned + 98
        0x200009f6:    b9b4        ..      CBNZ     r4,0x20000a26 ; _PrintUnsigned + 98
        0x200009f8:    f04f0820    O. .    MOV      r8,#0x20
        0x200009fc:    0780        ..      LSLS     r0,r0,#30
        0x200009fe:    bf48        H.      IT       MI
        0x20000a00:    f04f0830    O.0.    MOVMI    r8,#0x30
        0x20000a04:    2020                MOVS     r0,#0x20
        0x20000a06:    2f00        ./      CMP      r7,#0
        0x20000a08:    bf18        ..      IT       NE
        0x20000a0a:    4680        .F      MOVNE    r8,r0
        0x20000a0c:    45d3        .E      CMP      r11,r10
        0x20000a0e:    d20a        ..      BCS      0x20000a26 ; _PrintUnsigned + 98
        0x20000a10:    4648        HF      MOV      r0,r9
        0x20000a12:    4641        AF      MOV      r1,r8
        0x20000a14:    f000f848    ..H.    BL       _StoreChar ; 0x20000aa8
        0x20000a18:    f8d9000c    ....    LDR      r0,[r9,#0xc]
        0x20000a1c:    f1aa0a01    ....    SUB      r10,r10,#1
        0x20000a20:    f1b03fff    ...?    CMP      r0,#0xffffffff
        0x20000a24:    dcf2        ..      BGT      0x20000a0c ; _PrintUnsigned + 72
        0x20000a26:    f8d9000c    ....    LDR      r0,[r9,#0xc]
        0x20000a2a:    2800        .(      CMP      r0,#0
        0x20000a2c:    d432        2.      BMI      0x20000a94 ; _PrintUnsigned + 208
        0x20000a2e:    9400        ..      STR      r4,[sp,#0]
        0x20000a30:    2401        .$      MOVS     r4,#1
        0x20000a32:    2f02        ./      CMP      r7,#2
        0x20000a34:    d301        ..      BCC      0x20000a3a ; _PrintUnsigned + 118
        0x20000a36:    3f01        .?      SUBS     r7,#1
        0x20000a38:    e003        ..      B        0x20000a42 ; _PrintUnsigned + 126
        0x20000a3a:    fbb6f0f4    ....    UDIV     r0,r6,r4
        0x20000a3e:    42a8        .B      CMP      r0,r5
        0x20000a40:    d301        ..      BCC      0x20000a46 ; _PrintUnsigned + 130
        0x20000a42:    436c        lC      MULS     r4,r5,r4
        0x20000a44:    e7f5        ..      B        0x20000a32 ; _PrintUnsigned + 110
        0x20000a46:    f20f0850    ..P.    ADR.W    r8,{pc}+0x52 ; 0x20000a98
        0x20000a4a:    fbb6f7f4    ....    UDIV     r7,r6,r4
        0x20000a4e:    4648        HF      MOV      r0,r9
        0x20000a50:    f8181007    ....    LDRB     r1,[r8,r7]
        0x20000a54:    f000f828    ..(.    BL       _StoreChar ; 0x20000aa8
        0x20000a58:    f8d9000c    ....    LDR      r0,[r9,#0xc]
        0x20000a5c:    2800        .(      CMP      r0,#0
        0x20000a5e:    d406        ..      BMI      0x20000a6e ; _PrintUnsigned + 170
        0x20000a60:    fbb4f0f5    ....    UDIV     r0,r4,r5
        0x20000a64:    fb076614    ...f    MLS      r6,r7,r4,r6
        0x20000a68:    42ac        .B      CMP      r4,r5
        0x20000a6a:    4604        .F      MOV      r4,r0
        0x20000a6c:    d2ed        ..      BCS      0x20000a4a ; _PrintUnsigned + 134
        0x20000a6e:    9800        ..      LDR      r0,[sp,#0]
        0x20000a70:    b180        ..      CBZ      r0,0x20000a94 ; _PrintUnsigned + 208
        0x20000a72:    f1ba0f00    ....    CMP      r10,#0
        0x20000a76:    d00d        ..      BEQ      0x20000a94 ; _PrintUnsigned + 208
        0x20000a78:    f10a0401    ....    ADD      r4,r10,#1
        0x20000a7c:    3c01        .<      SUBS     r4,#1
        0x20000a7e:    45a3        .E      CMP      r11,r4
        0x20000a80:    d208        ..      BCS      0x20000a94 ; _PrintUnsigned + 208
        0x20000a82:    4648        HF      MOV      r0,r9
        0x20000a84:    2120         !      MOVS     r1,#0x20
        0x20000a86:    f000f80f    ....    BL       _StoreChar ; 0x20000aa8
        0x20000a8a:    f8d9000c    ....    LDR      r0,[r9,#0xc]
        0x20000a8e:    f1b03fff    ...?    CMP      r0,#0xffffffff
        0x20000a92:    dcf3        ..      BGT      0x20000a7c ; _PrintUnsigned + 184
        0x20000a94:    e8bd8ff8    ....    POP      {r3-r11,pc}
    $d.7
    _PrintUnsigned._aV2C
        0x20000a98:    33323130    0123    DCD    858927408
        0x20000a9c:    37363534    4567    DCD    926299444
        0x20000aa0:    42413938    89AB    DCD    1111570744
        0x20000aa4:    46454443    CDEF    DCD    1178944579
    $t.5
    _StoreChar
        0x20000aa8:    b510        ..      PUSH     {r4,lr}
        0x20000aaa:    e9d02301    ...#    LDRD     r2,r3,[r0,#4]
        0x20000aae:    4604        .F      MOV      r4,r0
        0x20000ab0:    1c58        X.      ADDS     r0,r3,#1
        0x20000ab2:    4290        .B      CMP      r0,r2
        0x20000ab4:    d901        ..      BLS      0x20000aba ; _StoreChar + 18
        0x20000ab6:    4618        .F      MOV      r0,r3
        0x20000ab8:    e006        ..      B        0x20000ac8 ; _StoreChar + 32
        0x20000aba:    6822        "h      LDR      r2,[r4,#0]
        0x20000abc:    54d1        .T      STRB     r1,[r2,r3]
        0x20000abe:    60a0        .`      STR      r0,[r4,#8]
        0x20000ac0:    68e1        .h      LDR      r1,[r4,#0xc]
        0x20000ac2:    6862        bh      LDR      r2,[r4,#4]
        0x20000ac4:    3101        .1      ADDS     r1,#1
        0x20000ac6:    60e1        .`      STR      r1,[r4,#0xc]
        0x20000ac8:    4290        .B      CMP      r0,r2
        0x20000aca:    d108        ..      BNE      0x20000ade ; _StoreChar + 54
        0x20000acc:    6821        !h      LDR      r1,[r4,#0]
        0x20000ace:    6920         i      LDR      r0,[r4,#0x10]
        0x20000ad0:    f7fffc4e    ..N.    BL       SEGGER_RTT_Write ; 0x20000370
        0x20000ad4:    68a1        .h      LDR      r1,[r4,#8]
        0x20000ad6:    4288        .B      CMP      r0,r1
        0x20000ad8:    d102        ..      BNE      0x20000ae0 ; _StoreChar + 56
        0x20000ada:    2000        .       MOVS     r0,#0
        0x20000adc:    60a0        .`      STR      r0,[r4,#8]
        0x20000ade:    bd10        ..      POP      {r4,pc}
        0x20000ae0:    f04f30ff    O..0    MOV      r0,#0xffffffff
        0x20000ae4:    60e0        .`      STR      r0,[r4,#0xc]
        0x20000ae6:    bd10        ..      POP      {r4,pc}
    _WriteBlocking
        0x20000ae8:    e92d43f8    -..C    PUSH     {r3-r9,lr}
        0x20000aec:    68c7        .h      LDR      r7,[r0,#0xc]
        0x20000aee:    4614        .F      MOV      r4,r2
        0x20000af0:    460d        .F      MOV      r5,r1
        0x20000af2:    4680        .F      MOV      r8,r0
        0x20000af4:    f04f0900    O...    MOV      r9,#0
        0x20000af8:    f8d80010    ....    LDR      r0,[r8,#0x10]
        0x20000afc:    43f9        .C      MVNS     r1,r7
        0x20000afe:    4287        .B      CMP      r7,r0
        0x20000b00:    d203        ..      BCS      0x20000b0a ; _WriteBlocking + 34
        0x20000b02:    f8d82008    ...     LDR      r2,[r8,#8]
        0x20000b06:    4401        .D      ADD      r1,r1,r0
        0x20000b08:    e003        ..      B        0x20000b12 ; _WriteBlocking + 42
        0x20000b0a:    f8d82008    ...     LDR      r2,[r8,#8]
        0x20000b0e:    4408        .D      ADD      r0,r0,r1
        0x20000b10:    1881        ..      ADDS     r1,r0,r2
        0x20000b12:    f8d80004    ....    LDR      r0,[r8,#4]
        0x20000b16:    1bd6        ..      SUBS     r6,r2,r7
        0x20000b18:    42b1        .B      CMP      r1,r6
        0x20000b1a:    bf38        8.      IT       CC
        0x20000b1c:    460e        .F      MOVCC    r6,r1
        0x20000b1e:    4629        )F      MOV      r1,r5
        0x20000b20:    42a6        .B      CMP      r6,r4
        0x20000b22:    bf28        (.      IT       CS
        0x20000b24:    4626        &F      MOVCS    r6,r4
        0x20000b26:    4438        8D      ADD      r0,r0,r7
        0x20000b28:    4632        2F      MOV      r2,r6
        0x20000b2a:    f7fffb1d    ....    BL       __aeabi_memcpy ; 0x20000168
        0x20000b2e:    f8d81008    ....    LDR      r1,[r8,#8]
        0x20000b32:    19f0        ..      ADDS     r0,r6,r7
        0x20000b34:    4435        5D      ADD      r5,r5,r6
        0x20000b36:    44b1        .D      ADD      r9,r9,r6
        0x20000b38:    1a47        G.      SUBS     r7,r0,r1
        0x20000b3a:    bf18        ..      IT       NE
        0x20000b3c:    4607        .F      MOVNE    r7,r0
        0x20000b3e:    1ba4        ..      SUBS     r4,r4,r6
        0x20000b40:    f8c8700c    ...p    STR      r7,[r8,#0xc]
        0x20000b44:    d1d8        ..      BNE      0x20000af8 ; _WriteBlocking + 16
        0x20000b46:    4648        HF      MOV      r0,r9
        0x20000b48:    e8bd83f8    ....    POP      {r3-r9,pc}
    _WriteNoCheck
        0x20000b4c:    e92d41f0    -..A    PUSH     {r4-r8,lr}
        0x20000b50:    4604        .F      MOV      r4,r0
        0x20000b52:    4688        .F      MOV      r8,r1
        0x20000b54:    6840        @h      LDR      r0,[r0,#4]
        0x20000b56:    4615        .F      MOV      r5,r2
        0x20000b58:    e9d41602    ....    LDRD     r1,r6,[r4,#8]
        0x20000b5c:    1b8f        ..      SUBS     r7,r1,r6
        0x20000b5e:    4430        0D      ADD      r0,r0,r6
        0x20000b60:    4297        .B      CMP      r7,r2
        0x20000b62:    d905        ..      BLS      0x20000b70 ; _WriteNoCheck + 36
        0x20000b64:    4641        AF      MOV      r1,r8
        0x20000b66:    462a        *F      MOV      r2,r5
        0x20000b68:    f7fffafe    ....    BL       __aeabi_memcpy ; 0x20000168
        0x20000b6c:    4435        5D      ADD      r5,r5,r6
        0x20000b6e:    e00a        ..      B        0x20000b86 ; _WriteNoCheck + 58
        0x20000b70:    4641        AF      MOV      r1,r8
        0x20000b72:    463a        :F      MOV      r2,r7
        0x20000b74:    f7fffaf8    ....    BL       __aeabi_memcpy ; 0x20000168
        0x20000b78:    1bed        ..      SUBS     r5,r5,r7
        0x20000b7a:    6860        `h      LDR      r0,[r4,#4]
        0x20000b7c:    eb080107    ....    ADD      r1,r8,r7
        0x20000b80:    462a        *F      MOV      r2,r5
        0x20000b82:    f7fffaf1    ....    BL       __aeabi_memcpy ; 0x20000168
        0x20000b86:    60e5        .`      STR      r5,[r4,#0xc]
        0x20000b88:    e8bd81f0    ....    POP      {r4-r8,pc}
    app
        0x20000b8c:    b5b0        ..      PUSH     {r4,r5,r7,lr}
        0x20000b8e:    a00e        ..      ADR      r0,{pc}+0x3a ; 0x20000bc8
        0x20000b90:    f000f8c0    ....    BL       puts ; 0x20000d14
        0x20000b94:    4c0f        .L      LDR      r4,[pc,#60] ; [0x20000bd4] = 0x40004c00
        0x20000b96:    4d10        .M      LDR      r5,[pc,#64] ; [0x20000bd8] = 0x2000091f
        0x20000b98:    2155        U!      MOVS     r1,#0x55
        0x20000b9a:    4620         F      MOV      r0,r4
        0x20000b9c:    47a8        .G      BLX      r5
        0x20000b9e:    4620         F      MOV      r0,r4
        0x20000ba0:    21aa        .!      MOVS     r1,#0xaa
        0x20000ba2:    47a8        .G      BLX      r5
        0x20000ba4:    4620         F      MOV      r0,r4
        0x20000ba6:    21cc        .!      MOVS     r1,#0xcc
        0x20000ba8:    47a8        .G      BLX      r5
        0x20000baa:    4620         F      MOV      r0,r4
        0x20000bac:    21cc        .!      MOVS     r1,#0xcc
        0x20000bae:    47a8        .G      BLX      r5
        0x20000bb0:    4620         F      MOV      r0,r4
        0x20000bb2:    210d        .!      MOVS     r1,#0xd
        0x20000bb4:    47a8        .G      BLX      r5
        0x20000bb6:    4620         F      MOV      r0,r4
        0x20000bb8:    210a        .!      MOVS     r1,#0xa
        0x20000bba:    47a8        .G      BLX      r5
        0x20000bbc:    f44f707a    O.zp    MOV      r0,#0x3e8
        0x20000bc0:    e8bd40b0    ...@    POP      {r4,r5,r7,lr}
        0x20000bc4:    f7ffbaf6    ....    B        Delay_ms ; 0x200001b4
    $d.3
        0x20000bc8:    676e6962    bing    DCD    1735289186
        0x20000bcc:    2121216f    o!!!    DCD    555819375
        0x20000bd0:    0000000d    ....    DCD    13
    __arm_cp.1_1
        0x20000bd4:    40004c00    .L.@    DCD    1073761280
    __arm_cp.1_2
        0x20000bd8:    2000091f    ...     DCD    536873247
    $t.1
    fputc
        0x20000bdc:    b580        ..      PUSH     {r7,lr}
        0x20000bde:    b2c0        ..      UXTB     r0,r0
        0x20000be0:    f7fffd78    ..x.    BL       SERIAL_PutChar ; 0x200006d4
        0x20000be4:    bd80        ..      POP      {r7,pc}
        0x20000be6:    0000        ..      MOVS     r0,r0
    main
        0x20000be8:    f000f81c    ....    BL       segger_init ; 0x20000c24
        0x20000bec:    f7fffb3e    ..>.    BL       LED_GPIO_Config ; 0x2000026c
        0x20000bf0:    f000f85a    ..Z.    BL       switch_gpio_config ; 0x20000ca8
        0x20000bf4:    f7fffe36    ..6.    BL       UART_INT_Config ; 0x20000864
        0x20000bf8:    f7fffe08    ....    BL       UART_Config ; 0x2000080c
        0x20000bfc:    f7fffd7e    ..~.    BL       SysTick_Init ; 0x200006fc
        0x20000c00:    a103        ..      ADR      r1,{pc}+0x10 ; 0x20000c10
        0x20000c02:    2000        .       MOVS     r0,#0
        0x20000c04:    f7fffbfa    ....    BL       SEGGER_RTT_printf ; 0x200003fc
        0x20000c08:    f7ffffc0    ....    BL       app ; 0x20000b8c
        0x20000c0c:    e7fc        ..      B        0x20000c08 ; main + 32
        0x20000c0e:    bf00        ..      NOP      
    $d.13
        0x20000c10:    676f7270    prog    DCD    1735357040
        0x20000c14:    206d6172    ram     DCD    544039282
        0x20000c18:    69676562    begi    DCD    1768383842
        0x20000c1c:    2e2e2e6e    n...    DCD    774778478
        0x20000c20:    00000a0d    ....    DCD    2573
    $t.0
    segger_init
        0x20000c24:    b580        ..      PUSH     {r7,lr}
        0x20000c26:    f7fffba0    ....    BL       SEGGER_RTT_Init ; 0x2000036a
        0x20000c2a:    a107        ..      ADR      r1,{pc}+0x1e ; 0x20000c48
        0x20000c2c:    a20e        ..      ADR      r2,{pc}+0x3c ; 0x20000c68
        0x20000c2e:    a310        ..      ADR      r3,{pc}+0x42 ; 0x20000c70
        0x20000c30:    2000        .       MOVS     r0,#0
        0x20000c32:    f7fffbe3    ....    BL       SEGGER_RTT_printf ; 0x200003fc
        0x20000c36:    a110        ..      ADR      r1,{pc}+0x42 ; 0x20000c78
        0x20000c38:    a215        ..      ADR      r2,{pc}+0x58 ; 0x20000c90
        0x20000c3a:    a318        ..      ADR      r3,{pc}+0x62 ; 0x20000c9c
        0x20000c3c:    2000        .       MOVS     r0,#0
        0x20000c3e:    e8bd4080    ...@    POP      {r7,lr}
        0x20000c42:    f7ffbbdb    ....    B        SEGGER_RTT_printf ; 0x200003fc
        0x20000c46:    bf00        ..      NOP      
    $d.1
        0x20000c48:    434d7325    %sMC    DCD    1129149221
        0x20000c4c:    68632055    U ch    DCD    1751326805
        0x20000c50:    203a7069    ip:     DCD    540700777
        0x20000c54:    32335450    PT32    DCD    842224720
        0x20000c58:    3239315a    Z192    DCD    842608986
        0x20000c5c:    4d454420     DEM    DCD    1296385056
        0x20000c60:    0d73254f    O%s.    DCD    225649999
        0x20000c64:    0000000a    ....    DCD    10
        0x20000c68:    3b345b1b    .[4;    DCD    993286939
        0x20000c6c:    006d3134    41m.    DCD    7156020
        0x20000c70:    6d305b1b    .[0m    DCD    1831885595
        0x20000c74:    00000000    ....    DCD    0
        0x20000c78:    706d6f63    comp    DCD    1886220131
        0x20000c7c:    64656c69    iled    DCD    1684368489
        0x20000c80:    6d697420     tim    DCD    1835627552
        0x20000c84:    25203a65    e: %    DCD    622869093
        0x20000c88:    73252073    s %s    DCD    1931812979
        0x20000c8c:    00000a0d    ....    DCD    2573
        0x20000c90:    206e614a    Jan     DCD    544104778
        0x20000c94:    32203331    13 2    DCD    840971057
        0x20000c98:    00323230    022.    DCD    3289648
        0x20000c9c:    313a3831    18:1    DCD    825899057
        0x20000ca0:    33323a30    0:23    DCD    858929712
        0x20000ca4:    00000000    ....    DCD    0
    $t.8
    switch_gpio_config
        0x20000ca8:    b51c        ..      PUSH     {r2-r4,lr}
        0x20000caa:    2001        .       MOVS     r0,#1
        0x20000cac:    f88d0006    ....    STRB     r0,[sp,#6]
        0x20000cb0:    2008        .       MOVS     r0,#8
        0x20000cb2:    f8ad0004    ....    STRH     r0,[sp,#4]
        0x20000cb6:    a801        ..      ADD      r0,sp,#4
        0x20000cb8:    f7fffb02    ....    BL       NVIC_Init ; 0x200002c0
        0x20000cbc:    4c0c        .L      LDR      r4,[pc,#48] ; [0x20000cf0] = 0x40012000
        0x20000cbe:    f44f6180    O..a    MOV      r1,#0x400
        0x20000cc2:    2200        ."      MOVS     r2,#0
        0x20000cc4:    4620         F      MOV      r0,r4
        0x20000cc6:    f7fffabb    ....    BL       GPIO_TriTypeConfig ; 0x20000240
        0x20000cca:    4620         F      MOV      r0,r4
        0x20000ccc:    f44f6100    O..a    MOV      r1,#0x800
        0x20000cd0:    2200        ."      MOVS     r2,#0
        0x20000cd2:    f7fffab5    ....    BL       GPIO_TriTypeConfig ; 0x20000240
        0x20000cd6:    4620         F      MOV      r0,r4
        0x20000cd8:    f44f6180    O..a    MOV      r1,#0x400
        0x20000cdc:    2201        ."      MOVS     r2,#1
        0x20000cde:    f7fffa80    ....    BL       GPIO_ITConfig ; 0x200001e2
        0x20000ce2:    4620         F      MOV      r0,r4
        0x20000ce4:    f44f6100    O..a    MOV      r1,#0x800
        0x20000ce8:    2201        ."      MOVS     r2,#1
        0x20000cea:    f7fffa7a    ..z.    BL       GPIO_ITConfig ; 0x200001e2
        0x20000cee:    bd1c        ..      POP      {r2-r4,pc}
    $d.9
    __arm_cp.4_0
        0x20000cf0:    40012000    . .@    DCD    1073815552
    $t
    i.__scatterload_copy
    __scatterload_copy
        0x20000cf4:    e002        ..      B        0x20000cfc ; __scatterload_copy + 8
        0x20000cf6:    c808        ..      LDM      r0!,{r3}
        0x20000cf8:    1f12        ..      SUBS     r2,r2,#4
        0x20000cfa:    c108        ..      STM      r1!,{r3}
        0x20000cfc:    2a00        .*      CMP      r2,#0
        0x20000cfe:    d1fa        ..      BNE      0x20000cf6 ; __scatterload_copy + 2
        0x20000d00:    4770        pG      BX       lr
    i.__scatterload_null
    __scatterload_null
        0x20000d02:    4770        pG      BX       lr
    i.__scatterload_zeroinit
    __scatterload_zeroinit
        0x20000d04:    2000        .       MOVS     r0,#0
        0x20000d06:    e001        ..      B        0x20000d0c ; __scatterload_zeroinit + 8
        0x20000d08:    c101        ..      STM      r1!,{r0}
        0x20000d0a:    1f12        ..      SUBS     r2,r2,#4
        0x20000d0c:    2a00        .*      CMP      r2,#0
        0x20000d0e:    d1fb        ..      BNE      0x20000d08 ; __scatterload_zeroinit + 4
        0x20000d10:    4770        pG      BX       lr
        0x20000d12:    0000        ..      MOVS     r0,r0
    i.puts
    puts
        0x20000d14:    b510        ..      PUSH     {r4,lr}
        0x20000d16:    4604        .F      MOV      r4,r0
        0x20000d18:    e001        ..      B        0x20000d1e ; puts + 10
        0x20000d1a:    f7ffff5f    .._.    BL       fputc ; 0x20000bdc
        0x20000d1e:    f8140b01    ....    LDRB     r0,[r4],#1
        0x20000d22:    4904        .I      LDR      r1,[pc,#16] ; [0x20000d34] = 0x20010000
        0x20000d24:    2800        .(      CMP      r0,#0
        0x20000d26:    d1f8        ..      BNE      0x20000d1a ; puts + 6
        0x20000d28:    e8bd4010    ...@    POP      {r4,lr}
        0x20000d2c:    200a        .       MOVS     r0,#0xa
        0x20000d2e:    f7ffbf55    ..U.    B.W      fputc ; 0x20000bdc
    $d
        0x20000d32:    0000        ..      DCW    0
        0x20000d34:    20010000    ...     DCD    536936448
    $d.realdata
    .L.str
        0x20000d38:    6d726554    Term    DCD    1836213588
        0x20000d3c:    6c616e69    inal    DCD    1818324585
        0x20000d40:    00000000    ....    DCD    0
    Region$$Table$$Base
        0x20000d44:    20000d68    h..     DCD    536874344
        0x20000d48:    20010000    ...     DCD    536936448
        0x20000d4c:    00000010    ....    DCD    16
        0x20000d50:    20000cf4    ...     DCD    536874228
        0x20000d54:    20000d78    x..     DCD    536874360
        0x20000d58:    20010010    ...     DCD    536936464
        0x20000d5c:    00001490    ....    DCD    5264
        0x20000d60:    20000d04    ...     DCD    536874244
    Region$$Table$$Limit

** Section #2 'RW_IRAM1' (SHT_PROGBITS) [SHF_ALLOC + SHF_WRITE]
    Size   : 16 bytes (alignment 8)
    Address: 0x20010000


** Section #3 'RW_IRAM1' (SHT_NOBITS) [SHF_ALLOC + SHF_WRITE]
    Size   : 5264 bytes (alignment 8)
    Address: 0x20010010


** Section #4 '.debug_abbrev' (SHT_PROGBITS)
    Size   : 3375 bytes


** Section #5 '.debug_frame' (SHT_PROGBITS)
    Size   : 3468 bytes


** Section #6 '.debug_info' (SHT_PROGBITS)
    Size   : 16746 bytes


** Section #7 '.debug_line' (SHT_PROGBITS)
    Size   : 8860 bytes


** Section #8 '.debug_loc' (SHT_PROGBITS)
    Size   : 10625 bytes


** Section #9 '.debug_str' (SHT_PROGBITS)
    Size   : 9598 bytes


** Section #10 '.debug_ranges' (SHT_PROGBITS)
    Size   : 1272 bytes


** Section #11 '.symtab' (SHT_SYMTAB)
    Size   : 4096 bytes (alignment 4)
    String table #12 '.strtab'
    Last local symbol no. 161


** Section #12 '.strtab' (SHT_STRTAB)
    Size   : 2900 bytes


** Section #13 '.note' (SHT_NOTE)
    Size   : 28 bytes (alignment 4)


** Section #14 '.comment' (SHT_PROGBITS)
    Size   : 1468 bytes


** Section #15 '.shstrtab' (SHT_STRTAB)
    Size   : 148 bytes


