
========================================================================

** ELF Header Information

    File Name: d:\cccc2020\CODE\workspace\bfsk_pt32\embedded\test_fft\MDK\output\flashcode\flashcode.axf

    Machine class: ELFCLASS32 (32-bit)
    Data encoding: ELFDATA2LSB (Little endian)
    Header version: EV_CURRENT (Current version)
    Operating System ABI: none
    ABI Version: 0
    File Type: ET_EXEC (Executable) (2)
    Machine: EM_ARM (ARM)

    Image Entry point: 0x00000131
    Flags: EF_ARM_HASENTRY + EF_ARM_ABI_FLOAT_SOFT (0x05000202)

    ARM ELF revision: 5 (ABI version 2)

    Conforms to Soft float procedure-call standard

    Built with
    Component: ARM Compiler 6.16 Tool: armasm [5dfea300]
    Component: ARM Compiler 6.16 Tool: armlink [5dfeaa00]

    Header size: 52 bytes (0x34)
    Program header entry size: 32 bytes (0x20)
    Section header entry size: 40 bytes (0x28)

    Program header entries: 1
    Section header entries: 16

    Program header offset: 126276 (0x0001ed44)
    Section header offset: 126308 (0x0001ed64)

    Section header string table index: 15

========================================================================

** Program header #0 (PT_LOAD) [PF_X + PF_W + PF_R + PF_ARM_ENTRY]
    Size : 54640 bytes (14432 bytes in file)
    Virtual address: 0x00000000 (Alignment 8)


========================================================================

** Section #1 'ER_IROM1' (SHT_PROGBITS) [SHF_ALLOC + SHF_EXECINSTR]
    Size   : 14416 bytes (alignment 4)
    Address: 0x00000000

    $d.realdata
    RESET
    __Vectors
        0x00000000:    20009d20     ..     DCD    536911136
        0x00000004:    00000145    E...    DCD    325
        0x00000008:    00001c65    e...    DCD    7269
        0x0000000c:    000035d9    .5..    DCD    13785
        0x00000010:    00000157    W...    DCD    343
        0x00000014:    00000159    Y...    DCD    345
        0x00000018:    0000015b    [...    DCD    347
        0x0000001c:    00000000    ....    DCD    0
        0x00000020:    00000000    ....    DCD    0
        0x00000024:    00000000    ....    DCD    0
        0x00000028:    00000000    ....    DCD    0
        0x0000002c:    00002b49    I+..    DCD    11081
        0x00000030:    0000015f    _...    DCD    351
        0x00000034:    00000000    ....    DCD    0
        0x00000038:    00001e69    i...    DCD    7785
        0x0000003c:    00002b4d    M+..    DCD    11085
        0x00000040:    00000165    e...    DCD    357
        0x00000044:    00000000    ....    DCD    0
        0x00000048:    00000000    ....    DCD    0
        0x0000004c:    00001e6d    m...    DCD    7789
        0x00000050:    00001af9    ....    DCD    6905
        0x00000054:    00000165    e...    DCD    357
        0x00000058:    00001cd5    ....    DCD    7381
        0x0000005c:    00001cd9    ....    DCD    7385
        0x00000060:    00001cdd    ....    DCD    7389
        0x00000064:    00001d2d    -...    DCD    7469
        0x00000068:    00000000    ....    DCD    0
        0x0000006c:    00001ac9    ....    DCD    6857
        0x00000070:    00000000    ....    DCD    0
        0x00000074:    00000000    ....    DCD    0
        0x00000078:    00000000    ....    DCD    0
        0x0000007c:    00000000    ....    DCD    0
        0x00000080:    00000000    ....    DCD    0
        0x00000084:    00000000    ....    DCD    0
        0x00000088:    000019d9    ....    DCD    6617
        0x0000008c:    00000000    ....    DCD    0
        0x00000090:    00000000    ....    DCD    0
        0x00000094:    00000000    ....    DCD    0
        0x00000098:    00000000    ....    DCD    0
        0x0000009c:    00000000    ....    DCD    0
        0x000000a0:    00002cf1    .,..    DCD    11505
        0x000000a4:    00002d15    .-..    DCD    11541
        0x000000a8:    00000000    ....    DCD    0
        0x000000ac:    00000000    ....    DCD    0
        0x000000b0:    00002d19    .-..    DCD    11545
        0x000000b4:    00002d1d    .-..    DCD    11549
        0x000000b8:    00002d21    !-..    DCD    11553
        0x000000bc:    00000165    e...    DCD    357
        0x000000c0:    00000000    ....    DCD    0
        0x000000c4:    00000000    ....    DCD    0
        0x000000c8:    00000000    ....    DCD    0
        0x000000cc:    00002b41    A+..    DCD    11073
        0x000000d0:    00002b45    E+..    DCD    11077
        0x000000d4:    00002d29    )-..    DCD    11561
        0x000000d8:    00002d2d    --..    DCD    11565
        0x000000dc:    00002d31    1-..    DCD    11569
        0x000000e0:    00000000    ....    DCD    0
        0x000000e4:    00000000    ....    DCD    0
        0x000000e8:    00000000    ....    DCD    0
        0x000000ec:    00000000    ....    DCD    0
        0x000000f0:    00000000    ....    DCD    0
        0x000000f4:    00000000    ....    DCD    0
        0x000000f8:    00000000    ....    DCD    0
        0x000000fc:    00000000    ....    DCD    0
        0x00000100:    00000000    ....    DCD    0
        0x00000104:    00000165    e...    DCD    357
        0x00000108:    00000000    ....    DCD    0
        0x0000010c:    00000165    e...    DCD    357
        0x00000110:    00000000    ....    DCD    0
        0x00000114:    00000000    ....    DCD    0
        0x00000118:    00000000    ....    DCD    0
        0x0000011c:    00000000    ....    DCD    0
        0x00000120:    00000000    ....    DCD    0
        0x00000124:    00002d25    %-..    DCD    11557
        0x00000128:    00000000    ....    DCD    0
        0x0000012c:    00000165    e...    DCD    357
    $t
    .ARM.Collect$$$$00000000
    .ARM.Collect$$$$00000001
    __Vectors_End
    __main
    _main_stk
        0x00000130:    f8dfd00c    ....    LDR      sp,__lit__00000000 ; [0x140] = 0x20009d20
    .ARM.Collect$$$$00000004
    _main_scatterload
        0x00000134:    f001fc28    ..(.    BL       __scatterload ; 0x1988
    .ARM.Collect$$$$00000008
    .ARM.Collect$$$$0000000A
    .ARM.Collect$$$$0000000B
    __main_after_scatterload
    _main_clock
    _main_cpp_init
    _main_init
        0x00000138:    4800        .H      LDR      r0,[pc,#0] ; [0x13c] = 0x31b9
        0x0000013a:    4700        .G      BX       r0
    $d
        0x0000013c:    000031b9    .1..    DCD    12729
    .ARM.Collect$$$$00002712
    __lit__00000000
    .ARM.Collect$$$$0000000D
    .ARM.Collect$$$$0000000F
    __rt_final_cpp
    __rt_final_exit
        0x00000140:    20009d20     ..     DCD    536911136
    $t
    .text
    Reset_Handler
        0x00000144:    4808        .H      LDR      r0,[pc,#32] ; [0x168] = 0x2b71
        0x00000146:    4780        .G      BLX      r0
        0x00000148:    4808        .H      LDR      r0,[pc,#32] ; [0x16c] = 0x4000f800
        0x0000014a:    4909        .I      LDR      r1,[pc,#36] ; [0x170] = 0xa5a500f0
        0x0000014c:    6001        .`      STR      r1,[r0,#0]
        0x0000014e:    4809        .H      LDR      r0,[pc,#36] ; [0x174] = 0x131
        0x00000150:    4700        .G      BX       r0
        0x00000152:    e7fe        ..      B        0x152 ; Reset_Handler + 14
        0x00000154:    e7fe        ..      B        0x154 ; Reset_Handler + 16
    MemManage_Handler
        0x00000156:    e7fe        ..      B        MemManage_Handler ; 0x156
    BusFault_Handler
        0x00000158:    e7fe        ..      B        BusFault_Handler ; 0x158
    UsageFault_Handler
        0x0000015a:    e7fe        ..      B        UsageFault_Handler ; 0x15a
        0x0000015c:    e7fe        ..      B        0x15c ; UsageFault_Handler + 2
    DebugMon_Handler
        0x0000015e:    e7fe        ..      B        DebugMon_Handler ; 0x15e
        0x00000160:    e7fe        ..      B        0x160 ; DebugMon_Handler + 2
        0x00000162:    e7fe        ..      B        0x162 ; DebugMon_Handler + 4
    AES_Handler
    I2C_Handler
    QSPI_Handler
    RCC_Handler
    USB11_Handler
    WDG_Handler
        0x00000164:    e7fe        ..      B        AES_Handler ; 0x164
    $d
        0x00000166:    0000        ..      DCW    0
        0x00000168:    00002b71    q+..    DCD    11121
        0x0000016c:    4000f800    ...@    DCD    1073805312
        0x00000170:    a5a500f0    ....    DCD    2779054320
        0x00000174:    00000131    1...    DCD    305
    $t
    .text
    cr4_fft_256_stm32
        0x00000178:    e92d4ff0    -..O    PUSH     {r4-r11,lr}
        0x0000017c:    f04f0c00    O...    MOV      r12,#0
        0x00000180:    f04f0300    O...    MOV      r3,#0
        0x00000184:    eb016e1c    ...n    ADD      lr,r1,r12,LSR #24
        0x00000188:    f9be5002    ...P    LDRSH    r5,[lr,#2]
        0x0000018c:    f9be4000    ...@    LDRSH    r4,[lr,#0]
        0x00000190:    f50e7e80    ...~    ADD      lr,lr,#0x100
        0x00000194:    f9be9002    ....    LDRSH    r9,[lr,#2]
        0x00000198:    f9be8000    ....    LDRSH    r8,[lr,#0]
        0x0000019c:    f50e7e80    ...~    ADD      lr,lr,#0x100
        0x000001a0:    f9be7002    ...p    LDRSH    r7,[lr,#2]
        0x000001a4:    f9be6000    ...`    LDRSH    r6,[lr,#0]
        0x000001a8:    f50e7e80    ...~    ADD      lr,lr,#0x100
        0x000001ac:    f9beb002    ....    LDRSH    r11,[lr,#2]
        0x000001b0:    f9bea000    ....    LDRSH    r10,[lr,#0]
        0x000001b4:    f50e7e80    ...~    ADD      lr,lr,#0x100
        0x000001b8:    44d0        .D      ADD      r8,r8,r10
        0x000001ba:    44d9        .D      ADD      r9,r9,r11
        0x000001bc:    eba80a4a    ..J.    SUB      r10,r8,r10,LSL #1
        0x000001c0:    eba90b4b    ..K.    SUB      r11,r9,r11,LSL #1
        0x000001c4:    ea4f04a4    O...    ASR      r4,r4,#2
        0x000001c8:    ea4f05a5    O...    ASR      r5,r5,#2
        0x000001cc:    eb0404a6    ....    ADD      r4,r4,r6,ASR #2
        0x000001d0:    eb0505a7    ....    ADD      r5,r5,r7,ASR #2
        0x000001d4:    eba40666    ..f.    SUB      r6,r4,r6,ASR #1
        0x000001d8:    eba50767    ..g.    SUB      r7,r5,r7,ASR #1
        0x000001dc:    eb0404a8    ....    ADD      r4,r4,r8,ASR #2
        0x000001e0:    eb0505a9    ....    ADD      r5,r5,r9,ASR #2
        0x000001e4:    eba40868    ..h.    SUB      r8,r4,r8,ASR #1
        0x000001e8:    eba50969    ..i.    SUB      r9,r5,r9,ASR #1
        0x000001ec:    eb0606ab    ....    ADD      r6,r6,r11,ASR #2
        0x000001f0:    eba707aa    ....    SUB      r7,r7,r10,ASR #2
        0x000001f4:    eba60b6b    ..k.    SUB      r11,r6,r11,ASR #1
        0x000001f8:    eb070a6a    ..j.    ADD      r10,r7,r10,ASR #1
        0x000001fc:    8045        E.      STRH     r5,[r0,#2]
        0x000001fe:    f8204b04     ..K    STRH     r4,[r0],#4
        0x00000202:    8047        G.      STRH     r7,[r0,#2]
        0x00000204:    f8206b04     ..k    STRH     r6,[r0],#4
        0x00000208:    f8a09002    ....    STRH     r9,[r0,#2]
        0x0000020c:    f8208b04     ...    STRH     r8,[r0],#4
        0x00000210:    f8a0a002    ....    STRH     r10,[r0,#2]
        0x00000214:    f820bb04     ...    STRH     r11,[r0],#4
        0x00000218:    f1030301    ....    ADD      r3,r3,#1
        0x0000021c:    fa93fca3    ....    RBIT     r12,r3
        0x00000220:    2b40        @+      CMP      r3,#0x40
        0x00000222:    d1af        ..      BNE      0x184 ; cr4_fft_256_stm32 + 12
        0x00000224:    eba00182    ....    SUB      r1,r0,r2,LSL #2
        0x00000228:    f04f0310    O...    MOV      r3,#0x10
        0x0000022c:    0912        ..      LSRS     r2,r2,#4
        0x0000022e:    f20f1036    ..6.    ADR.W    r0,{pc}+0x138 ; 0x366
        0x00000232:    f1000000    ....    ADD      r0,r0,#0
        0x00000236:    b406        ..      PUSH     {r1,r2}
        0x00000238:    eb030c43    ..C.    ADD      r12,r3,r3,LSL #1
        0x0000023c:    4461        aD      ADD      r1,r1,r12
        0x0000023e:    f5a23280    ...2    SUB      r2,r2,#0x10000
        0x00000242:    eb023283    ...2    ADD      r2,r2,r3,LSL #14
        0x00000246:    f9b15002    ...P    LDRSH    r5,[r1,#2]
        0x0000024a:    f9b14000    ...@    LDRSH    r4,[r1,#0]
        0x0000024e:    eba10103    ....    SUB      r1,r1,r3
        0x00000252:    f9b0b002    ....    LDRSH    r11,[r0,#2]
        0x00000256:    f9b0a000    ....    LDRSH    r10,[r0,#0]
        0x0000025a:    f1000004    ....    ADD      r0,r0,#4
        0x0000025e:    eba50e04    ....    SUB      lr,r5,r4
        0x00000262:    fb0efc0b    ....    MUL      r12,lr,r11
        0x00000266:    eb0a0e4b    ..K.    ADD      lr,r10,r11,LSL #1
        0x0000026a:    fb05cb0a    ....    MLA      r11,r5,r10,r12
        0x0000026e:    fb04ca0e    ....    MLA      r10,r4,lr,r12
        0x00000272:    f9b15002    ...P    LDRSH    r5,[r1,#2]
        0x00000276:    f9b14000    ...@    LDRSH    r4,[r1,#0]
        0x0000027a:    eba10103    ....    SUB      r1,r1,r3
        0x0000027e:    f9b09002    ....    LDRSH    r9,[r0,#2]
        0x00000282:    f9b08000    ....    LDRSH    r8,[r0,#0]
        0x00000286:    f1000004    ....    ADD      r0,r0,#4
        0x0000028a:    eba50e04    ....    SUB      lr,r5,r4
        0x0000028e:    fb0efc09    ....    MUL      r12,lr,r9
        0x00000292:    eb080e49    ..I.    ADD      lr,r8,r9,LSL #1
        0x00000296:    fb05c908    ....    MLA      r9,r5,r8,r12
        0x0000029a:    fb04c80e    ....    MLA      r8,r4,lr,r12
        0x0000029e:    f9b15002    ...P    LDRSH    r5,[r1,#2]
        0x000002a2:    f9b14000    ...@    LDRSH    r4,[r1,#0]
        0x000002a6:    eba10103    ....    SUB      r1,r1,r3
        0x000002aa:    f9b07002    ...p    LDRSH    r7,[r0,#2]
        0x000002ae:    f9b06000    ...`    LDRSH    r6,[r0,#0]
        0x000002b2:    f1000004    ....    ADD      r0,r0,#4
        0x000002b6:    eba50e04    ....    SUB      lr,r5,r4
        0x000002ba:    fb0efc07    ....    MUL      r12,lr,r7
        0x000002be:    eb060e47    ..G.    ADD      lr,r6,r7,LSL #1
        0x000002c2:    fb05c706    ....    MLA      r7,r5,r6,r12
        0x000002c6:    fb04c60e    ....    MLA      r6,r4,lr,r12
        0x000002ca:    f9b15002    ...P    LDRSH    r5,[r1,#2]
        0x000002ce:    f9b14000    ...@    LDRSH    r4,[r1,#0]
        0x000002d2:    f1010100    ....    ADD      r1,r1,#0
        0x000002d6:    44d0        .D      ADD      r8,r8,r10
        0x000002d8:    44d9        .D      ADD      r9,r9,r11
        0x000002da:    eba80a4a    ..J.    SUB      r10,r8,r10,LSL #1
        0x000002de:    eba90b4b    ..K.    SUB      r11,r9,r11,LSL #1
        0x000002e2:    ea4f04a4    O...    ASR      r4,r4,#2
        0x000002e6:    ea4f05a5    O...    ASR      r5,r5,#2
        0x000002ea:    eb044426    ..&D    ADD      r4,r4,r6,ASR #16
        0x000002ee:    eb054527    ..'E    ADD      r5,r5,r7,ASR #16
        0x000002f2:    eba436e6    ...6    SUB      r6,r4,r6,ASR #15
        0x000002f6:    eba537e7    ...7    SUB      r7,r5,r7,ASR #15
        0x000002fa:    eb044428    ..(D    ADD      r4,r4,r8,ASR #16
        0x000002fe:    eb054529    ..)E    ADD      r5,r5,r9,ASR #16
        0x00000302:    eba438e8    ...8    SUB      r8,r4,r8,ASR #15
        0x00000306:    eba539e9    ...9    SUB      r9,r5,r9,ASR #15
        0x0000030a:    eb06462b    ..+F    ADD      r6,r6,r11,ASR #16
        0x0000030e:    eba7472a    ..*G    SUB      r7,r7,r10,ASR #16
        0x00000312:    eba63beb    ...;    SUB      r11,r6,r11,ASR #15
        0x00000316:    eb073aea    ...:    ADD      r10,r7,r10,ASR #15
        0x0000031a:    804d        M.      STRH     r5,[r1,#2]
        0x0000031c:    800c        ..      STRH     r4,[r1,#0]
        0x0000031e:    4419        .D      ADD      r1,r1,r3
        0x00000320:    804f        O.      STRH     r7,[r1,#2]
        0x00000322:    800e        ..      STRH     r6,[r1,#0]
        0x00000324:    4419        .D      ADD      r1,r1,r3
        0x00000326:    f8a19002    ....    STRH     r9,[r1,#2]
        0x0000032a:    f8a18000    ....    STRH     r8,[r1,#0]
        0x0000032e:    4419        .D      ADD      r1,r1,r3
        0x00000330:    f8a1a002    ....    STRH     r10,[r1,#2]
        0x00000334:    f821bb04    !...    STRH     r11,[r1],#4
        0x00000338:    f5b23280    ...2    SUBS     r2,r2,#0x10000
        0x0000033c:    da83        ..      BGE      0x246 ; cr4_fft_256_stm32 + 206
        0x0000033e:    eb030c43    ..C.    ADD      r12,r3,r3,LSL #1
        0x00000342:    4461        aD      ADD      r1,r1,r12
        0x00000344:    f1a20201    ....    SUB      r2,r2,#1
        0x00000348:    ea5f4e02    _..N    LSLS     lr,r2,#16
        0x0000034c:    bf18        ..      IT       NE
        0x0000034e:    eba0000c    ....    SUBNE    r0,r0,r12
        0x00000352:    f47faf76    ..v.    BNE      0x242 ; cr4_fft_256_stm32 + 202
        0x00000356:    bc06        ..      POP      {r1,r2}
        0x00000358:    ea4f0383    O...    LSL      r3,r3,#2
        0x0000035c:    0892        ..      LSRS     r2,r2,#2
        0x0000035e:    f47faf6a    ..j.    BNE      0x236 ; cr4_fft_256_stm32 + 190
        0x00000362:    e8bd8ff0    ....    POP      {r4-r11,pc}
    $d
        0x00000366:    4000        .@      DCW    16384
        0x00000368:    40000000    ...@    DCD    1073741824
        0x0000036c:    40000000    ...@    DCD    1073741824
        0x00000370:    dd5d0000    ..].    DCD    3713859584
        0x00000374:    22a33b21    !;."    DCD    581122849
        0x00000378:    0000187e    ~...    DCD    6270
        0x0000037c:    a57e2d41    A-~.    DCD    2776509761
        0x00000380:    00002d41    A-..    DCD    11585
        0x00000384:    c0002d41    A-..    DCD    3221237057
        0x00000388:    dd5d4000    .@].    DCD    3713875968
        0x0000038c:    dd5de782    ..].    DCD    3713918850
        0x00000390:    a57e3b21    !;~.    DCD    2776513313
        0x00000394:    40002d41    A-.@    DCD    1073753409
        0x00000398:    40000000    ...@    DCD    1073741824
        0x0000039c:    40000000    ...@    DCD    1073741824
        0x000003a0:    2aaa0000    ...*    DCD    715784192
        0x000003a4:    396b1294    ..k9    DCD    963318420
        0x000003a8:    32490646    F.I2    DCD    843646534
        0x000003ac:    11a80c7c    |...    DCD    296225916
        0x000003b0:    3249238e    .#I2    DCD    843654030
        0x000003b4:    22a30c7c    |.."    DCD    581110908
        0x000003b8:    f721187e    ~.!.    DCD    4146141310
        0x000003bc:    2aaa3179    y1.*    DCD    715796857
        0x000003c0:    11a81294    ....    DCD    296227476
        0x000003c4:    dd5d238e    .#].    DCD    3713868686
        0x000003c8:    22a33b21    !;."    DCD    581122849
        0x000003cc:    0000187e    ~...    DCD    6270
        0x000003d0:    c6952d41    A-..    DCD    3331665217
        0x000003d4:    1a463fb1    .?F.    DCD    440811441
        0x000003d8:    ee581e2b    +.X.    DCD    3998752299
        0x000003dc:    b4be3537    75..    DCD    3032364343
        0x000003e0:    11a83ec5    .>..    DCD    296238789
        0x000003e4:    dd5d238e    .#].    DCD    3713868686
        0x000003e8:    a9633b21    !;c.    DCD    2841852705
        0x000003ec:    08df3871    q8..    DCD    148846705
        0x000003f0:    cdb7289a    .(..    DCD    3451332762
        0x000003f4:    a57e3ec5    .>~.    DCD    2776514245
        0x000003f8:    00002d41    A-..    DCD    11585
        0x000003fc:    c0002d41    A-..    DCD    3221237057
        0x00000400:    a9634000    .@c.    DCD    2841853952
        0x00000404:    f7211e2b    +.!.    DCD    4146142763
        0x00000408:    b4be3179    y1..    DCD    3032363385
        0x0000040c:    b4be3ec5    .>..    DCD    3032366789
        0x00000410:    ee580c7c    |.X.    DCD    3998747772
        0x00000414:    ac613537    75a.    DCD    2892051767
        0x00000418:    c6953b21    !;..    DCD    3331668769
        0x0000041c:    e5baf9ba    ....    DCD    3854236090
        0x00000420:    a73b3871    q8;.    DCD    2805676145
        0x00000424:    dd5d3537    75].    DCD    3713873207
        0x00000428:    dd5de782    ..].    DCD    3713918850
        0x0000042c:    a57e3b21    !;~.    DCD    2776513313
        0x00000430:    f7212d41    A-!.    DCD    4146146625
        0x00000434:    d556d766    f.V.    DCD    3579238246
        0x00000438:    a73b3d3f    ?=;.    DCD    2805677375
        0x0000043c:    11a8238e    .#..    DCD    296231822
        0x00000440:    cdb7cac9    ....    DCD    3451374281
        0x00000444:    ac613ec5    .>a.    DCD    2892054213
        0x00000448:    2aaa187e    ~..*    DCD    715790462
        0x0000044c:    c695c2c1    ....    DCD    3331703489
        0x00000450:    b4be3fb1    .?..    DCD    3032367025
        0x00000454:    40000c7c    |..@    DCD    1073745020
        0x00000458:    40000000    ...@    DCD    1073741824
        0x0000045c:    40000000    ...@    DCD    1073741824
        0x00000460:    3b1e0000    ...;    DCD    991821824
        0x00000464:    3e6904b5    ..i>    DCD    1047069877
        0x00000468:    3cc80192    ...<    DCD    1019740562
        0x0000046c:    35eb0324    $..5    DCD    904594212
        0x00000470:    3cc80964    d..<    DCD    1019742564
        0x00000474:    396b0324    $.k9    DCD    963314468
        0x00000478:    306c0646    F.l0    DCD    812385862
        0x0000047c:    3b1e0e06    ...;    DCD    991825414
        0x00000480:    35eb04b5    ...5    DCD    904594613
        0x00000484:    2aaa0964    d..*    DCD    715786596
        0x00000488:    396b1294    ..k9    DCD    963318420
        0x0000048c:    32490646    F.I2    DCD    843646534
        0x00000490:    24ae0c7c    |..$    DCD    615386236
        0x00000494:    37af1709    ...7    DCD    934221577
        0x00000498:    2e8807d6    ....    DCD    780666838
        0x0000049c:    1e7e0f8d    ..~.    DCD    511577997
        0x000004a0:    35eb1b5d    ]..5    DCD    904600413
        0x000004a4:    2aaa0964    d..*    DCD    715786596
        0x000004a8:    18241294    ..$.    DCD    405017236
        0x000004ac:    341e1f8c    ...4    DCD    874389388
        0x000004b0:    26b30af1    ...&    DCD    649267953
        0x000004b4:    11a81590    ....    DCD    296228240
        0x000004b8:    3249238e    .#I2    DCD    843654030
        0x000004bc:    22a30c7c    |.."    DCD    581110908
        0x000004c0:    0b14187e    ~...    DCD    185866366
        0x000004c4:    306c2760    `'l0    DCD    812394336
        0x000004c8:    1e7e0e06    ..~.    DCD    511577606
        0x000004cc:    04711b5d    ].q.    DCD    74521437
        0x000004d0:    2e882afb    .*..    DCD    780675835
        0x000004d4:    1a460f8d    ..F.    DCD    440799117
        0x000004d8:    fdc71e2b    +...    DCD    4257685035
        0x000004dc:    2c9d2e5a    Z..,    DCD    748498522
        0x000004e0:    15fe1112    ....    DCD    368972050
        0x000004e4:    f72120e7    . !.    DCD    4146143463
        0x000004e8:    2aaa3179    y1.*    DCD    715796857
        0x000004ec:    11a81294    ....    DCD    296227476
        0x000004f0:    f087238e    .#..    DCD    4035388302
        0x000004f4:    28b23453    S4.(    DCD    682767443
        0x000004f8:    0d481413    ..H.    DCD    222827539
        0x000004fc:    ea022620     &..    DCD    3926009376
        0x00000500:    26b336e5    .6.&    DCD    649279205
        0x00000504:    08df1590    ....    DCD    148837776
        0x00000508:    e39c289a    .(..    DCD    3818662042
        0x0000050c:    24ae392b    +9.$    DCD    615397675
        0x00000510:    04711709    ..q.    DCD    74520329
        0x00000514:    dd5d2afb    .*].    DCD    3713870587
        0x00000518:    22a33b21    !;."    DCD    581122849
        0x0000051c:    0000187e    ~...    DCD    6270
        0x00000520:    d74e2d41    A-N.    DCD    3612224833
        0x00000524:    20933cc5    .<.     DCD    546520261
        0x00000528:    fb8f19ef    ....    DCD    4220459503
        0x0000052c:    d1782f6c    l/x.    DCD    3514314604
        0x00000530:    1e7e3e15    .>~.    DCD    511589909
        0x00000534:    f7211b5d    ].!.    DCD    4146142045
        0x00000538:    cbe23179    y1..    DCD    3420598649
        0x0000053c:    1c643f0f    .?d.    DCD    476331791
        0x00000540:    f2b81cc6    ....    DCD    4072152262
        0x00000544:    c6953368    h3..    DCD    3331666792
        0x00000548:    1a463fb1    .?F.    DCD    440811441
        0x0000054c:    ee581e2b    +.X.    DCD    3998752299
        0x00000550:    c1973537    75..    DCD    3247912247
        0x00000554:    18243ffb    .?$.    DCD    405028859
        0x00000558:    ea021f8c    ....    DCD    3926007692
        0x0000055c:    bcf036e5    .6..    DCD    3169859301
        0x00000560:    15fe3fec    .?..    DCD    368984044
        0x00000564:    e5ba20e7    . ..    DCD    3854180583
        0x00000568:    b8a63871    q8..    DCD    3097901169
        0x0000056c:    13d53f85    .?..    DCD    332742533
        0x00000570:    e182223d    ="..    DCD    3783402045
        0x00000574:    b4be39db    .9..    DCD    3032365531
        0x00000578:    11a83ec5    .>..    DCD    296238789
        0x0000057c:    dd5d238e    .#].    DCD    3713868686
        0x00000580:    b1403b21    !;@.    DCD    2973776673
        0x00000584:    0f793daf    .=y.    DCD    259603887
        0x00000588:    d94d24da    .$M.    DCD    3645711578
        0x0000058c:    ae2e3c42    B<..    DCD    2922265666
        0x00000590:    0d483c42    B<H.    DCD    222837826
        0x00000594:    d5562620     &V.    DCD    3579192864
        0x00000598:    ab8e3d3f    ?=..    DCD    2878225727
        0x0000059c:    0b143a82    .:..    DCD    185875074
        0x000005a0:    d1782760    `'x.    DCD    3514312544
        0x000005a4:    a9633e15    .>c.    DCD    2841853461
        0x000005a8:    08df3871    q8..    DCD    148846705
        0x000005ac:    cdb7289a    .(..    DCD    3451332762
        0x000005b0:    a7b13ec5    .>..    DCD    2813411013
        0x000005b4:    06a93612    .6..    DCD    111752722
        0x000005b8:    ca1529ce    .)..    DCD    3390384590
        0x000005bc:    a6783f4f    O?x.    DCD    2792898383
        0x000005c0:    04713368    h3q.    DCD    74527592
        0x000005c4:    c6952afb    .*..    DCD    3331664635
        0x000005c8:    a5bc3fb1    .?..    DCD    2780577713
        0x000005cc:    02393076    v09.    DCD    37302390
        0x000005d0:    c3382c21    !,8.    DCD    3275238433
        0x000005d4:    a57e3fec    .?~.    DCD    2776514540
        0x000005d8:    00002d41    A-..    DCD    11585
        0x000005dc:    c0002d41    A-..    DCD    3221237057
        0x000005e0:    a5bc4000    .@..    DCD    2780577792
        0x000005e4:    fdc729ce    .)..    DCD    4257688014
        0x000005e8:    bcf02e5a    Z...    DCD    3169857114
        0x000005ec:    a6783fec    .?x.    DCD    2792898540
        0x000005f0:    fb8f2620     &..    DCD    4220462624
        0x000005f4:    ba092f6c    l/..    DCD    3121164140
        0x000005f8:    a7b13fb1    .?..    DCD    2813411249
        0x000005fc:    f957223d    ="W.    DCD    4183237181
        0x00000600:    b74d3076    v0M.    DCD    3075289206
        0x00000604:    a9633f4f    O?c.    DCD    2841853775
        0x00000608:    f7211e2b    +.!.    DCD    4146142763
        0x0000060c:    b4be3179    y1..    DCD    3032363385
        0x00000610:    ab8e3ec5    .>..    DCD    2878226117
        0x00000614:    f4ec19ef    ....    DCD    4109113839
        0x00000618:    b25e3274    t2^.    DCD    2992517748
        0x0000061c:    ae2e3e15    .>..    DCD    2922266133
        0x00000620:    f2b81590    ....    DCD    4072150416
        0x00000624:    b02d3368    h3-.    DCD    2955752296
        0x00000628:    b1403d3f    ?=@.    DCD    2973777215
        0x0000062c:    f0871112    ....    DCD    4035383570
        0x00000630:    ae2e3453    S4..    DCD    2922263635
        0x00000634:    b4be3c42    B<..    DCD    3032366146
        0x00000638:    ee580c7c    |.X.    DCD    3998747772
        0x0000063c:    ac613537    75a.    DCD    2892051767
        0x00000640:    b8a63b21    !;..    DCD    3097901857
        0x00000644:    ec2b07d6    ..+.    DCD    3962243030
        0x00000648:    aac83612    .6..    DCD    2865247762
        0x0000064c:    bcf039db    .9..    DCD    3169860059
        0x00000650:    ea020324    $...    DCD    3926000420
        0x00000654:    a96336e5    .6c.    DCD    2841851621
        0x00000658:    c1973871    q8..    DCD    3247913073
        0x0000065c:    e7dcfe6e    n...    DCD    3890019950
        0x00000660:    a83437b0    .74.    DCD    2821994416
        0x00000664:    c69536e5    .6..    DCD    3331667685
        0x00000668:    e5baf9ba    ....    DCD    3854236090
        0x0000066c:    a73b3871    q8;.    DCD    2805676145
        0x00000670:    cbe23537    75..    DCD    3420599607
        0x00000674:    e39cf50f    ....    DCD    3818714383
        0x00000678:    a678392b    +9x.    DCD    2792896811
        0x0000067c:    d1783368    h3x.    DCD    3514315624
        0x00000680:    e182f073    s...    DCD    3783454835
        0x00000684:    a5ed39db    .9..    DCD    2783787483
        0x00000688:    d74e3179    y1N.    DCD    3612225913
        0x0000068c:    df6debed    ..m.    DCD    3748522989
        0x00000690:    a5993a82    .:..    DCD    2778282626
        0x00000694:    dd5d2f6c    l/].    DCD    3713871724
        0x00000698:    dd5de782    ..].    DCD    3713918850
        0x0000069c:    a57e3b21    !;~.    DCD    2776513313
        0x000006a0:    e39c2d41    A-..    DCD    3818663233
        0x000006a4:    db52e33a    :.R.    DCD    3679642426
        0x000006a8:    a5993bb6    .;..    DCD    2778282934
        0x000006ac:    ea022afb    .*..    DCD    3926010619
        0x000006b0:    d94ddf19    ..M.    DCD    3645759257
        0x000006b4:    a5ed3c42    B<..    DCD    2783788098
        0x000006b8:    f087289a    .(..    DCD    4035389594
        0x000006bc:    d74edb26    &.N.    DCD    3612269350
        0x000006c0:    a6783cc5    .<x.    DCD    2792897733
        0x000006c4:    f7212620     &!.    DCD    4146144800
        0x000006c8:    d556d766    f.V.    DCD    3579238246
        0x000006cc:    a73b3d3f    ?=;.    DCD    2805677375
        0x000006d0:    fdc7238e    .#..    DCD    4257686414
        0x000006d4:    d363d3df    ..c.    DCD    3546534879
        0x000006d8:    a8343daf    .=4.    DCD    2821995951
        0x000006dc:    047120e7    . q.    DCD    74522855
        0x000006e0:    d178d094    ..x.    DCD    3514355860
        0x000006e4:    a9633e15    .>c.    DCD    2841853461
        0x000006e8:    0b141e2b    +...    DCD    185867819
        0x000006ec:    cf94cd8c    ....    DCD    3482635660
        0x000006f0:    aac83e72    r>..    DCD    2865249906
        0x000006f4:    11a81b5d    ]...    DCD    296229725
        0x000006f8:    cdb7cac9    ....    DCD    3451374281
        0x000006fc:    ac613ec5    .>a.    DCD    2892054213
        0x00000700:    1824187e    ~.$.    DCD    405018750
        0x00000704:    cbe2c850    P...    DCD    3420637264
        0x00000708:    ae2e3f0f    .?..    DCD    2922266383
        0x0000070c:    1e7e1590    ..~.    DCD    511579536
        0x00000710:    ca15c625    %...    DCD    3390424613
        0x00000714:    b02d3f4f    O?-.    DCD    2955755343
        0x00000718:    24ae1294    ...$    DCD    615387796
        0x0000071c:    c851c44a    J.Q.    DCD    3360801866
        0x00000720:    b25e3f85    .?^.    DCD    2992521093
        0x00000724:    2aaa0f8d    ...*    DCD    715788173
        0x00000728:    c695c2c1    ....    DCD    3331703489
        0x0000072c:    b4be3fb1    .?..    DCD    3032367025
        0x00000730:    306c0c7c    |.l0    DCD    812387452
        0x00000734:    c4e2c18e    ....    DCD    3303195022
        0x00000738:    b74d3fd4    .?M.    DCD    3075293140
        0x0000073c:    35eb0964    d..5    DCD    904595812
        0x00000740:    c338c0b1    ..8.    DCD    3275276465
        0x00000744:    ba093fec    .?..    DCD    3121168364
        0x00000748:    3b1e0646    F..;    DCD    991823430
        0x0000074c:    c197c02c    ,...    DCD    3247947820
        0x00000750:    bcf03ffb    .?..    DCD    3169861627
        0x00000754:    00000324    $...    DCD    804
    $t
    .text
    cr4_fft_1024_stm32
        0x00000758:    e92d4ff0    -..O    PUSH     {r4-r11,lr}
        0x0000075c:    f04f0c00    O...    MOV      r12,#0
        0x00000760:    f04f0300    O...    MOV      r3,#0
        0x00000764:    eb015e9c    ...^    ADD      lr,r1,r12,LSR #22
        0x00000768:    f9be5002    ...P    LDRSH    r5,[lr,#2]
        0x0000076c:    f9be4000    ...@    LDRSH    r4,[lr,#0]
        0x00000770:    f50e6e80    ...n    ADD      lr,lr,#0x400
        0x00000774:    f9be9002    ....    LDRSH    r9,[lr,#2]
        0x00000778:    f9be8000    ....    LDRSH    r8,[lr,#0]
        0x0000077c:    f50e6e80    ...n    ADD      lr,lr,#0x400
        0x00000780:    f9be7002    ...p    LDRSH    r7,[lr,#2]
        0x00000784:    f9be6000    ...`    LDRSH    r6,[lr,#0]
        0x00000788:    f50e6e80    ...n    ADD      lr,lr,#0x400
        0x0000078c:    f9beb002    ....    LDRSH    r11,[lr,#2]
        0x00000790:    f9bea000    ....    LDRSH    r10,[lr,#0]
        0x00000794:    f50e6e80    ...n    ADD      lr,lr,#0x400
        0x00000798:    44d0        .D      ADD      r8,r8,r10
        0x0000079a:    44d9        .D      ADD      r9,r9,r11
        0x0000079c:    eba80a4a    ..J.    SUB      r10,r8,r10,LSL #1
        0x000007a0:    eba90b4b    ..K.    SUB      r11,r9,r11,LSL #1
        0x000007a4:    ea4f04a4    O...    ASR      r4,r4,#2
        0x000007a8:    ea4f05a5    O...    ASR      r5,r5,#2
        0x000007ac:    eb0404a6    ....    ADD      r4,r4,r6,ASR #2
        0x000007b0:    eb0505a7    ....    ADD      r5,r5,r7,ASR #2
        0x000007b4:    eba40666    ..f.    SUB      r6,r4,r6,ASR #1
        0x000007b8:    eba50767    ..g.    SUB      r7,r5,r7,ASR #1
        0x000007bc:    eb0404a8    ....    ADD      r4,r4,r8,ASR #2
        0x000007c0:    eb0505a9    ....    ADD      r5,r5,r9,ASR #2
        0x000007c4:    eba40868    ..h.    SUB      r8,r4,r8,ASR #1
        0x000007c8:    eba50969    ..i.    SUB      r9,r5,r9,ASR #1
        0x000007cc:    eb0606ab    ....    ADD      r6,r6,r11,ASR #2
        0x000007d0:    eba707aa    ....    SUB      r7,r7,r10,ASR #2
        0x000007d4:    eba60b6b    ..k.    SUB      r11,r6,r11,ASR #1
        0x000007d8:    eb070a6a    ..j.    ADD      r10,r7,r10,ASR #1
        0x000007dc:    8045        E.      STRH     r5,[r0,#2]
        0x000007de:    f8204b04     ..K    STRH     r4,[r0],#4
        0x000007e2:    8047        G.      STRH     r7,[r0,#2]
        0x000007e4:    f8206b04     ..k    STRH     r6,[r0],#4
        0x000007e8:    f8a09002    ....    STRH     r9,[r0,#2]
        0x000007ec:    f8208b04     ...    STRH     r8,[r0],#4
        0x000007f0:    f8a0a002    ....    STRH     r10,[r0,#2]
        0x000007f4:    f820bb04     ...    STRH     r11,[r0],#4
        0x000007f8:    f1030301    ....    ADD      r3,r3,#1
        0x000007fc:    fa93fca3    ....    RBIT     r12,r3
        0x00000800:    f5b37f80    ....    CMP      r3,#0x100
        0x00000804:    d1ae        ..      BNE      0x764 ; cr4_fft_1024_stm32 + 12
        0x00000806:    eba00182    ....    SUB      r1,r0,r2,LSL #2
        0x0000080a:    f04f0310    O...    MOV      r3,#0x10
        0x0000080e:    0912        ..      LSRS     r2,r2,#4
        0x00000810:    f20f1034    ..4.    ADR.W    r0,{pc}+0x138 ; 0x948
        0x00000814:    f1000000    ....    ADD      r0,r0,#0
        0x00000818:    b406        ..      PUSH     {r1,r2}
        0x0000081a:    eb030c43    ..C.    ADD      r12,r3,r3,LSL #1
        0x0000081e:    4461        aD      ADD      r1,r1,r12
        0x00000820:    f5a23280    ...2    SUB      r2,r2,#0x10000
        0x00000824:    eb023283    ...2    ADD      r2,r2,r3,LSL #14
        0x00000828:    f9b15002    ...P    LDRSH    r5,[r1,#2]
        0x0000082c:    f9b14000    ...@    LDRSH    r4,[r1,#0]
        0x00000830:    eba10103    ....    SUB      r1,r1,r3
        0x00000834:    f9b0b002    ....    LDRSH    r11,[r0,#2]
        0x00000838:    f9b0a000    ....    LDRSH    r10,[r0,#0]
        0x0000083c:    f1000004    ....    ADD      r0,r0,#4
        0x00000840:    eba50e04    ....    SUB      lr,r5,r4
        0x00000844:    fb0efc0b    ....    MUL      r12,lr,r11
        0x00000848:    eb0a0e4b    ..K.    ADD      lr,r10,r11,LSL #1
        0x0000084c:    fb05cb0a    ....    MLA      r11,r5,r10,r12
        0x00000850:    fb04ca0e    ....    MLA      r10,r4,lr,r12
        0x00000854:    f9b15002    ...P    LDRSH    r5,[r1,#2]
        0x00000858:    f9b14000    ...@    LDRSH    r4,[r1,#0]
        0x0000085c:    eba10103    ....    SUB      r1,r1,r3
        0x00000860:    f9b09002    ....    LDRSH    r9,[r0,#2]
        0x00000864:    f9b08000    ....    LDRSH    r8,[r0,#0]
        0x00000868:    f1000004    ....    ADD      r0,r0,#4
        0x0000086c:    eba50e04    ....    SUB      lr,r5,r4
        0x00000870:    fb0efc09    ....    MUL      r12,lr,r9
        0x00000874:    eb080e49    ..I.    ADD      lr,r8,r9,LSL #1
        0x00000878:    fb05c908    ....    MLA      r9,r5,r8,r12
        0x0000087c:    fb04c80e    ....    MLA      r8,r4,lr,r12
        0x00000880:    f9b15002    ...P    LDRSH    r5,[r1,#2]
        0x00000884:    f9b14000    ...@    LDRSH    r4,[r1,#0]
        0x00000888:    eba10103    ....    SUB      r1,r1,r3
        0x0000088c:    f9b07002    ...p    LDRSH    r7,[r0,#2]
        0x00000890:    f9b06000    ...`    LDRSH    r6,[r0,#0]
        0x00000894:    f1000004    ....    ADD      r0,r0,#4
        0x00000898:    eba50e04    ....    SUB      lr,r5,r4
        0x0000089c:    fb0efc07    ....    MUL      r12,lr,r7
        0x000008a0:    eb060e47    ..G.    ADD      lr,r6,r7,LSL #1
        0x000008a4:    fb05c706    ....    MLA      r7,r5,r6,r12
        0x000008a8:    fb04c60e    ....    MLA      r6,r4,lr,r12
        0x000008ac:    f9b15002    ...P    LDRSH    r5,[r1,#2]
        0x000008b0:    f9b14000    ...@    LDRSH    r4,[r1,#0]
        0x000008b4:    f1010100    ....    ADD      r1,r1,#0
        0x000008b8:    44d0        .D      ADD      r8,r8,r10
        0x000008ba:    44d9        .D      ADD      r9,r9,r11
        0x000008bc:    eba80a4a    ..J.    SUB      r10,r8,r10,LSL #1
        0x000008c0:    eba90b4b    ..K.    SUB      r11,r9,r11,LSL #1
        0x000008c4:    ea4f04a4    O...    ASR      r4,r4,#2
        0x000008c8:    ea4f05a5    O...    ASR      r5,r5,#2
        0x000008cc:    eb044426    ..&D    ADD      r4,r4,r6,ASR #16
        0x000008d0:    eb054527    ..'E    ADD      r5,r5,r7,ASR #16
        0x000008d4:    eba436e6    ...6    SUB      r6,r4,r6,ASR #15
        0x000008d8:    eba537e7    ...7    SUB      r7,r5,r7,ASR #15
        0x000008dc:    eb044428    ..(D    ADD      r4,r4,r8,ASR #16
        0x000008e0:    eb054529    ..)E    ADD      r5,r5,r9,ASR #16
        0x000008e4:    eba438e8    ...8    SUB      r8,r4,r8,ASR #15
        0x000008e8:    eba539e9    ...9    SUB      r9,r5,r9,ASR #15
        0x000008ec:    eb06462b    ..+F    ADD      r6,r6,r11,ASR #16
        0x000008f0:    eba7472a    ..*G    SUB      r7,r7,r10,ASR #16
        0x000008f4:    eba63beb    ...;    SUB      r11,r6,r11,ASR #15
        0x000008f8:    eb073aea    ...:    ADD      r10,r7,r10,ASR #15
        0x000008fc:    804d        M.      STRH     r5,[r1,#2]
        0x000008fe:    800c        ..      STRH     r4,[r1,#0]
        0x00000900:    4419        .D      ADD      r1,r1,r3
        0x00000902:    804f        O.      STRH     r7,[r1,#2]
        0x00000904:    800e        ..      STRH     r6,[r1,#0]
        0x00000906:    4419        .D      ADD      r1,r1,r3
        0x00000908:    f8a19002    ....    STRH     r9,[r1,#2]
        0x0000090c:    f8a18000    ....    STRH     r8,[r1,#0]
        0x00000910:    4419        .D      ADD      r1,r1,r3
        0x00000912:    f8a1a002    ....    STRH     r10,[r1,#2]
        0x00000916:    f821bb04    !...    STRH     r11,[r1],#4
        0x0000091a:    f5b23280    ...2    SUBS     r2,r2,#0x10000
        0x0000091e:    da83        ..      BGE      0x828 ; cr4_fft_1024_stm32 + 208
        0x00000920:    eb030c43    ..C.    ADD      r12,r3,r3,LSL #1
        0x00000924:    4461        aD      ADD      r1,r1,r12
        0x00000926:    f1a20201    ....    SUB      r2,r2,#1
        0x0000092a:    ea5f4e02    _..N    LSLS     lr,r2,#16
        0x0000092e:    bf18        ..      IT       NE
        0x00000930:    eba0000c    ....    SUBNE    r0,r0,r12
        0x00000934:    f47faf76    ..v.    BNE      0x824 ; cr4_fft_1024_stm32 + 204
        0x00000938:    bc06        ..      POP      {r1,r2}
        0x0000093a:    ea4f0383    O...    LSL      r3,r3,#2
        0x0000093e:    0892        ..      LSRS     r2,r2,#2
        0x00000940:    f47faf6a    ..j.    BNE      0x818 ; cr4_fft_1024_stm32 + 192
        0x00000944:    e8bd8ff0    ....    POP      {r4-r11,pc}
    $d
        0x00000948:    00004000    .@..    DCD    16384
        0x0000094c:    00004000    .@..    DCD    16384
        0x00000950:    00004000    .@..    DCD    16384
        0x00000954:    3b21dd5d    ].!;    DCD    992075101
        0x00000958:    187e22a3    ."~.    DCD    410919587
        0x0000095c:    2d410000    ..A-    DCD    759234560
        0x00000960:    2d41a57e    ~.A-    DCD    759276926
        0x00000964:    2d410000    ..A-    DCD    759234560
        0x00000968:    4000c000    ...@    DCD    1073790976
        0x0000096c:    e782dd5d    ]...    DCD    3884113245
        0x00000970:    3b21dd5d    ].!;    DCD    992075101
        0x00000974:    2d41a57e    ~.A-    DCD    759276926
        0x00000978:    00004000    .@..    DCD    16384
        0x0000097c:    00004000    .@..    DCD    16384
        0x00000980:    00004000    .@..    DCD    16384
        0x00000984:    12942aaa    .*..    DCD    311700138
        0x00000988:    0646396b    k9F.    DCD    105265515
        0x0000098c:    0c7c3249    I2|.    DCD    209465929
        0x00000990:    238e11a8    ...#    DCD    596513192
        0x00000994:    0c7c3249    I2|.    DCD    209465929
        0x00000998:    187e22a3    ."~.    DCD    410919587
        0x0000099c:    3179f721    !.y1    DCD    830076705
        0x000009a0:    12942aaa    .*..    DCD    311700138
        0x000009a4:    238e11a8    ...#    DCD    596513192
        0x000009a8:    3b21dd5d    ].!;    DCD    992075101
        0x000009ac:    187e22a3    ."~.    DCD    410919587
        0x000009b0:    2d410000    ..A-    DCD    759234560
        0x000009b4:    3fb1c695    ...?    DCD    1068615317
        0x000009b8:    1e2b1a46    F.+.    DCD    506141254
        0x000009bc:    3537ee58    X.75    DCD    892857944
        0x000009c0:    3ec5b4be    ...>    DCD    1053144254
        0x000009c4:    238e11a8    ...#    DCD    596513192
        0x000009c8:    3b21dd5d    ].!;    DCD    992075101
        0x000009cc:    3871a963    c.q8    DCD    946973027
        0x000009d0:    289a08df    ...(    DCD    681183455
        0x000009d4:    3ec5cdb7    ...>    DCD    1053150647
        0x000009d8:    2d41a57e    ~.A-    DCD    759276926
        0x000009dc:    2d410000    ..A-    DCD    759234560
        0x000009e0:    4000c000    ...@    DCD    1073790976
        0x000009e4:    1e2ba963    c.+.    DCD    506177891
        0x000009e8:    3179f721    !.y1    DCD    830076705
        0x000009ec:    3ec5b4be    ...>    DCD    1053144254
        0x000009f0:    0c7cb4be    ..|.    DCD    209499326
        0x000009f4:    3537ee58    X.75    DCD    892857944
        0x000009f8:    3b21ac61    a.!;    DCD    992062561
        0x000009fc:    f9bac695    ....    DCD    4189767317
        0x00000a00:    3871e5ba    ..q8    DCD    946988474
        0x00000a04:    3537a73b    ;.75    DCD    892839739
        0x00000a08:    e782dd5d    ]...    DCD    3884113245
        0x00000a0c:    3b21dd5d    ].!;    DCD    992075101
        0x00000a10:    2d41a57e    ~.A-    DCD    759276926
        0x00000a14:    d766f721    !.f.    DCD    3613849377
        0x00000a18:    3d3fd556    V.?=    DCD    1027593558
        0x00000a1c:    238ea73b    ;..#    DCD    596551483
        0x00000a20:    cac911a8    ....    DCD    3402174888
        0x00000a24:    3ec5cdb7    ...>    DCD    1053150647
        0x00000a28:    187eac61    a.~.    DCD    410954849
        0x00000a2c:    c2c12aaa    .*..    DCD    3267439274
        0x00000a30:    3fb1c695    ...?    DCD    1068615317
        0x00000a34:    0c7cb4be    ..|.    DCD    209499326
        0x00000a38:    00004000    .@..    DCD    16384
        0x00000a3c:    00004000    .@..    DCD    16384
        0x00000a40:    00004000    .@..    DCD    16384
        0x00000a44:    04b53b1e    .;..    DCD    78986014
        0x00000a48:    01923e69    i>..    DCD    26361449
        0x00000a4c:    03243cc8    .<$.    DCD    52706504
        0x00000a50:    096435eb    .5d.    DCD    157562347
        0x00000a54:    03243cc8    .<$.    DCD    52706504
        0x00000a58:    0646396b    k9F.    DCD    105265515
        0x00000a5c:    0e06306c    l0..    DCD    235286636
        0x00000a60:    04b53b1e    .;..    DCD    78986014
        0x00000a64:    096435eb    .5d.    DCD    157562347
        0x00000a68:    12942aaa    .*..    DCD    311700138
        0x00000a6c:    0646396b    k9F.    DCD    105265515
        0x00000a70:    0c7c3249    I2|.    DCD    209465929
        0x00000a74:    170924ae    .$..    DCD    386475182
        0x00000a78:    07d637af    .7..    DCD    131479471
        0x00000a7c:    0f8d2e88    ....    DCD    260910728
        0x00000a80:    1b5d1e7e    ~.].    DCD    459087486
        0x00000a84:    096435eb    .5d.    DCD    157562347
        0x00000a88:    12942aaa    .*..    DCD    311700138
        0x00000a8c:    1f8c1824    $...    DCD    529274916
        0x00000a90:    0af1341e    .4..    DCD    183579678
        0x00000a94:    159026b3    .&..    DCD    361768627
        0x00000a98:    238e11a8    ...#    DCD    596513192
        0x00000a9c:    0c7c3249    I2|.    DCD    209465929
        0x00000aa0:    187e22a3    ."~.    DCD    410919587
        0x00000aa4:    27600b14    ..`'    DCD    660605716
        0x00000aa8:    0e06306c    l0..    DCD    235286636
        0x00000aac:    1b5d1e7e    ~.].    DCD    459087486
        0x00000ab0:    2afb0471    q..*    DCD    721093745
        0x00000ab4:    0f8d2e88    ....    DCD    260910728
        0x00000ab8:    1e2b1a46    F.+.    DCD    506141254
        0x00000abc:    2e5afdc7    ..Z.    DCD    777715143
        0x00000ac0:    11122c9d    .,..    DCD    286403741
        0x00000ac4:    20e715fe    ...     DCD    552015358
        0x00000ac8:    3179f721    !.y1    DCD    830076705
        0x00000acc:    12942aaa    .*..    DCD    311700138
        0x00000ad0:    238e11a8    ...#    DCD    596513192
        0x00000ad4:    3453f087    ..S4    DCD    877916295
        0x00000ad8:    141328b2    .(..    DCD    336799922
        0x00000adc:    26200d48    H. &    DCD    639634760
        0x00000ae0:    36e5ea02    ...6    DCD    921037314
        0x00000ae4:    159026b3    .&..    DCD    361768627
        0x00000ae8:    289a08df    ...(    DCD    681183455
        0x00000aec:    392be39c    ..+9    DCD    959177628
        0x00000af0:    170924ae    .$..    DCD    386475182
        0x00000af4:    2afb0471    q..*    DCD    721093745
        0x00000af8:    3b21dd5d    ].!;    DCD    992075101
        0x00000afc:    187e22a3    ."~.    DCD    410919587
        0x00000b00:    2d410000    ..A-    DCD    759234560
        0x00000b04:    3cc5d74e    N..<    DCD    1019598670
        0x00000b08:    19ef2093    . ..    DCD    435101843
        0x00000b0c:    2f6cfb8f    ..l/    DCD    795671439
        0x00000b10:    3e15d178    x..>    DCD    1041617272
        0x00000b14:    1b5d1e7e    ~.].    DCD    459087486
        0x00000b18:    3179f721    !.y1    DCD    830076705
        0x00000b1c:    3f0fcbe2    ...?    DCD    1057999842
        0x00000b20:    1cc61c64    d...    DCD    482745444
        0x00000b24:    3368f2b8    ..h3    DCD    862515896
        0x00000b28:    3fb1c695    ...?    DCD    1068615317
        0x00000b2c:    1e2b1a46    F.+.    DCD    506141254
        0x00000b30:    3537ee58    X.75    DCD    892857944
        0x00000b34:    3ffbc197    ...?    DCD    1073463703
        0x00000b38:    1f8c1824    $...    DCD    529274916
        0x00000b3c:    36e5ea02    ...6    DCD    921037314
        0x00000b40:    3fecbcf0    ...?    DCD    1072479472
        0x00000b44:    20e715fe    ...     DCD    552015358
        0x00000b48:    3871e5ba    ..q8    DCD    946988474
        0x00000b4c:    3f85b8a6    ...?    DCD    1065728166
        0x00000b50:    223d13d5    ..="    DCD    574428117
        0x00000b54:    39dbe182    ...9    DCD    970711426
        0x00000b58:    3ec5b4be    ...>    DCD    1053144254
        0x00000b5c:    238e11a8    ...#    DCD    596513192
        0x00000b60:    3b21dd5d    ].!;    DCD    992075101
        0x00000b64:    3dafb140    @..=    DCD    1034924352
        0x00000b68:    24da0f79    y..$    DCD    618270585
        0x00000b6c:    3c42d94d    M.B<    DCD    1011013965
        0x00000b70:    3c42ae2e    ..B<    DCD    1011002926
        0x00000b74:    26200d48    H. &    DCD    639634760
        0x00000b78:    3d3fd556    V.?=    DCD    1027593558
        0x00000b7c:    3a82ab8e    ...:    DCD    981642126
        0x00000b80:    27600b14    ..`'    DCD    660605716
        0x00000b84:    3e15d178    x..>    DCD    1041617272
        0x00000b88:    3871a963    c.q8    DCD    946973027
        0x00000b8c:    289a08df    ...(    DCD    681183455
        0x00000b90:    3ec5cdb7    ...>    DCD    1053150647
        0x00000b94:    3612a7b1    ...6    DCD    907192241
        0x00000b98:    29ce06a9    ...)    DCD    701367977
        0x00000b9c:    3f4fca15    ..O?    DCD    1062193685
        0x00000ba0:    3368a678    x.h3    DCD    862496376
        0x00000ba4:    2afb0471    q..*    DCD    721093745
        0x00000ba8:    3fb1c695    ...?    DCD    1068615317
        0x00000bac:    3076a5bc    ..v0    DCD    813082044
        0x00000bb0:    2c210239    9.!,    DCD    740360761
        0x00000bb4:    3fecc338    8..?    DCD    1072481080
        0x00000bb8:    2d41a57e    ~.A-    DCD    759276926
        0x00000bbc:    2d410000    ..A-    DCD    759234560
        0x00000bc0:    4000c000    ...@    DCD    1073790976
        0x00000bc4:    29cea5bc    ...)    DCD    701408700
        0x00000bc8:    2e5afdc7    ..Z.    DCD    777715143
        0x00000bcc:    3fecbcf0    ...?    DCD    1072479472
        0x00000bd0:    2620a678    x. &    DCD    639673976
        0x00000bd4:    2f6cfb8f    ..l/    DCD    795671439
        0x00000bd8:    3fb1ba09    ...?    DCD    1068612105
        0x00000bdc:    223da7b1    ..="    DCD    574465969
        0x00000be0:    3076f957    W.v0    DCD    813103447
        0x00000be4:    3f4fb74d    M.O?    DCD    1062188877
        0x00000be8:    1e2ba963    c.+.    DCD    506177891
        0x00000bec:    3179f721    !.y1    DCD    830076705
        0x00000bf0:    3ec5b4be    ...>    DCD    1053144254
        0x00000bf4:    19efab8e    ....    DCD    435137422
        0x00000bf8:    3274f4ec    ..t2    DCD    846525676
        0x00000bfc:    3e15b25e    ^..>    DCD    1041609310
        0x00000c00:    1590ae2e    ....    DCD    361803310
        0x00000c04:    3368f2b8    ..h3    DCD    862515896
        0x00000c08:    3d3fb02d    -.?=    DCD    1027584045
        0x00000c0c:    1112b140    @...    DCD    286437696
        0x00000c10:    3453f087    ..S4    DCD    877916295
        0x00000c14:    3c42ae2e    ..B<    DCD    1011002926
        0x00000c18:    0c7cb4be    ..|.    DCD    209499326
        0x00000c1c:    3537ee58    X.75    DCD    892857944
        0x00000c20:    3b21ac61    a.!;    DCD    992062561
        0x00000c24:    07d6b8a6    ....    DCD    131512486
        0x00000c28:    3612ec2b    +..6    DCD    907209771
        0x00000c2c:    39dbaac8    ...9    DCD    970697416
        0x00000c30:    0324bcf0    ..$.    DCD    52739312
        0x00000c34:    36e5ea02    ...6    DCD    921037314
        0x00000c38:    3871a963    c.q8    DCD    946973027
        0x00000c3c:    fe6ec197    ..n.    DCD    4268671383
        0x00000c40:    37b0e7dc    ...7    DCD    934340572
        0x00000c44:    36e5a834    4..6    DCD    921020468
        0x00000c48:    f9bac695    ....    DCD    4189767317
        0x00000c4c:    3871e5ba    ..q8    DCD    946988474
        0x00000c50:    3537a73b    ;.75    DCD    892839739
        0x00000c54:    f50fcbe2    ....    DCD    4111453154
        0x00000c58:    392be39c    ..+9    DCD    959177628
        0x00000c5c:    3368a678    x.h3    DCD    862496376
        0x00000c60:    f073d178    x.s.    DCD    4034122104
        0x00000c64:    39dbe182    ...9    DCD    970711426
        0x00000c68:    3179a5ed    ..y1    DCD    830055917
        0x00000c6c:    ebedd74e    N...    DCD    3958232910
        0x00000c70:    3a82df6d    m..:    DCD    981655405
        0x00000c74:    2f6ca599    ..l/    DCD    795649433
        0x00000c78:    e782dd5d    ]...    DCD    3884113245
        0x00000c7c:    3b21dd5d    ].!;    DCD    992075101
        0x00000c80:    2d41a57e    ~.A-    DCD    759276926
        0x00000c84:    e33ae39c    ..:.    DCD    3812287388
        0x00000c88:    3bb6db52    R..;    DCD    1001839442
        0x00000c8c:    2afba599    ...*    DCD    721135001
        0x00000c90:    df19ea02    ....    DCD    3743017474
        0x00000c94:    3c42d94d    M.B<    DCD    1011013965
        0x00000c98:    289aa5ed    ...(    DCD    681223661
        0x00000c9c:    db26f087    ..&.    DCD    3676762247
        0x00000ca0:    3cc5d74e    N..<    DCD    1019598670
        0x00000ca4:    2620a678    x. &    DCD    639673976
        0x00000ca8:    d766f721    !.f.    DCD    3613849377
        0x00000cac:    3d3fd556    V.?=    DCD    1027593558
        0x00000cb0:    238ea73b    ;..#    DCD    596551483
        0x00000cb4:    d3dffdc7    ....    DCD    3554672071
        0x00000cb8:    3dafd363    c..=    DCD    1034933091
        0x00000cbc:    20e7a834    4..     DCD    552052788
        0x00000cc0:    d0940471    q...    DCD    3499361393
        0x00000cc4:    3e15d178    x..>    DCD    1041617272
        0x00000cc8:    1e2ba963    c.+.    DCD    506177891
        0x00000ccc:    cd8c0b14    ....    DCD    3448507156
        0x00000cd0:    3e72cf94    ..r>    DCD    1047711636
        0x00000cd4:    1b5daac8    ..].    DCD    459123400
        0x00000cd8:    cac911a8    ....    DCD    3402174888
        0x00000cdc:    3ec5cdb7    ...>    DCD    1053150647
        0x00000ce0:    187eac61    a.~.    DCD    410954849
        0x00000ce4:    c8501824    $.P.    DCD    3360692260
        0x00000ce8:    3f0fcbe2    ...?    DCD    1057999842
        0x00000cec:    1590ae2e    ....    DCD    361803310
        0x00000cf0:    c6251e7e    ~.%.    DCD    3324321406
        0x00000cf4:    3f4fca15    ..O?    DCD    1062193685
        0x00000cf8:    1294b02d    -...    DCD    311734317
        0x00000cfc:    c44a24ae    .$J.    DCD    3293193390
        0x00000d00:    3f85c851    Q..?    DCD    1065732177
        0x00000d04:    0f8db25e    ^...    DCD    260944478
        0x00000d08:    c2c12aaa    .*..    DCD    3267439274
        0x00000d0c:    3fb1c695    ...?    DCD    1068615317
        0x00000d10:    0c7cb4be    ..|.    DCD    209499326
        0x00000d14:    c18e306c    l0..    DCD    3247321196
        0x00000d18:    3fd4c4e2    ...?    DCD    1070908642
        0x00000d1c:    0964b74d    M.d.    DCD    157595469
        0x00000d20:    c0b135eb    .5..    DCD    3232839147
        0x00000d24:    3fecc338    8..?    DCD    1072481080
        0x00000d28:    0646ba09    ..F.    DCD    105298441
        0x00000d2c:    c02c3b1e    .;,.    DCD    3224124190
        0x00000d30:    3ffbc197    ...?    DCD    1073463703
        0x00000d34:    0324bcf0    ..$.    DCD    52739312
        0x00000d38:    00004000    .@..    DCD    16384
        0x00000d3c:    00004000    .@..    DCD    16384
        0x00000d40:    00004000    .@..    DCD    16384
        0x00000d44:    012e3ed0    .>..    DCD    19807952
        0x00000d48:    00653f9b    .?e.    DCD    6635419
        0x00000d4c:    00c93f36    6?..    DCD    13188918
        0x00000d50:    025b3d9a    .=[.    DCD    39533978
        0x00000d54:    00c93f36    6?..    DCD    13188918
        0x00000d58:    01923e69    i>..    DCD    26361449
        0x00000d5c:    03883c5f    _<..    DCD    59259999
        0x00000d60:    012e3ed0    .>..    DCD    19807952
        0x00000d64:    025b3d9a    .=[.    DCD    39533978
        0x00000d68:    04b53b1e    .;..    DCD    78986014
        0x00000d6c:    01923e69    i>..    DCD    26361449
        0x00000d70:    03243cc8    .<$.    DCD    52706504
        0x00000d74:    05e239d9    .9..    DCD    98712025
        0x00000d78:    01f73e02    .>..    DCD    32980482
        0x00000d7c:    03ed3bf4    .;..    DCD    65879028
        0x00000d80:    070e388e    .8..    DCD    118372494
        0x00000d84:    025b3d9a    .=[.    DCD    39533978
        0x00000d88:    04b53b1e    .;..    DCD    78986014
        0x00000d8c:    0839373f    ?79.    DCD    137967423
        0x00000d90:    02c03d31    1=..    DCD    46153009
        0x00000d94:    057e3a46    F:~.    DCD    92158534
        0x00000d98:    096435eb    .5d.    DCD    157562347
        0x00000d9c:    03243cc8    .<$.    DCD    52706504
        0x00000da0:    0646396b    k9F.    DCD    105265515
        0x00000da4:    0a8e3492    .4..    DCD    177091730
        0x00000da8:    03883c5f    _<..    DCD    59259999
        0x00000dac:    070e388e    .8..    DCD    118372494
        0x00000db0:    0bb73334    43..    DCD    196555572
        0x00000db4:    03ed3bf4    .;..    DCD    65879028
        0x00000db8:    07d637af    .7..    DCD    131479471
        0x00000dbc:    0cdf31d2    .1..    DCD    215953874
        0x00000dc0:    04513b8a    .;Q.    DCD    72432522
        0x00000dc4:    089d36ce    .6..    DCD    144520910
        0x00000dc8:    0e06306c    l0..    DCD    235286636
        0x00000dcc:    04b53b1e    .;..    DCD    78986014
        0x00000dd0:    096435eb    .5d.    DCD    157562347
        0x00000dd4:    0f2b2f02    ./+.    DCD    254488322
        0x00000dd8:    051a3ab2    .:..    DCD    85605042
        0x00000ddc:    0a2b3505    .5+.    DCD    170603781
        0x00000de0:    10502d93    .-P.    DCD    273690003
        0x00000de4:    057e3a46    F:~.    DCD    92158534
        0x00000de8:    0af1341e    .4..    DCD    183579678
        0x00000dec:    11732c21    !,s.    DCD    292760609
        0x00000df0:    05e239d9    .9..    DCD    98712025
        0x00000df4:    0bb73334    43..    DCD    196555572
        0x00000df8:    12942aaa    .*..    DCD    311700138
        0x00000dfc:    0646396b    k9F.    DCD    105265515
        0x00000e00:    0c7c3249    I2|.    DCD    209465929
        0x00000e04:    13b42931    1)..    DCD    330574129
        0x00000e08:    06aa38fd    .8..    DCD    111819005
        0x00000e0c:    0d41315b    [1A.    DCD    222376283
        0x00000e10:    14d227b3    .'..    DCD    349317043
        0x00000e14:    070e388e    .8..    DCD    118372494
        0x00000e18:    0e06306c    l0..    DCD    235286636
        0x00000e1c:    15ee2632    2&..    DCD    367928882
        0x00000e20:    0772381f    .8r.    DCD    124925983
        0x00000e24:    0eca2f7b    {/..    DCD    248131451
        0x00000e28:    170924ae    .$..    DCD    386475182
        0x00000e2c:    07d637af    .7..    DCD    131479471
        0x00000e30:    0f8d2e88    ....    DCD    260910728
        0x00000e34:    18212326    &#!.    DCD    404824870
        0x00000e38:    0839373f    ?79.    DCD    137967423
        0x00000e3c:    10502d93    .-P.    DCD    273690003
        0x00000e40:    1937219c    .!7.    DCD    423043484
        0x00000e44:    089d36ce    .6..    DCD    144520910
        0x00000e48:    11122c9d    .,..    DCD    286403741
        0x00000e4c:    1a4b200e    . K.    DCD    441131022
        0x00000e50:    0901365d    ]6..    DCD    151074397
        0x00000e54:    11d32ba4    .+..    DCD    299051940
        0x00000e58:    1b5d1e7e    ~.].    DCD    459087486
        0x00000e5c:    096435eb    .5d.    DCD    157562347
        0x00000e60:    12942aaa    .*..    DCD    311700138
        0x00000e64:    1c6c1ceb    ..l.    DCD    476847339
        0x00000e68:    09c73578    x5..    DCD    164050296
        0x00000e6c:    135429af    .)T.    DCD    324282799
        0x00000e70:    1d791b56    V.y.    DCD    494476118
        0x00000e74:    0a2b3505    .5+.    DCD    170603781
        0x00000e78:    141328b2    .(..    DCD    336799922
        0x00000e7c:    1e8419be    ....    DCD    511973822
        0x00000e80:    0a8e3492    .4..    DCD    177091730
        0x00000e84:    14d227b3    .'..    DCD    349317043
        0x00000e88:    1f8c1824    $...    DCD    529274916
        0x00000e8c:    0af1341e    .4..    DCD    183579678
        0x00000e90:    159026b3    .&..    DCD    361768627
        0x00000e94:    20911688    ...     DCD    546379400
        0x00000e98:    0b5433a9    .3T.    DCD    190067625
        0x00000e9c:    164c25b1    .%L.    DCD    374089137
        0x00000ea0:    219314ea    ...!    DCD    563287274
        0x00000ea4:    0bb73334    43..    DCD    196555572
        0x00000ea8:    170924ae    .$..    DCD    386475182
        0x00000eac:    2292134a    J.."    DCD    579998538
        0x00000eb0:    0c1a32bf    .2..    DCD    203043519
        0x00000eb4:    17c423a9    .#..    DCD    398730153
        0x00000eb8:    238e11a8    ...#    DCD    596513192
        0x00000ebc:    0c7c3249    I2|.    DCD    209465929
        0x00000ec0:    187e22a3    ."~.    DCD    410919587
        0x00000ec4:    24881005    ...$    DCD    612896773
        0x00000ec8:    0cdf31d2    .1..    DCD    215953874
        0x00000ecc:    1937219c    .!7.    DCD    423043484
        0x00000ed0:    257e0e61    a.~%    DCD    629018209
        0x00000ed4:    0d41315b    [1A.    DCD    222376283
        0x00000ed8:    19ef2093    . ..    DCD    435101843
        0x00000edc:    26710cbb    ..q&    DCD    644943035
        0x00000ee0:    0da430e4    .0..    DCD    228864228
        0x00000ee4:    1aa71f89    ....    DCD    447160201
        0x00000ee8:    27600b14    ..`'    DCD    660605716
        0x00000eec:    0e06306c    l0..    DCD    235286636
        0x00000ef0:    1b5d1e7e    ~.].    DCD    459087486
        0x00000ef4:    284c096d    m.L(    DCD    676071789
        0x00000ef8:    0e682ff4    ./h.    DCD    241709044
        0x00000efc:    1c121d72    r...    DCD    470949234
        0x00000f00:    293507c4    ..5)    DCD    691341252
        0x00000f04:    0eca2f7b    {/..    DCD    248131451
        0x00000f08:    1cc61c64    d...    DCD    482745444
        0x00000f0c:    2a1a061b    ...*    DCD    706348571
        0x00000f10:    0f2b2f02    ./+.    DCD    254488322
        0x00000f14:    1d791b56    V.y.    DCD    494476118
        0x00000f18:    2afb0471    q..*    DCD    721093745
        0x00000f1c:    0f8d2e88    ....    DCD    260910728
        0x00000f20:    1e2b1a46    F.+.    DCD    506141254
        0x00000f24:    2bd802c7    ...+    DCD    735576775
        0x00000f28:    0fee2e0e    ....    DCD    267267598
        0x00000f2c:    1edc1935    5...    DCD    517740853
        0x00000f30:    2cb2011c    ...,    DCD    749863196
        0x00000f34:    10502d93    .-P.    DCD    273690003
        0x00000f38:    1f8c1824    $...    DCD    529274916
        0x00000f3c:    2d88ff72    r..-    DCD    763953010
        0x00000f40:    10b12d18    .-..    DCD    280046872
        0x00000f44:    203a1711    ..:     DCD    540677905
        0x00000f48:    2e5afdc7    ..Z.    DCD    777715143
        0x00000f4c:    11122c9d    .,..    DCD    286403741
        0x00000f50:    20e715fe    ...     DCD    552015358
        0x00000f54:    2f28fc1d    ..(/    DCD    791215133
        0x00000f58:    11732c21    !,s.    DCD    292760609
        0x00000f5c:    219314ea    ...!    DCD    563287274
        0x00000f60:    2ff2fa73    s../    DCD    804452979
        0x00000f64:    11d32ba4    .+..    DCD    299051940
        0x00000f68:    223d13d5    ..="    DCD    574428117
        0x00000f6c:    30b8f8ca    ...0    DCD    817428682
        0x00000f70:    12342b28    (+4.    DCD    305408808
        0x00000f74:    22e712bf    ..."    DCD    585568959
        0x00000f78:    3179f721    !.y1    DCD    830076705
        0x00000f7c:    12942aaa    .*..    DCD    311700138
        0x00000f80:    238e11a8    ...#    DCD    596513192
        0x00000f84:    3236f579    y.62    DCD    842462585
        0x00000f88:    12f42a2d    -*..    DCD    317991469
        0x00000f8c:    24351091    ..5$    DCD    607457425
        0x00000f90:    32eff3d2    ...2    DCD    854586322
        0x00000f94:    135429af    .)T.    DCD    324282799
        0x00000f98:    24da0f79    y..$    DCD    618270585
        0x00000f9c:    33a3f22c    ,..3    DCD    866382380
        0x00000fa0:    13b42931    1)..    DCD    330574129
        0x00000fa4:    257e0e61    a.~%    DCD    629018209
        0x00000fa8:    3453f087    ..S4    DCD    877916295
        0x00000fac:    141328b2    .(..    DCD    336799922
        0x00000fb0:    26200d48    H. &    DCD    639634760
        0x00000fb4:    34ffeee3    ...4    DCD    889188067
        0x00000fb8:    14732833    3(s.    DCD    343091251
        0x00000fbc:    26c10c2e    ...&    DCD    650185774
        0x00000fc0:    35a5ed41    A..5    DCD    900066625
        0x00000fc4:    14d227b3    .'..    DCD    349317043
        0x00000fc8:    27600b14    ..`'    DCD    660605716
        0x00000fcc:    3648eba1    ..H6    DCD    910748577
        0x00000fd0:    15312733    3'1.    DCD    355542835
        0x00000fd4:    27fe09fa    ...'    DCD    670960122
        0x00000fd8:    36e5ea02    ...6    DCD    921037314
        0x00000fdc:    159026b3    .&..    DCD    361768627
        0x00000fe0:    289a08df    ...(    DCD    681183455
        0x00000fe4:    377ee865    e.~7    DCD    931063909
        0x00000fe8:    15ee2632    2&..    DCD    367928882
        0x00000fec:    293507c4    ..5)    DCD    691341252
        0x00000ff0:    3812e6cb    ...8    DCD    940762827
        0x00000ff4:    164c25b1    .%L.    DCD    374089137
        0x00000ff8:    29ce06a9    ...)    DCD    701367977
        0x00000ffc:    38a1e532    2..8    DCD    950134066
        0x00001000:    16ab252f    /%..    DCD    380314927
        0x00001004:    2a65058d    ..e*    DCD    711263629
        0x00001008:    392be39c    ..+9    DCD    959177628
        0x0000100c:    170924ae    .$..    DCD    386475182
        0x00001010:    2afb0471    q..*    DCD    721093745
        0x00001014:    39b0e208    ...9    DCD    967893512
        0x00001018:    1766242b    +$f.    DCD    392569899
        0x0000101c:    2b8f0355    U..+    DCD    730792789
        0x00001020:    3a30e077    w.0:    DCD    976281719
        0x00001024:    17c423a9    .#..    DCD    398730153
        0x00001028:    2c210239    9.!,    DCD    740360761
        0x0000102c:    3aabdee9    ...:    DCD    984342249
        0x00001030:    18212326    &#!.    DCD    404824870
        0x00001034:    2cb2011c    ...,    DCD    749863196
        0x00001038:    3b21dd5d    ].!;    DCD    992075101
        0x0000103c:    187e22a3    ."~.    DCD    410919587
        0x00001040:    2d410000    ..A-    DCD    759234560
        0x00001044:    3b92dbd5    ...;    DCD    999480277
        0x00001048:    18db221f    ."..    DCD    417014303
        0x0000104c:    2dcffee4    ...-    DCD    768605924
        0x00001050:    3bfdda4f    O..;    DCD    1006492239
        0x00001054:    1937219c    .!7.    DCD    423043484
        0x00001058:    2e5afdc7    ..Z.    DCD    777715143
        0x0000105c:    3c64d8cd    ..d<    DCD    1013242061
        0x00001060:    19932117    .!..    DCD    429072663
        0x00001064:    2ee4fcab    ....    DCD    786758827
        0x00001068:    3cc5d74e    N..<    DCD    1019598670
        0x0000106c:    19ef2093    . ..    DCD    435101843
        0x00001070:    2f6cfb8f    ..l/    DCD    795671439
        0x00001074:    3d21d5d3    ..!=    DCD    1025627603
        0x00001078:    1a4b200e    . K.    DCD    441131022
        0x0000107c:    2ff2fa73    s../    DCD    804452979
        0x00001080:    3d78d45c    \.x=    DCD    1031328860
        0x00001084:    1aa71f89    ....    DCD    447160201
        0x00001088:    3076f957    W.v0    DCD    813103447
        0x0000108c:    3dc9d2e8    ...=    DCD    1036636904
        0x00001090:    1b021f04    ....    DCD    453123844
        0x00001094:    30f9f83c    <..0    DCD    821688380
        0x00001098:    3e15d178    x..>    DCD    1041617272
        0x0000109c:    1b5d1e7e    ~.].    DCD    459087486
        0x000010a0:    3179f721    !.y1    DCD    830076705
        0x000010a4:    3e5cd00c    ..\>    DCD    1046269964
        0x000010a8:    1bb81df8    ....    DCD    465051128
        0x000010ac:    31f8f606    ...1    DCD    838399494
        0x000010b0:    3e9dcea5    ...>    DCD    1050529445
        0x000010b4:    1c121d72    r...    DCD    470949234
        0x000010b8:    3274f4ec    ..t2    DCD    846525676
        0x000010bc:    3ed8cd41    A..>    DCD    1054395713
        0x000010c0:    1c6c1ceb    ..l.    DCD    476847339
        0x000010c4:    32eff3d2    ...2    DCD    854586322
        0x000010c8:    3f0fcbe2    ...?    DCD    1057999842
        0x000010cc:    1cc61c64    d...    DCD    482745444
        0x000010d0:    3368f2b8    ..h3    DCD    862515896
        0x000010d4:    3f40ca88    ..@?    DCD    1061210760
        0x000010d8:    1d201bdd    .. .    DCD    488643549
        0x000010dc:    33dff19f    ...3    DCD    870314399
        0x000010e0:    3f6bc932    2.k?    DCD    1064028466
        0x000010e4:    1d791b56    V.y.    DCD    494476118
        0x000010e8:    3453f087    ..S4    DCD    877916295
        0x000010ec:    3f91c7e1    ...?    DCD    1066518497
        0x000010f0:    1dd31ace    ....    DCD    500374222
        0x000010f4:    34c6ef6f    o..4    DCD    885452655
        0x000010f8:    3fb1c695    ...?    DCD    1068615317
        0x000010fc:    1e2b1a46    F.+.    DCD    506141254
        0x00001100:    3537ee58    X.75    DCD    892857944
        0x00001104:    3fccc54e    N..?    DCD    1070384462
        0x00001108:    1e8419be    ....    DCD    511973822
        0x0000110c:    35a5ed41    A..5    DCD    900066625
        0x00001110:    3fe1c40c    ...?    DCD    1071760396
        0x00001114:    1edc1935    5...    DCD    517740853
        0x00001118:    3612ec2b    +..6    DCD    907209771
        0x0000111c:    3ff1c2cf    ...?    DCD    1072808655
        0x00001120:    1f3418ad    ..4.    DCD    523507885
        0x00001124:    367deb16    ..}6    DCD    914221846
        0x00001128:    3ffbc197    ...?    DCD    1073463703
        0x0000112c:    1f8c1824    $...    DCD    529274916
        0x00001130:    36e5ea02    ...6    DCD    921037314
        0x00001134:    4000c065    e..@    DCD    1073791077
        0x00001138:    1fe3179b    ....    DCD    534976411
        0x0000113c:    374be8ef    ..K7    DCD    927721711
        0x00001140:    3fffbf38    8..?    DCD    1073725240
        0x00001144:    203a1711    ..:     DCD    540677905
        0x00001148:    37b0e7dc    ...7    DCD    934340572
        0x0000114c:    3ff8be11    ...?    DCD    1073266193
        0x00001150:    20911688    ...     DCD    546379400
        0x00001154:    3812e6cb    ...8    DCD    940762827
        0x00001158:    3fecbcf0    ...?    DCD    1072479472
        0x0000115c:    20e715fe    ...     DCD    552015358
        0x00001160:    3871e5ba    ..q8    DCD    946988474
        0x00001164:    3fdbbbd4    ...?    DCD    1071365076
        0x00001168:    213d1574    t.=!    DCD    557651316
        0x0000116c:    38cfe4aa    ...8    DCD    953148586
        0x00001170:    3fc4babf    ...?    DCD    1069857471
        0x00001174:    219314ea    ...!    DCD    563287274
        0x00001178:    392be39c    ..+9    DCD    959177628
        0x0000117c:    3fa7b9af    ...?    DCD    1067956655
        0x00001180:    21e8145f    _..!    DCD    568857695
        0x00001184:    3984e28e    ...9    DCD    965010062
        0x00001188:    3f85b8a6    ...?    DCD    1065728166
        0x0000118c:    223d13d5    ..="    DCD    574428117
        0x00001190:    39dbe182    ...9    DCD    970711426
        0x00001194:    3f5db7a2    ..]?    DCD    1063106466
        0x00001198:    2292134a    J.."    DCD    579998538
        0x0000119c:    3a30e077    w.0:    DCD    976281719
        0x000011a0:    3f30b6a5    ..0?    DCD    1060157093
        0x000011a4:    22e712bf    ..."    DCD    585568959
        0x000011a8:    3a82df6d    m..:    DCD    981655405
        0x000011ac:    3efdb5af    ...>    DCD    1056814511
        0x000011b0:    233b1234    4.;#    DCD    591073844
        0x000011b4:    3ad3de64    d..:    DCD    986963556
        0x000011b8:    3ec5b4be    ...>    DCD    1053144254
        0x000011bc:    238e11a8    ...#    DCD    596513192
        0x000011c0:    3b21dd5d    ].!;    DCD    992075101
        0x000011c4:    3e88b3d5    ...>    DCD    1049146325
        0x000011c8:    23e2111d    ...#    DCD    602018077
        0x000011cc:    3b6ddc57    W.m;    DCD    997055575
        0x000011d0:    3e45b2f2    ..E>    DCD    1044755186
        0x000011d4:    24351091    ..5$    DCD    607457425
        0x000011d8:    3bb6db52    R..;    DCD    1001839442
        0x000011dc:    3dfcb215    ...=    DCD    1039970837
        0x000011e0:    24881005    ...$    DCD    612896773
        0x000011e4:    3bfdda4f    O..;    DCD    1006492239
        0x000011e8:    3dafb140    @..=    DCD    1034924352
        0x000011ec:    24da0f79    y..$    DCD    618270585
        0x000011f0:    3c42d94d    M.B<    DCD    1011013965
        0x000011f4:    3d5bb071    q.[=    DCD    1029419121
        0x000011f8:    252c0eed    ..,%    DCD    623644397
        0x000011fc:    3c85d84d    M..<    DCD    1015404621
        0x00001200:    3d03afa9    ...=    DCD    1023651753
        0x00001204:    257e0e61    a.~%    DCD    629018209
        0x00001208:    3cc5d74e    N..<    DCD    1019598670
        0x0000120c:    3ca5aee8    ...<    DCD    1017491176
        0x00001210:    25cf0dd4    ...%    DCD    634326484
        0x00001214:    3d03d651    Q..=    DCD    1023661649
        0x00001218:    3c42ae2e    ..B<    DCD    1011002926
        0x0000121c:    26200d48    H. &    DCD    639634760
        0x00001220:    3d3fd556    V.?=    DCD    1027593558
        0x00001224:    3bdaad7b    {..;    DCD    1004187003
        0x00001228:    26710cbb    ..q&    DCD    644943035
        0x0000122c:    3d78d45c    \.x=    DCD    1031328860
        0x00001230:    3b6dacd0    ..m;    DCD    997043408
        0x00001234:    26c10c2e    ...&    DCD    650185774
        0x00001238:    3dafd363    c..=    DCD    1034933091
        0x0000123c:    3afaac2b    +..:    DCD    989506603
        0x00001240:    27110ba1    ...'    DCD    655428513
        0x00001244:    3de3d26d    m..=    DCD    1038340717
        0x00001248:    3a82ab8e    ...:    DCD    981642126
        0x0000124c:    27600b14    ..`'    DCD    660605716
        0x00001250:    3e15d178    x..>    DCD    1041617272
        0x00001254:    3a06aaf8    ...:    DCD    973515512
        0x00001258:    27af0a87    ...'    DCD    665782919
        0x0000125c:    3e45d085    ..E>    DCD    1044762757
        0x00001260:    3984aa6a    j..9    DCD    964995690
        0x00001264:    27fe09fa    ...'    DCD    670960122
        0x00001268:    3e72cf94    ..r>    DCD    1047711636
        0x0000126c:    38fda9e3    ...8    DCD    956148195
        0x00001270:    284c096d    m.L(    DCD    676071789
        0x00001274:    3e9dcea5    ...>    DCD    1050529445
        0x00001278:    3871a963    c.q8    DCD    946973027
        0x0000127c:    289a08df    ...(    DCD    681183455
        0x00001280:    3ec5cdb7    ...>    DCD    1053150647
        0x00001284:    37e1a8eb    ...7    DCD    937535723
        0x00001288:    28e70852    R..(    DCD    686229586
        0x0000128c:    3eebcccc    ...>    DCD    1055640780
        0x00001290:    374ba87b    {.K7    DCD    927705211
        0x00001294:    293507c4    ..5)    DCD    691341252
        0x00001298:    3f0fcbe2    ...?    DCD    1057999842
        0x0000129c:    36b1a812    ...6    DCD    917612562
        0x000012a0:    29810736    6..)    DCD    696321846
        0x000012a4:    3f30cafb    ..0?    DCD    1060162299
        0x000012a8:    3612a7b1    ...6    DCD    907192241
        0x000012ac:    29ce06a9    ...)    DCD    701367977
        0x000012b0:    3f4fca15    ..O?    DCD    1062193685
        0x000012b4:    356ea757    W.n5    DCD    896444247
        0x000012b8:    2a1a061b    ...*    DCD    706348571
        0x000012bc:    3f6bc932    2.k?    DCD    1064028466
        0x000012c0:    34c6a705    ...4    DCD    885434117
        0x000012c4:    2a65058d    ..e*    DCD    711263629
        0x000012c8:    3f85c851    Q..?    DCD    1065732177
        0x000012cc:    3419a6bb    ...4    DCD    874096315
        0x000012d0:    2ab004ff    ...*    DCD    716178687
        0x000012d4:    3f9cc772    r..?    DCD    1067239282
        0x000012d8:    3368a678    x.h3    DCD    862496376
        0x000012dc:    2afb0471    q..*    DCD    721093745
        0x000012e0:    3fb1c695    ...?    DCD    1068615317
        0x000012e4:    32b2a63e    >..2    DCD    850568766
        0x000012e8:    2b4503e3    ..E+    DCD    725943267
        0x000012ec:    3fc4c5ba    ...?    DCD    1069860282
        0x000012f0:    31f8a60b    ...1    DCD    838379019
        0x000012f4:    2b8f0355    U..+    DCD    730792789
        0x000012f8:    3fd4c4e2    ...?    DCD    1070908642
        0x000012fc:    3139a5e0    ..91    DCD    825861600
        0x00001300:    2bd802c7    ...+    DCD    735576775
        0x00001304:    3fe1c40c    ...?    DCD    1071760396
        0x00001308:    3076a5bc    ..v0    DCD    813082044
        0x0000130c:    2c210239    9.!,    DCD    740360761
        0x00001310:    3fecc338    8..?    DCD    1072481080
        0x00001314:    2fafa5a1    .../    DCD    800040353
        0x00001318:    2c6a01aa    ..j,    DCD    745144746
        0x0000131c:    3ff5c266    f..?    DCD    1073070694
        0x00001320:    2ee4a58d    ....    DCD    786736525
        0x00001324:    2cb2011c    ...,    DCD    749863196
        0x00001328:    3ffbc197    ...?    DCD    1073463703
        0x0000132c:    2e15a581    ....    DCD    773170561
        0x00001330:    2cfa008e    ...,    DCD    754581646
        0x00001334:    3fffc0ca    ...?    DCD    1073725642
        0x00001338:    2d41a57e    ~.A-    DCD    759276926
        0x0000133c:    2d410000    ..A-    DCD    759234560
        0x00001340:    4000c000    ...@    DCD    1073790976
        0x00001344:    2c6aa581    ..j,    DCD    745186689
        0x00001348:    2d88ff72    r..-    DCD    763953010
        0x0000134c:    3fffbf38    8..?    DCD    1073725240
        0x00001350:    2b8fa58d    ...+    DCD    730834317
        0x00001354:    2dcffee4    ...-    DCD    768605924
        0x00001358:    3ffbbe73    s..?    DCD    1073462899
        0x0000135c:    2ab0a5a1    ...*    DCD    716219809
        0x00001360:    2e15fe56    V...    DCD    773193302
        0x00001364:    3ff5bdb0    ...?    DCD    1073069488
        0x00001368:    29cea5bc    ...)    DCD    701408700
        0x0000136c:    2e5afdc7    ..Z.    DCD    777715143
        0x00001370:    3fecbcf0    ...?    DCD    1072479472
        0x00001374:    28e7a5e0    ...(    DCD    686269920
        0x00001378:    2e9ffd39    9...    DCD    782236985
        0x0000137c:    3fe1bc32    2..?    DCD    1071758386
        0x00001380:    27fea60b    ...'    DCD    671000075
        0x00001384:    2ee4fcab    ....    DCD    786758827
        0x00001388:    3fd4bb77    w..?    DCD    1070906231
        0x0000138c:    2711a63e    >..'    DCD    655468094
        0x00001390:    2f28fc1d    ..(/    DCD    791215133
        0x00001394:    3fc4babf    ...?    DCD    1069857471
        0x00001398:    2620a678    x. &    DCD    639673976
        0x0000139c:    2f6cfb8f    ..l/    DCD    795671439
        0x000013a0:    3fb1ba09    ...?    DCD    1068612105
        0x000013a4:    252ca6bb    ..,%    DCD    623683259
        0x000013a8:    2faffb01    .../    DCD    800062209
        0x000013ac:    3f9cb956    V..?    DCD    1067235670
        0x000013b0:    2435a705    ..5$    DCD    607495941
        0x000013b4:    2ff2fa73    s../    DCD    804452979
        0x000013b8:    3f85b8a6    ...?    DCD    1065728166
        0x000013bc:    233ba757    W.;#    DCD    591112023
        0x000013c0:    3034f9e5    ..40    DCD    808778213
        0x000013c4:    3f6bb7f8    ..k?    DCD    1064024056
        0x000013c8:    223da7b1    ..="    DCD    574465969
        0x000013cc:    3076f957    W.v0    DCD    813103447
        0x000013d0:    3f4fb74d    M.O?    DCD    1062188877
        0x000013d4:    213da812    ..=!    DCD    557688850
        0x000013d8:    30b8f8ca    ...0    DCD    817428682
        0x000013dc:    3f30b6a5    ..0?    DCD    1060157093
        0x000013e0:    203aa87b    {.:     DCD    540715131
        0x000013e4:    30f9f83c    <..0    DCD    821688380
        0x000013e8:    3f0fb600    ...?    DCD    1057994240
        0x000013ec:    1f34a8eb    ..4.    DCD    523544811
        0x000013f0:    3139f7ae    ..91    DCD    825882542
        0x000013f4:    3eebb55e    ^..>    DCD    1055634782
        0x000013f8:    1e2ba963    c.+.    DCD    506177891
        0x000013fc:    3179f721    !.y1    DCD    830076705
        0x00001400:    3ec5b4be    ...>    DCD    1053144254
        0x00001404:    1d20a9e3    .. .    DCD    488679907
        0x00001408:    31b9f693    ...1    DCD    834270867
        0x0000140c:    3e9db422    "..>    DCD    1050522658
        0x00001410:    1c12aa6a    j...    DCD    470985322
        0x00001414:    31f8f606    ...1    DCD    838399494
        0x00001418:    3e72b388    ..r>    DCD    1047704456
        0x0000141c:    1b02aaf8    ....    DCD    453159672
        0x00001420:    3236f579    y.62    DCD    842462585
        0x00001424:    3e45b2f2    ..E>    DCD    1044755186
        0x00001428:    19efab8e    ....    DCD    435137422
        0x0000142c:    3274f4ec    ..t2    DCD    846525676
        0x00001430:    3e15b25e    ^..>    DCD    1041609310
        0x00001434:    18dbac2b    +...    DCD    417049643
        0x00001438:    32b2f45f    _..2    DCD    850588767
        0x0000143c:    3de3b1cd    ...=    DCD    1038332365
        0x00001440:    17c4acd0    ....    DCD    398765264
        0x00001444:    32eff3d2    ...2    DCD    854586322
        0x00001448:    3dafb140    @..=    DCD    1034924352
        0x0000144c:    16abad7b    {...    DCD    380349819
        0x00001450:    332cf345    E.,3    DCD    858583877
        0x00001454:    3d78b0b5    ..x=    DCD    1031319733
        0x00001458:    1590ae2e    ....    DCD    361803310
        0x0000145c:    3368f2b8    ..h3    DCD    862515896
        0x00001460:    3d3fb02d    -.?=    DCD    1027584045
        0x00001464:    1473aee8    ..s.    DCD    343125736
        0x00001468:    33a3f22c    ,..3    DCD    866382380
        0x0000146c:    3d03afa9    ...=    DCD    1023651753
        0x00001470:    1354afa9    ..T.    DCD    324317097
        0x00001474:    33dff19f    ...3    DCD    870314399
        0x00001478:    3cc5af28    (..<    DCD    1019588392
        0x0000147c:    1234b071    q.4.    DCD    305442929
        0x00001480:    3419f113    ...4    DCD    874115347
        0x00001484:    3c85aea9    ...<    DCD    1015393961
        0x00001488:    1112b140    @...    DCD    286437696
        0x0000148c:    3453f087    ..S4    DCD    877916295
        0x00001490:    3c42ae2e    ..B<    DCD    1011002926
        0x00001494:    0feeb215    ....    DCD    267301397
        0x00001498:    348deffb    ...4    DCD    881717243
        0x0000149c:    3bfdadb6    ...;    DCD    1006480822
        0x000014a0:    0ecab2f2    ....    DCD    248165106
        0x000014a4:    34c6ef6f    o..4    DCD    885452655
        0x000014a8:    3bb6ad41    A..;    DCD    1001827649
        0x000014ac:    0da4b3d5    ....    DCD    228897749
        0x000014b0:    34ffeee3    ...4    DCD    889188067
        0x000014b4:    3b6dacd0    ..m;    DCD    997043408
        0x000014b8:    0c7cb4be    ..|.    DCD    209499326
        0x000014bc:    3537ee58    X.75    DCD    892857944
        0x000014c0:    3b21ac61    a.!;    DCD    992062561
        0x000014c4:    0b54b5af    ..T.    DCD    190100911
        0x000014c8:    356eedcc    ..n5    DCD    896462284
        0x000014cc:    3ad3abf6    ...:    DCD    986950646
        0x000014d0:    0a2bb6a5    ..+.    DCD    170636965
        0x000014d4:    35a5ed41    A..5    DCD    900066625
        0x000014d8:    3a82ab8e    ...:    DCD    981642126
        0x000014dc:    0901b7a2    ....    DCD    151107490
        0x000014e0:    35dcecb6    ...5    DCD    903670966
        0x000014e4:    3a30ab29    ).0:    DCD    976268073
        0x000014e8:    07d6b8a6    ....    DCD    131512486
        0x000014ec:    3612ec2b    +..6    DCD    907209771
        0x000014f0:    39dbaac8    ...9    DCD    970697416
        0x000014f4:    06aab9af    ....    DCD    111851951
        0x000014f8:    3648eba1    ..H6    DCD    910748577
        0x000014fc:    3984aa6a    j..9    DCD    964995690
        0x00001500:    057ebabf    ..~.    DCD    92191423
        0x00001504:    367deb16    ..}6    DCD    914221846
        0x00001508:    392baa0f    ..+9    DCD    959162895
        0x0000150c:    0451bbd4    ..Q.    DCD    72465364
        0x00001510:    36b1ea8c    ...6    DCD    917629580
        0x00001514:    38cfa9b7    ...8    DCD    953133495
        0x00001518:    0324bcf0    ..$.    DCD    52739312
        0x0000151c:    36e5ea02    ...6    DCD    921037314
        0x00001520:    3871a963    c.q8    DCD    946973027
        0x00001524:    01f7be11    ....    DCD    33013265
        0x00001528:    3718e978    x..7    DCD    924379512
        0x0000152c:    3812a912    ...8    DCD    940747026
        0x00001530:    00c9bf38    8...    DCD    13221688
        0x00001534:    374be8ef    ..K7    DCD    927721711
        0x00001538:    37b0a8c5    ...7    DCD    934324421
        0x0000153c:    ff9bc065    e...    DCD    4288397413
        0x00001540:    377ee865    e.~7    DCD    931063909
        0x00001544:    374ba87b    {.K7    DCD    927705211
        0x00001548:    fe6ec197    ..n.    DCD    4268671383
        0x0000154c:    37b0e7dc    ...7    DCD    934340572
        0x00001550:    36e5a834    4..6    DCD    921020468
        0x00001554:    fd40c2cf    ..@.    DCD    4248879823
        0x00001558:    37e1e753    S..7    DCD    937551699
        0x0000155c:    367da7f1    ..}6    DCD    914204657
        0x00001560:    fc13c40c    ....    DCD    4229153804
        0x00001564:    3812e6cb    ...8    DCD    940762827
        0x00001568:    3612a7b1    ...6    DCD    907192241
        0x0000156c:    fae6c54e    N...    DCD    4209427790
        0x00001570:    3842e642    B.B8    DCD    943908418
        0x00001574:    35a5a774    t..5    DCD    900048756
        0x00001578:    f9bac695    ....    DCD    4189767317
        0x0000157c:    3871e5ba    ..q8    DCD    946988474
        0x00001580:    3537a73b    ;.75    DCD    892839739
        0x00001584:    f88ec7e1    ....    DCD    4170106849
        0x00001588:    38a1e532    2..8    DCD    950134066
        0x0000158c:    34c6a705    ...4    DCD    885434117
        0x00001590:    f763c932    2.c.    DCD    4150511922
        0x00001594:    38cfe4aa    ...8    DCD    953148586
        0x00001598:    3453a6d3    ..S4    DCD    877897427
        0x0000159c:    f639ca88    ..9.    DCD    4130982536
        0x000015a0:    38fde423    #..8    DCD    956163107
        0x000015a4:    33dfa6a4    ...3    DCD    870295204
        0x000015a8:    f50fcbe2    ....    DCD    4111453154
        0x000015ac:    392be39c    ..+9    DCD    959177628
        0x000015b0:    3368a678    x.h3    DCD    862496376
        0x000015b4:    f3e6cd41    A...    DCD    4091989313
        0x000015b8:    3958e315    ..X9    DCD    962126613
        0x000015bc:    32efa650    P..2    DCD    854566480
        0x000015c0:    f2bfcea5    ....    DCD    4072656549
        0x000015c4:    3984e28e    ...9    DCD    965010062
        0x000015c8:    3274a62c    ,.t2    DCD    846505516
        0x000015cc:    f198d00c    ....    DCD    4053323788
        0x000015d0:    39b0e208    ...9    DCD    967893512
        0x000015d4:    31f8a60b    ...1    DCD    838379019
        0x000015d8:    f073d178    x.s.    DCD    4034122104
        0x000015dc:    39dbe182    ...9    DCD    970711426
        0x000015e0:    3179a5ed    ..y1    DCD    830055917
        0x000015e4:    ef4fd2e8    ..O.    DCD    4014985960
        0x000015e8:    3a06e0fc    ...:    DCD    973529340
        0x000015ec:    30f9a5d3    ...0    DCD    821667283
        0x000015f0:    ee2dd45c    \.-.    DCD    3995980892
        0x000015f4:    3a30e077    w.0:    DCD    976281719
        0x000015f8:    3076a5bc    ..v0    DCD    813082044
        0x000015fc:    ed0cd5d3    ....    DCD    3977041363
        0x00001600:    3a59dff2    ..Y:    DCD    978968562
        0x00001604:    2ff2a5a9    .../    DCD    804431273
        0x00001608:    ebedd74e    N...    DCD    3958232910
        0x0000160c:    3a82df6d    m..:    DCD    981655405
        0x00001610:    2f6ca599    ..l/    DCD    795649433
        0x00001614:    eacfd8cd    ....    DCD    3939489997
        0x00001618:    3aabdee9    ...:    DCD    984342249
        0x0000161c:    2ee4a58d    ....    DCD    786736525
        0x00001620:    e9b4da4f    O...    DCD    3920943695
        0x00001624:    3ad3de64    d..:    DCD    986963556
        0x00001628:    2e5aa585    ..Z.    DCD    777692549
        0x0000162c:    e89adbd5    ....    DCD    3902462933
        0x00001630:    3afadde1    ...:    DCD    989519329
        0x00001634:    2dcfa57f    ...-    DCD    768583039
        0x00001638:    e782dd5d    ]...    DCD    3884113245
        0x0000163c:    3b21dd5d    ].!;    DCD    992075101
        0x00001640:    2d41a57e    ~.A-    DCD    759276926
        0x00001644:    e66ddee9    ..m.    DCD    3865960169
        0x00001648:    3b47dcda    ..G;    DCD    994565338
        0x0000164c:    2cb2a57f    ...,    DCD    749905279
        0x00001650:    e559e077    w.Y.    DCD    3847872631
        0x00001654:    3b6ddc57    W.m;    DCD    997055575
        0x00001658:    2c21a585    ..!,    DCD    740402565
        0x0000165c:    e448e208    ..H.    DCD    3829981704
        0x00001660:    3b92dbd5    ...;    DCD    999480277
        0x00001664:    2b8fa58d    ...+    DCD    730834317
        0x00001668:    e33ae39c    ..:.    DCD    3812287388
        0x0000166c:    3bb6db52    R..;    DCD    1001839442
        0x00001670:    2afba599    ...*    DCD    721135001
        0x00001674:    e22de532    2.-.    DCD    3794658610
        0x00001678:    3bdadad1    ...;    DCD    1004198609
        0x0000167c:    2a65a5a9    ..e*    DCD    711304617
        0x00001680:    e124e6cb    ..$.    DCD    3777291979
        0x00001684:    3bfdda4f    O..;    DCD    1006492239
        0x00001688:    29cea5bc    ...)    DCD    701408700
        0x0000168c:    e01de865    e...    DCD    3760056421
        0x00001690:    3c20d9ce    .. <    DCD    1008785870
        0x00001694:    2935a5d3    ..5)    DCD    691381715
        0x00001698:    df19ea02    ....    DCD    3743017474
        0x0000169c:    3c42d94d    M.B<    DCD    1011013965
        0x000016a0:    289aa5ed    ...(    DCD    681223661
        0x000016a4:    de18eba1    ....    DCD    3726175137
        0x000016a8:    3c64d8cd    ..d<    DCD    1013242061
        0x000016ac:    27fea60b    ...'    DCD    671000075
        0x000016b0:    dd19ed41    A...    DCD    3709463873
        0x000016b4:    3c85d84d    M..<    DCD    1015404621
        0x000016b8:    2760a62c    ,.`'    DCD    660645420
        0x000016bc:    dc1eeee3    ....    DCD    3693014755
        0x000016c0:    3ca5d7cd    ...<    DCD    1017501645
        0x000016c4:    26c1a650    P..&    DCD    650225232
        0x000016c8:    db26f087    ..&.    DCD    3676762247
        0x000016cc:    3cc5d74e    N..<    DCD    1019598670
        0x000016d0:    2620a678    x. &    DCD    639673976
        0x000016d4:    da31f22c    ,.1.    DCD    3660706348
        0x000016d8:    3ce4d6cf    ...<    DCD    1021630159
        0x000016dc:    257ea6a4    ..~%    DCD    629057188
        0x000016e0:    d93ff3d2    ..?.    DCD    3644847058
        0x000016e4:    3d03d651    Q..=    DCD    1023661649
        0x000016e8:    24daa6d3    ...$    DCD    618309331
        0x000016ec:    d851f579    y.Q.    DCD    3629249913
        0x000016f0:    3d21d5d3    ..!=    DCD    1025627603
        0x000016f4:    2435a705    ..5$    DCD    607495941
        0x000016f8:    d766f721    !.f.    DCD    3613849377
        0x000016fc:    3d3fd556    V.?=    DCD    1027593558
        0x00001700:    238ea73b    ;..#    DCD    596551483
        0x00001704:    d67ff8ca    ....    DCD    3598710986
        0x00001708:    3d5bd4d8    ..[=    DCD    1029428440
        0x0000170c:    22e7a774    t.."    DCD    585607028
        0x00001710:    d59bfa73    s...    DCD    3583769203
        0x00001714:    3d78d45c    \.x=    DCD    1031328860
        0x00001718:    223da7b1    ..="    DCD    574465969
        0x0000171c:    d4bbfc1d    ....    DCD    3569089565
        0x00001720:    3d93d3df    ...=    DCD    1033098207
        0x00001724:    2193a7f1    ...!    DCD    563324913
        0x00001728:    d3dffdc7    ....    DCD    3554672071
        0x0000172c:    3dafd363    c..=    DCD    1034933091
        0x00001730:    20e7a834    4..     DCD    552052788
        0x00001734:    d306ff72    r...    DCD    3540451186
        0x00001738:    3dc9d2e8    ...=    DCD    1036636904
        0x0000173c:    203aa87b    {.:     DCD    540715131
        0x00001740:    d231011c    ..1.    DCD    3526426908
        0x00001744:    3de3d26d    m..=    DCD    1038340717
        0x00001748:    1f8ca8c5    ....    DCD    529311941
        0x0000174c:    d16102c7    ..a.    DCD    3512795847
        0x00001750:    3dfcd1f2    ...=    DCD    1039978994
        0x00001754:    1edca912    ....    DCD    517777682
        0x00001758:    d0940471    q...    DCD    3499361393
        0x0000175c:    3e15d178    x..>    DCD    1041617272
        0x00001760:    1e2ba963    c.+.    DCD    506177891
        0x00001764:    cfcc061b    ....    DCD    3486254619
        0x00001768:    3e2dd0fe    ..->    DCD    1043190014
        0x0000176c:    1d79a9b7    ..y.    DCD    494512567
        0x00001770:    cf0707c4    ....    DCD    3473344452
        0x00001774:    3e45d085    ..E>    DCD    1044762757
        0x00001778:    1cc6aa0f    ....    DCD    482781711
        0x0000177c:    ce47096d    m.G.    DCD    3460761965
        0x00001780:    3e5cd00c    ..\>    DCD    1046269964
        0x00001784:    1c12aa6a    j...    DCD    470985322
        0x00001788:    cd8c0b14    ....    DCD    3448507156
        0x0000178c:    3e72cf94    ..r>    DCD    1047711636
        0x00001790:    1b5daac8    ..].    DCD    459123400
        0x00001794:    ccd40cbb    ....    DCD    3436448955
        0x00001798:    3e88cf1c    ...>    DCD    1049153308
        0x0000179c:    1aa7ab29    )...    DCD    447195945
        0x000017a0:    cc210e61    a.!.    DCD    3424718433
        0x000017a4:    3e9dcea5    ...>    DCD    1050529445
        0x000017a8:    19efab8e    ....    DCD    435137422
        0x000017ac:    cb731005    ..s.    DCD    3413315589
        0x000017b0:    3eb1ce2e    ...>    DCD    1051840046
        0x000017b4:    1937abf6    ..7.    DCD    423078902
        0x000017b8:    cac911a8    ....    DCD    3402174888
        0x000017bc:    3ec5cdb7    ...>    DCD    1053150647
        0x000017c0:    187eac61    a.~.    DCD    410954849
        0x000017c4:    ca24134a    J.$.    DCD    3391361866
        0x000017c8:    3ed8cd41    A..>    DCD    1054395713
        0x000017cc:    17c4acd0    ....    DCD    398765264
        0x000017d0:    c98314ea    ....    DCD    3380810986
        0x000017d4:    3eebcccc    ...>    DCD    1055640780
        0x000017d8:    1709ad41    A...    DCD    386510145
        0x000017dc:    c8e81688    ....    DCD    3370653320
        0x000017e0:    3efdcc57    W..>    DCD    1056820311
        0x000017e4:    164cadb6    ..L.    DCD    374123958
        0x000017e8:    c8501824    $.P.    DCD    3360692260
        0x000017ec:    3f0fcbe2    ...?    DCD    1057999842
        0x000017f0:    1590ae2e    ....    DCD    361803310
        0x000017f4:    c7be19be    ....    DCD    3351124414
        0x000017f8:    3f20cb6e    n. ?    DCD    1059113838
        0x000017fc:    14d2aea9    ....    DCD    349351593
        0x00001800:    c7311b56    V.1.    DCD    3341884246
        0x00001804:    3f30cafb    ..0?    DCD    1060162299
        0x00001808:    1413af28    (...    DCD    336834344
        0x0000180c:    c6a81ceb    ....    DCD    3332906219
        0x00001810:    3f40ca88    ..@?    DCD    1061210760
        0x00001814:    1354afa9    ..T.    DCD    324317097
        0x00001818:    c6251e7e    ~.%.    DCD    3324321406
        0x0000181c:    3f4fca15    ..O?    DCD    1062193685
        0x00001820:    1294b02d    -...    DCD    311734317
        0x00001824:    c5a7200e    . ..    DCD    3316064270
        0x00001828:    3f5dc9a3    ..]?    DCD    1063111075
        0x0000182c:    11d3b0b5    ....    DCD    299086005
        0x00001830:    c52d219c    .!-.    DCD    3308069276
        0x00001834:    3f6bc932    2.k?    DCD    1064028466
        0x00001838:    1112b140    @...    DCD    286437696
        0x0000183c:    c4b92326    &#..    DCD    3300467494
        0x00001840:    3f78c8c1    ..x?    DCD    1064880321
        0x00001844:    1050b1cd    ..P.    DCD    273723853
        0x00001848:    c44a24ae    .$J.    DCD    3293193390
        0x0000184c:    3f85c851    Q..?    DCD    1065732177
        0x00001850:    0f8db25e    ^...    DCD    260944478
        0x00001854:    c3e02632    2&..    DCD    3286246962
        0x00001858:    3f91c7e1    ...?    DCD    1066518497
        0x0000185c:    0ecab2f2    ....    DCD    248165106
        0x00001860:    c37b27b3    .'{.    DCD    3279628211
        0x00001864:    3f9cc772    r..?    DCD    1067239282
        0x00001868:    0e06b388    ....    DCD    235320200
        0x0000186c:    c31c2931    1)..    DCD    3273402673
        0x00001870:    3fa7c703    ...?    DCD    1067960067
        0x00001874:    0d41b422    ".A.    DCD    222409762
        0x00001878:    c2c12aaa    .*..    DCD    3267439274
        0x0000187c:    3fb1c695    ...?    DCD    1068615317
        0x00001880:    0c7cb4be    ..|.    DCD    209499326
        0x00001884:    c26d2c21    !,m.    DCD    3261934625
        0x00001888:    3fbbc627    '..?    DCD    1069270567
        0x0000188c:    0bb7b55e    ^...    DCD    196588894
        0x00001890:    c21d2d93    .-..    DCD    3256692115
        0x00001894:    3fc4c5ba    ...?    DCD    1069860282
        0x00001898:    0af1b600    ....    DCD    183612928
        0x0000189c:    c1d32f02    ./..    DCD    3251842818
        0x000018a0:    3fccc54e    N..?    DCD    1070384462
        0x000018a4:    0a2bb6a5    ..+.    DCD    170636965
        0x000018a8:    c18e306c    l0..    DCD    3247321196
        0x000018ac:    3fd4c4e2    ...?    DCD    1070908642
        0x000018b0:    0964b74d    M.d.    DCD    157595469
        0x000018b4:    c14f31d2    .1O.    DCD    3243192786
        0x000018b8:    3fdbc476    v..?    DCD    1071367286
        0x000018bc:    089db7f8    ....    DCD    144553976
        0x000018c0:    c1153334    43..    DCD    3239392052
        0x000018c4:    3fe1c40c    ...?    DCD    1071760396
        0x000018c8:    07d6b8a6    ....    DCD    131512486
        0x000018cc:    c0e03492    .4..    DCD    3235918994
        0x000018d0:    3fe7c3a1    ...?    DCD    1072153505
        0x000018d4:    070eb956    V...    DCD    118405462
        0x000018d8:    c0b135eb    .5..    DCD    3232839147
        0x000018dc:    3fecc338    8..?    DCD    1072481080
        0x000018e0:    0646ba09    ..F.    DCD    105298441
        0x000018e4:    c088373f    ?7..    DCD    3230152511
        0x000018e8:    3ff1c2cf    ...?    DCD    1072808655
        0x000018ec:    057ebabf    ..~.    DCD    92191423
        0x000018f0:    c064388e    .8d.    DCD    3227793550
        0x000018f4:    3ff5c266    f..?    DCD    1073070694
        0x000018f8:    04b5bb77    w...    DCD    79018871
        0x000018fc:    c04539d9    .9E.    DCD    3225762265
        0x00001900:    3ff8c1fe    ...?    DCD    1073267198
        0x00001904:    03edbc32    2...    DCD    65911858
        0x00001908:    c02c3b1e    .;,.    DCD    3224124190
        0x0000190c:    3ffbc197    ...?    DCD    1073463703
        0x00001910:    0324bcf0    ..$.    DCD    52739312
        0x00001914:    c0193c5f    _<..    DCD    3222879327
        0x00001918:    3ffdc130    0..?    DCD    1073594672
        0x0000191c:    025bbdb0    ..[.    DCD    39566768
        0x00001920:    c00b3d9a    .=..    DCD    3221962138
        0x00001924:    3fffc0ca    ...?    DCD    1073725642
        0x00001928:    0192be73    s...    DCD    26394227
        0x0000192c:    c0033ed0    .>..    DCD    3221438160
        0x00001930:    4000c065    e..@    DCD    1073791077
        0x00001934:    00c9bf38    8...    DCD    13221688
    $t
    .text
    __aeabi_memcpy
    __aeabi_memcpy4
    __aeabi_memcpy8
        0x00001938:    ea400301    @...    ORR      r3,r0,r1
        0x0000193c:    079b        ..      LSLS     r3,r3,#30
        0x0000193e:    d003        ..      BEQ      0x1948 ; __aeabi_memcpy + 16
        0x00001940:    e009        ..      B        0x1956 ; __aeabi_memcpy + 30
        0x00001942:    c908        ..      LDM      r1!,{r3}
        0x00001944:    1f12        ..      SUBS     r2,r2,#4
        0x00001946:    c008        ..      STM      r0!,{r3}
        0x00001948:    2a04        .*      CMP      r2,#4
        0x0000194a:    d2fa        ..      BCS      0x1942 ; __aeabi_memcpy + 10
        0x0000194c:    e003        ..      B        0x1956 ; __aeabi_memcpy + 30
        0x0000194e:    f8113b01    ...;    LDRB     r3,[r1],#1
        0x00001952:    f8003b01    ...;    STRB     r3,[r0],#1
        0x00001956:    1e52        R.      SUBS     r2,r2,#1
        0x00001958:    d2f9        ..      BCS      0x194e ; __aeabi_memcpy + 22
        0x0000195a:    4770        pG      BX       lr
    .text
    __aeabi_uidiv
    __aeabi_uidivmod
        0x0000195c:    b530        0.      PUSH     {r4,r5,lr}
        0x0000195e:    460b        .F      MOV      r3,r1
        0x00001960:    4601        .F      MOV      r1,r0
        0x00001962:    2000        .       MOVS     r0,#0
        0x00001964:    2220         "      MOVS     r2,#0x20
        0x00001966:    2401        .$      MOVS     r4,#1
        0x00001968:    e009        ..      B        0x197e ; __aeabi_uidiv + 34
        0x0000196a:    fa21f502    !...    LSR      r5,r1,r2
        0x0000196e:    429d        .B      CMP      r5,r3
        0x00001970:    d305        ..      BCC      0x197e ; __aeabi_uidiv + 34
        0x00001972:    fa03f502    ....    LSL      r5,r3,r2
        0x00001976:    1b49        I.      SUBS     r1,r1,r5
        0x00001978:    fa04f502    ....    LSL      r5,r4,r2
        0x0000197c:    4428        (D      ADD      r0,r0,r5
        0x0000197e:    1e15        ..      SUBS     r5,r2,#0
        0x00001980:    f1a20201    ....    SUB      r2,r2,#1
        0x00001984:    dcf1        ..      BGT      0x196a ; __aeabi_uidiv + 14
        0x00001986:    bd30        0.      POP      {r4,r5,pc}
    .text
    __scatterload
    __scatterload_rt2
        0x00001988:    4c06        .L      LDR      r4,[pc,#24] ; [0x19a4] = 0x3830
        0x0000198a:    4d07        .M      LDR      r5,[pc,#28] ; [0x19a8] = 0x3850
        0x0000198c:    e006        ..      B        0x199c ; __scatterload + 20
        0x0000198e:    68e0        .h      LDR      r0,[r4,#0xc]
        0x00001990:    f0400301    @...    ORR      r3,r0,#1
        0x00001994:    e8940007    ....    LDM      r4,{r0-r2}
        0x00001998:    4798        .G      BLX      r3
        0x0000199a:    3410        .4      ADDS     r4,r4,#0x10
        0x0000199c:    42ac        .B      CMP      r4,r5
        0x0000199e:    d3f6        ..      BCC      0x198e ; __scatterload + 6
        0x000019a0:    f7fefbca    ....    BL       __main_after_scatterload ; 0x138
    $d
        0x000019a4:    00003830    08..    DCD    14384
        0x000019a8:    00003850    P8..    DCD    14416
    $t.4
    ADC_ChannelConfig
        0x000019ac:    6802        .h      LDR      r2,[r0,#0]
        0x000019ae:    f42272f8    "..r    BIC      r2,r2,#0x1f0
        0x000019b2:    6002        .`      STR      r2,[r0,#0]
        0x000019b4:    6802        .h      LDR      r2,[r0,#0]
        0x000019b6:    430a        .C      ORRS     r2,r2,r1
        0x000019b8:    6002        .`      STR      r2,[r0,#0]
        0x000019ba:    0909        ..      LSRS     r1,r1,#4
        0x000019bc:    2201        ."      MOVS     r2,#1
        0x000019be:    fa02f101    ....    LSL      r1,r2,r1
        0x000019c2:    6141        Aa      STR      r1,[r0,#0x14]
        0x000019c4:    4770        pG      BX       lr
        0x000019c6:    0000        ..      MOVS     r0,r0
    ADC_Cmd
        0x000019c8:    6802        .h      LDR      r2,[r0,#0]
        0x000019ca:    2900        .)      CMP      r1,#0
        0x000019cc:    f0220201    "...    BIC      r2,r2,#1
        0x000019d0:    bf18        ..      IT       NE
        0x000019d2:    3201        .2      ADDNE    r2,#1
        0x000019d4:    6002        .`      STR      r2,[r0,#0]
        0x000019d6:    4770        pG      BX       lr
    ADC_Handler
        0x000019d8:    4770        pG      BX       lr
        0x000019da:    0000        ..      MOVS     r0,r0
    ADC_Init
        0x000019dc:    b510        ..      PUSH     {r4,lr}
        0x000019de:    6802        .h      LDR      r2,[r0,#0]
        0x000019e0:    e9d1c300    ....    LDRD     r12,r3,[r1,#0]
        0x000019e4:    f02202fc    "...    BIC      r2,r2,#0xfc
        0x000019e8:    e9d1e402    ....    LDRD     lr,r4,[r1,#8]
        0x000019ec:    431a        .C      ORRS     r2,r2,r3
        0x000019ee:    4322        "C      ORRS     r2,r2,r4
        0x000019f0:    6002        .`      STR      r2,[r0,#0]
        0x000019f2:    6842        Bh      LDR      r2,[r0,#4]
        0x000019f4:    f64f7307    O..s    MOV      r3,#0xff07
        0x000019f8:    439a        .C      BICS     r2,r2,r3
        0x000019fa:    7c09        .|      LDRB     r1,[r1,#0x10]
        0x000019fc:    ea42020c    B...    ORR      r2,r2,r12
        0x00001a00:    4311        .C      ORRS     r1,r1,r2
        0x00001a02:    ea41210e    A..!    ORR      r1,r1,lr,LSL #8
        0x00001a06:    6041        A`      STR      r1,[r0,#4]
        0x00001a08:    0921        !.      LSRS     r1,r4,#4
        0x00001a0a:    2201        ."      MOVS     r2,#1
        0x00001a0c:    fa02f101    ....    LSL      r1,r2,r1
        0x00001a10:    6141        Aa      STR      r1,[r0,#0x14]
        0x00001a12:    bd10        ..      POP      {r4,pc}
    ADC_StartOfConversion
        0x00001a14:    6801        .h      LDR      r1,[r0,#0]
        0x00001a16:    f0410102    A...    ORR      r1,r1,#2
        0x00001a1a:    6001        .`      STR      r1,[r0,#0]
        0x00001a1c:    4770        pG      BX       lr
        0x00001a1e:    0000        ..      MOVS     r0,r0
    DMA_AutoRepeat_Cmd
        0x00001a20:    f24f020c    O...    MOV      r2,#0xf00c
        0x00001a24:    0140        @.      LSLS     r0,r0,#5
        0x00001a26:    f2c40200    ....    MOVT     r2,#0x4000
        0x00001a2a:    5813        .X      LDR      r3,[r2,r0]
        0x00001a2c:    2900        .)      CMP      r1,#0
        0x00001a2e:    f4234380    #..C    BIC      r3,r3,#0x4000
        0x00001a32:    5013        .P      STR      r3,[r2,r0]
        0x00001a34:    5813        .X      LDR      r3,[r2,r0]
        0x00001a36:    f4234380    #..C    BIC      r3,r3,#0x4000
        0x00001a3a:    bf18        ..      IT       NE
        0x00001a3c:    f5034380    ...C    ADDNE    r3,r3,#0x4000
        0x00001a40:    5013        .P      STR      r3,[r2,r0]
        0x00001a42:    4770        pG      BX       lr
    DMA_Cmd
        0x00001a44:    f24f020c    O...    MOV      r2,#0xf00c
        0x00001a48:    0140        @.      LSLS     r0,r0,#5
        0x00001a4a:    f2c40200    ....    MOVT     r2,#0x4000
        0x00001a4e:    5813        .X      LDR      r3,[r2,r0]
        0x00001a50:    2900        .)      CMP      r1,#0
        0x00001a52:    f0230301    #...    BIC      r3,r3,#1
        0x00001a56:    5013        .P      STR      r3,[r2,r0]
        0x00001a58:    5813        .X      LDR      r3,[r2,r0]
        0x00001a5a:    f0230301    #...    BIC      r3,r3,#1
        0x00001a5e:    bf18        ..      IT       NE
        0x00001a60:    3301        .3      ADDNE    r3,#1
        0x00001a62:    5013        .P      STR      r3,[r2,r0]
        0x00001a64:    4770        pG      BX       lr
        0x00001a66:    0000        ..      MOVS     r0,r0
    DMA_Config
        0x00001a68:    b5b0        ..      PUSH     {r4,r5,r7,lr}
        0x00001a6a:    f24f0c00    O...    MOVW     r12,#0xf000
        0x00001a6e:    f2c40c00    ....    MOVT     r12,#0x4000
        0x00001a72:    e9d13200    ...2    LDRD     r3,r2,[r1,#0]
        0x00001a76:    e9d14502    ...E    LDRD     r4,r5,[r1,#8]
        0x00001a7a:    ea4f1e40    O.@.    LSL      lr,r0,#5
        0x00001a7e:    eb0c1040    ..@.    ADD      r0,r12,r0,LSL #5
        0x00001a82:    f84c300e    L..0    STR      r3,[r12,lr]
        0x00001a86:    6042        B`      STR      r2,[r0,#4]
        0x00001a88:    6084        .`      STR      r4,[r0,#8]
        0x00001a8a:    68c2        .h      LDR      r2,[r0,#0xc]
        0x00001a8c:    e9d13404    ...4    LDRD     r3,r4,[r1,#0x10]
        0x00001a90:    f42272cf    "..r    BIC      r2,r2,#0x19e
        0x00001a94:    ea4202c5    B...    ORR      r2,r2,r5,LSL #3
        0x00001a98:    6989        .i      LDR      r1,[r1,#0x18]
        0x00001a9a:    ea4212c3    B...    ORR      r2,r2,r3,LSL #7
        0x00001a9e:    ea420244    B.D.    ORR      r2,r2,r4,LSL #1
        0x00001aa2:    ea420181    B...    ORR      r1,r2,r1,LSL #2
        0x00001aa6:    60c1        .`      STR      r1,[r0,#0xc]
        0x00001aa8:    bdb0        ..      POP      {r4,r5,r7,pc}
        0x00001aaa:    0000        ..      MOVS     r0,r0
    DMA_DirectionConfig
        0x00001aac:    f24f020c    O...    MOV      r2,#0xf00c
        0x00001ab0:    0140        @.      LSLS     r0,r0,#5
        0x00001ab2:    f2c40200    ....    MOVT     r2,#0x4000
        0x00001ab6:    5813        .X      LDR      r3,[r2,r0]
        0x00001ab8:    f4235300    #..S    BIC      r3,r3,#0x2000
        0x00001abc:    5013        .P      STR      r3,[r2,r0]
        0x00001abe:    5813        .X      LDR      r3,[r2,r0]
        0x00001ac0:    4319        .C      ORRS     r1,r1,r3
        0x00001ac2:    5011        .P      STR      r1,[r2,r0]
        0x00001ac4:    4770        pG      BX       lr
        0x00001ac6:    0000        ..      MOVS     r0,r0
    DMA_Handler
        0x00001ac8:    4770        pG      BX       lr
        0x00001aca:    0000        ..      MOVS     r0,r0
    DMA_PeripheralConfig
        0x00001acc:    b580        ..      PUSH     {r7,lr}
        0x00001ace:    f24f038c    O...    MOV      r3,#0xf08c
        0x00001ad2:    f2c40300    ....    MOVT     r3,#0x4000
        0x00001ad6:    00c0        ..      LSLS     r0,r0,#3
        0x00001ad8:    f04f0c1f    O...    MOV      r12,#0x1f
        0x00001adc:    f8d3e000    ....    LDR      lr,[r3,#0]
        0x00001ae0:    fa0cf200    ....    LSL      r2,r12,r0
        0x00001ae4:    ea2e0202    ....    BIC      r2,lr,r2
        0x00001ae8:    601a        .`      STR      r2,[r3,#0]
        0x00001aea:    681a        .h      LDR      r2,[r3,#0]
        0x00001aec:    fa01f000    ....    LSL      r0,r1,r0
        0x00001af0:    4310        .C      ORRS     r0,r0,r2
        0x00001af2:    6018        .`      STR      r0,[r3,#0]
        0x00001af4:    bd80        ..      POP      {r7,pc}
        0x00001af6:    0000        ..      MOVS     r0,r0
    FLASH_Handler
        0x00001af8:    4770        pG      BX       lr
        0x00001afa:    0000        ..      MOVS     r0,r0
    GPIO_ClearITPendingBit
        0x00001afc:    6381        .c      STR      r1,[r0,#0x38]
        0x00001afe:    4770        pG      BX       lr
    GPIO_ITConfig
        0x00001b00:    2320         #      MOVS     r3,#0x20
        0x00001b02:    2a00        .*      CMP      r2,#0
        0x00001b04:    bf08        ..      IT       EQ
        0x00001b06:    2324        $#      MOVEQ    r3,#0x24
        0x00001b08:    50c1        .P      STR      r1,[r0,r3]
        0x00001b0a:    4770        pG      BX       lr
    GPIO_Init
        0x00001b0c:    790b        .y      LDRB     r3,[r1,#4]
        0x00001b0e:    f8d1c000    ....    LDR      r12,[r1,#0]
        0x00001b12:    1e5a        Z.      SUBS     r2,r3,#1
        0x00001b14:    2a02        .*      CMP      r2,#2
        0x00001b16:    d209        ..      BCS      0x1b2c ; GPIO_Init + 32
        0x00001b18:    2b02        .+      CMP      r3,#2
        0x00001b1a:    f8c0c010    ....    STR      r12,[r0,#0x10]
        0x00001b1e:    bf14        ..      ITE      NE
        0x00001b20:    3048        H0      ADDNE    r0,r0,#0x48
        0x00001b22:    3044        D0      ADDEQ    r0,r0,#0x44
        0x00001b24:    f8c0c000    ....    STR      r12,[r0,#0]
        0x00001b28:    4770        pG      BX       lr
        0x00001b2a:    bf00        ..      NOP      
        0x00001b2c:    2b03        .+      CMP      r3,#3
        0x00001b2e:    d103        ..      BNE      0x1b38 ; GPIO_Init + 44
        0x00001b30:    3014        .0      ADDS     r0,r0,#0x14
        0x00001b32:    f8c0c000    ....    STR      r12,[r0,#0]
        0x00001b36:    4770        pG      BX       lr
        0x00001b38:    f8c0c014    ....    STR      r12,[r0,#0x14]
        0x00001b3c:    7949        Iy      LDRB     r1,[r1,#5]
        0x00001b3e:    2902        .)      CMP      r1,#2
        0x00001b40:    d00a        ..      BEQ      0x1b58 ; GPIO_Init + 76
        0x00001b42:    2901        .)      CMP      r1,#1
        0x00001b44:    d00e        ..      BEQ      0x1b64 ; GPIO_Init + 88
        0x00001b46:    2900        .)      CMP      r1,#0
        0x00001b48:    bf18        ..      IT       NE
        0x00001b4a:    4770        pG      BXNE     lr
        0x00001b4c:    f8c0c050    ..P.    STR      r12,[r0,#0x50]
        0x00001b50:    3040        @0      ADDS     r0,r0,#0x40
        0x00001b52:    f8c0c000    ....    STR      r12,[r0,#0]
        0x00001b56:    4770        pG      BX       lr
        0x00001b58:    f8c0c04c    ..L.    STR      r12,[r0,#0x4c]
        0x00001b5c:    3040        @0      ADDS     r0,r0,#0x40
        0x00001b5e:    f8c0c000    ....    STR      r12,[r0,#0]
        0x00001b62:    4770        pG      BX       lr
        0x00001b64:    f8c0c03c    ..<.    STR      r12,[r0,#0x3c]
        0x00001b68:    3050        P0      ADDS     r0,r0,#0x50
        0x00001b6a:    f8c0c000    ....    STR      r12,[r0,#0]
        0x00001b6e:    4770        pG      BX       lr
    GPIO_PinAFConfig
        0x00001b70:    0049        I.      LSLS     r1,r1,#1
        0x00001b72:    6983        .i      LDR      r3,[r0,#0x18]
        0x00001b74:    fa02f101    ....    LSL      r1,r2,r1
        0x00001b78:    4319        .C      ORRS     r1,r1,r3
        0x00001b7a:    6181        .a      STR      r1,[r0,#0x18]
        0x00001b7c:    4770        pG      BX       lr
        0x00001b7e:    0000        ..      MOVS     r0,r0
    GPIO_SetBits
        0x00001b80:    6842        Bh      LDR      r2,[r0,#4]
        0x00001b82:    4311        .C      ORRS     r1,r1,r2
        0x00001b84:    6041        A`      STR      r1,[r0,#4]
        0x00001b86:    4770        pG      BX       lr
    GPIO_TriTypeConfig
        0x00001b88:    2a04        .*      CMP      r2,#4
        0x00001b8a:    bf88        ..      IT       HI
        0x00001b8c:    4770        pG      BXHI     lr
        0x00001b8e:    e8dff002    ....    TBB      [pc,r2]
    $d.16
        0x00001b92:    0703        ..      DCW    1795
        0x00001b94:    00110d0b    ....    DCD    1117451
    $t.17
        0x00001b98:    6281        .b      STR      r1,[r0,#0x28]
        0x00001b9a:    6301        .c      STR      r1,[r0,#0x30]
        0x00001b9c:    60c1        .`      STR      r1,[r0,#0xc]
        0x00001b9e:    4770        pG      BX       lr
        0x00001ba0:    6281        .b      STR      r1,[r0,#0x28]
        0x00001ba2:    6341        Ac      STR      r1,[r0,#0x34]
        0x00001ba4:    60c1        .`      STR      r1,[r0,#0xc]
        0x00001ba6:    4770        pG      BX       lr
        0x00001ba8:    6081        .`      STR      r1,[r0,#8]
        0x00001baa:    4770        pG      BX       lr
        0x00001bac:    62c1        .b      STR      r1,[r0,#0x2c]
        0x00001bae:    6301        .c      STR      r1,[r0,#0x30]
        0x00001bb0:    60c1        .`      STR      r1,[r0,#0xc]
        0x00001bb2:    4770        pG      BX       lr
        0x00001bb4:    62c1        .b      STR      r1,[r0,#0x2c]
        0x00001bb6:    6341        Ac      STR      r1,[r0,#0x34]
        0x00001bb8:    60c1        .`      STR      r1,[r0,#0xc]
        0x00001bba:    4770        pG      BX       lr
    HardFaultHandler
        0x00001bbc:    f64e522c    N.,R    MOV      r2,#0xed2c
        0x00001bc0:    f2ce0200    ....    MOVT     r2,#0xe000
        0x00001bc4:    6811        .h      LDR      r1,[r2,#0]
        0x00001bc6:    f1b13fff    ...?    CMP      r1,#0xffffffff
        0x00001bca:    dd43        C.      BLE      0x1c54 ; HardFaultHandler + 152
        0x00001bcc:    f8523c08    R..<    LDR      r3,[r2,#-8]
        0x00001bd0:    f240012c    @.,.    MOVW     r1,#0x2c
        0x00001bd4:    f2c20100    ....    MOVT     r1,#0x2000
        0x00001bd8:    624b        Kb      STR      r3,[r1,#0x24]
        0x00001bda:    f8123c04    ...<    LDRB     r3,[r2,#-4]
        0x00001bde:    f8813028    ..(0    STRB     r3,[r1,#0x28]
        0x00001be2:    f8123c03    ...<    LDRB     r3,[r2,#-3]
        0x00001be6:    62cb        .b      STR      r3,[r1,#0x2c]
        0x00001be8:    68d3        .h      LDR      r3,[r2,#0xc]
        0x00001bea:    630b        .c      STR      r3,[r1,#0x30]
        0x00001bec:    f8323c02    2..<    LDRH     r3,[r2,#-2]
        0x00001bf0:    868b        ..      STRH     r3,[r1,#0x34]
        0x00001bf2:    6813        .h      LDR      r3,[r2,#0]
        0x00001bf4:    638b        .c      STR      r3,[r1,#0x38]
        0x00001bf6:    6853        Sh      LDR      r3,[r2,#4]
        0x00001bf8:    63cb        .c      STR      r3,[r1,#0x3c]
        0x00001bfa:    6912        .i      LDR      r2,[r2,#0x10]
        0x00001bfc:    640a        .d      STR      r2,[r1,#0x40]
        0x00001bfe:    2200        ."      MOVS     r2,#0
        0x00001c00:    600a        .`      STR      r2,[r1,#0]
        0x00001c02:    bf00        ..      NOP      
        0x00001c04:    680a        .h      LDR      r2,[r1,#0]
        0x00001c06:    b932        2.      CBNZ     r2,0x1c16 ; HardFaultHandler + 90
        0x00001c08:    680a        .h      LDR      r2,[r1,#0]
        0x00001c0a:    b922        ".      CBNZ     r2,0x1c16 ; HardFaultHandler + 90
        0x00001c0c:    680a        .h      LDR      r2,[r1,#0]
        0x00001c0e:    b912        ..      CBNZ     r2,0x1c16 ; HardFaultHandler + 90
        0x00001c10:    680a        .h      LDR      r2,[r1,#0]
        0x00001c12:    2a00        .*      CMP      r2,#0
        0x00001c14:    d0f6        ..      BEQ      0x1c04 ; HardFaultHandler + 72
        0x00001c16:    6802        .h      LDR      r2,[r0,#0]
        0x00001c18:    604a        J`      STR      r2,[r1,#4]
        0x00001c1a:    6842        Bh      LDR      r2,[r0,#4]
        0x00001c1c:    608a        .`      STR      r2,[r1,#8]
        0x00001c1e:    6882        .h      LDR      r2,[r0,#8]
        0x00001c20:    60ca        .`      STR      r2,[r1,#0xc]
        0x00001c22:    68c2        .h      LDR      r2,[r0,#0xc]
        0x00001c24:    610a        .a      STR      r2,[r1,#0x10]
        0x00001c26:    6902        .i      LDR      r2,[r0,#0x10]
        0x00001c28:    614a        Ja      STR      r2,[r1,#0x14]
        0x00001c2a:    6942        Bi      LDR      r2,[r0,#0x14]
        0x00001c2c:    618a        .a      STR      r2,[r1,#0x18]
        0x00001c2e:    6982        .i      LDR      r2,[r0,#0x18]
        0x00001c30:    61ca        .a      STR      r2,[r1,#0x1c]
        0x00001c32:    69c0        .i      LDR      r0,[r0,#0x1c]
        0x00001c34:    6208        .b      STR      r0,[r1,#0x20]
        0x00001c36:    2000        .       MOVS     r0,#0
        0x00001c38:    6008        .`      STR      r0,[r1,#0]
        0x00001c3a:    bf00        ..      NOP      
        0x00001c3c:    6808        .h      LDR      r0,[r1,#0]
        0x00001c3e:    b980        ..      CBNZ     r0,0x1c62 ; HardFaultHandler + 166
        0x00001c40:    6808        .h      LDR      r0,[r1,#0]
        0x00001c42:    b970        p.      CBNZ     r0,0x1c62 ; HardFaultHandler + 166
        0x00001c44:    6808        .h      LDR      r0,[r1,#0]
        0x00001c46:    b960        `.      CBNZ     r0,0x1c62 ; HardFaultHandler + 166
        0x00001c48:    6808        .h      LDR      r0,[r1,#0]
        0x00001c4a:    2800        .(      CMP      r0,#0
        0x00001c4c:    bf18        ..      IT       NE
        0x00001c4e:    4770        pG      BXNE     lr
        0x00001c50:    e7f4        ..      B        0x1c3c ; HardFaultHandler + 128
        0x00001c52:    bf00        ..      NOP      
        0x00001c54:    6811        .h      LDR      r1,[r2,#0]
        0x00001c56:    f0414100    A..A    ORR      r1,r1,#0x80000000
        0x00001c5a:    6011        .`      STR      r1,[r2,#0]
        0x00001c5c:    6981        .i      LDR      r1,[r0,#0x18]
        0x00001c5e:    3102        .1      ADDS     r1,#2
        0x00001c60:    6181        .a      STR      r1,[r0,#0x18]
        0x00001c62:    4770        pG      BX       lr
    NMI_Handler
        0x00001c64:    4770        pG      BX       lr
        0x00001c66:    0000        ..      MOVS     r0,r0
    NVIC_Init
        0x00001c68:    b510        ..      PUSH     {r4,lr}
        0x00001c6a:    7881        .x      LDRB     r1,[r0,#2]
        0x00001c6c:    7802        .x      LDRB     r2,[r0,#0]
        0x00001c6e:    f24e4c00    N..L    MOVW     r12,#0xe400
        0x00001c72:    f2ce0c00    ....    MOVT     r12,#0xe000
        0x00001c76:    b309        ..      CBZ      r1,0x1cbc ; NVIC_Init + 84
        0x00001c78:    0893        ..      LSRS     r3,r2,#2
        0x00001c7a:    f81ce003    ....    LDRB     lr,[r12,r3]
        0x00001c7e:    7844        Dx      LDRB     r4,[r0,#1]
        0x00001c80:    2118        .!      MOVS     r1,#0x18
        0x00001c82:    ea0101c2    ....    AND      r1,r1,r2,LSL #3
        0x00001c86:    22ff        ."      MOVS     r2,#0xff
        0x00001c88:    01a4        ..      LSLS     r4,r4,#6
        0x00001c8a:    408a        .@      LSLS     r2,r2,r1
        0x00001c8c:    b2e4        ..      UXTB     r4,r4
        0x00001c8e:    ea2e0202    ....    BIC      r2,lr,r2
        0x00001c92:    fa04f101    ....    LSL      r1,r4,r1
        0x00001c96:    4311        .C      ORRS     r1,r1,r2
        0x00001c98:    f80c1003    ....    STRB     r1,[r12,r3]
        0x00001c9c:    7800        .x      LDRB     r0,[r0,#0]
        0x00001c9e:    2201        ."      MOVS     r2,#1
        0x00001ca0:    f000011f    ....    AND      r1,r0,#0x1f
        0x00001ca4:    fa02f101    ....    LSL      r1,r2,r1
        0x00001ca8:    f3c01042    ..B.    UBFX     r0,r0,#5,#3
        0x00001cac:    f64f5200    O..R    MOVW     r2,#0xfd00
        0x00001cb0:    eb0c0080    ....    ADD      r0,r12,r0,LSL #2
        0x00001cb4:    f6cf72ff    ...r    MOVT     r2,#0xffff
        0x00001cb8:    5081        .P      STR      r1,[r0,r2]
        0x00001cba:    bd10        ..      POP      {r4,pc}
        0x00001cbc:    f002001f    ....    AND      r0,r2,#0x1f
        0x00001cc0:    2101        .!      MOVS     r1,#1
        0x00001cc2:    fa01f000    ....    LSL      r0,r1,r0
        0x00001cc6:    f64f5180    O..Q    MOV      r1,#0xfd80
        0x00001cca:    f6cf71ff    ...q    MOVT     r1,#0xffff
        0x00001cce:    f84c0001    L...    STR      r0,[r12,r1]
        0x00001cd2:    bd10        ..      POP      {r4,pc}
    PA_Handler
        0x00001cd4:    4770        pG      BX       lr
        0x00001cd6:    0000        ..      MOVS     r0,r0
    PB_Handler
        0x00001cd8:    4770        pG      BX       lr
        0x00001cda:    0000        ..      MOVS     r0,r0
    PC_Handler
        0x00001cdc:    b510        ..      PUSH     {r4,lr}
        0x00001cde:    f2420400    B...    MOVW     r4,#0x2000
        0x00001ce2:    f2c40401    ....    MOVT     r4,#0x4001
        0x00001ce6:    4620         F      MOV      r0,r4
        0x00001ce8:    f44f6180    O..a    MOV      r1,#0x400
        0x00001cec:    f7ffff06    ....    BL       GPIO_ClearITPendingBit ; 0x1afc
        0x00001cf0:    4620         F      MOV      r0,r4
        0x00001cf2:    f44f6100    O..a    MOV      r1,#0x800
        0x00001cf6:    f7ffff01    ....    BL       GPIO_ClearITPendingBit ; 0x1afc
        0x00001cfa:    a105        ..      ADR      r1,{pc}+0x16 ; 0x1d10
        0x00001cfc:    2000        .       MOVS     r0,#0
        0x00001cfe:    f000fa05    ....    BL       SEGGER_RTT_printf ; 0x210c
        0x00001d02:    f2400014    @...    MOVW     r0,#0x14
        0x00001d06:    f2c20000    ....    MOVT     r0,#0x2000
        0x00001d0a:    2101        .!      MOVS     r1,#1
        0x00001d0c:    6001        .`      STR      r1,[r0,#0]
        0x00001d0e:    bd10        ..      POP      {r4,pc}
    $d.10
        0x00001d10:    72657375    user    DCD    1919251317
        0x00001d14:    74756220     but    DCD    1953849888
        0x00001d18:    206e6f74    ton     DCD    544108404
        0x00001d1c:    73657270    pres    DCD    1936028272
        0x00001d20:    21646573    sed!    DCD    560227699
        0x00001d24:    0a0d2121    !!..    DCD    168632609
        0x00001d28:    00000000    ....    DCD    0
    $t.11
    PD_Handler
        0x00001d2c:    4770        pG      BX       lr
        0x00001d2e:    0000        ..      MOVS     r0,r0
    PMW_TimeBaseInit
        0x00001d30:    880a        ..      LDRH     r2,[r1,#0]
        0x00001d32:    6202        .b      STR      r2,[r0,#0x20]
        0x00001d34:    788a        .x      LDRB     r2,[r1,#2]
        0x00001d36:    78cb        .x      LDRB     r3,[r1,#3]
        0x00001d38:    f891c004    ....    LDRB     r12,[r1,#4]
        0x00001d3c:    7949        Iy      LDRB     r1,[r1,#5]
        0x00001d3e:    6042        B`      STR      r2,[r0,#4]
        0x00001d40:    ea41010c    A...    ORR      r1,r1,r12
        0x00001d44:    6103        .a      STR      r3,[r0,#0x10]
        0x00001d46:    61c1        .a      STR      r1,[r0,#0x1c]
        0x00001d48:    4770        pG      BX       lr
        0x00001d4a:    0000        ..      MOVS     r0,r0
    PWM_BKI_LevelConfig
        0x00001d4c:    6c82        .l      LDR      r2,[r0,#0x48]
        0x00001d4e:    f0227200    "..r    BIC      r2,r2,#0x2000000
        0x00001d52:    4311        .C      ORRS     r1,r1,r2
        0x00001d54:    6481        .d      STR      r1,[r0,#0x48]
        0x00001d56:    4770        pG      BX       lr
    PWM_BreakInput_Cmd
        0x00001d58:    6c82        .l      LDR      r2,[r0,#0x48]
        0x00001d5a:    2900        .)      CMP      r1,#0
        0x00001d5c:    f0227280    "..r    BIC      r2,r2,#0x1000000
        0x00001d60:    bf18        ..      IT       NE
        0x00001d62:    f1027280    ...r    ADDNE    r2,r2,#0x1000000
        0x00001d66:    6482        .d      STR      r2,[r0,#0x48]
        0x00001d68:    4770        pG      BX       lr
        0x00001d6a:    0000        ..      MOVS     r0,r0
    PWM_ClearFlag
        0x00001d6c:    6001        .`      STR      r1,[r0,#0]
        0x00001d6e:    4770        pG      BX       lr
    PWM_Cmd
        0x00001d70:    6842        Bh      LDR      r2,[r0,#4]
        0x00001d72:    2901        .)      CMP      r1,#1
        0x00001d74:    f0220201    "...    BIC      r2,r2,#1
        0x00001d78:    bf08        ..      IT       EQ
        0x00001d7a:    3201        .2      ADDEQ    r2,#1
        0x00001d7c:    6042        B`      STR      r2,[r0,#4]
        0x00001d7e:    4770        pG      BX       lr
    PWM_GetFlagStatus
        0x00001d80:    6800        .h      LDR      r0,[r0,#0]
        0x00001d82:    4008        .@      ANDS     r0,r0,r1
        0x00001d84:    bf18        ..      IT       NE
        0x00001d86:    2001        .       MOVNE    r0,#1
        0x00001d88:    4770        pG      BX       lr
        0x00001d8a:    0000        ..      MOVS     r0,r0
    PWM_IntConfig
        0x00001d8c:    297f        .)      CMP      r1,#0x7f
        0x00001d8e:    dc15        ..      BGT      0x1dbc ; PWM_IntConfig + 48
        0x00001d90:    2910        .)      CMP      r1,#0x10
        0x00001d92:    bf88        ..      IT       HI
        0x00001d94:    4770        pG      BXHI     lr
        0x00001d96:    2301        .#      MOVS     r3,#1
        0x00001d98:    fa03fc01    ....    LSL      r12,r3,r1
        0x00001d9c:    f2401316    @...    MOVW     r3,#0x116
        0x00001da0:    f2c00301    ....    MOVT     r3,#1
        0x00001da4:    ea1c0f03    ....    TST      r12,r3
        0x00001da8:    d007        ..      BEQ      0x1dba ; PWM_IntConfig + 46
        0x00001daa:    2a00        .*      CMP      r2,#0
        0x00001dac:    69c3        .i      LDR      r3,[r0,#0x1c]
        0x00001dae:    bf0c        ..      ITE      EQ
        0x00001db0:    438b        .C      BICEQ    r3,r3,r1
        0x00001db2:    430b        .C      ORRNE    r3,r3,r1
        0x00001db4:    2908        .)      CMP      r1,#8
        0x00001db6:    61c3        .a      STR      r3,[r0,#0x1c]
        0x00001db8:    d01a        ..      BEQ      0x1df0 ; PWM_IntConfig + 100
        0x00001dba:    4770        pG      BX       lr
        0x00001dbc:    f5b14f00    ...O    CMP      r1,#0x8000
        0x00001dc0:    da06        ..      BGE      0x1dd0 ; PWM_IntConfig + 68
        0x00001dc2:    2980        .)      CMP      r1,#0x80
        0x00001dc4:    d014        ..      BEQ      0x1df0 ; PWM_IntConfig + 100
        0x00001dc6:    f5b16f00    ...o    CMP      r1,#0x800
        0x00001dca:    d011        ..      BEQ      0x1df0 ; PWM_IntConfig + 100
        0x00001dcc:    e7f5        ..      B        0x1dba ; PWM_IntConfig + 46
        0x00001dce:    bf00        ..      NOP      
        0x00001dd0:    d00e        ..      BEQ      0x1df0 ; PWM_IntConfig + 100
        0x00001dd2:    f1b16f80    ...o    CMP      r1,#0x4000000
        0x00001dd6:    d1f0        ..      BNE      0x1dba ; PWM_IntConfig + 46
        0x00001dd8:    6c81        .l      LDR      r1,[r0,#0x48]
        0x00001dda:    2a00        .*      CMP      r2,#0
        0x00001ddc:    bf1e        ..      ITTT     NE
        0x00001dde:    f0416180    A..a    ORRNE    r1,r1,#0x4000000
        0x00001de2:    6481        .d      STRNE    r1,[r0,#0x48]
        0x00001de4:    4770        pG      BXNE     lr
        0x00001de6:    f0216180    !..a    BIC      r1,r1,#0x4000000
        0x00001dea:    6481        .d      STR      r1,[r0,#0x48]
        0x00001dec:    4770        pG      BX       lr
        0x00001dee:    bf00        ..      NOP      
        0x00001df0:    2a00        .*      CMP      r2,#0
        0x00001df2:    6b42        Bk      LDR      r2,[r0,#0x34]
        0x00001df4:    bf14        ..      ITE      NE
        0x00001df6:    4311        .C      ORRNE    r1,r1,r2
        0x00001df8:    ea220101    "...    BICEQ    r1,r2,r1
        0x00001dfc:    6341        Ac      STR      r1,[r0,#0x34]
        0x00001dfe:    4770        pG      BX       lr
    PWM_OutputInit
        0x00001e00:    b5b0        ..      PUSH     {r4,r5,r7,lr}
        0x00001e02:    780a        .x      LDRB     r2,[r1,#0]
        0x00001e04:    2a03        .*      CMP      r2,#3
        0x00001e06:    d811        ..      BHI      0x1e2c ; PWM_OutputInit + 44
        0x00001e08:    e8dff002    ....    TBB      [pc,r2]
    $d.2
        0x00001e0c:    0e0a0602    ....    DCD    235537922
    $t.3
        0x00001e10:    898b        ..      LDRH     r3,[r1,#0xc]
        0x00001e12:    6243        Cb      STR      r3,[r0,#0x24]
        0x00001e14:    e00a        ..      B        0x1e2c ; PWM_OutputInit + 44
        0x00001e16:    bf00        ..      NOP      
        0x00001e18:    898b        ..      LDRH     r3,[r1,#0xc]
        0x00001e1a:    6283        .b      STR      r3,[r0,#0x28]
        0x00001e1c:    e006        ..      B        0x1e2c ; PWM_OutputInit + 44
        0x00001e1e:    bf00        ..      NOP      
        0x00001e20:    898b        ..      LDRH     r3,[r1,#0xc]
        0x00001e22:    62c3        .b      STR      r3,[r0,#0x2c]
        0x00001e24:    e002        ..      B        0x1e2c ; PWM_OutputInit + 44
        0x00001e26:    bf00        ..      NOP      
        0x00001e28:    898b        ..      LDRH     r3,[r1,#0xc]
        0x00001e2a:    6303        .c      STR      r3,[r0,#0x30]
        0x00001e2c:    ea4f0e82    O...    LSL      lr,r2,#2
        0x00001e30:    2307        .#      MOVS     r3,#7
        0x00001e32:    f44f1488    O...    MOV      r4,#0x110000
        0x00001e36:    fa03f30e    ....    LSL      r3,r3,lr
        0x00001e3a:    4094        .@      LSLS     r4,r4,r2
        0x00001e3c:    f8d0c048    ..H.    LDR      r12,[r0,#0x48]
        0x00001e40:    4323        #C      ORRS     r3,r3,r4
        0x00001e42:    784c        Lx      LDRB     r4,[r1,#1]
        0x00001e44:    ea2c0503    ,...    BIC      r5,r12,r3
        0x00001e48:    fa04fc0e    ....    LSL      r12,r4,lr
        0x00001e4c:    e9d14301    ...C    LDRD     r4,r3,[r1,#4]
        0x00001e50:    4094        .@      LSLS     r4,r4,r2
        0x00001e52:    fa03f202    ....    LSL      r2,r3,r2
        0x00001e56:    ea440305    D...    ORR      r3,r4,r5
        0x00001e5a:    ea43030c    C...    ORR      r3,r3,r12
        0x00001e5e:    431a        .C      ORRS     r2,r2,r3
        0x00001e60:    6482        .d      STR      r2,[r0,#0x48]
        0x00001e62:    7b89        .{      LDRB     r1,[r1,#0xe]
        0x00001e64:    64c1        .d      STR      r1,[r0,#0x4c]
        0x00001e66:    bdb0        ..      POP      {r4,r5,r7,pc}
    PendSV_Handler
        0x00001e68:    4770        pG      BX       lr
        0x00001e6a:    0000        ..      MOVS     r0,r0
    RTC_Handler
        0x00001e6c:    4770        pG      BX       lr
        0x00001e6e:    0000        ..      MOVS     r0,r0
    SEGGER_RTT_Init
        0x00001e70:    f2400074    @.t.    MOVW     r0,#0x74
        0x00001e74:    f2c20000    ....    MOVT     r0,#0x2000
        0x00001e78:    2103        .!      MOVS     r1,#3
        0x00001e7a:    6101        .a      STR      r1,[r0,#0x10]
        0x00001e7c:    6141        Aa      STR      r1,[r0,#0x14]
        0x00001e7e:    f6430126    C.&.    MOV      r1,#0x3826
        0x00001e82:    f240121c    @...    MOVW     r2,#0x11c
        0x00001e86:    f2c00100    ....    MOVT     r1,#0
        0x00001e8a:    f2c20200    ....    MOVT     r2,#0x2000
        0x00001e8e:    6181        .a      STR      r1,[r0,#0x18]
        0x00001e90:    61c2        .a      STR      r2,[r0,#0x1c]
        0x00001e92:    f44f6280    O..b    MOV      r2,#0x400
        0x00001e96:    6202        .b      STR      r2,[r0,#0x20]
        0x00001e98:    2200        ."      MOVS     r2,#0
        0x00001e9a:    6282        .b      STR      r2,[r0,#0x28]
        0x00001e9c:    6242        Bb      STR      r2,[r0,#0x24]
        0x00001e9e:    62c2        .b      STR      r2,[r0,#0x2c]
        0x00001ea0:    6601        .f      STR      r1,[r0,#0x60]
        0x00001ea2:    f2400118    @...    MOVW     r1,#0x18
        0x00001ea6:    f2c20100    ....    MOVT     r1,#0x2000
        0x00001eaa:    3101        .1      ADDS     r1,#1
        0x00001eac:    6641        Af      STR      r1,[r0,#0x64]
        0x00001eae:    2110        .!      MOVS     r1,#0x10
        0x00001eb0:    6681        .f      STR      r1,[r0,#0x68]
        0x00001eb2:    f2454152    E.RA    MOV      r1,#0x5452
        0x00001eb6:    f2c00154    ..T.    MOVT     r1,#0x54
        0x00001eba:    6702        .g      STR      r2,[r0,#0x70]
        0x00001ebc:    66c2        .f      STR      r2,[r0,#0x6c]
        0x00001ebe:    6742        Bg      STR      r2,[r0,#0x74]
        0x00001ec0:    f8c01007    ....    STR      r1,[r0,#7]
        0x00001ec4:    f2445147    D.GQ    MOV      r1,#0x4547
        0x00001ec8:    f2c00152    ..R.    MOVT     r1,#0x52
        0x00001ecc:    f8c01003    ....    STR      r1,[r0,#3]
        0x00001ed0:    f2445153    D.SQ    MOV      r1,#0x4553
        0x00001ed4:    f2c47147    ..Gq    MOVT     r1,#0x4747
        0x00001ed8:    6001        .`      STR      r1,[r0,#0]
        0x00001eda:    2120         !      MOVS     r1,#0x20
        0x00001edc:    7181        .q      STRB     r1,[r0,#6]
        0x00001ede:    4770        pG      BX       lr
    SEGGER_RTT_Write
        0x00001ee0:    b510        ..      PUSH     {r4,lr}
        0x00001ee2:    f2400e74    @.t.    MOVW     lr,#0x74
        0x00001ee6:    f2c20e00    ....    MOVT     lr,#0x2000
        0x00001eea:    f89e3000    ...0    LDRB     r3,[lr,#0]
        0x00001eee:    468c        .F      MOV      r12,r1
        0x00001ef0:    2b00        .+      CMP      r3,#0
        0x00001ef2:    d142        B.      BNE      0x1f7a ; SEGGER_RTT_Write + 154
        0x00001ef4:    2103        .!      MOVS     r1,#3
        0x00001ef6:    f8ce1010    ....    STR      r1,[lr,#0x10]
        0x00001efa:    f8ce1014    ....    STR      r1,[lr,#0x14]
        0x00001efe:    f6430126    C.&.    MOV      r1,#0x3826
        0x00001f02:    f240131c    @...    MOVW     r3,#0x11c
        0x00001f06:    f2c00100    ....    MOVT     r1,#0
        0x00001f0a:    f2c20300    ....    MOVT     r3,#0x2000
        0x00001f0e:    f8ce1018    ....    STR      r1,[lr,#0x18]
        0x00001f12:    f8ce301c    ...0    STR      r3,[lr,#0x1c]
        0x00001f16:    f44f6380    O..c    MOV      r3,#0x400
        0x00001f1a:    f8ce3020    .. 0    STR      r3,[lr,#0x20]
        0x00001f1e:    2300        .#      MOVS     r3,#0
        0x00001f20:    f8ce3028    ..(0    STR      r3,[lr,#0x28]
        0x00001f24:    f8ce3024    ..$0    STR      r3,[lr,#0x24]
        0x00001f28:    f8ce302c    ..,0    STR      r3,[lr,#0x2c]
        0x00001f2c:    f8ce1060    ..`.    STR      r1,[lr,#0x60]
        0x00001f30:    f2400118    @...    MOVW     r1,#0x18
        0x00001f34:    f2c20100    ....    MOVT     r1,#0x2000
        0x00001f38:    3101        .1      ADDS     r1,#1
        0x00001f3a:    f8ce1064    ..d.    STR      r1,[lr,#0x64]
        0x00001f3e:    2110        .!      MOVS     r1,#0x10
        0x00001f40:    f8ce1068    ..h.    STR      r1,[lr,#0x68]
        0x00001f44:    f2454152    E.RA    MOV      r1,#0x5452
        0x00001f48:    f2c00154    ..T.    MOVT     r1,#0x54
        0x00001f4c:    f8ce3070    ..p0    STR      r3,[lr,#0x70]
        0x00001f50:    f8ce306c    ..l0    STR      r3,[lr,#0x6c]
        0x00001f54:    f8ce3074    ..t0    STR      r3,[lr,#0x74]
        0x00001f58:    f8ce1007    ....    STR      r1,[lr,#7]
        0x00001f5c:    f2445147    D.GQ    MOV      r1,#0x4547
        0x00001f60:    f2c00152    ..R.    MOVT     r1,#0x52
        0x00001f64:    f8ce1003    ....    STR      r1,[lr,#3]
        0x00001f68:    f2445153    D.SQ    MOV      r1,#0x4553
        0x00001f6c:    f2c47147    ..Gq    MOVT     r1,#0x4747
        0x00001f70:    f8ce1000    ....    STR      r1,[lr,#0]
        0x00001f74:    2120         !      MOVS     r1,#0x20
        0x00001f76:    f88e1006    ....    STRB     r1,[lr,#6]
        0x00001f7a:    f3ef8411    ....    MRS      r4,BASEPRI
        0x00001f7e:    f04f0120    O. .    MOV      r1,#0x20
        0x00001f82:    f3818811    ....    MSR      BASEPRI,r1
        0x00001f86:    4661        aF      MOV      r1,r12
        0x00001f88:    f000f804    ....    BL       SEGGER_RTT_WriteNoLock ; 0x1f94
        0x00001f8c:    f3848811    ....    MSR      BASEPRI,r4
        0x00001f90:    bd10        ..      POP      {r4,pc}
        0x00001f92:    0000        ..      MOVS     r0,r0
    SEGGER_RTT_WriteNoLock
        0x00001f94:    e92d4ff0    -..O    PUSH     {r4-r11,lr}
        0x00001f98:    b081        ..      SUB      sp,sp,#4
        0x00001f9a:    f2400374    @.t.    MOVW     r3,#0x74
        0x00001f9e:    eb000040    ..@.    ADD      r0,r0,r0,LSL #1
        0x00001fa2:    f2c20300    ....    MOVT     r3,#0x2000
        0x00001fa6:    eb0306c0    ....    ADD      r6,r3,r0,LSL #3
        0x00001faa:    6af0        .j      LDR      r0,[r6,#0x2c]
        0x00001fac:    4614        .F      MOV      r4,r2
        0x00001fae:    2802        .(      CMP      r0,#2
        0x00001fb0:    4689        .F      MOV      r9,r1
        0x00001fb2:    d011        ..      BEQ      0x1fd8 ; SEGGER_RTT_WriteNoLock + 68
        0x00001fb4:    2801        .(      CMP      r0,#1
        0x00001fb6:    d045        E.      BEQ      0x2044 ; SEGGER_RTT_WriteNoLock + 176
        0x00001fb8:    b948        H.      CBNZ     r0,0x1fce ; SEGGER_RTT_WriteNoLock + 58
        0x00001fba:    4635        5F      MOV      r5,r6
        0x00001fbc:    f8557f24    U.$.    LDR      r7,[r5,#0x24]!
        0x00001fc0:    6868        hh      LDR      r0,[r5,#4]
        0x00001fc2:    42b8        .B      CMP      r0,r7
        0x00001fc4:    d976        v.      BLS      0x20b4 ; SEGGER_RTT_WriteNoLock + 288
        0x00001fc6:    43f9        .C      MVNS     r1,r7
        0x00001fc8:    4408        .D      ADD      r0,r0,r1
        0x00001fca:    42a0        .B      CMP      r0,r4
        0x00001fcc:    d279        y.      BCS      0x20c2 ; SEGGER_RTT_WriteNoLock + 302
        0x00001fce:    2600        .&      MOVS     r6,#0
        0x00001fd0:    4630        0F      MOV      r0,r6
        0x00001fd2:    b001        ..      ADD      sp,sp,#4
        0x00001fd4:    e8bd8ff0    ....    POP      {r4-r11,pc}
        0x00001fd8:    f8565f24    V.$_    LDR      r5,[r6,#0x24]!
        0x00001fdc:    1d30        0.      ADDS     r0,r6,#4
        0x00001fde:    f1a60b04    ....    SUB      r11,r6,#4
        0x00001fe2:    46b2        .F      MOV      r10,r6
        0x00001fe4:    f1a60808    ....    SUB      r8,r6,#8
        0x00001fe8:    2600        .&      MOVS     r6,#0
        0x00001fea:    9000        ..      STR      r0,[sp,#0]
        0x00001fec:    e020         .      B        0x2030 ; SEGGER_RTT_WriteNoLock + 156
        0x00001fee:    bf00        ..      NOP      
        0x00001ff0:    f8db0000    ....    LDR      r0,[r11,#0]
        0x00001ff4:    43ea        .C      MVNS     r2,r5
        0x00001ff6:    4411        .D      ADD      r1,r1,r2
        0x00001ff8:    4401        .D      ADD      r1,r1,r0
        0x00001ffa:    1b47        G.      SUBS     r7,r0,r5
        0x00001ffc:    42b9        .B      CMP      r1,r7
        0x00001ffe:    bf38        8.      IT       CC
        0x00002000:    460f        .F      MOVCC    r7,r1
        0x00002002:    f8d80000    ....    LDR      r0,[r8,#0]
        0x00002006:    42a7        .B      CMP      r7,r4
        0x00002008:    bf28        (.      IT       CS
        0x0000200a:    4627        'F      MOVCS    r7,r4
        0x0000200c:    4428        (D      ADD      r0,r0,r5
        0x0000200e:    4649        IF      MOV      r1,r9
        0x00002010:    463a        :F      MOV      r2,r7
        0x00002012:    f7fffc91    ....    BL       __aeabi_memcpy ; 0x1938
        0x00002016:    f8db0000    ....    LDR      r0,[r11,#0]
        0x0000201a:    1979        y.      ADDS     r1,r7,r5
        0x0000201c:    1be4        ..      SUBS     r4,r4,r7
        0x0000201e:    1a0d        ..      SUBS     r5,r1,r0
        0x00002020:    443e        >D      ADD      r6,r6,r7
        0x00002022:    44b9        .D      ADD      r9,r9,r7
        0x00002024:    bf18        ..      IT       NE
        0x00002026:    460d        .F      MOVNE    r5,r1
        0x00002028:    2c00        .,      CMP      r4,#0
        0x0000202a:    f8ca5000    ...P    STR      r5,[r10,#0]
        0x0000202e:    d057        W.      BEQ      0x20e0 ; SEGGER_RTT_WriteNoLock + 332
        0x00002030:    9800        ..      LDR      r0,[sp,#0]
        0x00002032:    6801        .h      LDR      r1,[r0,#0]
        0x00002034:    42a9        .B      CMP      r1,r5
        0x00002036:    d9db        ..      BLS      0x1ff0 ; SEGGER_RTT_WriteNoLock + 92
        0x00002038:    43ea        .C      MVNS     r2,r5
        0x0000203a:    f8db0000    ....    LDR      r0,[r11,#0]
        0x0000203e:    4411        .D      ADD      r1,r1,r2
        0x00002040:    e7db        ..      B        0x1ffa ; SEGGER_RTT_WriteNoLock + 102
        0x00002042:    bf00        ..      NOP      
        0x00002044:    46b0        .F      MOV      r8,r6
        0x00002046:    f8587f24    X.$.    LDR      r7,[r8,#0x24]!
        0x0000204a:    f8d81004    ....    LDR      r1,[r8,#4]
        0x0000204e:    42b9        .B      CMP      r1,r7
        0x00002050:    d904        ..      BLS      0x205c ; SEGGER_RTT_WriteNoLock + 200
        0x00002052:    43fa        .C      MVNS     r2,r7
        0x00002054:    6a30        0j      LDR      r0,[r6,#0x20]
        0x00002056:    4411        .D      ADD      r1,r1,r2
        0x00002058:    e004        ..      B        0x2064 ; SEGGER_RTT_WriteNoLock + 208
        0x0000205a:    bf00        ..      NOP      
        0x0000205c:    6a30        0j      LDR      r0,[r6,#0x20]
        0x0000205e:    43fa        .C      MVNS     r2,r7
        0x00002060:    4411        .D      ADD      r1,r1,r2
        0x00002062:    4401        .D      ADD      r1,r1,r0
        0x00002064:    42a1        .B      CMP      r1,r4
        0x00002066:    bf38        8.      IT       CC
        0x00002068:    460c        .F      MOVCC    r4,r1
        0x0000206a:    1bc5        ..      SUBS     r5,r0,r7
        0x0000206c:    f8560f1c    V...    LDR      r0,[r6,#0x1c]!
        0x00002070:    42ac        .B      CMP      r4,r5
        0x00002072:    4438        8D      ADD      r0,r0,r7
        0x00002074:    d20c        ..      BCS      0x2090 ; SEGGER_RTT_WriteNoLock + 252
        0x00002076:    4649        IF      MOV      r1,r9
        0x00002078:    4622        "F      MOV      r2,r4
        0x0000207a:    f7fffc5d    ..].    BL       __aeabi_memcpy ; 0x1938
        0x0000207e:    19e0        ..      ADDS     r0,r4,r7
        0x00002080:    f8c80000    ....    STR      r0,[r8,#0]
        0x00002084:    4626        &F      MOV      r6,r4
        0x00002086:    4630        0F      MOV      r0,r6
        0x00002088:    b001        ..      ADD      sp,sp,#4
        0x0000208a:    e8bd8ff0    ....    POP      {r4-r11,pc}
        0x0000208e:    bf00        ..      NOP      
        0x00002090:    4649        IF      MOV      r1,r9
        0x00002092:    462a        *F      MOV      r2,r5
        0x00002094:    f7fffc50    ..P.    BL       __aeabi_memcpy ; 0x1938
        0x00002098:    1b67        g.      SUBS     r7,r4,r5
        0x0000209a:    6830        0h      LDR      r0,[r6,#0]
        0x0000209c:    eb090105    ....    ADD      r1,r9,r5
        0x000020a0:    463a        :F      MOV      r2,r7
        0x000020a2:    f7fffc49    ..I.    BL       __aeabi_memcpy ; 0x1938
        0x000020a6:    f8c87000    ...p    STR      r7,[r8,#0]
        0x000020aa:    4626        &F      MOV      r6,r4
        0x000020ac:    4630        0F      MOV      r0,r6
        0x000020ae:    b001        ..      ADD      sp,sp,#4
        0x000020b0:    e8bd8ff0    ....    POP      {r4-r11,pc}
        0x000020b4:    6a31        1j      LDR      r1,[r6,#0x20]
        0x000020b6:    43fa        .C      MVNS     r2,r7
        0x000020b8:    4410        .D      ADD      r0,r0,r2
        0x000020ba:    4408        .D      ADD      r0,r0,r1
        0x000020bc:    42a0        .B      CMP      r0,r4
        0x000020be:    f4ffaf86    ....    BCC.W    0x1fce ; SEGGER_RTT_WriteNoLock + 58
        0x000020c2:    f8560f1c    V...    LDR      r0,[r6,#0x1c]!
        0x000020c6:    6871        qh      LDR      r1,[r6,#4]
        0x000020c8:    4438        8D      ADD      r0,r0,r7
        0x000020ca:    eba10807    ....    SUB      r8,r1,r7
        0x000020ce:    45a0        .E      CMP      r8,r4
        0x000020d0:    d90a        ..      BLS      0x20e8 ; SEGGER_RTT_WriteNoLock + 340
        0x000020d2:    4649        IF      MOV      r1,r9
        0x000020d4:    4622        "F      MOV      r2,r4
        0x000020d6:    f7fffc2f    ../.    BL       __aeabi_memcpy ; 0x1938
        0x000020da:    1938        8.      ADDS     r0,r7,r4
        0x000020dc:    6028        (`      STR      r0,[r5,#0]
        0x000020de:    4626        &F      MOV      r6,r4
        0x000020e0:    4630        0F      MOV      r0,r6
        0x000020e2:    b001        ..      ADD      sp,sp,#4
        0x000020e4:    e8bd8ff0    ....    POP      {r4-r11,pc}
        0x000020e8:    4649        IF      MOV      r1,r9
        0x000020ea:    4642        BF      MOV      r2,r8
        0x000020ec:    f7fffc24    ..$.    BL       __aeabi_memcpy ; 0x1938
        0x000020f0:    eba40708    ....    SUB      r7,r4,r8
        0x000020f4:    6830        0h      LDR      r0,[r6,#0]
        0x000020f6:    eb090108    ....    ADD      r1,r9,r8
        0x000020fa:    463a        :F      MOV      r2,r7
        0x000020fc:    f7fffc1c    ....    BL       __aeabi_memcpy ; 0x1938
        0x00002100:    602f        /`      STR      r7,[r5,#0]
        0x00002102:    4626        &F      MOV      r6,r4
        0x00002104:    4630        0F      MOV      r0,r6
        0x00002106:    b001        ..      ADD      sp,sp,#4
        0x00002108:    e8bd8ff0    ....    POP      {r4-r11,pc}
    SEGGER_RTT_printf
        0x0000210c:    b082        ..      SUB      sp,sp,#8
        0x0000210e:    b580        ..      PUSH     {r7,lr}
        0x00002110:    b082        ..      SUB      sp,sp,#8
        0x00002112:    e9cd2304    ...#    STRD     r2,r3,[sp,#0x10]
        0x00002116:    aa04        ..      ADD      r2,sp,#0x10
        0x00002118:    9201        ..      STR      r2,[sp,#4]
        0x0000211a:    aa01        ..      ADD      r2,sp,#4
        0x0000211c:    f000f806    ....    BL       SEGGER_RTT_vprintf ; 0x212c
        0x00002120:    b002        ..      ADD      sp,sp,#8
        0x00002122:    e8bd4080    ...@    POP      {r7,lr}
        0x00002126:    b002        ..      ADD      sp,sp,#8
        0x00002128:    4770        pG      BX       lr
        0x0000212a:    0000        ..      MOVS     r0,r0
    SEGGER_RTT_vprintf
        0x0000212c:    e92d4ff0    -..O    PUSH     {r4-r11,lr}
        0x00002130:    b09d        ..      SUB      sp,sp,#0x74
        0x00002132:    4616        .F      MOV      r6,r2
        0x00002134:    aa08        ..      ADD      r2,sp,#0x20
        0x00002136:    f2417959    A.Yy    MOV      r9,#0x1759
        0x0000213a:    9218        ..      STR      r2,[sp,#0x60]
        0x0000213c:    2240        @"      MOVS     r2,#0x40
        0x0000213e:    2500        .%      MOVS     r5,#0
        0x00002140:    9005        ..      STR      r0,[sp,#0x14]
        0x00002142:    901c        ..      STR      r0,[sp,#0x70]
        0x00002144:    f10d0b60    ..`.    ADD      r11,sp,#0x60
        0x00002148:    f2cd19b7    ....    MOVT     r9,#0xd1b7
        0x0000214c:    2000        .       MOVS     r0,#0
        0x0000214e:    460c        .F      MOV      r4,r1
        0x00002150:    9219        ..      STR      r2,[sp,#0x64]
        0x00002152:    e9cd551a    ...U    STRD     r5,r5,[sp,#0x68]
        0x00002156:    9607        ..      STR      r6,[sp,#0x1c]
        0x00002158:    e00c        ..      B        0x2174 ; SEGGER_RTT_vprintf + 72
        0x0000215a:    bf00        ..      NOP      
        0x0000215c:    463b        ;F      MOV      r3,r7
        0x0000215e:    f8cd8004    ....    STR      r8,[sp,#4]
        0x00002162:    f000fe55    ..U.    BL       _PrintUnsigned ; 0x2e10
        0x00002166:    e1a3        ..      B        0x24b0 ; SEGGER_RTT_vprintf + 900
        0x00002168:    981b        ..      LDR      r0,[sp,#0x6c]
        0x0000216a:    4621        !F      MOV      r1,r4
        0x0000216c:    f1b03fff    ...?    CMP      r0,#0xffffffff
        0x00002170:    f34084ce    @...    BLE.W    0x2b10 ; SEGGER_RTT_vprintf + 2532
        0x00002174:    f8143b01    ...;    LDRB     r3,[r4],#1
        0x00002178:    2b25        %+      CMP      r3,#0x25
        0x0000217a:    d01b        ..      BEQ      0x21b4 ; SEGGER_RTT_vprintf + 136
        0x0000217c:    2b00        .+      CMP      r3,#0
        0x0000217e:    f00084af    ....    BEQ.W    0x2ae0 ; SEGGER_RTT_vprintf + 2484
        0x00002182:    e9dd2019    ...     LDRD     r2,r0,[sp,#0x64]
        0x00002186:    1c41        A.      ADDS     r1,r0,#1
        0x00002188:    4291        .B      CMP      r1,r2
        0x0000218a:    d807        ..      BHI      0x219c ; SEGGER_RTT_vprintf + 112
        0x0000218c:    9a18        ..      LDR      r2,[sp,#0x60]
        0x0000218e:    5413        .T      STRB     r3,[r2,r0]
        0x00002190:    981b        ..      LDR      r0,[sp,#0x6c]
        0x00002192:    9a19        ..      LDR      r2,[sp,#0x64]
        0x00002194:    3001        .0      ADDS     r0,#1
        0x00002196:    901b        ..      STR      r0,[sp,#0x6c]
        0x00002198:    4608        .F      MOV      r0,r1
        0x0000219a:    911a        ..      STR      r1,[sp,#0x68]
        0x0000219c:    4290        .B      CMP      r0,r2
        0x0000219e:    d1e3        ..      BNE      0x2168 ; SEGGER_RTT_vprintf + 60
        0x000021a0:    9918        ..      LDR      r1,[sp,#0x60]
        0x000021a2:    981c        ..      LDR      r0,[sp,#0x70]
        0x000021a4:    f7fffe9c    ....    BL       SEGGER_RTT_Write ; 0x1ee0
        0x000021a8:    991a        ..      LDR      r1,[sp,#0x68]
        0x000021aa:    4288        .B      CMP      r0,r1
        0x000021ac:    f04084a4    @...    BNE.W    0x2af8 ; SEGGER_RTT_vprintf + 2508
        0x000021b0:    951a        ..      STR      r5,[sp,#0x68]
        0x000021b2:    e7d9        ..      B        0x2168 ; SEGGER_RTT_vprintf + 60
        0x000021b4:    f1010a02    ....    ADD      r10,r1,#2
        0x000021b8:    f04f0800    O...    MOV      r8,#0
        0x000021bc:    f81a1c01    ....    LDRB     r1,[r10,#-1]
        0x000021c0:    f1a10323    ..#.    SUB      r3,r1,#0x23
        0x000021c4:    2b0d        .+      CMP      r3,#0xd
        0x000021c6:    f200805f    .._.    BHI.W    0x2288 ; SEGGER_RTT_vprintf + 348
        0x000021ca:    2202        ."      MOVS     r2,#2
        0x000021cc:    e8dff003    ....    TBB      [pc,r3]
    $d.1
        0x000021d0:    5c5c5c08    .\\\    DCD    1549556744
        0x000021d4:    5c5c5c5c    \\\\    DCD    1549556828
        0x000021d8:    5c0c5c0a    .\.\    DCD    1544313866
        0x000021dc:    bf000d5c    \...    DCD    3204451676
    $t.2
        0x000021e0:    2208        ."      MOVS     r2,#8
        0x000021e2:    e002        ..      B        0x21ea ; SEGGER_RTT_vprintf + 190
        0x000021e4:    2204        ."      MOVS     r2,#4
        0x000021e6:    e000        ..      B        0x21ea ; SEGGER_RTT_vprintf + 190
        0x000021e8:    2201        ."      MOVS     r2,#1
        0x000021ea:    f89a1000    ....    LDRB     r1,[r10,#0]
        0x000021ee:    ea480802    H...    ORR      r8,r8,r2
        0x000021f2:    f1a10323    ..#.    SUB      r3,r1,#0x23
        0x000021f6:    2b0d        .+      CMP      r3,#0xd
        0x000021f8:    f2008086    ....    BHI.W    0x2308 ; SEGGER_RTT_vprintf + 476
        0x000021fc:    2202        ."      MOVS     r2,#2
        0x000021fe:    e8dff003    ....    TBB      [pc,r3]
    $d.3
        0x00002202:    8307        ..      DCW    33543
        0x00002204:    83838383    ....    DCD    2206434179
        0x00002208:    83098383    ....    DCD    2198438787
        0x0000220c:    0c83830b    ....    DCD    209945355
    $t.4
        0x00002210:    2208        ."      MOVS     r2,#8
        0x00002212:    e002        ..      B        0x221a ; SEGGER_RTT_vprintf + 238
        0x00002214:    2204        ."      MOVS     r2,#4
        0x00002216:    e000        ..      B        0x221a ; SEGGER_RTT_vprintf + 238
        0x00002218:    2201        ."      MOVS     r2,#1
        0x0000221a:    f89a1001    ....    LDRB     r1,[r10,#1]
        0x0000221e:    ea480802    H...    ORR      r8,r8,r2
        0x00002222:    f1a10323    ..#.    SUB      r3,r1,#0x23
        0x00002226:    2b0d        .+      CMP      r3,#0xd
        0x00002228:    f200806c    ..l.    BHI.W    0x2304 ; SEGGER_RTT_vprintf + 472
        0x0000222c:    2202        ."      MOVS     r2,#2
        0x0000222e:    e8dff003    ....    TBB      [pc,r3]
    $d.5
        0x00002232:    6907        .i      DCW    26887
        0x00002234:    69696969    iiii    DCD    1768515945
        0x00002238:    69096969    ii.i    DCD    1762224489
        0x0000223c:    0c69690b    .ii.    DCD    208234763
    $t.6
        0x00002240:    2208        ."      MOVS     r2,#8
        0x00002242:    e002        ..      B        0x224a ; SEGGER_RTT_vprintf + 286
        0x00002244:    2204        ."      MOVS     r2,#4
        0x00002246:    e000        ..      B        0x224a ; SEGGER_RTT_vprintf + 286
        0x00002248:    2201        ."      MOVS     r2,#1
        0x0000224a:    f89a1002    ....    LDRB     r1,[r10,#2]
        0x0000224e:    ea480802    H...    ORR      r8,r8,r2
        0x00002252:    f1a10323    ..#.    SUB      r3,r1,#0x23
        0x00002256:    2b0d        .+      CMP      r3,#0xd
        0x00002258:    f2008062    ..b.    BHI.W    0x2320 ; SEGGER_RTT_vprintf + 500
        0x0000225c:    2202        ."      MOVS     r2,#2
        0x0000225e:    e8dff003    ....    TBB      [pc,r3]
    $d.7
        0x00002262:    5f0f        ._      DCW    24335
        0x00002264:    5f5f5f5f    ____    DCD    1600085855
        0x00002268:    5f115f5f    __._    DCD    1594974047
        0x0000226c:    075f5f0d    .__.    DCD    123690765
    $t.8
        0x00002270:    ea480802    H...    ORR      r8,r8,r2
        0x00002274:    f10a0a04    ....    ADD      r10,r10,#4
        0x00002278:    e7a0        ..      B        0x21bc ; SEGGER_RTT_vprintf + 144
        0x0000227a:    bf00        ..      NOP      
        0x0000227c:    2201        ."      MOVS     r2,#1
        0x0000227e:    e7f7        ..      B        0x2270 ; SEGGER_RTT_vprintf + 324
        0x00002280:    2208        ."      MOVS     r2,#8
        0x00002282:    e7f5        ..      B        0x2270 ; SEGGER_RTT_vprintf + 324
        0x00002284:    2204        ."      MOVS     r2,#4
        0x00002286:    e7f3        ..      B        0x2270 ; SEGGER_RTT_vprintf + 324
        0x00002288:    f1aa0a01    ....    SUB      r10,r10,#1
        0x0000228c:    f1a10230    ..0.    SUB      r2,r1,#0x30
        0x00002290:    2a09        .*      CMP      r2,#9
        0x00002292:    d83d        =.      BHI      0x2310 ; SEGGER_RTT_vprintf + 484
        0x00002294:    f10a0a02    ....    ADD      r10,r10,#2
        0x00002298:    2200        ."      MOVS     r2,#0
        0x0000229a:    bf00        ..      NOP      
        0x0000229c:    eb020282    ....    ADD      r2,r2,r2,LSL #2
        0x000022a0:    eb010242    ..B.    ADD      r2,r1,r2,LSL #1
        0x000022a4:    f81a1c01    ....    LDRB     r1,[r10,#-1]
        0x000022a8:    3a30        0:      SUBS     r2,r2,#0x30
        0x000022aa:    f1a10330    ..0.    SUB      r3,r1,#0x30
        0x000022ae:    2b09        .+      CMP      r3,#9
        0x000022b0:    d83e        >.      BHI      0x2330 ; SEGGER_RTT_vprintf + 516
        0x000022b2:    eb020282    ....    ADD      r2,r2,r2,LSL #2
        0x000022b6:    eb010242    ..B.    ADD      r2,r1,r2,LSL #1
        0x000022ba:    f89a1000    ....    LDRB     r1,[r10,#0]
        0x000022be:    3a30        0:      SUBS     r2,r2,#0x30
        0x000022c0:    f1a10330    ..0.    SUB      r3,r1,#0x30
        0x000022c4:    2b09        .+      CMP      r3,#9
        0x000022c6:    d835        5.      BHI      0x2334 ; SEGGER_RTT_vprintf + 520
        0x000022c8:    eb020282    ....    ADD      r2,r2,r2,LSL #2
        0x000022cc:    eb010242    ..B.    ADD      r2,r1,r2,LSL #1
        0x000022d0:    f89a1001    ....    LDRB     r1,[r10,#1]
        0x000022d4:    3a30        0:      SUBS     r2,r2,#0x30
        0x000022d6:    f1a10330    ..0.    SUB      r3,r1,#0x30
        0x000022da:    2b09        .+      CMP      r3,#9
        0x000022dc:    d876        v.      BHI      0x23cc ; SEGGER_RTT_vprintf + 672
        0x000022de:    eb020282    ....    ADD      r2,r2,r2,LSL #2
        0x000022e2:    eb010242    ..B.    ADD      r2,r1,r2,LSL #1
        0x000022e6:    f89a1002    ....    LDRB     r1,[r10,#2]
        0x000022ea:    3a30        0:      SUBS     r2,r2,#0x30
        0x000022ec:    f1a10330    ..0.    SUB      r3,r1,#0x30
        0x000022f0:    2b09        .+      CMP      r3,#9
        0x000022f2:    f10a0a04    ....    ADD      r10,r10,#4
        0x000022f6:    d9d1        ..      BLS      0x229c ; SEGGER_RTT_vprintf + 368
        0x000022f8:    f1aa0a02    ....    SUB      r10,r10,#2
        0x000022fc:    292e        .)      CMP      r1,#0x2e
        0x000022fe:    d01b        ..      BEQ      0x2338 ; SEGGER_RTT_vprintf + 524
        0x00002300:    e009        ..      B        0x2316 ; SEGGER_RTT_vprintf + 490
        0x00002302:    bf00        ..      NOP      
        0x00002304:    f10a0a01    ....    ADD      r10,r10,#1
        0x00002308:    f1a10230    ..0.    SUB      r2,r1,#0x30
        0x0000230c:    2a09        .*      CMP      r2,#9
        0x0000230e:    d9c1        ..      BLS      0x2294 ; SEGGER_RTT_vprintf + 360
        0x00002310:    2200        ."      MOVS     r2,#0
        0x00002312:    292e        .)      CMP      r1,#0x2e
        0x00002314:    d010        ..      BEQ      0x2338 ; SEGGER_RTT_vprintf + 524
        0x00002316:    2700        .'      MOVS     r7,#0
        0x00002318:    3925        %9      SUBS     r1,r1,#0x25
        0x0000231a:    2953        S)      CMP      r1,#0x53
        0x0000231c:    d968        h.      BLS      0x23f0 ; SEGGER_RTT_vprintf + 708
        0x0000231e:    e0c7        ..      B        0x24b0 ; SEGGER_RTT_vprintf + 900
        0x00002320:    f10a0a02    ....    ADD      r10,r10,#2
        0x00002324:    f1a10230    ..0.    SUB      r2,r1,#0x30
        0x00002328:    2a09        .*      CMP      r2,#9
        0x0000232a:    d8f1        ..      BHI      0x2310 ; SEGGER_RTT_vprintf + 484
        0x0000232c:    e7b2        ..      B        0x2294 ; SEGGER_RTT_vprintf + 360
        0x0000232e:    bf00        ..      NOP      
        0x00002330:    f1aa0a01    ....    SUB      r10,r10,#1
        0x00002334:    292e        .)      CMP      r1,#0x2e
        0x00002336:    d1ee        ..      BNE      0x2316 ; SEGGER_RTT_vprintf + 490
        0x00002338:    4653        SF      MOV      r3,r10
        0x0000233a:    f8131f01    ....    LDRB     r1,[r3,#1]!
        0x0000233e:    f1a10730    ..0.    SUB      r7,r1,#0x30
        0x00002342:    2f09        ./      CMP      r7,#9
        0x00002344:    d906        ..      BLS      0x2354 ; SEGGER_RTT_vprintf + 552
        0x00002346:    2700        .'      MOVS     r7,#0
        0x00002348:    469a        .F      MOV      r10,r3
        0x0000234a:    3925        %9      SUBS     r1,r1,#0x25
        0x0000234c:    2953        S)      CMP      r1,#0x53
        0x0000234e:    d94f        O.      BLS      0x23f0 ; SEGGER_RTT_vprintf + 708
        0x00002350:    e0ae        ..      B        0x24b0 ; SEGGER_RTT_vprintf + 900
        0x00002352:    bf00        ..      NOP      
        0x00002354:    f10a0a02    ....    ADD      r10,r10,#2
        0x00002358:    2700        .'      MOVS     r7,#0
        0x0000235a:    bf00        ..      NOP      
        0x0000235c:    eb070387    ....    ADD      r3,r7,r7,LSL #2
        0x00002360:    eb010343    ..C.    ADD      r3,r1,r3,LSL #1
        0x00002364:    f89a1000    ....    LDRB     r1,[r10,#0]
        0x00002368:    f1a10730    ..0.    SUB      r7,r1,#0x30
        0x0000236c:    2f09        ./      CMP      r7,#9
        0x0000236e:    f1a30730    ..0.    SUB      r7,r3,#0x30
        0x00002372:    d839        9.      BHI      0x23e8 ; SEGGER_RTT_vprintf + 700
        0x00002374:    eb070387    ....    ADD      r3,r7,r7,LSL #2
        0x00002378:    eb010343    ..C.    ADD      r3,r1,r3,LSL #1
        0x0000237c:    f89a1001    ....    LDRB     r1,[r10,#1]
        0x00002380:    f1a10730    ..0.    SUB      r7,r1,#0x30
        0x00002384:    2f09        ./      CMP      r7,#9
        0x00002386:    f1a30730    ..0.    SUB      r7,r3,#0x30
        0x0000238a:    d825        %.      BHI      0x23d8 ; SEGGER_RTT_vprintf + 684
        0x0000238c:    eb070387    ....    ADD      r3,r7,r7,LSL #2
        0x00002390:    eb010343    ..C.    ADD      r3,r1,r3,LSL #1
        0x00002394:    f89a1002    ....    LDRB     r1,[r10,#2]
        0x00002398:    f1a10730    ..0.    SUB      r7,r1,#0x30
        0x0000239c:    2f09        ./      CMP      r7,#9
        0x0000239e:    f1a30730    ..0.    SUB      r7,r3,#0x30
        0x000023a2:    d81f        ..      BHI      0x23e4 ; SEGGER_RTT_vprintf + 696
        0x000023a4:    eb070387    ....    ADD      r3,r7,r7,LSL #2
        0x000023a8:    eb010343    ..C.    ADD      r3,r1,r3,LSL #1
        0x000023ac:    f89a1003    ....    LDRB     r1,[r10,#3]
        0x000023b0:    f1a30730    ..0.    SUB      r7,r3,#0x30
        0x000023b4:    f1a10330    ..0.    SUB      r3,r1,#0x30
        0x000023b8:    2b09        .+      CMP      r3,#9
        0x000023ba:    f10a0a04    ....    ADD      r10,r10,#4
        0x000023be:    d9cd        ..      BLS      0x235c ; SEGGER_RTT_vprintf + 560
        0x000023c0:    f1aa0a01    ....    SUB      r10,r10,#1
        0x000023c4:    3925        %9      SUBS     r1,r1,#0x25
        0x000023c6:    2953        S)      CMP      r1,#0x53
        0x000023c8:    d912        ..      BLS      0x23f0 ; SEGGER_RTT_vprintf + 708
        0x000023ca:    e071        q.      B        0x24b0 ; SEGGER_RTT_vprintf + 900
        0x000023cc:    f10a0a01    ....    ADD      r10,r10,#1
        0x000023d0:    292e        .)      CMP      r1,#0x2e
        0x000023d2:    d0b1        ..      BEQ      0x2338 ; SEGGER_RTT_vprintf + 524
        0x000023d4:    e79f        ..      B        0x2316 ; SEGGER_RTT_vprintf + 490
        0x000023d6:    bf00        ..      NOP      
        0x000023d8:    f10a0a01    ....    ADD      r10,r10,#1
        0x000023dc:    3925        %9      SUBS     r1,r1,#0x25
        0x000023de:    2953        S)      CMP      r1,#0x53
        0x000023e0:    d906        ..      BLS      0x23f0 ; SEGGER_RTT_vprintf + 708
        0x000023e2:    e065        e.      B        0x24b0 ; SEGGER_RTT_vprintf + 900
        0x000023e4:    f10a0a02    ....    ADD      r10,r10,#2
        0x000023e8:    3925        %9      SUBS     r1,r1,#0x25
        0x000023ea:    2953        S)      CMP      r1,#0x53
        0x000023ec:    f2008060    ..`.    BHI.W    0x24b0 ; SEGGER_RTT_vprintf + 900
        0x000023f0:    e8dff011    ....    TBH      [pc,r1,LSL #1]
    $d.9
        0x000023f4:    005e01ac    ..^.    DCD    6160812
        0x000023f8:    005e005e    ^.^.    DCD    6160478
        0x000023fc:    005e005e    ^.^.    DCD    6160478
        0x00002400:    005e005e    ^.^.    DCD    6160478
        0x00002404:    005e005e    ^.^.    DCD    6160478
        0x00002408:    005e005e    ^.^.    DCD    6160478
        0x0000240c:    005e005e    ^.^.    DCD    6160478
        0x00002410:    005e005e    ^.^.    DCD    6160478
        0x00002414:    005e005e    ^.^.    DCD    6160478
        0x00002418:    005e005e    ^.^.    DCD    6160478
        0x0000241c:    005e005e    ^.^.    DCD    6160478
        0x00002420:    005e005e    ^.^.    DCD    6160478
        0x00002424:    005e005e    ^.^.    DCD    6160478
        0x00002428:    005e005e    ^.^.    DCD    6160478
        0x0000242c:    005e005e    ^.^.    DCD    6160478
        0x00002430:    005e005e    ^.^.    DCD    6160478
        0x00002434:    005e005e    ^.^.    DCD    6160478
        0x00002438:    005e005e    ^.^.    DCD    6160478
        0x0000243c:    005e005e    ^.^.    DCD    6160478
        0x00002440:    005e005e    ^.^.    DCD    6160478
        0x00002444:    005e005e    ^.^.    DCD    6160478
        0x00002448:    005e005e    ^.^.    DCD    6160478
        0x0000244c:    005e005e    ^.^.    DCD    6160478
        0x00002450:    005e005e    ^.^.    DCD    6160478
        0x00002454:    005e005e    ^.^.    DCD    6160478
        0x00002458:    0054005e    ^.T.    DCD    5505118
        0x0000245c:    005e005e    ^.^.    DCD    6160478
        0x00002460:    005e005e    ^.^.    DCD    6160478
        0x00002464:    005e005e    ^.^.    DCD    6160478
        0x00002468:    005e005e    ^.^.    DCD    6160478
        0x0000246c:    005e005e    ^.^.    DCD    6160478
        0x00002470:    01fc01dc    ....    DCD    33292764
        0x00002474:    005e005e    ^.^.    DCD    6160478
        0x00002478:    0062005e    ^.b.    DCD    6422622
        0x0000247c:    005e005e    ^.^.    DCD    6160478
        0x00002480:    0062005e    ^.b.    DCD    6422622
        0x00002484:    005e005e    ^.^.    DCD    6160478
        0x00002488:    02a4005e    ^...    DCD    44302430
        0x0000248c:    005e005e    ^.^.    DCD    6160478
        0x00002490:    005e02b2    ..^.    DCD    6161074
        0x00002494:    005e02e0    ..^.    DCD    6161120
        0x00002498:    0054005e    ^.T.    DCD    5505118
    $t.10
        0x0000249c:    e7ff        ..      B        0x249e ; SEGGER_RTT_vprintf + 882
        0x0000249e:    6830        0h      LDR      r0,[r6,#0]
        0x000024a0:    1d01        ..      ADDS     r1,r0,#4
        0x000024a2:    6031        1`      STR      r1,[r6,#0]
        0x000024a4:    6801        .h      LDR      r1,[r0,#0]
        0x000024a6:    9200        ..      STR      r2,[sp,#0]
        0x000024a8:    4658        XF      MOV      r0,r11
        0x000024aa:    2210        ."      MOVS     r2,#0x10
        0x000024ac:    e656        V.      B        0x215c ; SEGGER_RTT_vprintf + 48
        0x000024ae:    bf00        ..      NOP      
        0x000024b0:    f10a0401    ....    ADD      r4,r10,#1
        0x000024b4:    e658        X.      B        0x2168 ; SEGGER_RTT_vprintf + 60
        0x000024b6:    bf00        ..      NOP      
        0x000024b8:    f89a1001    ....    LDRB     r1,[r10,#1]
        0x000024bc:    3925        %9      SUBS     r1,r1,#0x25
        0x000024be:    2953        S)      CMP      r1,#0x53
        0x000024c0:    f200812a    ..*.    BHI.W    0x2718 ; SEGGER_RTT_vprintf + 1516
        0x000024c4:    e8dff011    ....    TBH      [pc,r1,LSL #1]
    $d.11
        0x000024c8:    01280120     .(.    DCD    19398944
        0x000024cc:    01280128    (.(.    DCD    19398952
        0x000024d0:    01280128    (.(.    DCD    19398952
        0x000024d4:    01280128    (.(.    DCD    19398952
        0x000024d8:    01280128    (.(.    DCD    19398952
        0x000024dc:    01280128    (.(.    DCD    19398952
        0x000024e0:    01280128    (.(.    DCD    19398952
        0x000024e4:    01280128    (.(.    DCD    19398952
        0x000024e8:    01280128    (.(.    DCD    19398952
        0x000024ec:    01280128    (.(.    DCD    19398952
        0x000024f0:    01280128    (.(.    DCD    19398952
        0x000024f4:    01280128    (.(.    DCD    19398952
        0x000024f8:    01280128    (.(.    DCD    19398952
        0x000024fc:    01280128    (.(.    DCD    19398952
        0x00002500:    01280128    (.(.    DCD    19398952
        0x00002504:    01280128    (.(.    DCD    19398952
        0x00002508:    01280128    (.(.    DCD    19398952
        0x0000250c:    01280128    (.(.    DCD    19398952
        0x00002510:    01280128    (.(.    DCD    19398952
        0x00002514:    01280128    (.(.    DCD    19398952
        0x00002518:    01280128    (.(.    DCD    19398952
        0x0000251c:    01280128    (.(.    DCD    19398952
        0x00002520:    01280128    (.(.    DCD    19398952
        0x00002524:    01280128    (.(.    DCD    19398952
        0x00002528:    01280128    (.(.    DCD    19398952
        0x0000252c:    00540128    (.T.    DCD    5505320
        0x00002530:    01280128    (.(.    DCD    19398952
        0x00002534:    01280128    (.(.    DCD    19398952
        0x00002538:    01280128    (.(.    DCD    19398952
        0x0000253c:    01280128    (.(.    DCD    19398952
        0x00002540:    01280128    (.(.    DCD    19398952
        0x00002544:    0130012c    ,.0.    DCD    19923244
        0x00002548:    01280128    (.(.    DCD    19398952
        0x0000254c:    00580128    (.X.    DCD    5767464
        0x00002550:    01280128    (.(.    DCD    19398952
        0x00002554:    00580128    (.X.    DCD    5767464
        0x00002558:    01280128    (.(.    DCD    19398952
        0x0000255c:    01340128    (.4.    DCD    20185384
        0x00002560:    01280128    (.(.    DCD    19398952
        0x00002564:    01280138    8.(.    DCD    19398968
        0x00002568:    0128013c    <.(.    DCD    19398972
        0x0000256c:    00540128    (.T.    DCD    5505320
    $t.12
        0x00002570:    f10a0a01    ....    ADD      r10,r10,#1
        0x00002574:    e793        ..      B        0x249e ; SEGGER_RTT_vprintf + 882
        0x00002576:    bf00        ..      NOP      
        0x00002578:    f89a1002    ....    LDRB     r1,[r10,#2]
        0x0000257c:    3925        %9      SUBS     r1,r1,#0x25
        0x0000257e:    2953        S)      CMP      r1,#0x53
        0x00002580:    f20080ee    ....    BHI.W    0x2760 ; SEGGER_RTT_vprintf + 1588
        0x00002584:    e8dff011    ....    TBH      [pc,r1,LSL #1]
    $d.13
        0x00002588:    00ec00e0    ....    DCD    15466720
        0x0000258c:    00ec00ec    ....    DCD    15466732
        0x00002590:    00ec00ec    ....    DCD    15466732
        0x00002594:    00ec00ec    ....    DCD    15466732
        0x00002598:    00ec00ec    ....    DCD    15466732
        0x0000259c:    00ec00ec    ....    DCD    15466732
        0x000025a0:    00ec00ec    ....    DCD    15466732
        0x000025a4:    00ec00ec    ....    DCD    15466732
        0x000025a8:    00ec00ec    ....    DCD    15466732
        0x000025ac:    00ec00ec    ....    DCD    15466732
        0x000025b0:    00ec00ec    ....    DCD    15466732
        0x000025b4:    00ec00ec    ....    DCD    15466732
        0x000025b8:    00ec00ec    ....    DCD    15466732
        0x000025bc:    00ec00ec    ....    DCD    15466732
        0x000025c0:    00ec00ec    ....    DCD    15466732
        0x000025c4:    00ec00ec    ....    DCD    15466732
        0x000025c8:    00ec00ec    ....    DCD    15466732
        0x000025cc:    00ec00ec    ....    DCD    15466732
        0x000025d0:    00ec00ec    ....    DCD    15466732
        0x000025d4:    00ec00ec    ....    DCD    15466732
        0x000025d8:    00ec00ec    ....    DCD    15466732
        0x000025dc:    00ec00ec    ....    DCD    15466732
        0x000025e0:    00ec00ec    ....    DCD    15466732
        0x000025e4:    00ec00ec    ....    DCD    15466732
        0x000025e8:    00ec00ec    ....    DCD    15466732
        0x000025ec:    00b800ec    ....    DCD    12058860
        0x000025f0:    00ec00ec    ....    DCD    15466732
        0x000025f4:    00ec00ec    ....    DCD    15466732
        0x000025f8:    00ec00ec    ....    DCD    15466732
        0x000025fc:    00ec00ec    ....    DCD    15466732
        0x00002600:    00ec00ec    ....    DCD    15466732
        0x00002604:    00f400f0    ....    DCD    15991024
        0x00002608:    00ec00ec    ....    DCD    15466732
        0x0000260c:    005400ec    ..T.    DCD    5505260
        0x00002610:    00ec00ec    ....    DCD    15466732
        0x00002614:    005400ec    ..T.    DCD    5505260
        0x00002618:    00ec00ec    ....    DCD    15466732
        0x0000261c:    00f800ec    ....    DCD    16253164
        0x00002620:    00ec00ec    ....    DCD    15466732
        0x00002624:    00ec00fc    ....    DCD    15466748
        0x00002628:    00ec0100    ....    DCD    15466752
        0x0000262c:    00b800ec    ....    DCD    12058860
    $t.14
        0x00002630:    f89a1003    ....    LDRB     r1,[r10,#3]
        0x00002634:    3925        %9      SUBS     r1,r1,#0x25
        0x00002636:    2953        S)      CMP      r1,#0x53
        0x00002638:    f20080b2    ....    BHI.W    0x27a0 ; SEGGER_RTT_vprintf + 1652
        0x0000263c:    e8dff011    ....    TBH      [pc,r1,LSL #1]
    $d.15
        0x00002640:    00b000a8    ....    DCD    11534504
        0x00002644:    00b000b0    ....    DCD    11534512
        0x00002648:    00b000b0    ....    DCD    11534512
        0x0000264c:    00b000b0    ....    DCD    11534512
        0x00002650:    00b000b0    ....    DCD    11534512
        0x00002654:    00b000b0    ....    DCD    11534512
        0x00002658:    00b000b0    ....    DCD    11534512
        0x0000265c:    00b000b0    ....    DCD    11534512
        0x00002660:    00b000b0    ....    DCD    11534512
        0x00002664:    00b000b0    ....    DCD    11534512
        0x00002668:    00b000b0    ....    DCD    11534512
        0x0000266c:    00b000b0    ....    DCD    11534512
        0x00002670:    00b000b0    ....    DCD    11534512
        0x00002674:    00b000b0    ....    DCD    11534512
        0x00002678:    00b000b0    ....    DCD    11534512
        0x0000267c:    00b000b0    ....    DCD    11534512
        0x00002680:    00b000b0    ....    DCD    11534512
        0x00002684:    00b000b0    ....    DCD    11534512
        0x00002688:    00b000b0    ....    DCD    11534512
        0x0000268c:    00b000b0    ....    DCD    11534512
        0x00002690:    00b000b0    ....    DCD    11534512
        0x00002694:    00b000b0    ....    DCD    11534512
        0x00002698:    00b000b0    ....    DCD    11534512
        0x0000269c:    00b000b0    ....    DCD    11534512
        0x000026a0:    00b000b0    ....    DCD    11534512
        0x000026a4:    006000b0    ..`.    DCD    6291632
        0x000026a8:    00b000b0    ....    DCD    11534512
        0x000026ac:    00b000b0    ....    DCD    11534512
        0x000026b0:    00b000b0    ....    DCD    11534512
        0x000026b4:    00b000b0    ....    DCD    11534512
        0x000026b8:    00b000b0    ....    DCD    11534512
        0x000026bc:    00d400b4    ....    DCD    13893812
        0x000026c0:    00b000b0    ....    DCD    11534512
        0x000026c4:    005400b0    ..T.    DCD    5505200
        0x000026c8:    00b000b0    ....    DCD    11534512
        0x000026cc:    005400b0    ..T.    DCD    5505200
        0x000026d0:    00b000b0    ....    DCD    11534512
        0x000026d4:    017c00b0    ..|.    DCD    24903856
        0x000026d8:    00b000b0    ....    DCD    11534512
        0x000026dc:    00b0018a    ....    DCD    11534730
        0x000026e0:    00b001b8    ....    DCD    11534776
        0x000026e4:    006000b0    ..`.    DCD    6291632
    $t.16
        0x000026e8:    f81a1f04    ....    LDRB     r1,[r10,#4]!
        0x000026ec:    3925        %9      SUBS     r1,r1,#0x25
        0x000026ee:    2953        S)      CMP      r1,#0x53
        0x000026f0:    f67fae7e    ..~.    BLS      0x23f0 ; SEGGER_RTT_vprintf + 708
        0x000026f4:    e6dc        ..      B        0x24b0 ; SEGGER_RTT_vprintf + 900
        0x000026f6:    bf00        ..      NOP      
        0x000026f8:    f10a0a02    ....    ADD      r10,r10,#2
        0x000026fc:    e6cf        ..      B        0x249e ; SEGGER_RTT_vprintf + 882
        0x000026fe:    bf00        ..      NOP      
        0x00002700:    f10a0a03    ....    ADD      r10,r10,#3
        0x00002704:    e6cb        ..      B        0x249e ; SEGGER_RTT_vprintf + 882
        0x00002706:    bf00        ..      NOP      
        0x00002708:    f10a0a01    ....    ADD      r10,r10,#1
        0x0000270c:    e9dd2019    ...     LDRD     r2,r0,[sp,#0x64]
        0x00002710:    1c41        A.      ADDS     r1,r0,#1
        0x00002712:    4291        .B      CMP      r1,r2
        0x00002714:    d91f        ..      BLS      0x2756 ; SEGGER_RTT_vprintf + 1578
        0x00002716:    e05a        Z.      B        0x27ce ; SEGGER_RTT_vprintf + 1698
        0x00002718:    f10a0a01    ....    ADD      r10,r10,#1
        0x0000271c:    e6c8        ..      B        0x24b0 ; SEGGER_RTT_vprintf + 900
        0x0000271e:    bf00        ..      NOP      
        0x00002720:    f10a0a01    ....    ADD      r10,r10,#1
        0x00002724:    e042        B.      B        0x27ac ; SEGGER_RTT_vprintf + 1664
        0x00002726:    bf00        ..      NOP      
        0x00002728:    f10a0a01    ....    ADD      r10,r10,#1
        0x0000272c:    e05e        ^.      B        0x27ec ; SEGGER_RTT_vprintf + 1728
        0x0000272e:    bf00        ..      NOP      
        0x00002730:    f10a0a01    ....    ADD      r10,r10,#1
        0x00002734:    e102        ..      B        0x293c ; SEGGER_RTT_vprintf + 2064
        0x00002736:    bf00        ..      NOP      
        0x00002738:    f10a0a01    ....    ADD      r10,r10,#1
        0x0000273c:    e10c        ..      B        0x2958 ; SEGGER_RTT_vprintf + 2092
        0x0000273e:    bf00        ..      NOP      
        0x00002740:    f10a0a01    ....    ADD      r10,r10,#1
        0x00002744:    e136        6.      B        0x29b4 ; SEGGER_RTT_vprintf + 2184
        0x00002746:    bf00        ..      NOP      
        0x00002748:    f10a0a02    ....    ADD      r10,r10,#2
        0x0000274c:    e9dd2019    ...     LDRD     r2,r0,[sp,#0x64]
        0x00002750:    1c41        A.      ADDS     r1,r0,#1
        0x00002752:    4291        .B      CMP      r1,r2
        0x00002754:    d83b        ;.      BHI      0x27ce ; SEGGER_RTT_vprintf + 1698
        0x00002756:    9a18        ..      LDR      r2,[sp,#0x60]
        0x00002758:    2325        %#      MOVS     r3,#0x25
        0x0000275a:    5413        .T      STRB     r3,[r2,r0]
        0x0000275c:    e031        1.      B        0x27c2 ; SEGGER_RTT_vprintf + 1686
        0x0000275e:    bf00        ..      NOP      
        0x00002760:    f10a0a02    ....    ADD      r10,r10,#2
        0x00002764:    e6a4        ..      B        0x24b0 ; SEGGER_RTT_vprintf + 900
        0x00002766:    bf00        ..      NOP      
        0x00002768:    f10a0a02    ....    ADD      r10,r10,#2
        0x0000276c:    e01e        ..      B        0x27ac ; SEGGER_RTT_vprintf + 1664
        0x0000276e:    bf00        ..      NOP      
        0x00002770:    f10a0a02    ....    ADD      r10,r10,#2
        0x00002774:    e03a        :.      B        0x27ec ; SEGGER_RTT_vprintf + 1728
        0x00002776:    bf00        ..      NOP      
        0x00002778:    f10a0a02    ....    ADD      r10,r10,#2
        0x0000277c:    e0de        ..      B        0x293c ; SEGGER_RTT_vprintf + 2064
        0x0000277e:    bf00        ..      NOP      
        0x00002780:    f10a0a02    ....    ADD      r10,r10,#2
        0x00002784:    e0e8        ..      B        0x2958 ; SEGGER_RTT_vprintf + 2092
        0x00002786:    bf00        ..      NOP      
        0x00002788:    f10a0a02    ....    ADD      r10,r10,#2
        0x0000278c:    e112        ..      B        0x29b4 ; SEGGER_RTT_vprintf + 2184
        0x0000278e:    bf00        ..      NOP      
        0x00002790:    f10a0a03    ....    ADD      r10,r10,#3
        0x00002794:    e9dd2019    ...     LDRD     r2,r0,[sp,#0x64]
        0x00002798:    1c41        A.      ADDS     r1,r0,#1
        0x0000279a:    4291        .B      CMP      r1,r2
        0x0000279c:    d9db        ..      BLS      0x2756 ; SEGGER_RTT_vprintf + 1578
        0x0000279e:    e016        ..      B        0x27ce ; SEGGER_RTT_vprintf + 1698
        0x000027a0:    f10a0a03    ....    ADD      r10,r10,#3
        0x000027a4:    e684        ..      B        0x24b0 ; SEGGER_RTT_vprintf + 900
        0x000027a6:    bf00        ..      NOP      
        0x000027a8:    f10a0a03    ....    ADD      r10,r10,#3
        0x000027ac:    e9dd2019    ...     LDRD     r2,r0,[sp,#0x64]
        0x000027b0:    6833        3h      LDR      r3,[r6,#0]
        0x000027b2:    1c41        A.      ADDS     r1,r0,#1
        0x000027b4:    1d1f        ..      ADDS     r7,r3,#4
        0x000027b6:    4291        .B      CMP      r1,r2
        0x000027b8:    6037        7`      STR      r7,[r6,#0]
        0x000027ba:    d808        ..      BHI      0x27ce ; SEGGER_RTT_vprintf + 1698
        0x000027bc:    681a        .h      LDR      r2,[r3,#0]
        0x000027be:    9b18        ..      LDR      r3,[sp,#0x60]
        0x000027c0:    541a        .T      STRB     r2,[r3,r0]
        0x000027c2:    981b        ..      LDR      r0,[sp,#0x6c]
        0x000027c4:    9a19        ..      LDR      r2,[sp,#0x64]
        0x000027c6:    3001        .0      ADDS     r0,#1
        0x000027c8:    901b        ..      STR      r0,[sp,#0x6c]
        0x000027ca:    4608        .F      MOV      r0,r1
        0x000027cc:    911a        ..      STR      r1,[sp,#0x68]
        0x000027ce:    4290        .B      CMP      r0,r2
        0x000027d0:    f47fae6e    ..n.    BNE      0x24b0 ; SEGGER_RTT_vprintf + 900
        0x000027d4:    9918        ..      LDR      r1,[sp,#0x60]
        0x000027d6:    981c        ..      LDR      r0,[sp,#0x70]
        0x000027d8:    f7fffb82    ....    BL       SEGGER_RTT_Write ; 0x1ee0
        0x000027dc:    991a        ..      LDR      r1,[sp,#0x68]
        0x000027de:    4288        .B      CMP      r0,r1
        0x000027e0:    f04080e2    @...    BNE.W    0x29a8 ; SEGGER_RTT_vprintf + 2172
        0x000027e4:    951a        ..      STR      r5,[sp,#0x68]
        0x000027e6:    e663        c.      B        0x24b0 ; SEGGER_RTT_vprintf + 900
        0x000027e8:    f10a0a03    ....    ADD      r10,r10,#3
        0x000027ec:    6831        1h      LDR      r1,[r6,#0]
        0x000027ee:    1d0b        ..      ADDS     r3,r1,#4
        0x000027f0:    6033        3`      STR      r3,[r6,#0]
        0x000027f2:    680c        .h      LDR      r4,[r1,#0]
        0x000027f4:    2c00        .,      CMP      r4,#0
        0x000027f6:    4621        !F      MOV      r1,r4
        0x000027f8:    f1c40300    ....    RSB      r3,r4,#0
        0x000027fc:    bf48        H.      IT       MI
        0x000027fe:    4619        .F      MOVMI    r1,r3
        0x00002800:    290a        .)      CMP      r1,#0xa
        0x00002802:    9306        ..      STR      r3,[sp,#0x18]
        0x00002804:    d31c        ..      BCC      0x2840 ; SEGGER_RTT_vprintf + 1812
        0x00002806:    f04f0b02    O...    MOV      r11,#2
        0x0000280a:    f2427510    B..u    MOV      r5,#0x2710
        0x0000280e:    bf00        ..      NOP      
        0x00002810:    2963        c)      CMP      r1,#0x63
        0x00002812:    d917        ..      BLS      0x2844 ; SEGGER_RTT_vprintf + 1816
        0x00002814:    f5b17f7a    ..z.    CMP      r1,#0x3e8
        0x00002818:    f0c0813e    ..>.    BCC.W    0x2a98 ; SEGGER_RTT_vprintf + 2412
        0x0000281c:    42a9        .B      CMP      r1,r5
        0x0000281e:    f0c0813f    ..?.    BCC.W    0x2aa0 ; SEGGER_RTT_vprintf + 2420
        0x00002822:    fba13609    ...6    UMULL    r3,r6,r1,r9
        0x00002826:    f248639f    H..c    MOV      r3,#0x869f
        0x0000282a:    f2c00301    ....    MOVT     r3,#1
        0x0000282e:    4299        .B      CMP      r1,r3
        0x00002830:    ea4f3156    O.V1    LSR      r1,r6,#13
        0x00002834:    f10b0b04    ....    ADD      r11,r11,#4
        0x00002838:    d8ea        ..      BHI      0x2810 ; SEGGER_RTT_vprintf + 1764
        0x0000283a:    f1ab0b01    ....    SUB      r11,r11,#1
        0x0000283e:    e001        ..      B        0x2844 ; SEGGER_RTT_vprintf + 1816
        0x00002840:    f04f0b01    O...    MOV      r11,#1
        0x00002844:    45bb        .E      CMP      r11,r7
        0x00002846:    f04f0500    O...    MOV      r5,#0
        0x0000284a:    bf38        8.      IT       CC
        0x0000284c:    46bb        .F      MOVCC    r11,r7
        0x0000284e:    b16a        j.      CBZ      r2,0x286c ; SEGGER_RTT_vprintf + 1856
        0x00002850:    2100        .!      MOVS     r1,#0
        0x00002852:    2c00        .,      CMP      r4,#0
        0x00002854:    bf48        H.      IT       MI
        0x00002856:    2101        .!      MOVMI    r1,#1
        0x00002858:    f0080304    ....    AND      r3,r8,#4
        0x0000285c:    ea410193    A...    ORR      r1,r1,r3,LSR #2
        0x00002860:    eba20901    ....    SUB      r9,r2,r1
        0x00002864:    f0180602    ....    ANDS     r6,r8,#2
        0x00002868:    d105        ..      BNE      0x2876 ; SEGGER_RTT_vprintf + 1866
        0x0000286a:    e02f        /.      B        0x28cc ; SEGGER_RTT_vprintf + 1952
        0x0000286c:    f04f0900    O...    MOV      r9,#0
        0x00002870:    f0180602    ....    ANDS     r6,r8,#2
        0x00002874:    d02a        *.      BEQ      0x28cc ; SEGGER_RTT_vprintf + 1952
        0x00002876:    bb4f        O.      CBNZ     r7,0x28cc ; SEGGER_RTT_vprintf + 1952
        0x00002878:    2800        .(      CMP      r0,#0
        0x0000287a:    f1008122    ..".    BMI.W    0x2ac2 ; SEGGER_RTT_vprintf + 2454
        0x0000287e:    f1b43fff    ...?    CMP      r4,#0xffffffff
        0x00002882:    f34080a1    @...    BLE.W    0x29c8 ; SEGGER_RTT_vprintf + 2204
        0x00002886:    ea5f7048    _.Hp    LSLS     r0,r8,#29
        0x0000288a:    f14080b6    @...    BPL.W    0x29fa ; SEGGER_RTT_vprintf + 2254
        0x0000288e:    e9dd2019    ...     LDRD     r2,r0,[sp,#0x64]
        0x00002892:    1c41        A.      ADDS     r1,r0,#1
        0x00002894:    4291        .B      CMP      r1,r2
        0x00002896:    d808        ..      BHI      0x28aa ; SEGGER_RTT_vprintf + 1918
        0x00002898:    9a18        ..      LDR      r2,[sp,#0x60]
        0x0000289a:    232b        +#      MOVS     r3,#0x2b
        0x0000289c:    5413        .T      STRB     r3,[r2,r0]
        0x0000289e:    981b        ..      LDR      r0,[sp,#0x6c]
        0x000028a0:    9a19        ..      LDR      r2,[sp,#0x64]
        0x000028a2:    3001        .0      ADDS     r0,#1
        0x000028a4:    901b        ..      STR      r0,[sp,#0x6c]
        0x000028a6:    4608        .F      MOV      r0,r1
        0x000028a8:    911a        ..      STR      r1,[sp,#0x68]
        0x000028aa:    4290        .B      CMP      r0,r2
        0x000028ac:    f04080a5    @...    BNE.W    0x29fa ; SEGGER_RTT_vprintf + 2254
        0x000028b0:    9918        ..      LDR      r1,[sp,#0x60]
        0x000028b2:    981c        ..      LDR      r0,[sp,#0x70]
        0x000028b4:    f7fffb14    ....    BL       SEGGER_RTT_Write ; 0x1ee0
        0x000028b8:    991a        ..      LDR      r1,[sp,#0x68]
        0x000028ba:    4288        .B      CMP      r0,r1
        0x000028bc:    f04080fe    @...    BNE.W    0x2abc ; SEGGER_RTT_vprintf + 2448
        0x000028c0:    951a        ..      STR      r5,[sp,#0x68]
        0x000028c2:    981b        ..      LDR      r0,[sp,#0x6c]
        0x000028c4:    2800        .(      CMP      r0,#0
        0x000028c6:    f140809b    @...    BPL.W    0x2a00 ; SEGGER_RTT_vprintf + 2260
        0x000028ca:    e0fa        ..      B        0x2ac2 ; SEGGER_RTT_vprintf + 2454
        0x000028cc:    ea5f71c8    _..q    LSLS     r1,r8,#31
        0x000028d0:    d1d2        ..      BNE      0x2878 ; SEGGER_RTT_vprintf + 1868
        0x000028d2:    f1b90f00    ....    CMP      r9,#0
        0x000028d6:    d0cf        ..      BEQ      0x2878 ; SEGGER_RTT_vprintf + 1868
        0x000028d8:    4659        YF      MOV      r1,r11
        0x000028da:    9604        ..      STR      r6,[sp,#0x10]
        0x000028dc:    45d9        .E      CMP      r9,r11
        0x000028de:    bf38        8.      IT       CC
        0x000028e0:    4649        IF      MOVCC    r1,r9
        0x000028e2:    f1090601    ....    ADD      r6,r9,#1
        0x000028e6:    f2417959    A.Yy    MOV      r9,#0x1759
        0x000028ea:    2500        .%      MOVS     r5,#0
        0x000028ec:    f2cd19b7    ....    MOVT     r9,#0xd1b7
        0x000028f0:    9103        ..      STR      r1,[sp,#0xc]
        0x000028f2:    e004        ..      B        0x28fe ; SEGGER_RTT_vprintf + 2002
        0x000028f4:    981b        ..      LDR      r0,[sp,#0x6c]
        0x000028f6:    951a        ..      STR      r5,[sp,#0x68]
        0x000028f8:    2800        .(      CMP      r0,#0
        0x000028fa:    f10080b8    ....    BMI.W    0x2a6e ; SEGGER_RTT_vprintf + 2370
        0x000028fe:    3e01        .>      SUBS     r6,#1
        0x00002900:    45b3        .E      CMP      r11,r6
        0x00002902:    f08080d1    ....    BCS.W    0x2aa8 ; SEGGER_RTT_vprintf + 2428
        0x00002906:    e9dd2119    ...!    LDRD     r2,r1,[sp,#0x64]
        0x0000290a:    1c4b        K.      ADDS     r3,r1,#1
        0x0000290c:    4293        .B      CMP      r3,r2
        0x0000290e:    d808        ..      BHI      0x2922 ; SEGGER_RTT_vprintf + 2038
        0x00002910:    9818        ..      LDR      r0,[sp,#0x60]
        0x00002912:    2220         "      MOVS     r2,#0x20
        0x00002914:    5442        BT      STRB     r2,[r0,r1]
        0x00002916:    981b        ..      LDR      r0,[sp,#0x6c]
        0x00002918:    9a19        ..      LDR      r2,[sp,#0x64]
        0x0000291a:    3001        .0      ADDS     r0,#1
        0x0000291c:    4619        .F      MOV      r1,r3
        0x0000291e:    931a        ..      STR      r3,[sp,#0x68]
        0x00002920:    901b        ..      STR      r0,[sp,#0x6c]
        0x00002922:    4291        .B      CMP      r1,r2
        0x00002924:    d1e8        ..      BNE      0x28f8 ; SEGGER_RTT_vprintf + 1996
        0x00002926:    9918        ..      LDR      r1,[sp,#0x60]
        0x00002928:    981c        ..      LDR      r0,[sp,#0x70]
        0x0000292a:    f7fffad9    ....    BL       SEGGER_RTT_Write ; 0x1ee0
        0x0000292e:    991a        ..      LDR      r1,[sp,#0x68]
        0x00002930:    4288        .B      CMP      r0,r1
        0x00002932:    d0df        ..      BEQ      0x28f4 ; SEGGER_RTT_vprintf + 1992
        0x00002934:    e098        ..      B        0x2a68 ; SEGGER_RTT_vprintf + 2364
        0x00002936:    bf00        ..      NOP      
        0x00002938:    f10a0a03    ....    ADD      r10,r10,#3
        0x0000293c:    6830        0h      LDR      r0,[r6,#0]
        0x0000293e:    2210        ."      MOVS     r2,#0x10
        0x00002940:    1d01        ..      ADDS     r1,r0,#4
        0x00002942:    6031        1`      STR      r1,[r6,#0]
        0x00002944:    6801        .h      LDR      r1,[r0,#0]
        0x00002946:    2008        .       MOVS     r0,#8
        0x00002948:    9000        ..      STR      r0,[sp,#0]
        0x0000294a:    4658        XF      MOV      r0,r11
        0x0000294c:    2308        .#      MOVS     r3,#8
        0x0000294e:    9501        ..      STR      r5,[sp,#4]
        0x00002950:    f7ffbc07    ....    B.W      0x2162 ; SEGGER_RTT_vprintf + 54
        0x00002954:    f10a0a03    ....    ADD      r10,r10,#3
        0x00002958:    6831        1h      LDR      r1,[r6,#0]
        0x0000295a:    1d0a        ..      ADDS     r2,r1,#4
        0x0000295c:    6032        2`      STR      r2,[r6,#0]
        0x0000295e:    680c        .h      LDR      r4,[r1,#0]
        0x00002960:    e008        ..      B        0x2974 ; SEGGER_RTT_vprintf + 2120
        0x00002962:    bf00        ..      NOP      
        0x00002964:    981b        ..      LDR      r0,[sp,#0x6c]
        0x00002966:    951a        ..      STR      r5,[sp,#0x68]
        0x00002968:    f1b03fff    ...?    CMP      r0,#0xffffffff
        0x0000296c:    f1040401    ....    ADD      r4,r4,#1
        0x00002970:    f77fad9e    ....    BLE      0x24b0 ; SEGGER_RTT_vprintf + 900
        0x00002974:    7827        'x      LDRB     r7,[r4,#0]
        0x00002976:    2f00        ./      CMP      r7,#0
        0x00002978:    f43fad9a    ?...    BEQ      0x24b0 ; SEGGER_RTT_vprintf + 900
        0x0000297c:    e9dd2119    ...!    LDRD     r2,r1,[sp,#0x64]
        0x00002980:    1c4b        K.      ADDS     r3,r1,#1
        0x00002982:    4293        .B      CMP      r3,r2
        0x00002984:    d807        ..      BHI      0x2996 ; SEGGER_RTT_vprintf + 2154
        0x00002986:    9818        ..      LDR      r0,[sp,#0x60]
        0x00002988:    5447        GT      STRB     r7,[r0,r1]
        0x0000298a:    981b        ..      LDR      r0,[sp,#0x6c]
        0x0000298c:    9a19        ..      LDR      r2,[sp,#0x64]
        0x0000298e:    3001        .0      ADDS     r0,#1
        0x00002990:    4619        .F      MOV      r1,r3
        0x00002992:    931a        ..      STR      r3,[sp,#0x68]
        0x00002994:    901b        ..      STR      r0,[sp,#0x6c]
        0x00002996:    4291        .B      CMP      r1,r2
        0x00002998:    d1e6        ..      BNE      0x2968 ; SEGGER_RTT_vprintf + 2108
        0x0000299a:    9918        ..      LDR      r1,[sp,#0x60]
        0x0000299c:    981c        ..      LDR      r0,[sp,#0x70]
        0x0000299e:    f7fffa9f    ....    BL       SEGGER_RTT_Write ; 0x1ee0
        0x000029a2:    991a        ..      LDR      r1,[sp,#0x68]
        0x000029a4:    4288        .B      CMP      r0,r1
        0x000029a6:    d0dd        ..      BEQ      0x2964 ; SEGGER_RTT_vprintf + 2104
        0x000029a8:    f04f30ff    O..0    MOV      r0,#0xffffffff
        0x000029ac:    901b        ..      STR      r0,[sp,#0x6c]
        0x000029ae:    e57f        ..      B        0x24b0 ; SEGGER_RTT_vprintf + 900
        0x000029b0:    f10a0a03    ....    ADD      r10,r10,#3
        0x000029b4:    6830        0h      LDR      r0,[r6,#0]
        0x000029b6:    1d01        ..      ADDS     r1,r0,#4
        0x000029b8:    6031        1`      STR      r1,[r6,#0]
        0x000029ba:    6801        .h      LDR      r1,[r0,#0]
        0x000029bc:    9200        ..      STR      r2,[sp,#0]
        0x000029be:    4658        XF      MOV      r0,r11
        0x000029c0:    220a        ."      MOVS     r2,#0xa
        0x000029c2:    f7ffbbcb    ....    B        0x215c ; SEGGER_RTT_vprintf + 48
        0x000029c6:    bf00        ..      NOP      
        0x000029c8:    e9dd2019    ...     LDRD     r2,r0,[sp,#0x64]
        0x000029cc:    1c41        A.      ADDS     r1,r0,#1
        0x000029ce:    4291        .B      CMP      r1,r2
        0x000029d0:    d808        ..      BHI      0x29e4 ; SEGGER_RTT_vprintf + 2232
        0x000029d2:    9a18        ..      LDR      r2,[sp,#0x60]
        0x000029d4:    232d        -#      MOVS     r3,#0x2d
        0x000029d6:    5413        .T      STRB     r3,[r2,r0]
        0x000029d8:    981b        ..      LDR      r0,[sp,#0x6c]
        0x000029da:    9a19        ..      LDR      r2,[sp,#0x64]
        0x000029dc:    3001        .0      ADDS     r0,#1
        0x000029de:    901b        ..      STR      r0,[sp,#0x6c]
        0x000029e0:    4608        .F      MOV      r0,r1
        0x000029e2:    911a        ..      STR      r1,[sp,#0x68]
        0x000029e4:    4290        .B      CMP      r0,r2
        0x000029e6:    d163        c.      BNE      0x2ab0 ; SEGGER_RTT_vprintf + 2436
        0x000029e8:    9918        ..      LDR      r1,[sp,#0x60]
        0x000029ea:    981c        ..      LDR      r0,[sp,#0x70]
        0x000029ec:    f7fffa78    ..x.    BL       SEGGER_RTT_Write ; 0x1ee0
        0x000029f0:    991a        ..      LDR      r1,[sp,#0x68]
        0x000029f2:    4288        .B      CMP      r0,r1
        0x000029f4:    d162        b.      BNE      0x2abc ; SEGGER_RTT_vprintf + 2448
        0x000029f6:    9c06        ..      LDR      r4,[sp,#0x18]
        0x000029f8:    951a        ..      STR      r5,[sp,#0x68]
        0x000029fa:    981b        ..      LDR      r0,[sp,#0x6c]
        0x000029fc:    2800        .(      CMP      r0,#0
        0x000029fe:    d460        `.      BMI      0x2ac2 ; SEGGER_RTT_vprintf + 2454
        0x00002a00:    b3d6        ..      CBZ      r6,0x2a78 ; SEGGER_RTT_vprintf + 2380
        0x00002a02:    f0080101    ....    AND      r1,r8,#1
        0x00002a06:    4339        9C      ORRS     r1,r1,r7
        0x00002a08:    d136        6.      BNE      0x2a78 ; SEGGER_RTT_vprintf + 2380
        0x00002a0a:    f1b90f00    ....    CMP      r9,#0
        0x00002a0e:    d033        3.      BEQ      0x2a78 ; SEGGER_RTT_vprintf + 2380
        0x00002a10:    9406        ..      STR      r4,[sp,#0x18]
        0x00002a12:    465c        \F      MOV      r4,r11
        0x00002a14:    45d9        .E      CMP      r9,r11
        0x00002a16:    bf38        8.      IT       CC
        0x00002a18:    464c        LF      MOVCC    r4,r9
        0x00002a1a:    f1090601    ....    ADD      r6,r9,#1
        0x00002a1e:    f2417959    A.Yy    MOV      r9,#0x1759
        0x00002a22:    2500        .%      MOVS     r5,#0
        0x00002a24:    f2cd19b7    ....    MOVT     r9,#0xd1b7
        0x00002a28:    e004        ..      B        0x2a34 ; SEGGER_RTT_vprintf + 2312
        0x00002a2a:    bf00        ..      NOP      
        0x00002a2c:    981b        ..      LDR      r0,[sp,#0x6c]
        0x00002a2e:    951a        ..      STR      r5,[sp,#0x68]
        0x00002a30:    2800        .(      CMP      r0,#0
        0x00002a32:    d41c        ..      BMI      0x2a6e ; SEGGER_RTT_vprintf + 2370
        0x00002a34:    3e01        .>      SUBS     r6,#1
        0x00002a36:    45b3        .E      CMP      r11,r6
        0x00002a38:    d24e        N.      BCS      0x2ad8 ; SEGGER_RTT_vprintf + 2476
        0x00002a3a:    e9dd2119    ...!    LDRD     r2,r1,[sp,#0x64]
        0x00002a3e:    1c4b        K.      ADDS     r3,r1,#1
        0x00002a40:    4293        .B      CMP      r3,r2
        0x00002a42:    d808        ..      BHI      0x2a56 ; SEGGER_RTT_vprintf + 2346
        0x00002a44:    9818        ..      LDR      r0,[sp,#0x60]
        0x00002a46:    2230        0"      MOVS     r2,#0x30
        0x00002a48:    5442        BT      STRB     r2,[r0,r1]
        0x00002a4a:    981b        ..      LDR      r0,[sp,#0x6c]
        0x00002a4c:    9a19        ..      LDR      r2,[sp,#0x64]
        0x00002a4e:    3001        .0      ADDS     r0,#1
        0x00002a50:    4619        .F      MOV      r1,r3
        0x00002a52:    931a        ..      STR      r3,[sp,#0x68]
        0x00002a54:    901b        ..      STR      r0,[sp,#0x6c]
        0x00002a56:    4291        .B      CMP      r1,r2
        0x00002a58:    d1ea        ..      BNE      0x2a30 ; SEGGER_RTT_vprintf + 2308
        0x00002a5a:    9918        ..      LDR      r1,[sp,#0x60]
        0x00002a5c:    981c        ..      LDR      r0,[sp,#0x70]
        0x00002a5e:    f7fffa3f    ..?.    BL       SEGGER_RTT_Write ; 0x1ee0
        0x00002a62:    991a        ..      LDR      r1,[sp,#0x68]
        0x00002a64:    4288        .B      CMP      r0,r1
        0x00002a66:    d0e1        ..      BEQ      0x2a2c ; SEGGER_RTT_vprintf + 2304
        0x00002a68:    f04f30ff    O..0    MOV      r0,#0xffffffff
        0x00002a6c:    901b        ..      STR      r0,[sp,#0x6c]
        0x00002a6e:    9e07        ..      LDR      r6,[sp,#0x1c]
        0x00002a70:    f10d0b60    ..`.    ADD      r11,sp,#0x60
        0x00002a74:    f7ffbd1c    ....    B.W      0x24b0 ; SEGGER_RTT_vprintf + 900
        0x00002a78:    9e07        ..      LDR      r6,[sp,#0x1c]
        0x00002a7a:    f10d0b60    ..`.    ADD      r11,sp,#0x60
        0x00002a7e:    4658        XF      MOV      r0,r11
        0x00002a80:    4621        !F      MOV      r1,r4
        0x00002a82:    220a        ."      MOVS     r2,#0xa
        0x00002a84:    463b        ;F      MOV      r3,r7
        0x00002a86:    f8cd9000    ....    STR      r9,[sp,#0]
        0x00002a8a:    f8cd8004    ....    STR      r8,[sp,#4]
        0x00002a8e:    f000f9bf    ....    BL       _PrintUnsigned ; 0x2e10
        0x00002a92:    2500        .%      MOVS     r5,#0
        0x00002a94:    e019        ..      B        0x2aca ; SEGGER_RTT_vprintf + 2462
        0x00002a96:    bf00        ..      NOP      
        0x00002a98:    f10b0b01    ....    ADD      r11,r11,#1
        0x00002a9c:    e6d2        ..      B        0x2844 ; SEGGER_RTT_vprintf + 1816
        0x00002a9e:    bf00        ..      NOP      
        0x00002aa0:    f10b0b02    ....    ADD      r11,r11,#2
        0x00002aa4:    e6ce        ..      B        0x2844 ; SEGGER_RTT_vprintf + 1816
        0x00002aa6:    bf00        ..      NOP      
        0x00002aa8:    e9dd9603    ....    LDRD     r9,r6,[sp,#0xc]
        0x00002aac:    2500        .%      MOVS     r5,#0
        0x00002aae:    e6e3        ..      B        0x2878 ; SEGGER_RTT_vprintf + 1868
        0x00002ab0:    9c06        ..      LDR      r4,[sp,#0x18]
        0x00002ab2:    981b        ..      LDR      r0,[sp,#0x6c]
        0x00002ab4:    2800        .(      CMP      r0,#0
        0x00002ab6:    d5a3        ..      BPL      0x2a00 ; SEGGER_RTT_vprintf + 2260
        0x00002ab8:    e003        ..      B        0x2ac2 ; SEGGER_RTT_vprintf + 2454
        0x00002aba:    bf00        ..      NOP      
        0x00002abc:    f04f30ff    O..0    MOV      r0,#0xffffffff
        0x00002ac0:    901b        ..      STR      r0,[sp,#0x6c]
        0x00002ac2:    9e07        ..      LDR      r6,[sp,#0x1c]
        0x00002ac4:    2500        .%      MOVS     r5,#0
        0x00002ac6:    f10d0b60    ..`.    ADD      r11,sp,#0x60
        0x00002aca:    f2417959    A.Yy    MOV      r9,#0x1759
        0x00002ace:    f2cd19b7    ....    MOVT     r9,#0xd1b7
        0x00002ad2:    f7ffbced    ....    B.W      0x24b0 ; SEGGER_RTT_vprintf + 900
        0x00002ad6:    bf00        ..      NOP      
        0x00002ad8:    46a1        .F      MOV      r9,r4
        0x00002ada:    9e07        ..      LDR      r6,[sp,#0x1c]
        0x00002adc:    9c06        ..      LDR      r4,[sp,#0x18]
        0x00002ade:    e7cc        ..      B        0x2a7a ; SEGGER_RTT_vprintf + 2382
        0x00002ae0:    2801        .(      CMP      r0,#1
        0x00002ae2:    db0f        ..      BLT      0x2b04 ; SEGGER_RTT_vprintf + 2520
        0x00002ae4:    9a1a        ..      LDR      r2,[sp,#0x68]
        0x00002ae6:    b18a        ..      CBZ      r2,0x2b0c ; SEGGER_RTT_vprintf + 2528
        0x00002ae8:    9805        ..      LDR      r0,[sp,#0x14]
        0x00002aea:    a908        ..      ADD      r1,sp,#0x20
        0x00002aec:    f7fff9f8    ....    BL       SEGGER_RTT_Write ; 0x1ee0
        0x00002af0:    e9dd101a    ....    LDRD     r1,r0,[sp,#0x68]
        0x00002af4:    e00b        ..      B        0x2b0e ; SEGGER_RTT_vprintf + 2530
        0x00002af6:    bf00        ..      NOP      
        0x00002af8:    f04f30ff    O..0    MOV      r0,#0xffffffff
        0x00002afc:    b01d        ..      ADD      sp,sp,#0x74
        0x00002afe:    e8bd8ff0    ....    POP      {r4-r11,pc}
        0x00002b02:    bf00        ..      NOP      
        0x00002b04:    2000        .       MOVS     r0,#0
        0x00002b06:    b01d        ..      ADD      sp,sp,#0x74
        0x00002b08:    e8bd8ff0    ....    POP      {r4-r11,pc}
        0x00002b0c:    2100        .!      MOVS     r1,#0
        0x00002b0e:    4408        .D      ADD      r0,r0,r1
        0x00002b10:    b01d        ..      ADD      sp,sp,#0x74
        0x00002b12:    e8bd8ff0    ....    POP      {r4-r11,pc}
        0x00002b16:    0000        ..      MOVS     r0,r0
    SERIAL_PutChar
        0x00002b18:    f6444110    D..A    MOV      r1,#0x4c10
        0x00002b1c:    f2c40100    ....    MOVT     r1,#0x4000
        0x00002b20:    680a        .h      LDR      r2,[r1,#0]
        0x00002b22:    0512        ..      LSLS     r2,r2,#20
        0x00002b24:    d509        ..      BPL      0x2b3a ; SERIAL_PutChar + 34
        0x00002b26:    680a        .h      LDR      r2,[r1,#0]
        0x00002b28:    0512        ..      LSLS     r2,r2,#20
        0x00002b2a:    bf44        D.      ITT      MI
        0x00002b2c:    680a        .h      LDRMI    r2,[r1,#0]
        0x00002b2e:    ea5f5202    _..R    LSLSMI   r2,r2,#20
        0x00002b32:    d502        ..      BPL      0x2b3a ; SERIAL_PutChar + 34
        0x00002b34:    680a        .h      LDR      r2,[r1,#0]
        0x00002b36:    0512        ..      LSLS     r2,r2,#20
        0x00002b38:    d4f2        ..      BMI      0x2b20 ; SERIAL_PutChar + 8
        0x00002b3a:    f8410c10    A...    STR      r0,[r1,#-0x10]
        0x00002b3e:    4770        pG      BX       lr
    SPI0_Handler
        0x00002b40:    4770        pG      BX       lr
        0x00002b42:    0000        ..      MOVS     r0,r0
    SPI1_Handler
        0x00002b44:    4770        pG      BX       lr
        0x00002b46:    0000        ..      MOVS     r0,r0
    SVC_Handler
        0x00002b48:    4770        pG      BX       lr
        0x00002b4a:    0000        ..      MOVS     r0,r0
    SysTick_Handler
        0x00002b4c:    f2400070    @.p.    MOVW     r0,#0x70
        0x00002b50:    f2c20000    ....    MOVT     r0,#0x2000
        0x00002b54:    6801        .h      LDR      r1,[r0,#0]
        0x00002b56:    b111        ..      CBZ      r1,0x2b5e ; SysTick_Handler + 18
        0x00002b58:    6801        .h      LDR      r1,[r0,#0]
        0x00002b5a:    3901        .9      SUBS     r1,#1
        0x00002b5c:    6001        .`      STR      r1,[r0,#0]
        0x00002b5e:    f2400010    @...    MOVW     r0,#0x10
        0x00002b62:    f2c20000    ....    MOVT     r0,#0x2000
        0x00002b66:    6801        .h      LDR      r1,[r0,#0]
        0x00002b68:    3101        .1      ADDS     r1,#1
        0x00002b6a:    6001        .`      STR      r1,[r0,#0]
        0x00002b6c:    4770        pG      BX       lr
        0x00002b6e:    0000        ..      MOVS     r0,r0
    SystemInit
        0x00002b70:    b580        ..      PUSH     {r7,lr}
        0x00002b72:    b083        ..      SUB      sp,sp,#0xc
        0x00002b74:    f6450010    E...    MOV      r0,#0x5810
        0x00002b78:    f2c40000    ....    MOVT     r0,#0x4000
        0x00002b7c:    6a81        .j      LDR      r1,[r0,#0x28]
        0x00002b7e:    f2410e0c    A...    MOV      lr,#0x100c
        0x00002b82:    f0210101    !...    BIC      r1,r1,#1
        0x00002b86:    6281        .b      STR      r1,[r0,#0x28]
        0x00002b88:    6a42        Bj      LDR      r2,[r0,#0x24]
        0x00002b8a:    f2c40e02    ....    MOVT     lr,#0x4002
        0x00002b8e:    f0220201    "...    BIC      r2,r2,#1
        0x00002b92:    6242        Bb      STR      r2,[r0,#0x24]
        0x00002b94:    f8de2000    ...     LDR      r2,[lr,#0]
        0x00002b98:    f2436300    C..c    MOVW     r3,#0x3600
        0x00002b9c:    f0220240    ".@.    BIC      r2,r2,#0x40
        0x00002ba0:    f8ce2000    ...     STR      r2,[lr,#0]
        0x00002ba4:    f2400208    @...    MOVW     r2,#8
        0x00002ba8:    f2c20200    ....    MOVT     r2,#0x2000
        0x00002bac:    f2c0136e    ..n.    MOVT     r3,#0x16e
        0x00002bb0:    6013        .`      STR      r3,[r2,#0]
        0x00002bb2:    f24a0218    J...    MOV      r2,#0xa018
        0x00002bb6:    f2c00201    ....    MOVT     r2,#1
        0x00002bba:    6042        B`      STR      r2,[r0,#4]
        0x00002bbc:    f6405211    @..R    MOV      r2,#0xd11
        0x00002bc0:    6002        .`      STR      r2,[r0,#0]
        0x00002bc2:    6802        .h      LDR      r2,[r0,#0]
        0x00002bc4:    f0420210    B...    ORR      r2,r2,#0x10
        0x00002bc8:    6002        .`      STR      r2,[r0,#0]
        0x00002bca:    bf00        ..      NOP      
        0x00002bcc:    6802        .h      LDR      r2,[r0,#0]
        0x00002bce:    f1b23fff    ...?    CMP      r2,#0xffffffff
        0x00002bd2:    dd09        ..      BLE      0x2be8 ; SystemInit + 120
        0x00002bd4:    6801        .h      LDR      r1,[r0,#0]
        0x00002bd6:    2900        .)      CMP      r1,#0
        0x00002bd8:    d406        ..      BMI      0x2be8 ; SystemInit + 120
        0x00002bda:    6801        .h      LDR      r1,[r0,#0]
        0x00002bdc:    2900        .)      CMP      r1,#0
        0x00002bde:    d403        ..      BMI      0x2be8 ; SystemInit + 120
        0x00002be0:    6801        .h      LDR      r1,[r0,#0]
        0x00002be2:    f1b13fff    ...?    CMP      r1,#0xffffffff
        0x00002be6:    dcf1        ..      BGT      0x2bcc ; SystemInit + 92
        0x00002be8:    f64f0200    O...    MOVW     r2,#0xf800
        0x00002bec:    23f0        .#      MOVS     r3,#0xf0
        0x00002bee:    f2c40200    ....    MOVT     r2,#0x4000
        0x00002bf2:    f2ca53a5    ...S    MOVT     r3,#0xa5a5
        0x00002bf6:    f04f0c00    O...    MOV      r12,#0
        0x00002bfa:    6013        .`      STR      r3,[r2,#0]
        0x00002bfc:    f8cdc000    ....    STR      r12,[sp,#0]
        0x00002c00:    9b00        ..      LDR      r3,[sp,#0]
        0x00002c02:    f6430280    C...    MOVW     r2,#0x3880
        0x00002c06:    f2c00201    ....    MOVT     r2,#1
        0x00002c0a:    4293        .B      CMP      r3,r2
        0x00002c0c:    da18        ..      BGE      0x2c40 ; SystemInit + 208
        0x00002c0e:    bf00        ..      NOP      
        0x00002c10:    9b00        ..      LDR      r3,[sp,#0]
        0x00002c12:    3301        .3      ADDS     r3,#1
        0x00002c14:    9300        ..      STR      r3,[sp,#0]
        0x00002c16:    9b00        ..      LDR      r3,[sp,#0]
        0x00002c18:    4293        .B      CMP      r3,r2
        0x00002c1a:    da11        ..      BGE      0x2c40 ; SystemInit + 208
        0x00002c1c:    9900        ..      LDR      r1,[sp,#0]
        0x00002c1e:    3101        .1      ADDS     r1,#1
        0x00002c20:    9100        ..      STR      r1,[sp,#0]
        0x00002c22:    9900        ..      LDR      r1,[sp,#0]
        0x00002c24:    4291        .B      CMP      r1,r2
        0x00002c26:    da0b        ..      BGE      0x2c40 ; SystemInit + 208
        0x00002c28:    9900        ..      LDR      r1,[sp,#0]
        0x00002c2a:    3101        .1      ADDS     r1,#1
        0x00002c2c:    9100        ..      STR      r1,[sp,#0]
        0x00002c2e:    9900        ..      LDR      r1,[sp,#0]
        0x00002c30:    4291        .B      CMP      r1,r2
        0x00002c32:    da05        ..      BGE      0x2c40 ; SystemInit + 208
        0x00002c34:    9900        ..      LDR      r1,[sp,#0]
        0x00002c36:    3101        .1      ADDS     r1,#1
        0x00002c38:    9100        ..      STR      r1,[sp,#0]
        0x00002c3a:    9900        ..      LDR      r1,[sp,#0]
        0x00002c3c:    4291        .B      CMP      r1,r2
        0x00002c3e:    dbe7        ..      BLT      0x2c10 ; SystemInit + 160
        0x00002c40:    f8de3000    ...0    LDR      r3,[lr,#0]
        0x00002c44:    f64f71fc    O..q    MOV      r1,#0xfffc
        0x00002c48:    4019        .@      ANDS     r1,r1,r3
        0x00002c4a:    3102        .1      ADDS     r1,#2
        0x00002c4c:    f8ce1000    ....    STR      r1,[lr,#0]
        0x00002c50:    f8cdc008    ....    STR      r12,[sp,#8]
        0x00002c54:    9902        ..      LDR      r1,[sp,#8]
        0x00002c56:    4291        .B      CMP      r1,r2
        0x00002c58:    da18        ..      BGE      0x2c8c ; SystemInit + 284
        0x00002c5a:    bf00        ..      NOP      
        0x00002c5c:    9902        ..      LDR      r1,[sp,#8]
        0x00002c5e:    3101        .1      ADDS     r1,#1
        0x00002c60:    9102        ..      STR      r1,[sp,#8]
        0x00002c62:    9902        ..      LDR      r1,[sp,#8]
        0x00002c64:    4291        .B      CMP      r1,r2
        0x00002c66:    da11        ..      BGE      0x2c8c ; SystemInit + 284
        0x00002c68:    9902        ..      LDR      r1,[sp,#8]
        0x00002c6a:    3101        .1      ADDS     r1,#1
        0x00002c6c:    9102        ..      STR      r1,[sp,#8]
        0x00002c6e:    9902        ..      LDR      r1,[sp,#8]
        0x00002c70:    4291        .B      CMP      r1,r2
        0x00002c72:    da0b        ..      BGE      0x2c8c ; SystemInit + 284
        0x00002c74:    9902        ..      LDR      r1,[sp,#8]
        0x00002c76:    3101        .1      ADDS     r1,#1
        0x00002c78:    9102        ..      STR      r1,[sp,#8]
        0x00002c7a:    9902        ..      LDR      r1,[sp,#8]
        0x00002c7c:    4291        .B      CMP      r1,r2
        0x00002c7e:    da05        ..      BGE      0x2c8c ; SystemInit + 284
        0x00002c80:    9902        ..      LDR      r1,[sp,#8]
        0x00002c82:    3101        .1      ADDS     r1,#1
        0x00002c84:    9102        ..      STR      r1,[sp,#8]
        0x00002c86:    9902        ..      LDR      r1,[sp,#8]
        0x00002c88:    4291        .B      CMP      r1,r2
        0x00002c8a:    dbe7        ..      BLT      0x2c5c ; SystemInit + 236
        0x00002c8c:    f8de1000    ....    LDR      r1,[lr,#0]
        0x00002c90:    f64f437f    O..C    MOV      r3,#0xfc7f
        0x00002c94:    f4416180    A..a    ORR      r1,r1,#0x400
        0x00002c98:    f8ce1000    ....    STR      r1,[lr,#0]
        0x00002c9c:    f8de1000    ....    LDR      r1,[lr,#0]
        0x00002ca0:    4019        .@      ANDS     r1,r1,r3
        0x00002ca2:    f8ce1000    ....    STR      r1,[lr,#0]
        0x00002ca6:    2100        .!      MOVS     r1,#0
        0x00002ca8:    9101        ..      STR      r1,[sp,#4]
        0x00002caa:    9901        ..      LDR      r1,[sp,#4]
        0x00002cac:    4291        .B      CMP      r1,r2
        0x00002cae:    da17        ..      BGE      0x2ce0 ; SystemInit + 368
        0x00002cb0:    9901        ..      LDR      r1,[sp,#4]
        0x00002cb2:    3101        .1      ADDS     r1,#1
        0x00002cb4:    9101        ..      STR      r1,[sp,#4]
        0x00002cb6:    9901        ..      LDR      r1,[sp,#4]
        0x00002cb8:    4291        .B      CMP      r1,r2
        0x00002cba:    da11        ..      BGE      0x2ce0 ; SystemInit + 368
        0x00002cbc:    9901        ..      LDR      r1,[sp,#4]
        0x00002cbe:    3101        .1      ADDS     r1,#1
        0x00002cc0:    9101        ..      STR      r1,[sp,#4]
        0x00002cc2:    9901        ..      LDR      r1,[sp,#4]
        0x00002cc4:    4291        .B      CMP      r1,r2
        0x00002cc6:    da0b        ..      BGE      0x2ce0 ; SystemInit + 368
        0x00002cc8:    9901        ..      LDR      r1,[sp,#4]
        0x00002cca:    3101        .1      ADDS     r1,#1
        0x00002ccc:    9101        ..      STR      r1,[sp,#4]
        0x00002cce:    9901        ..      LDR      r1,[sp,#4]
        0x00002cd0:    4291        .B      CMP      r1,r2
        0x00002cd2:    da05        ..      BGE      0x2ce0 ; SystemInit + 368
        0x00002cd4:    9901        ..      LDR      r1,[sp,#4]
        0x00002cd6:    3101        .1      ADDS     r1,#1
        0x00002cd8:    9101        ..      STR      r1,[sp,#4]
        0x00002cda:    9901        ..      LDR      r1,[sp,#4]
        0x00002cdc:    4291        .B      CMP      r1,r2
        0x00002cde:    dbe7        ..      BLT      0x2cb0 ; SystemInit + 320
        0x00002ce0:    f8501c08    P...    LDR      r1,[r0,#-8]
        0x00002ce4:    f0410101    A...    ORR      r1,r1,#1
        0x00002ce8:    f8401c08    @...    STR      r1,[r0,#-8]
        0x00002cec:    b003        ..      ADD      sp,sp,#0xc
        0x00002cee:    bd80        ..      POP      {r7,pc}
    TMR0_Handler
        0x00002cf0:    b510        ..      PUSH     {r4,lr}
        0x00002cf2:    f2410400    A...    MOVW     r4,#0x1000
        0x00002cf6:    f2c40400    ....    MOVT     r4,#0x4000
        0x00002cfa:    4620         F      MOV      r0,r4
        0x00002cfc:    2110        .!      MOVS     r1,#0x10
        0x00002cfe:    f7fff83f    ..?.    BL       PWM_GetFlagStatus ; 0x1d80
        0x00002d02:    2800        .(      CMP      r0,#0
        0x00002d04:    bf08        ..      IT       EQ
        0x00002d06:    bd10        ..      POPEQ    {r4,pc}
        0x00002d08:    4620         F      MOV      r0,r4
        0x00002d0a:    2110        .!      MOVS     r1,#0x10
        0x00002d0c:    e8bd4010    ...@    POP      {r4,lr}
        0x00002d10:    f7ffb82c    ..,.    B        PWM_ClearFlag ; 0x1d6c
    TMR1_Handler
        0x00002d14:    4770        pG      BX       lr
        0x00002d16:    0000        ..      MOVS     r0,r0
    TMR2_Handler
        0x00002d18:    4770        pG      BX       lr
        0x00002d1a:    0000        ..      MOVS     r0,r0
    TMR3_Handler
        0x00002d1c:    4770        pG      BX       lr
        0x00002d1e:    0000        ..      MOVS     r0,r0
    TMR4_Handler
        0x00002d20:    4770        pG      BX       lr
        0x00002d22:    0000        ..      MOVS     r0,r0
    TMR5_Handler
        0x00002d24:    4770        pG      BX       lr
        0x00002d26:    0000        ..      MOVS     r0,r0
    UART0_Handler
        0x00002d28:    4770        pG      BX       lr
        0x00002d2a:    0000        ..      MOVS     r0,r0
    UART1_Handler
        0x00002d2c:    4770        pG      BX       lr
        0x00002d2e:    0000        ..      MOVS     r0,r0
    UART2_Handler
        0x00002d30:    f6444000    D..@    MOVW     r0,#0x4c00
        0x00002d34:    f2c40000    ....    MOVT     r0,#0x4000
        0x00002d38:    6802        .h      LDR      r2,[r0,#0]
        0x00002d3a:    a102        ..      ADR      r1,{pc}+0xa ; 0x2d44
        0x00002d3c:    2000        .       MOVS     r0,#0
        0x00002d3e:    f7ffb9e5    ....    B        SEGGER_RTT_printf ; 0x210c
        0x00002d42:    bf00        ..      NOP      
    $d.20
        0x00002d44:    3a766572    rev:    DCD    980837746
        0x00002d48:    25783020     0x%    DCD    628633632
        0x00002d4c:    0d583230    02X.    DCD    223883824
        0x00002d50:    0000000a    ....    DCD    10
    $t.2
    UART_Cmd
        0x00002d54:    6842        Bh      LDR      r2,[r0,#4]
        0x00002d56:    2900        .)      CMP      r1,#0
        0x00002d58:    f0220280    "...    BIC      r2,r2,#0x80
        0x00002d5c:    bf18        ..      IT       NE
        0x00002d5e:    3280        .2      ADDNE    r2,r2,#0x80
        0x00002d60:    6042        B`      STR      r2,[r0,#4]
        0x00002d62:    4770        pG      BX       lr
    UART_ITConfig
        0x00002d64:    2a00        .*      CMP      r2,#0
        0x00002d66:    68c2        .h      LDR      r2,[r0,#0xc]
        0x00002d68:    bf0c        ..      ITE      EQ
        0x00002d6a:    ea220101    "...    BICEQ    r1,r2,r1
        0x00002d6e:    4311        .C      ORRNE    r1,r1,r2
        0x00002d70:    60c1        .`      STR      r1,[r0,#0xc]
        0x00002d72:    4770        pG      BX       lr
    UART_Init
        0x00002d74:    b580        ..      PUSH     {r7,lr}
        0x00002d76:    f64f72ff    O..r    MOV      r2,#0xffff
        0x00002d7a:    6202        .b      STR      r2,[r0,#0x20]
        0x00002d7c:    f04f32ff    O..2    MOV      r2,#0xffffffff
        0x00002d80:    61c2        .a      STR      r2,[r0,#0x1c]
        0x00002d82:    f8b1c004    ....    LDRH     r12,[r1,#4]
        0x00002d86:    88cb        ..      LDRH     r3,[r1,#6]
        0x00002d88:    890a        ..      LDRH     r2,[r1,#8]
        0x00002d8a:    ea43030c    C...    ORR      r3,r3,r12
        0x00002d8e:    431a        .C      ORRS     r2,r2,r3
        0x00002d90:    6042        B`      STR      r2,[r0,#4]
        0x00002d92:    8a0a        ..      LDRH     r2,[r1,#0x10]
        0x00002d94:    6843        Ch      LDR      r3,[r0,#4]
        0x00002d96:    2a00        .*      CMP      r2,#0
        0x00002d98:    f4237380    #..s    BIC      r3,r3,#0x100
        0x00002d9c:    bf18        ..      IT       NE
        0x00002d9e:    f5037380    ...s    ADDNE    r3,r3,#0x100
        0x00002da2:    6043        C`      STR      r3,[r0,#4]
        0x00002da4:    f8d1c000    ....    LDR      r12,[r1,#0]
        0x00002da8:    68ca        .h      LDR      r2,[r1,#0xc]
        0x00002daa:    f8d1e014    ....    LDR      lr,[r1,#0x14]
        0x00002dae:    fb0cf302    ....    MUL      r3,r12,r2
        0x00002db2:    fbbef1f3    ....    UDIV     r1,lr,r3
        0x00002db6:    fb01ee13    ....    MLS      lr,r1,r3,lr
        0x00002dba:    0853        S.      LSRS     r3,r2,#1
        0x00002dbc:    fb03f30c    ....    MUL      r3,r3,r12
        0x00002dc0:    459e        .E      CMP      lr,r3
        0x00002dc2:    bf88        ..      IT       HI
        0x00002dc4:    3101        .1      ADDHI    r1,#1
        0x00002dc6:    b289        ..      UXTH     r1,r1
        0x00002dc8:    2a04        .*      CMP      r2,#4
        0x00002dca:    6081        .`      STR      r1,[r0,#8]
        0x00002dcc:    d00c        ..      BEQ      0x2de8 ; UART_Init + 116
        0x00002dce:    2a08        .*      CMP      r2,#8
        0x00002dd0:    d014        ..      BEQ      0x2dfc ; UART_Init + 136
        0x00002dd2:    2a10        .*      CMP      r2,#0x10
        0x00002dd4:    bf18        ..      IT       NE
        0x00002dd6:    bd80        ..      POPNE    {r7,pc}
        0x00002dd8:    6881        .h      LDR      r1,[r0,#8]
        0x00002dda:    f4213140    !.@1    BIC      r1,r1,#0x30000
        0x00002dde:    6081        .`      STR      r1,[r0,#8]
        0x00002de0:    6881        .h      LDR      r1,[r0,#8]
        0x00002de2:    6081        .`      STR      r1,[r0,#8]
        0x00002de4:    bd80        ..      POP      {r7,pc}
        0x00002de6:    bf00        ..      NOP      
        0x00002de8:    6881        .h      LDR      r1,[r0,#8]
        0x00002dea:    f4213140    !.@1    BIC      r1,r1,#0x30000
        0x00002dee:    6081        .`      STR      r1,[r0,#8]
        0x00002df0:    6881        .h      LDR      r1,[r0,#8]
        0x00002df2:    f4413180    A..1    ORR      r1,r1,#0x10000
        0x00002df6:    6081        .`      STR      r1,[r0,#8]
        0x00002df8:    bd80        ..      POP      {r7,pc}
        0x00002dfa:    bf00        ..      NOP      
        0x00002dfc:    6881        .h      LDR      r1,[r0,#8]
        0x00002dfe:    f4213140    !.@1    BIC      r1,r1,#0x30000
        0x00002e02:    6081        .`      STR      r1,[r0,#8]
        0x00002e04:    6881        .h      LDR      r1,[r0,#8]
        0x00002e06:    f4413100    A..1    ORR      r1,r1,#0x20000
        0x00002e0a:    6081        .`      STR      r1,[r0,#8]
        0x00002e0c:    bd80        ..      POP      {r7,pc}
        0x00002e0e:    0000        ..      MOVS     r0,r0
    _PrintUnsigned
        0x00002e10:    e92d4ff0    -..O    PUSH     {r4-r11,lr}
        0x00002e14:    b083        ..      SUB      sp,sp,#0xc
        0x00002e16:    468b        .F      MOV      r11,r1
        0x00002e18:    e9dd910c    ....    LDRD     r9,r1,[sp,#0x30]
        0x00002e1c:    461f        .F      MOV      r7,r3
        0x00002e1e:    4615        .F      MOV      r5,r2
        0x00002e20:    4593        .E      CMP      r11,r2
        0x00002e22:    4604        .F      MOV      r4,r0
        0x00002e24:    d202        ..      BCS      0x2e2c ; _PrintUnsigned + 28
        0x00002e26:    f04f0801    O...    MOV      r8,#1
        0x00002e2a:    e01f        ..      B        0x2e6c ; _PrintUnsigned + 92
        0x00002e2c:    f04f0802    O...    MOV      r8,#2
        0x00002e30:    4658        XF      MOV      r0,r11
        0x00002e32:    bf00        ..      NOP      
        0x00002e34:    fbb0f0f5    ....    UDIV     r0,r0,r5
        0x00002e38:    42a8        .B      CMP      r0,r5
        0x00002e3a:    d317        ..      BCC      0x2e6c ; _PrintUnsigned + 92
        0x00002e3c:    fbb0f0f5    ....    UDIV     r0,r0,r5
        0x00002e40:    42a8        .B      CMP      r0,r5
        0x00002e42:    d30d        ..      BCC      0x2e60 ; _PrintUnsigned + 80
        0x00002e44:    fbb0f0f5    ....    UDIV     r0,r0,r5
        0x00002e48:    42a8        .B      CMP      r0,r5
        0x00002e4a:    d30d        ..      BCC      0x2e68 ; _PrintUnsigned + 88
        0x00002e4c:    fbb0f0f5    ....    UDIV     r0,r0,r5
        0x00002e50:    f1080804    ....    ADD      r8,r8,#4
        0x00002e54:    42a8        .B      CMP      r0,r5
        0x00002e56:    d2ed        ..      BCS      0x2e34 ; _PrintUnsigned + 36
        0x00002e58:    f1a80801    ....    SUB      r8,r8,#1
        0x00002e5c:    e006        ..      B        0x2e6c ; _PrintUnsigned + 92
        0x00002e5e:    bf00        ..      NOP      
        0x00002e60:    f1080801    ....    ADD      r8,r8,#1
        0x00002e64:    e002        ..      B        0x2e6c ; _PrintUnsigned + 92
        0x00002e66:    bf00        ..      NOP      
        0x00002e68:    f1080802    ....    ADD      r8,r8,#2
        0x00002e6c:    45b8        .E      CMP      r8,r7
        0x00002e6e:    bf38        8.      IT       CC
        0x00002e70:    46b8        .F      MOVCC    r8,r7
        0x00002e72:    f1b90f00    ....    CMP      r9,#0
        0x00002e76:    f0010001    ....    AND      r0,r1,#1
        0x00002e7a:    9002        ..      STR      r0,[sp,#8]
        0x00002e7c:    d035        5.      BEQ      0x2eea ; _PrintUnsigned + 218
        0x00002e7e:    bba0        ..      CBNZ     r0,0x2eea ; _PrintUnsigned + 218
        0x00002e80:    0788        ..      LSLS     r0,r1,#30
        0x00002e82:    f04f0620    O. .    MOV      r6,#0x20
        0x00002e86:    f04f0020    O. .    MOV      r0,#0x20
        0x00002e8a:    bf48        H.      IT       MI
        0x00002e8c:    2630        0&      MOVMI    r6,#0x30
        0x00002e8e:    2f00        ./      CMP      r7,#0
        0x00002e90:    bf18        ..      IT       NE
        0x00002e92:    4606        .F      MOVNE    r6,r0
        0x00002e94:    4640        @F      MOV      r0,r8
        0x00002e96:    f04f0a00    O...    MOV      r10,#0
        0x00002e9a:    45c8        .E      CMP      r8,r9
        0x00002e9c:    bf88        ..      IT       HI
        0x00002e9e:    4648        HF      MOVHI    r0,r9
        0x00002ea0:    9001        ..      STR      r0,[sp,#4]
        0x00002ea2:    e005        ..      B        0x2eb0 ; _PrintUnsigned + 160
        0x00002ea4:    f8c4a008    ....    STR      r10,[r4,#8]
        0x00002ea8:    68e0        .h      LDR      r0,[r4,#0xc]
        0x00002eaa:    f1b03fff    ...?    CMP      r0,#0xffffffff
        0x00002eae:    dd1c        ..      BLE      0x2eea ; _PrintUnsigned + 218
        0x00002eb0:    45c8        .E      CMP      r8,r9
        0x00002eb2:    d26f        o.      BCS      0x2f94 ; _PrintUnsigned + 388
        0x00002eb4:    e9d42001    ...     LDRD     r2,r0,[r4,#4]
        0x00002eb8:    1c41        A.      ADDS     r1,r0,#1
        0x00002eba:    4291        .B      CMP      r1,r2
        0x00002ebc:    d807        ..      BHI      0x2ece ; _PrintUnsigned + 190
        0x00002ebe:    6822        "h      LDR      r2,[r4,#0]
        0x00002ec0:    5416        .T      STRB     r6,[r2,r0]
        0x00002ec2:    68e0        .h      LDR      r0,[r4,#0xc]
        0x00002ec4:    6862        bh      LDR      r2,[r4,#4]
        0x00002ec6:    3001        .0      ADDS     r0,#1
        0x00002ec8:    60e0        .`      STR      r0,[r4,#0xc]
        0x00002eca:    4608        .F      MOV      r0,r1
        0x00002ecc:    60a1        .`      STR      r1,[r4,#8]
        0x00002ece:    4290        .B      CMP      r0,r2
        0x00002ed0:    f1a90901    ....    SUB      r9,r9,#1
        0x00002ed4:    d1e8        ..      BNE      0x2ea8 ; _PrintUnsigned + 152
        0x00002ed6:    6821        !h      LDR      r1,[r4,#0]
        0x00002ed8:    6920         i      LDR      r0,[r4,#0x10]
        0x00002eda:    f7fff801    ....    BL       SEGGER_RTT_Write ; 0x1ee0
        0x00002ede:    68a1        .h      LDR      r1,[r4,#8]
        0x00002ee0:    4288        .B      CMP      r0,r1
        0x00002ee2:    d0df        ..      BEQ      0x2ea4 ; _PrintUnsigned + 148
        0x00002ee4:    f04f30ff    O..0    MOV      r0,#0xffffffff
        0x00002ee8:    60e0        .`      STR      r0,[r4,#0xc]
        0x00002eea:    68e0        .h      LDR      r0,[r4,#0xc]
        0x00002eec:    2800        .(      CMP      r0,#0
        0x00002eee:    d460        `.      BMI      0x2fb2 ; _PrintUnsigned + 418
        0x00002ef0:    2601        .&      MOVS     r6,#1
        0x00002ef2:    e001        ..      B        0x2ef8 ; _PrintUnsigned + 232
        0x00002ef4:    3f01        .?      SUBS     r7,#1
        0x00002ef6:    436e        nC      MULS     r6,r5,r6
        0x00002ef8:    2f02        ./      CMP      r7,#2
        0x00002efa:    d301        ..      BCC      0x2f00 ; _PrintUnsigned + 240
        0x00002efc:    3f01        .?      SUBS     r7,#1
        0x00002efe:    e003        ..      B        0x2f08 ; _PrintUnsigned + 248
        0x00002f00:    fbbbf1f6    ....    UDIV     r1,r11,r6
        0x00002f04:    42a9        .B      CMP      r1,r5
        0x00002f06:    d31b        ..      BCC      0x2f40 ; _PrintUnsigned + 304
        0x00002f08:    2f01        ./      CMP      r7,#1
        0x00002f0a:    fb05f606    ....    MUL      r6,r5,r6
        0x00002f0e:    d901        ..      BLS      0x2f14 ; _PrintUnsigned + 260
        0x00002f10:    3f01        .?      SUBS     r7,#1
        0x00002f12:    e003        ..      B        0x2f1c ; _PrintUnsigned + 268
        0x00002f14:    fbbbf1f6    ....    UDIV     r1,r11,r6
        0x00002f18:    42a9        .B      CMP      r1,r5
        0x00002f1a:    d311        ..      BCC      0x2f40 ; _PrintUnsigned + 304
        0x00002f1c:    2f01        ./      CMP      r7,#1
        0x00002f1e:    fb05f606    ....    MUL      r6,r5,r6
        0x00002f22:    d901        ..      BLS      0x2f28 ; _PrintUnsigned + 280
        0x00002f24:    3f01        .?      SUBS     r7,#1
        0x00002f26:    e003        ..      B        0x2f30 ; _PrintUnsigned + 288
        0x00002f28:    fbbbf1f6    ....    UDIV     r1,r11,r6
        0x00002f2c:    42a9        .B      CMP      r1,r5
        0x00002f2e:    d307        ..      BCC      0x2f40 ; _PrintUnsigned + 304
        0x00002f30:    2f01        ./      CMP      r7,#1
        0x00002f32:    fb05f606    ....    MUL      r6,r5,r6
        0x00002f36:    d8dd        ..      BHI      0x2ef4 ; _PrintUnsigned + 228
        0x00002f38:    fbbbf1f6    ....    UDIV     r1,r11,r6
        0x00002f3c:    42a9        .B      CMP      r1,r5
        0x00002f3e:    d2da        ..      BCS      0x2ef6 ; _PrintUnsigned + 230
        0x00002f40:    68a1        .h      LDR      r1,[r4,#8]
        0x00002f42:    f20f0ac8    ....    ADR.W    r10,{pc}+0xca ; 0x300c
        0x00002f46:    bf00        ..      NOP      
        0x00002f48:    6862        bh      LDR      r2,[r4,#4]
        0x00002f4a:    fbbbf7f6    ....    UDIV     r7,r11,r6
        0x00002f4e:    1c4b        K.      ADDS     r3,r1,#1
        0x00002f50:    4293        .B      CMP      r3,r2
        0x00002f52:    d809        ..      BHI      0x2f68 ; _PrintUnsigned + 344
        0x00002f54:    f81a0007    ....    LDRB     r0,[r10,r7]
        0x00002f58:    6822        "h      LDR      r2,[r4,#0]
        0x00002f5a:    5450        PT      STRB     r0,[r2,r1]
        0x00002f5c:    68e0        .h      LDR      r0,[r4,#0xc]
        0x00002f5e:    6862        bh      LDR      r2,[r4,#4]
        0x00002f60:    3001        .0      ADDS     r0,#1
        0x00002f62:    4619        .F      MOV      r1,r3
        0x00002f64:    60a3        .`      STR      r3,[r4,#8]
        0x00002f66:    60e0        .`      STR      r0,[r4,#0xc]
        0x00002f68:    4291        .B      CMP      r1,r2
        0x00002f6a:    d109        ..      BNE      0x2f80 ; _PrintUnsigned + 368
        0x00002f6c:    6821        !h      LDR      r1,[r4,#0]
        0x00002f6e:    6920         i      LDR      r0,[r4,#0x10]
        0x00002f70:    f7feffb6    ....    BL       SEGGER_RTT_Write ; 0x1ee0
        0x00002f74:    68a1        .h      LDR      r1,[r4,#8]
        0x00002f76:    4288        .B      CMP      r0,r1
        0x00002f78:    d112        ..      BNE      0x2fa0 ; _PrintUnsigned + 400
        0x00002f7a:    68e0        .h      LDR      r0,[r4,#0xc]
        0x00002f7c:    2100        .!      MOVS     r1,#0
        0x00002f7e:    60a1        .`      STR      r1,[r4,#8]
        0x00002f80:    2800        .(      CMP      r0,#0
        0x00002f82:    d410        ..      BMI      0x2fa6 ; _PrintUnsigned + 406
        0x00002f84:    fbb6f2f5    ....    UDIV     r2,r6,r5
        0x00002f88:    fb07bb16    ....    MLS      r11,r7,r6,r11
        0x00002f8c:    42ae        .B      CMP      r6,r5
        0x00002f8e:    4616        .F      MOV      r6,r2
        0x00002f90:    d2da        ..      BCS      0x2f48 ; _PrintUnsigned + 312
        0x00002f92:    e008        ..      B        0x2fa6 ; _PrintUnsigned + 406
        0x00002f94:    f8dd9004    ....    LDR      r9,[sp,#4]
        0x00002f98:    68e0        .h      LDR      r0,[r4,#0xc]
        0x00002f9a:    2800        .(      CMP      r0,#0
        0x00002f9c:    d5a8        ..      BPL      0x2ef0 ; _PrintUnsigned + 224
        0x00002f9e:    e008        ..      B        0x2fb2 ; _PrintUnsigned + 418
        0x00002fa0:    f04f30ff    O..0    MOV      r0,#0xffffffff
        0x00002fa4:    60e0        .`      STR      r0,[r4,#0xc]
        0x00002fa6:    9a02        ..      LDR      r2,[sp,#8]
        0x00002fa8:    2a00        .*      CMP      r2,#0
        0x00002faa:    bf18        ..      IT       NE
        0x00002fac:    f1b90f00    ....    CMPNE    r9,#0
        0x00002fb0:    d102        ..      BNE      0x2fb8 ; _PrintUnsigned + 424
        0x00002fb2:    b003        ..      ADD      sp,sp,#0xc
        0x00002fb4:    e8bd8ff0    ....    POP      {r4-r11,pc}
        0x00002fb8:    f1090501    ....    ADD      r5,r9,#1
        0x00002fbc:    2620         &      MOVS     r6,#0x20
        0x00002fbe:    e002        ..      B        0x2fc6 ; _PrintUnsigned + 438
        0x00002fc0:    f1b03fff    ...?    CMP      r0,#0xffffffff
        0x00002fc4:    ddf5        ..      BLE      0x2fb2 ; _PrintUnsigned + 418
        0x00002fc6:    3d01        .=      SUBS     r5,#1
        0x00002fc8:    45a8        .E      CMP      r8,r5
        0x00002fca:    d2f2        ..      BCS      0x2fb2 ; _PrintUnsigned + 418
        0x00002fcc:    6862        bh      LDR      r2,[r4,#4]
        0x00002fce:    1c4b        K.      ADDS     r3,r1,#1
        0x00002fd0:    4293        .B      CMP      r3,r2
        0x00002fd2:    d807        ..      BHI      0x2fe4 ; _PrintUnsigned + 468
        0x00002fd4:    6820         h      LDR      r0,[r4,#0]
        0x00002fd6:    5446        FT      STRB     r6,[r0,r1]
        0x00002fd8:    68e0        .h      LDR      r0,[r4,#0xc]
        0x00002fda:    6862        bh      LDR      r2,[r4,#4]
        0x00002fdc:    3001        .0      ADDS     r0,#1
        0x00002fde:    4619        .F      MOV      r1,r3
        0x00002fe0:    60a3        .`      STR      r3,[r4,#8]
        0x00002fe2:    60e0        .`      STR      r0,[r4,#0xc]
        0x00002fe4:    4291        .B      CMP      r1,r2
        0x00002fe6:    d1eb        ..      BNE      0x2fc0 ; _PrintUnsigned + 432
        0x00002fe8:    6821        !h      LDR      r1,[r4,#0]
        0x00002fea:    6920         i      LDR      r0,[r4,#0x10]
        0x00002fec:    f7feff78    ..x.    BL       SEGGER_RTT_Write ; 0x1ee0
        0x00002ff0:    68a1        .h      LDR      r1,[r4,#8]
        0x00002ff2:    4288        .B      CMP      r0,r1
        0x00002ff4:    d104        ..      BNE      0x3000 ; _PrintUnsigned + 496
        0x00002ff6:    68e0        .h      LDR      r0,[r4,#0xc]
        0x00002ff8:    2100        .!      MOVS     r1,#0
        0x00002ffa:    60a1        .`      STR      r1,[r4,#8]
        0x00002ffc:    e7e0        ..      B        0x2fc0 ; _PrintUnsigned + 432
        0x00002ffe:    bf00        ..      NOP      
        0x00003000:    f04f30ff    O..0    MOV      r0,#0xffffffff
        0x00003004:    60e0        .`      STR      r0,[r4,#0xc]
        0x00003006:    b003        ..      ADD      sp,sp,#0xc
        0x00003008:    e8bd8ff0    ....    POP      {r4-r11,pc}
    $d.18
    _PrintUnsigned._aV2C
        0x0000300c:    33323130    0123    DCD    858927408
        0x00003010:    37363534    4567    DCD    926299444
        0x00003014:    42413938    89AB    DCD    1111570744
        0x00003018:    46454443    CDEF    DCD    1178944579
    $t.3
    app
        0x0000301c:    e92d41f0    -..A    PUSH     {r4-r8,lr}
        0x00003020:    f2400810    @...    MOVW     r8,#0x10
        0x00003024:    f2c20800    ....    MOVT     r8,#0x2000
        0x00003028:    f8d80004    ....    LDR      r0,[r8,#4]
        0x0000302c:    2800        .(      CMP      r0,#0
        0x0000302e:    f00080b3    ....    BEQ.W    0x3198 ; app + 380
        0x00003032:    2400        .$      MOVS     r4,#0
        0x00003034:    a059        Y.      ADR      r0,{pc}+0x168 ; 0x319c
        0x00003036:    f8c84004    ...@    STR      r4,[r8,#4]
        0x0000303a:    f000fba1    ....    BL       puts ; 0x3780
        0x0000303e:    f240501c    @..P    MOV      r0,#0x51c
        0x00003042:    f2c20000    ....    MOVT     r0,#0x2000
        0x00003046:    307c        |0      ADDS     r0,r0,#0x7c
        0x00003048:    1c61        a.      ADDS     r1,r4,#1
        0x0000304a:    1ca2        ..      ADDS     r2,r4,#2
        0x0000304c:    1ce3        ..      ADDS     r3,r4,#3
        0x0000304e:    1d25        %.      ADDS     r5,r4,#4
        0x00003050:    1d66        f.      ADDS     r6,r4,#5
        0x00003052:    1da7        ..      ADDS     r7,r4,#6
        0x00003054:    f1040c07    ....    ADD      r12,r4,#7
        0x00003058:    e940411f    @..A    STRD     r4,r1,[r0,#-0x7c]
        0x0000305c:    f1a00174    ..t.    SUB      r1,r0,#0x74
        0x00003060:    e88110ec    ....    STM      r1,{r2,r3,r5-r7,r12}
        0x00003064:    f1040108    ....    ADD      r1,r4,#8
        0x00003068:    f1040209    ....    ADD      r2,r4,#9
        0x0000306c:    f104030a    ....    ADD      r3,r4,#0xa
        0x00003070:    f104070b    ....    ADD      r7,r4,#0xb
        0x00003074:    f104060c    ....    ADD      r6,r4,#0xc
        0x00003078:    f104050d    ....    ADD      r5,r4,#0xd
        0x0000307c:    f1040c0e    ....    ADD      r12,r4,#0xe
        0x00003080:    f1040e0f    ....    ADD      lr,r4,#0xf
        0x00003084:    f8401c5c    @.\.    STR      r1,[r0,#-0x5c]
        0x00003088:    f8402c58    @.X,    STR      r2,[r0,#-0x58]
        0x0000308c:    f8403c54    @.T<    STR      r3,[r0,#-0x54]
        0x00003090:    f8407c50    @.P|    STR      r7,[r0,#-0x50]
        0x00003094:    e9406513    @..e    STRD     r6,r5,[r0,#-0x4c]
        0x00003098:    e940ce11    @...    STRD     r12,lr,[r0,#-0x44]
        0x0000309c:    f1040110    ....    ADD      r1,r4,#0x10
        0x000030a0:    f1040211    ....    ADD      r2,r4,#0x11
        0x000030a4:    f1040312    ....    ADD      r3,r4,#0x12
        0x000030a8:    f1040713    ....    ADD      r7,r4,#0x13
        0x000030ac:    f1040614    ....    ADD      r6,r4,#0x14
        0x000030b0:    f1040515    ....    ADD      r5,r4,#0x15
        0x000030b4:    f1040c16    ....    ADD      r12,r4,#0x16
        0x000030b8:    f1040e17    ....    ADD      lr,r4,#0x17
        0x000030bc:    f8401c3c    @.<.    STR      r1,[r0,#-0x3c]
        0x000030c0:    f8402c38    @.8,    STR      r2,[r0,#-0x38]
        0x000030c4:    f8403c34    @.4<    STR      r3,[r0,#-0x34]
        0x000030c8:    f8407c30    @.0|    STR      r7,[r0,#-0x30]
        0x000030cc:    e940650b    @..e    STRD     r6,r5,[r0,#-0x2c]
        0x000030d0:    e940ce09    @...    STRD     r12,lr,[r0,#-0x24]
        0x000030d4:    f1040118    ....    ADD      r1,r4,#0x18
        0x000030d8:    f1040219    ....    ADD      r2,r4,#0x19
        0x000030dc:    f104031a    ....    ADD      r3,r4,#0x1a
        0x000030e0:    f104071b    ....    ADD      r7,r4,#0x1b
        0x000030e4:    f104061c    ....    ADD      r6,r4,#0x1c
        0x000030e8:    f104051d    ....    ADD      r5,r4,#0x1d
        0x000030ec:    f1040c1e    ....    ADD      r12,r4,#0x1e
        0x000030f0:    f1040e1f    ....    ADD      lr,r4,#0x1f
        0x000030f4:    3420         4      ADDS     r4,r4,#0x20
        0x000030f6:    f8401c1c    @...    STR      r1,[r0,#-0x1c]
        0x000030fa:    f8402c18    @..,    STR      r2,[r0,#-0x18]
        0x000030fe:    f8403c14    @..<    STR      r3,[r0,#-0x14]
        0x00003102:    f8407c10    @..|    STR      r7,[r0,#-0x10]
        0x00003106:    e9406503    @..e    STRD     r6,r5,[r0,#-0xc]
        0x0000310a:    f840cc04    @...    STR      r12,[r0,#-4]
        0x0000310e:    f8c0e000    ....    STR      lr,[r0,#0]
        0x00003112:    f5b46f80    ...o    CMP      r4,#0x400
        0x00003116:    f1000080    ....    ADD      r0,r0,#0x80
        0x0000311a:    d195        ..      BNE      0x3048 ; app + 44
        0x0000311c:    f241541c    A..T    MOV      r4,#0x151c
        0x00003120:    f240551c    @..U    MOV      r5,#0x51c
        0x00003124:    f2c20400    ....    MOVT     r4,#0x2000
        0x00003128:    f2c20500    ....    MOVT     r5,#0x2000
        0x0000312c:    f8d86000    ...`    LDR      r6,[r8,#0]
        0x00003130:    4620         F      MOV      r0,r4
        0x00003132:    4629        )F      MOV      r1,r5
        0x00003134:    f44f6280    O..b    MOV      r2,#0x400
        0x00003138:    f7fdf81e    ....    BL       cr4_fft_256_stm32 ; 0x178
        0x0000313c:    4620         F      MOV      r0,r4
        0x0000313e:    4629        )F      MOV      r1,r5
        0x00003140:    f44f6280    O..b    MOV      r2,#0x400
        0x00003144:    f7fdfb08    ....    BL       cr4_fft_1024_stm32 ; 0x758
        0x00003148:    f8d80000    ....    LDR      r0,[r8,#0]
        0x0000314c:    f44f6180    O..a    MOV      r1,#0x400
        0x00003150:    1b82        ..      SUBS     r2,r0,r6
        0x00003152:    f24370a4    C..p    MOV      r0,#0x37a4
        0x00003156:    f2c00000    ....    MOVT     r0,#0
        0x0000315a:    f000fa47    ..G.    BL       __0printf$1 ; 0x35ec
        0x0000315e:    f8d80000    ....    LDR      r0,[r8,#0]
        0x00003162:    e00d        ..      B        0x3180 ; app + 356
        0x00003164:    f8d81000    ....    LDR      r1,[r8,#0]
        0x00003168:    1a09        ..      SUBS     r1,r1,r0
        0x0000316a:    f5b17ffa    ....    CMP      r1,#0x1f4
        0x0000316e:    bfa8        ..      IT       GE
        0x00003170:    e8bd81f0    ....    POPGE    {r4-r8,pc}
        0x00003174:    f8d81000    ....    LDR      r1,[r8,#0]
        0x00003178:    1a09        ..      SUBS     r1,r1,r0
        0x0000317a:    f5b17ffa    ....    CMP      r1,#0x1f4
        0x0000317e:    da0b        ..      BGE      0x3198 ; app + 380
        0x00003180:    f8d81000    ....    LDR      r1,[r8,#0]
        0x00003184:    1a09        ..      SUBS     r1,r1,r0
        0x00003186:    f5b17ffa    ....    CMP      r1,#0x1f4
        0x0000318a:    da05        ..      BGE      0x3198 ; app + 380
        0x0000318c:    f8d81000    ....    LDR      r1,[r8,#0]
        0x00003190:    1a09        ..      SUBS     r1,r1,r0
        0x00003192:    f5b17ffa    ....    CMP      r1,#0x1f4
        0x00003196:    dbe5        ..      BLT      0x3164 ; app + 328
        0x00003198:    e8bd81f0    ....    POP      {r4-r8,pc}
    $d.4
        0x0000319c:    20544646    FFT     DCD    542393926
        0x000031a0:    74736554    Test    DCD    1953719636
        0x000031a4:    61745320     Sta    DCD    1635013408
        0x000031a8:    000d7472    rt..    DCD    881778
    $t.1
    fputc
        0x000031ac:    b580        ..      PUSH     {r7,lr}
        0x000031ae:    b2c0        ..      UXTB     r0,r0
        0x000031b0:    f7fffcb2    ....    BL       SERIAL_PutChar ; 0x2b18
        0x000031b4:    bd80        ..      POP      {r7,pc}
        0x000031b6:    0000        ..      MOVS     r0,r0
    main
        0x000031b8:    b08a        ..      SUB      sp,sp,#0x28
        0x000031ba:    f7fefe59    ..Y.    BL       SEGGER_RTT_Init ; 0x1e70
        0x000031be:    f24371dc    C..q    MOV      r1,#0x37dc
        0x000031c2:    f643021e    C...    MOV      r2,#0x381e
        0x000031c6:    f6430319    C...    MOV      r3,#0x3819
        0x000031ca:    f2c00100    ....    MOVT     r1,#0
        0x000031ce:    f2c00200    ....    MOVT     r2,#0
        0x000031d2:    f2c00300    ....    MOVT     r3,#0
        0x000031d6:    2000        .       MOVS     r0,#0
        0x000031d8:    f04f0800    O...    MOV      r8,#0
        0x000031dc:    f7feff96    ....    BL       SEGGER_RTT_printf ; 0x210c
        0x000031e0:    f24371c5    C..q    MOV      r1,#0x37c5
        0x000031e4:    f6430204    C...    MOV      r2,#0x3804
        0x000031e8:    f6430310    C...    MOV      r3,#0x3810
        0x000031ec:    f2c00100    ....    MOVT     r1,#0
        0x000031f0:    f2c00200    ....    MOVT     r2,#0
        0x000031f4:    f2c00300    ....    MOVT     r3,#0
        0x000031f8:    2000        .       MOVS     r0,#0
        0x000031fa:    f7feff87    ....    BL       SEGGER_RTT_printf ; 0x210c
        0x000031fe:    f2420500    B...    MOVW     r5,#0x2000
        0x00003202:    2040        @       MOVS     r0,#0x40
        0x00003204:    f2c40501    ....    MOVT     r5,#0x4001
        0x00003208:    466c        lF      MOV      r4,sp
        0x0000320a:    9000        ..      STR      r0,[sp,#0]
        0x0000320c:    f04f0901    O...    MOV      r9,#1
        0x00003210:    4628        (F      MOV      r0,r5
        0x00003212:    4621        !F      MOV      r1,r4
        0x00003214:    f8ad9004    ....    STRH     r9,[sp,#4]
        0x00003218:    f7fefc78    ..x.    BL       GPIO_Init ; 0x1b0c
        0x0000321c:    2080        .       MOVS     r0,#0x80
        0x0000321e:    9000        ..      STR      r0,[sp,#0]
        0x00003220:    4628        (F      MOV      r0,r5
        0x00003222:    4621        !F      MOV      r1,r4
        0x00003224:    f8ad9004    ....    STRH     r9,[sp,#4]
        0x00003228:    f7fefc70    ..p.    BL       GPIO_Init ; 0x1b0c
        0x0000322c:    f44f7080    O..p    MOV      r0,#0x100
        0x00003230:    9000        ..      STR      r0,[sp,#0]
        0x00003232:    4628        (F      MOV      r0,r5
        0x00003234:    4621        !F      MOV      r1,r4
        0x00003236:    f8ad9004    ....    STRH     r9,[sp,#4]
        0x0000323a:    f7fefc67    ..g.    BL       GPIO_Init ; 0x1b0c
        0x0000323e:    4628        (F      MOV      r0,r5
        0x00003240:    2140        @!      MOVS     r1,#0x40
        0x00003242:    f7fefc9d    ....    BL       GPIO_SetBits ; 0x1b80
        0x00003246:    4628        (F      MOV      r0,r5
        0x00003248:    2180        .!      MOVS     r1,#0x80
        0x0000324a:    f7fefc99    ....    BL       GPIO_SetBits ; 0x1b80
        0x0000324e:    4628        (F      MOV      r0,r5
        0x00003250:    f44f7180    O..q    MOV      r1,#0x100
        0x00003254:    f7fefc94    ....    BL       GPIO_SetBits ; 0x1b80
        0x00003258:    2008        .       MOVS     r0,#8
        0x0000325a:    f8ad0000    ....    STRH     r0,[sp,#0]
        0x0000325e:    4668        hF      MOV      r0,sp
        0x00003260:    f88d9002    ....    STRB     r9,[sp,#2]
        0x00003264:    f7fefd00    ....    BL       NVIC_Init ; 0x1c68
        0x00003268:    4628        (F      MOV      r0,r5
        0x0000326a:    f44f6180    O..a    MOV      r1,#0x400
        0x0000326e:    2200        ."      MOVS     r2,#0
        0x00003270:    f7fefc8a    ....    BL       GPIO_TriTypeConfig ; 0x1b88
        0x00003274:    4628        (F      MOV      r0,r5
        0x00003276:    f44f6100    O..a    MOV      r1,#0x800
        0x0000327a:    2200        ."      MOVS     r2,#0
        0x0000327c:    f7fefc84    ....    BL       GPIO_TriTypeConfig ; 0x1b88
        0x00003280:    4628        (F      MOV      r0,r5
        0x00003282:    f44f6180    O..a    MOV      r1,#0x400
        0x00003286:    2201        ."      MOVS     r2,#1
        0x00003288:    f7fefc3a    ..:.    BL       GPIO_ITConfig ; 0x1b00
        0x0000328c:    4628        (F      MOV      r0,r5
        0x0000328e:    f44f6100    O..a    MOV      r1,#0x800
        0x00003292:    2201        ."      MOVS     r2,#1
        0x00003294:    f7fefc34    ..4.    BL       GPIO_ITConfig ; 0x1b00
        0x00003298:    2027        '       MOVS     r0,#0x27
        0x0000329a:    f8ad0000    ....    STRH     r0,[sp,#0]
        0x0000329e:    4668        hF      MOV      r0,sp
        0x000032a0:    f88d9002    ....    STRB     r9,[sp,#2]
        0x000032a4:    f7fefce0    ....    BL       NVIC_Init ; 0x1c68
        0x000032a8:    f2410400    A...    MOVW     r4,#0x1000
        0x000032ac:    f2c40400    ....    MOVT     r4,#0x4000
        0x000032b0:    f5045670    ..pV    ADD      r6,r4,#0x3c00
        0x000032b4:    4630        0F      MOV      r0,r6
        0x000032b6:    2101        .!      MOVS     r1,#1
        0x000032b8:    2201        ."      MOVS     r2,#1
        0x000032ba:    f7fffd53    ..S.    BL       UART_ITConfig ; 0x2d64
        0x000032be:    f5a55780    ...W    SUB      r7,r5,#0x1000
        0x000032c2:    4638        8F      MOV      r0,r7
        0x000032c4:    210b        .!      MOVS     r1,#0xb
        0x000032c6:    2201        ."      MOVS     r2,#1
        0x000032c8:    f7fefc52    ..R.    BL       GPIO_PinAFConfig ; 0x1b70
        0x000032cc:    4638        8F      MOV      r0,r7
        0x000032ce:    210a        .!      MOVS     r1,#0xa
        0x000032d0:    2201        ."      MOVS     r2,#1
        0x000032d2:    f7fefc4d    ..M.    BL       GPIO_PinAFConfig ; 0x1b70
        0x000032d6:    f44f30e1    O..0    MOV      r0,#0x1c200
        0x000032da:    9000        ..      STR      r0,[sp,#0]
        0x000032dc:    2001        .       MOVS     r0,#1
        0x000032de:    f2c00008    ....    MOVT     r0,#8
        0x000032e2:    9001        ..      STR      r0,[sp,#4]
        0x000032e4:    2020                MOVS     r0,#0x20
        0x000032e6:    f8ad0008    ....    STRH     r0,[sp,#8]
        0x000032ea:    2010        .       MOVS     r0,#0x10
        0x000032ec:    9003        ..      STR      r0,[sp,#0xc]
        0x000032ee:    f6460000    F...    MOVW     r0,#0x6800
        0x000032f2:    f6c01089    ....    MOVT     r0,#0x989
        0x000032f6:    9005        ..      STR      r0,[sp,#0x14]
        0x000032f8:    4669        iF      MOV      r1,sp
        0x000032fa:    4630        0F      MOV      r0,r6
        0x000032fc:    f8ad9010    ....    STRH     r9,[sp,#0x10]
        0x00003300:    f7fffd38    ..8.    BL       UART_Init ; 0x2d74
        0x00003304:    4630        0F      MOV      r0,r6
        0x00003306:    2101        .!      MOVS     r1,#1
        0x00003308:    f7fffd24    ..$.    BL       UART_Cmd ; 0x2d54
        0x0000330c:    f50446a0    ...F    ADD      r6,r4,#0x5000
        0x00003310:    4630        0F      MOV      r0,r6
        0x00003312:    2130        0!      MOVS     r1,#0x30
        0x00003314:    2730        0'      MOVS     r7,#0x30
        0x00003316:    f7fefb49    ..I.    BL       ADC_ChannelConfig ; 0x19ac
        0x0000331a:    2004        .       MOVS     r0,#4
        0x0000331c:    9000        ..      STR      r0,[sp,#0]
        0x0000331e:    20ff        .       MOVS     r0,#0xff
        0x00003320:    e9cd0702    ....    STRD     r0,r7,[sp,#8]
        0x00003324:    4669        iF      MOV      r1,sp
        0x00003326:    4630        0F      MOV      r0,r6
        0x00003328:    f88d9010    ....    STRB     r9,[sp,#0x10]
        0x0000332c:    f8cd8004    ....    STR      r8,[sp,#4]
        0x00003330:    f7fefb54    ..T.    BL       ADC_Init ; 0x19dc
        0x00003334:    4630        0F      MOV      r0,r6
        0x00003336:    2101        .!      MOVS     r1,#1
        0x00003338:    f7fefb46    ..F.    BL       ADC_Cmd ; 0x19c8
        0x0000333c:    4630        0F      MOV      r0,r6
        0x0000333e:    f7fefb69    ..i.    BL       ADC_StartOfConversion ; 0x1a14
        0x00003342:    f246000c    F...    MOV      r0,#0x600c
        0x00003346:    f2c40000    ....    MOVT     r0,#0x4000
        0x0000334a:    9000        ..      STR      r0,[sp,#0]
        0x0000334c:    f641501c    A..P    MOV      r0,#0x1d1c
        0x00003350:    f2c20000    ....    MOVT     r0,#0x2000
        0x00003354:    e9cd0901    ....    STRD     r0,r9,[sp,#4]
        0x00003358:    4669        iF      MOV      r1,sp
        0x0000335a:    2000        .       MOVS     r0,#0
        0x0000335c:    e9cd9903    ....    STRD     r9,r9,[sp,#0xc]
        0x00003360:    e9cd8805    ....    STRD     r8,r8,[sp,#0x14]
        0x00003364:    f7fefb80    ....    BL       DMA_Config ; 0x1a68
        0x00003368:    2000        .       MOVS     r0,#0
        0x0000336a:    210e        .!      MOVS     r1,#0xe
        0x0000336c:    f7fefbae    ....    BL       DMA_PeripheralConfig ; 0x1acc
        0x00003370:    2000        .       MOVS     r0,#0
        0x00003372:    2100        .!      MOVS     r1,#0
        0x00003374:    f7fefb9a    ....    BL       DMA_DirectionConfig ; 0x1aac
        0x00003378:    2000        .       MOVS     r0,#0
        0x0000337a:    2101        .!      MOVS     r1,#1
        0x0000337c:    f7fefb50    ..P.    BL       DMA_AutoRepeat_Cmd ; 0x1a20
        0x00003380:    2000        .       MOVS     r0,#0
        0x00003382:    2101        .!      MOVS     r1,#1
        0x00003384:    f7fefb5e    ..^.    BL       DMA_Cmd ; 0x1a44
        0x00003388:    f000f8ac    ....    BL       read_uid ; 0x34e4
        0x0000338c:    f5a55500    ...U    SUB      r5,r5,#0x2000
        0x00003390:    4628        (F      MOV      r0,r5
        0x00003392:    2108        .!      MOVS     r1,#8
        0x00003394:    2202        ."      MOVS     r2,#2
        0x00003396:    f7fefbeb    ....    BL       GPIO_PinAFConfig ; 0x1b70
        0x0000339a:    4628        (F      MOV      r0,r5
        0x0000339c:    210b        .!      MOVS     r1,#0xb
        0x0000339e:    2202        ."      MOVS     r2,#2
        0x000033a0:    f7fefbe6    ....    BL       GPIO_PinAFConfig ; 0x1b70
        0x000033a4:    2018        .       MOVS     r0,#0x18
        0x000033a6:    f8ad001c    ....    STRH     r0,[sp,#0x1c]
        0x000033aa:    a807        ..      ADD      r0,sp,#0x1c
        0x000033ac:    f88d901e    ....    STRB     r9,[sp,#0x1e]
        0x000033b0:    f7fefc5a    ..Z.    BL       NVIC_Init ; 0x1c68
        0x000033b4:    f2400904    @...    MOVW     r9,#4
        0x000033b8:    f2c20900    ....    MOVT     r9,#0x2000
        0x000033bc:    f8d90000    ....    LDR      r0,[r9,#0]
        0x000033c0:    f64d6183    M..a    MOV      r1,#0xde83
        0x000033c4:    f2c4311b    ...1    MOVT     r1,#0x431b
        0x000033c8:    fba00101    ....    UMULL    r0,r1,r0,r1
        0x000033cc:    f24030e7    @..0    MOV      r0,#0x3e7
        0x000033d0:    f04f37ff    O..7    MOV      r7,#0xffffffff
        0x000033d4:    f8ad0020    .. .    STRH     r0,[sp,#0x20]
        0x000033d8:    eb0740d1    ...@    ADD      r0,r7,r1,LSR #19
        0x000033dc:    f88d0023    ..#.    STRB     r0,[sp,#0x23]
        0x000033e0:    a908        ..      ADD      r1,sp,#0x20
        0x000033e2:    4620         F      MOV      r0,r4
        0x000033e4:    f8ad8024    ..$.    STRH     r8,[sp,#0x24]
        0x000033e8:    f7fefca2    ....    BL       PMW_TimeBaseInit ; 0x1d30
        0x000033ec:    f44f7040    O.@p    MOV      r0,#0x300
        0x000033f0:    466d        mF      MOV      r5,sp
        0x000033f2:    f8ad0000    ....    STRH     r0,[sp,#0]
        0x000033f6:    f44f3680    O..6    MOV      r6,#0x10000
        0x000033fa:    4620         F      MOV      r0,r4
        0x000033fc:    4629        )F      MOV      r1,r5
        0x000033fe:    f8cd8004    ....    STR      r8,[sp,#4]
        0x00003402:    f88d800e    ....    STRB     r8,[sp,#0xe]
        0x00003406:    9602        ..      STR      r6,[sp,#8]
        0x00003408:    f8ad800c    ....    STRH     r8,[sp,#0xc]
        0x0000340c:    f7fefcf8    ....    BL       PWM_OutputInit ; 0x1e00
        0x00003410:    f2403003    @..0    MOV      r0,#0x303
        0x00003414:    f8ad0000    ....    STRH     r0,[sp,#0]
        0x00003418:    f24010f3    @...    MOV      r0,#0x1f3
        0x0000341c:    f8ad000c    ....    STRH     r0,[sp,#0xc]
        0x00003420:    4620         F      MOV      r0,r4
        0x00003422:    4629        )F      MOV      r1,r5
        0x00003424:    f8cd8004    ....    STR      r8,[sp,#4]
        0x00003428:    f88d800e    ....    STRB     r8,[sp,#0xe]
        0x0000342c:    9602        ..      STR      r6,[sp,#8]
        0x0000342e:    f7fefce7    ....    BL       PWM_OutputInit ; 0x1e00
        0x00003432:    4620         F      MOV      r0,r4
        0x00003434:    2110        .!      MOVS     r1,#0x10
        0x00003436:    2201        ."      MOVS     r2,#1
        0x00003438:    f7fefca8    ....    BL       PWM_IntConfig ; 0x1d8c
        0x0000343c:    4620         F      MOV      r0,r4
        0x0000343e:    2100        .!      MOVS     r1,#0
        0x00003440:    f7fefc8a    ....    BL       PWM_BreakInput_Cmd ; 0x1d58
        0x00003444:    4620         F      MOV      r0,r4
        0x00003446:    2100        .!      MOVS     r1,#0
        0x00003448:    f7fefc80    ....    BL       PWM_BKI_LevelConfig ; 0x1d4c
        0x0000344c:    4620         F      MOV      r0,r4
        0x0000344e:    2101        .!      MOVS     r1,#1
        0x00003450:    f7fefc8e    ....    BL       PWM_Cmd ; 0x1d70
        0x00003454:    a114        ..      ADR      r1,{pc}+0x54 ; 0x34a8
        0x00003456:    2000        .       MOVS     r0,#0
        0x00003458:    f7fefe58    ..X.    BL       SEGGER_RTT_printf ; 0x210c
        0x0000345c:    a01a        ..      ADR      r0,{pc}+0x6c ; 0x34c8
        0x0000345e:    f000f98f    ....    BL       puts ; 0x3780
        0x00003462:    f8d90000    ....    LDR      r0,[r9,#0]
        0x00003466:    f64451d3    D..Q    MOV      r1,#0x4dd3
        0x0000346a:    f2c10162    ..b.    MOVT     r1,#0x1062
        0x0000346e:    fba00101    ....    UMULL    r0,r1,r0,r1
        0x00003472:    eb071091    ....    ADD      r0,r7,r1,LSR #6
        0x00003476:    f1b07f80    ....    CMP      r0,#0x1000000
        0x0000347a:    d301        ..      BCC      0x3480 ; main + 712
        0x0000347c:    e7fe        ..      B        0x347c ; main + 708
        0x0000347e:    bf00        ..      NOP      
        0x00003480:    f24e0110    N...    MOV      r1,#0xe010
        0x00003484:    f2ce0100    ....    MOVT     r1,#0xe000
        0x00003488:    6048        H`      STR      r0,[r1,#4]
        0x0000348a:    f64e5023    N.#P    MOV      r0,#0xed23
        0x0000348e:    f2ce0000    ....    MOVT     r0,#0xe000
        0x00003492:    22c0        ."      MOVS     r2,#0xc0
        0x00003494:    7002        .p      STRB     r2,[r0,#0]
        0x00003496:    2007        .       MOVS     r0,#7
        0x00003498:    f8c18008    ....    STR      r8,[r1,#8]
        0x0000349c:    6008        .`      STR      r0,[r1,#0]
        0x0000349e:    bf00        ..      NOP      
        0x000034a0:    f7fffdbc    ....    BL       app ; 0x301c
        0x000034a4:    e7fc        ..      B        0x34a0 ; main + 744
        0x000034a6:    bf00        ..      NOP      
    $d.11
        0x000034a8:    73616c66    flas    DCD    1935764582
        0x000034ac:    646f6368    hcod    DCD    1685021544
        0x000034b0:    72702065    e pr    DCD    1919950949
        0x000034b4:    6172676f    ogra    DCD    1634887535
        0x000034b8:    6562206d    m be    DCD    1700929645
        0x000034bc:    2e6e6967    gin.    DCD    778987879
        0x000034c0:    0a0d2e2e    ....    DCD    168635950
        0x000034c4:    00000000    ....    DCD    0
        0x000034c8:    73616c66    flas    DCD    1935764582
        0x000034cc:    646f6368    hcod    DCD    1685021544
        0x000034d0:    72702065    e pr    DCD    1919950949
        0x000034d4:    6172676f    ogra    DCD    1634887535
        0x000034d8:    6562206d    m be    DCD    1700929645
        0x000034dc:    2e6e6967    gin.    DCD    778987879
        0x000034e0:    000d2e2e    ....    DCD    863790
    $t.7
    read_uid
        0x000034e4:    b5b0        ..      PUSH     {r4,r5,r7,lr}
        0x000034e6:    a133        3.      ADR      r1,{pc}+0xce ; 0x35b4
        0x000034e8:    a237        7.      ADR      r2,{pc}+0xe0 ; 0x35c8
        0x000034ea:    2000        .       MOVS     r0,#0
        0x000034ec:    f7fefe0e    ....    BL       SEGGER_RTT_printf ; 0x210c
        0x000034f0:    f2410524    A.$.    MOV      r5,#0x1024
        0x000034f4:    f2c40502    ....    MOVT     r5,#0x4002
        0x000034f8:    f24374fe    C..t    MOV      r4,#0x37fe
        0x000034fc:    782a        *x      LDRB     r2,[r5,#0]
        0x000034fe:    f2c00400    ....    MOVT     r4,#0
        0x00003502:    2000        .       MOVS     r0,#0
        0x00003504:    4621        !F      MOV      r1,r4
        0x00003506:    f7fefe01    ....    BL       SEGGER_RTT_printf ; 0x210c
        0x0000350a:    786a        jx      LDRB     r2,[r5,#1]
        0x0000350c:    2000        .       MOVS     r0,#0
        0x0000350e:    4621        !F      MOV      r1,r4
        0x00003510:    f7fefdfc    ....    BL       SEGGER_RTT_printf ; 0x210c
        0x00003514:    78aa        .x      LDRB     r2,[r5,#2]
        0x00003516:    2000        .       MOVS     r0,#0
        0x00003518:    4621        !F      MOV      r1,r4
        0x0000351a:    f7fefdf7    ....    BL       SEGGER_RTT_printf ; 0x210c
        0x0000351e:    78ea        .x      LDRB     r2,[r5,#3]
        0x00003520:    2000        .       MOVS     r0,#0
        0x00003522:    4621        !F      MOV      r1,r4
        0x00003524:    f7fefdf2    ....    BL       SEGGER_RTT_printf ; 0x210c
        0x00003528:    792a        *y      LDRB     r2,[r5,#4]
        0x0000352a:    2000        .       MOVS     r0,#0
        0x0000352c:    4621        !F      MOV      r1,r4
        0x0000352e:    f7fefded    ....    BL       SEGGER_RTT_printf ; 0x210c
        0x00003532:    796a        jy      LDRB     r2,[r5,#5]
        0x00003534:    2000        .       MOVS     r0,#0
        0x00003536:    4621        !F      MOV      r1,r4
        0x00003538:    f7fefde8    ....    BL       SEGGER_RTT_printf ; 0x210c
        0x0000353c:    79aa        .y      LDRB     r2,[r5,#6]
        0x0000353e:    2000        .       MOVS     r0,#0
        0x00003540:    4621        !F      MOV      r1,r4
        0x00003542:    f7fefde3    ....    BL       SEGGER_RTT_printf ; 0x210c
        0x00003546:    79ea        .y      LDRB     r2,[r5,#7]
        0x00003548:    2000        .       MOVS     r0,#0
        0x0000354a:    4621        !F      MOV      r1,r4
        0x0000354c:    f7fefdde    ....    BL       SEGGER_RTT_printf ; 0x210c
        0x00003550:    7a2a        *z      LDRB     r2,[r5,#8]
        0x00003552:    2000        .       MOVS     r0,#0
        0x00003554:    4621        !F      MOV      r1,r4
        0x00003556:    f7fefdd9    ....    BL       SEGGER_RTT_printf ; 0x210c
        0x0000355a:    7a6a        jz      LDRB     r2,[r5,#9]
        0x0000355c:    2000        .       MOVS     r0,#0
        0x0000355e:    4621        !F      MOV      r1,r4
        0x00003560:    f7fefdd4    ....    BL       SEGGER_RTT_printf ; 0x210c
        0x00003564:    7aaa        .z      LDRB     r2,[r5,#0xa]
        0x00003566:    2000        .       MOVS     r0,#0
        0x00003568:    4621        !F      MOV      r1,r4
        0x0000356a:    f7fefdcf    ....    BL       SEGGER_RTT_printf ; 0x210c
        0x0000356e:    7aea        .z      LDRB     r2,[r5,#0xb]
        0x00003570:    2000        .       MOVS     r0,#0
        0x00003572:    4621        !F      MOV      r1,r4
        0x00003574:    f7fefdca    ....    BL       SEGGER_RTT_printf ; 0x210c
        0x00003578:    7b2a        *{      LDRB     r2,[r5,#0xc]
        0x0000357a:    2000        .       MOVS     r0,#0
        0x0000357c:    4621        !F      MOV      r1,r4
        0x0000357e:    f7fefdc5    ....    BL       SEGGER_RTT_printf ; 0x210c
        0x00003582:    7b6a        j{      LDRB     r2,[r5,#0xd]
        0x00003584:    2000        .       MOVS     r0,#0
        0x00003586:    4621        !F      MOV      r1,r4
        0x00003588:    f7fefdc0    ....    BL       SEGGER_RTT_printf ; 0x210c
        0x0000358c:    7baa        .{      LDRB     r2,[r5,#0xe]
        0x0000358e:    2000        .       MOVS     r0,#0
        0x00003590:    4621        !F      MOV      r1,r4
        0x00003592:    f7fefdbb    ....    BL       SEGGER_RTT_printf ; 0x210c
        0x00003596:    7bea        .{      LDRB     r2,[r5,#0xf]
        0x00003598:    2000        .       MOVS     r0,#0
        0x0000359a:    4621        !F      MOV      r1,r4
        0x0000359c:    f7fefdb6    ....    BL       SEGGER_RTT_printf ; 0x210c
        0x000035a0:    f6430219    C...    MOV      r2,#0x3819
        0x000035a4:    a10a        ..      ADR      r1,{pc}+0x2c ; 0x35d0
        0x000035a6:    f2c00200    ....    MOVT     r2,#0
        0x000035aa:    2000        .       MOVS     r0,#0
        0x000035ac:    e8bd40b0    ...@    POP      {r4,r5,r7,lr}
        0x000035b0:    f7febdac    ....    B        SEGGER_RTT_printf ; 0x210c
    $d.8
        0x000035b4:    636d7325    %smc    DCD    1668117285
        0x000035b8:    68632075    u ch    DCD    1751326837
        0x000035bc:    75207069    ip u    DCD    1965060201
        0x000035c0:    203a6469    id:     DCD    540697705
        0x000035c4:    00000a0d    ....    DCD    2573
        0x000035c8:    3b315b1b    .[1;    DCD    993090331
        0x000035cc:    006d3233    32m.    DCD    7156275
        0x000035d0:    0a0d7325    %s..    DCD    168653605
        0x000035d4:    00000000    ....    DCD    0
    $t
    OSKERNEL
    HardFault_Handler
        0x000035d8:    f01e0f04    ....    TST      lr,#4
        0x000035dc:    bf0c        ..      ITE      EQ
        0x000035de:    f3ef8008    ....    MRSEQ    r0,MSP
        0x000035e2:    f3ef8009    ....    MRSNE    r0,PSP
        0x000035e6:    f7febae9    ....    B        HardFaultHandler ; 0x1bbc
        0x000035ea:    0000        ..      MOVS     r0,r0
    i.__0printf$1
    __0printf$1
    __1printf$1
    __2printf
        0x000035ec:    b40f        ..      PUSH     {r0-r3}
        0x000035ee:    4b05        .K      LDR      r3,[pc,#20] ; [0x3604] = 0x31ad
        0x000035f0:    b510        ..      PUSH     {r4,lr}
        0x000035f2:    a903        ..      ADD      r1,sp,#0xc
        0x000035f4:    4a04        .J      LDR      r2,[pc,#16] ; [0x3608] = 0x20000000
        0x000035f6:    9802        ..      LDR      r0,[sp,#8]
        0x000035f8:    f000f818    ....    BL       _printf_core ; 0x362c
        0x000035fc:    bc10        ..      POP      {r4}
        0x000035fe:    f85dfb14    ]...    LDR      pc,[sp],#0x14
    $d
        0x00003602:    0000        ..      DCW    0
        0x00003604:    000031ad    .1..    DCD    12717
        0x00003608:    20000000    ...     DCD    536870912
    $t
    i.__scatterload_copy
    __scatterload_copy
        0x0000360c:    e002        ..      B        0x3614 ; __scatterload_copy + 8
        0x0000360e:    c808        ..      LDM      r0!,{r3}
        0x00003610:    1f12        ..      SUBS     r2,r2,#4
        0x00003612:    c108        ..      STM      r1!,{r3}
        0x00003614:    2a00        .*      CMP      r2,#0
        0x00003616:    d1fa        ..      BNE      0x360e ; __scatterload_copy + 2
        0x00003618:    4770        pG      BX       lr
    i.__scatterload_null
    __scatterload_null
        0x0000361a:    4770        pG      BX       lr
    i.__scatterload_zeroinit
    __scatterload_zeroinit
        0x0000361c:    2000        .       MOVS     r0,#0
        0x0000361e:    e001        ..      B        0x3624 ; __scatterload_zeroinit + 8
        0x00003620:    c101        ..      STM      r1!,{r0}
        0x00003622:    1f12        ..      SUBS     r2,r2,#4
        0x00003624:    2a00        .*      CMP      r2,#0
        0x00003626:    d1fb        ..      BNE      0x3620 ; __scatterload_zeroinit + 4
        0x00003628:    4770        pG      BX       lr
        0x0000362a:    0000        ..      MOVS     r0,r0
    i._printf_core
    _printf_core
        0x0000362c:    e92d4fff    -..O    PUSH     {r0-r11,lr}
        0x00003630:    b089        ..      SUB      sp,sp,#0x24
        0x00003632:    469b        .F      MOV      r11,r3
        0x00003634:    4604        .F      MOV      r4,r0
        0x00003636:    2500        .%      MOVS     r5,#0
        0x00003638:    e006        ..      B        0x3648 ; _printf_core + 28
        0x0000363a:    2825        %(      CMP      r0,#0x25
        0x0000363c:    d00b        ..      BEQ      0x3656 ; _printf_core + 42
        0x0000363e:    465a        ZF      MOV      r2,r11
        0x00003640:    990b        ..      LDR      r1,[sp,#0x2c]
        0x00003642:    4790        .G      BLX      r2
        0x00003644:    1c64        d.      ADDS     r4,r4,#1
        0x00003646:    1c6d        m.      ADDS     r5,r5,#1
        0x00003648:    7820         x      LDRB     r0,[r4,#0]
        0x0000364a:    2800        .(      CMP      r0,#0
        0x0000364c:    d1f5        ..      BNE      0x363a ; _printf_core + 14
        0x0000364e:    b00d        ..      ADD      sp,sp,#0x34
        0x00003650:    4628        (F      MOV      r0,r5
        0x00003652:    e8bd8ff0    ....    POP      {r4-r11,pc}
        0x00003656:    2700        .'      MOVS     r7,#0
        0x00003658:    46b8        .F      MOV      r8,r7
        0x0000365a:    2201        ."      MOVS     r2,#1
        0x0000365c:    4947        GI      LDR      r1,[pc,#284] ; [0x377c] = 0x12809
        0x0000365e:    e000        ..      B        0x3662 ; _printf_core + 54
        0x00003660:    4307        .C      ORRS     r7,r7,r0
        0x00003662:    f8143f01    ...?    LDRB     r3,[r4,#1]!
        0x00003666:    3b20         ;      SUBS     r3,r3,#0x20
        0x00003668:    fa02f003    ....    LSL      r0,r2,r3
        0x0000366c:    4208        .B      TST      r0,r1
        0x0000366e:    d1f7        ..      BNE      0x3660 ; _printf_core + 52
        0x00003670:    7820         x      LDRB     r0,[r4,#0]
        0x00003672:    282e        .(      CMP      r0,#0x2e
        0x00003674:    d119        ..      BNE      0x36aa ; _printf_core + 126
        0x00003676:    f8140f01    ....    LDRB     r0,[r4,#1]!
        0x0000367a:    f0470704    G...    ORR      r7,r7,#4
        0x0000367e:    282a        *(      CMP      r0,#0x2a
        0x00003680:    d00e        ..      BEQ      0x36a0 ; _printf_core + 116
        0x00003682:    f06f022f    o./.    MVN      r2,#0x2f
        0x00003686:    7820         x      LDRB     r0,[r4,#0]
        0x00003688:    f1a00130    ..0.    SUB      r1,r0,#0x30
        0x0000368c:    2909        .)      CMP      r1,#9
        0x0000368e:    d80c        ..      BHI      0x36aa ; _printf_core + 126
        0x00003690:    eb080188    ....    ADD      r1,r8,r8,LSL #2
        0x00003694:    eb020141    ..A.    ADD      r1,r2,r1,LSL #1
        0x00003698:    eb000801    ....    ADD      r8,r0,r1
        0x0000369c:    1c64        d.      ADDS     r4,r4,#1
        0x0000369e:    e7f2        ..      B        0x3686 ; _printf_core + 90
        0x000036a0:    980a        ..      LDR      r0,[sp,#0x28]
        0x000036a2:    1c64        d.      ADDS     r4,r4,#1
        0x000036a4:    f8508b04    P...    LDR      r8,[r0],#4
        0x000036a8:    900a        ..      STR      r0,[sp,#0x28]
        0x000036aa:    7820         x      LDRB     r0,[r4,#0]
        0x000036ac:    2800        .(      CMP      r0,#0
        0x000036ae:    d0ce        ..      BEQ      0x364e ; _printf_core + 34
        0x000036b0:    2864        d(      CMP      r0,#0x64
        0x000036b2:    d008        ..      BEQ      0x36c6 ; _printf_core + 154
        0x000036b4:    2869        i(      CMP      r0,#0x69
        0x000036b6:    d006        ..      BEQ      0x36c6 ; _printf_core + 154
        0x000036b8:    2875        u(      CMP      r0,#0x75
        0x000036ba:    d01e        ..      BEQ      0x36fa ; _printf_core + 206
        0x000036bc:    465a        ZF      MOV      r2,r11
        0x000036be:    990b        ..      LDR      r1,[sp,#0x2c]
        0x000036c0:    4790        .G      BLX      r2
        0x000036c2:    1c6d        m.      ADDS     r5,r5,#1
        0x000036c4:    e058        X.      B        0x3778 ; _printf_core + 332
        0x000036c6:    990a        ..      LDR      r1,[sp,#0x28]
        0x000036c8:    f04f090a    O...    MOV      r9,#0xa
        0x000036cc:    c901        ..      LDM      r1!,{r0}
        0x000036ce:    910a        ..      STR      r1,[sp,#0x28]
        0x000036d0:    2800        .(      CMP      r0,#0
        0x000036d2:    da02        ..      BGE      0x36da ; _printf_core + 174
        0x000036d4:    4240        @B      RSBS     r0,r0,#0
        0x000036d6:    212d        -!      MOVS     r1,#0x2d
        0x000036d8:    e002        ..      B        0x36e0 ; _printf_core + 180
        0x000036da:    0539        9.      LSLS     r1,r7,#20
        0x000036dc:    d504        ..      BPL      0x36e8 ; _printf_core + 188
        0x000036de:    212b        +!      MOVS     r1,#0x2b
        0x000036e0:    f88d1020    .. .    STRB     r1,[sp,#0x20]
        0x000036e4:    2101        .!      MOVS     r1,#1
        0x000036e6:    e003        ..      B        0x36f0 ; _printf_core + 196
        0x000036e8:    07f9        ..      LSLS     r1,r7,#31
        0x000036ea:    d004        ..      BEQ      0x36f6 ; _printf_core + 202
        0x000036ec:    2120         !      MOVS     r1,#0x20
        0x000036ee:    e7f7        ..      B        0x36e0 ; _printf_core + 180
        0x000036f0:    468a        .F      MOV      r10,r1
        0x000036f2:    ae08        ..      ADD      r6,sp,#0x20
        0x000036f4:    e00d        ..      B        0x3712 ; _printf_core + 230
        0x000036f6:    2100        .!      MOVS     r1,#0
        0x000036f8:    e7fa        ..      B        0x36f0 ; _printf_core + 196
        0x000036fa:    990a        ..      LDR      r1,[sp,#0x28]
        0x000036fc:    f04f090a    O...    MOV      r9,#0xa
        0x00003700:    c901        ..      LDM      r1!,{r0}
        0x00003702:    910a        ..      STR      r1,[sp,#0x28]
        0x00003704:    e7f7        ..      B        0x36f6 ; _printf_core + 202
        0x00003706:    4649        IF      MOV      r1,r9
        0x00003708:    f7fef928    ..(.    BL       __aeabi_uidiv ; 0x195c
        0x0000370c:    3130        01      ADDS     r1,r1,#0x30
        0x0000370e:    f8061d01    ....    STRB     r1,[r6,#-1]!
        0x00003712:    2800        .(      CMP      r0,#0
        0x00003714:    d1f7        ..      BNE      0x3706 ; _printf_core + 218
        0x00003716:    ebad0006    ....    SUB      r0,sp,r6
        0x0000371a:    f1000920    .. .    ADD      r9,r0,#0x20
        0x0000371e:    0778        x.      LSLS     r0,r7,#29
        0x00003720:    d401        ..      BMI      0x3726 ; _printf_core + 250
        0x00003722:    f04f0801    O...    MOV      r8,#1
        0x00003726:    45c8        .E      CMP      r8,r9
        0x00003728:    dd02        ..      BLE      0x3730 ; _printf_core + 260
        0x0000372a:    eba80009    ....    SUB      r0,r8,r9
        0x0000372e:    e000        ..      B        0x3732 ; _printf_core + 262
        0x00003730:    2000        .       MOVS     r0,#0
        0x00003732:    4680        .F      MOV      r8,r0
        0x00003734:    2700        .'      MOVS     r7,#0
        0x00003736:    e006        ..      B        0x3746 ; _printf_core + 282
        0x00003738:    a808        ..      ADD      r0,sp,#0x20
        0x0000373a:    465a        ZF      MOV      r2,r11
        0x0000373c:    5dc0        .]      LDRB     r0,[r0,r7]
        0x0000373e:    990b        ..      LDR      r1,[sp,#0x2c]
        0x00003740:    4790        .G      BLX      r2
        0x00003742:    1c6d        m.      ADDS     r5,r5,#1
        0x00003744:    1c7f        ..      ADDS     r7,r7,#1
        0x00003746:    4557        WE      CMP      r7,r10
        0x00003748:    dbf6        ..      BLT      0x3738 ; _printf_core + 268
        0x0000374a:    e004        ..      B        0x3756 ; _printf_core + 298
        0x0000374c:    2030        0       MOVS     r0,#0x30
        0x0000374e:    465a        ZF      MOV      r2,r11
        0x00003750:    990b        ..      LDR      r1,[sp,#0x2c]
        0x00003752:    4790        .G      BLX      r2
        0x00003754:    1c6d        m.      ADDS     r5,r5,#1
        0x00003756:    f1b80100    ....    SUBS     r1,r8,#0
        0x0000375a:    f1a80801    ....    SUB      r8,r8,#1
        0x0000375e:    dcf5        ..      BGT      0x374c ; _printf_core + 288
        0x00003760:    e005        ..      B        0x376e ; _printf_core + 322
        0x00003762:    f8160b01    ....    LDRB     r0,[r6],#1
        0x00003766:    465a        ZF      MOV      r2,r11
        0x00003768:    990b        ..      LDR      r1,[sp,#0x2c]
        0x0000376a:    4790        .G      BLX      r2
        0x0000376c:    1c6d        m.      ADDS     r5,r5,#1
        0x0000376e:    f1b90100    ....    SUBS     r1,r9,#0
        0x00003772:    f1a90901    ....    SUB      r9,r9,#1
        0x00003776:    dcf4        ..      BGT      0x3762 ; _printf_core + 310
        0x00003778:    1c64        d.      ADDS     r4,r4,#1
        0x0000377a:    e765        e.      B        0x3648 ; _printf_core + 28
    $d
        0x0000377c:    00012809    .(..    DCD    75785
    $t
    i.puts
    puts
        0x00003780:    b510        ..      PUSH     {r4,lr}
        0x00003782:    4604        .F      MOV      r4,r0
        0x00003784:    e001        ..      B        0x378a ; puts + 10
        0x00003786:    f7fffd11    ....    BL       fputc ; 0x31ac
        0x0000378a:    f8140b01    ....    LDRB     r0,[r4],#1
        0x0000378e:    4904        .I      LDR      r1,[pc,#16] ; [0x37a0] = 0x20000000
        0x00003790:    2800        .(      CMP      r0,#0
        0x00003792:    d1f8        ..      BNE      0x3786 ; puts + 6
        0x00003794:    e8bd4010    ...@    POP      {r4,lr}
        0x00003798:    200a        .       MOVS     r0,#0xa
        0x0000379a:    f7ffbd07    ....    B.W      fputc ; 0x31ac
    $d
        0x0000379e:    0000        ..      DCW    0
        0x000037a0:    20000000    ...     DCD    536870912
    $d.realdata
    .L.str
        0x000037a4:    20656874    the     DCD    543516788
        0x000037a8:    70206425    %d p    DCD    1881170981
        0x000037ac:    746e696f    oint    DCD    1953393007
        0x000037b0:    66662073    s ff    DCD    1717969011
        0x000037b4:    73692074    t is    DCD    1936269428
        0x000037b8:    65737520     use    DCD    1702065440
        0x000037bc:    20642520     %d     DCD    543434016
        0x000037c0:    0a0d736d    ms..    DCD    168653677
        0x000037c4:    00          .       DCB    0
    .L.str.3
        0x000037c5:    636f6d      com     DCB    99,111,109
        0x000037c8:    656c6970    pile    DCD    1701603696
        0x000037cc:    69742064    d ti    DCD    1769218148
        0x000037d0:    203a656d    me:     DCD    540697965
        0x000037d4:    25207325    %s %    DCD    622883621
        0x000037d8:    000a0d73    s...    DCD    658803
    .L.str
        0x000037dc:    434d7325    %sMC    DCD    1129149221
        0x000037e0:    48432055    U CH    DCD    1212358741
        0x000037e4:    203a5049    IP:     DCD    540692553
        0x000037e8:    32335450    PT32    DCD    842224720
        0x000037ec:    3239315a    Z192    DCD    842608986
        0x000037f0:    4d575020     PWM    DCD    1297567776
        0x000037f4:    4d454420     DEM    DCD    1296385056
        0x000037f8:    0d73254f    O%s.    DCD    225649999
        0x000037fc:    000a        ..      DCW    10
    .L.str.8
        0x000037fe:    3025        %0      DCW    12325
        0x00003800:    00205832    2X .    DCD    2119730
    .L.str.4
        0x00003804:    20626546    Feb     DCD    543319366
        0x00003808:    32203731    17 2    DCD    840972081
        0x0000380c:    00323230    022.    DCD    3289648
    .L.str.5
        0x00003810:    303a3431    14:0    DCD    809120817
        0x00003814:    38333a36    6:38    DCD    942881334
        0x00003818:    00          .       DCB    0
    .L.str.2
        0x00003819:    1b5b30      .[0     DCB    27,91,48
        0x0000381c:    006d        m.      DCW    109
    .L.str.1
        0x0000381e:    5b1b        .[      DCW    23323
        0x00003820:    31343b34    4;41    DCD    825506612
        0x00003824:    006d        m.      DCW    109
    .L.str
        0x00003826:    6554        Te      DCW    25940
        0x00003828:    6e696d72    rmin    DCD    1852403058
        0x0000382c:    00006c61    al..    DCD    27745
    Region$$Table$$Base
        0x00003830:    00003850    P8..    DCD    14416
        0x00003834:    20000000    ...     DCD    536870912
        0x00003838:    00000010    ....    DCD    16
        0x0000383c:    0000360c    .6..    DCD    13836
        0x00003840:    00003860    `8..    DCD    14432
        0x00003844:    20000010    ...     DCD    536870928
        0x00003848:    00009d10    ....    DCD    40208
        0x0000384c:    0000361c    .6..    DCD    13852
    Region$$Table$$Limit

** Section #2 'RW_IRAM1' (SHT_PROGBITS) [SHF_ALLOC + SHF_WRITE]
    Size   : 16 bytes (alignment 8)
    Address: 0x20000000


** Section #3 'RW_IRAM1' (SHT_NOBITS) [SHF_ALLOC + SHF_WRITE]
    Size   : 40208 bytes (alignment 8)
    Address: 0x20000010


** Section #4 '.debug_abbrev' (SHT_PROGBITS)
    Size   : 5214 bytes


** Section #5 '.debug_frame' (SHT_PROGBITS)
    Size   : 4628 bytes


** Section #6 '.debug_info' (SHT_PROGBITS)
    Size   : 29133 bytes


** Section #7 '.debug_line' (SHT_PROGBITS)
    Size   : 18791 bytes


** Section #8 '.debug_loc' (SHT_PROGBITS)
    Size   : 25180 bytes


** Section #9 '.debug_str' (SHT_PROGBITS)
    Size   : 14380 bytes


** Section #10 '.debug_ranges' (SHT_PROGBITS)
    Size   : 3096 bytes


** Section #11 '.symtab' (SHT_SYMTAB)
    Size   : 5248 bytes (alignment 4)
    String table #12 '.strtab'
    Last local symbol no. 170


** Section #12 '.strtab' (SHT_STRTAB)
    Size   : 4112 bytes


** Section #13 '.note' (SHT_NOTE)
    Size   : 28 bytes (alignment 4)


** Section #14 '.comment' (SHT_PROGBITS)
    Size   : 1828 bytes


** Section #15 '.shstrtab' (SHT_STRTAB)
    Size   : 148 bytes


