Component: ARM Compiler 6.14.1 Tool: armlink [5db06d00]

==============================================================================

Image Symbol Table

    Local Symbols

    Symbol Name                              Value     Ov Type        Size  Object(Section)

    ../clib/microlib/division.c              0x00000000   Number         0  uldiv.o ABSOLUTE
    ../clib/microlib/division.c              0x00000000   Number         0  uidiv.o ABSOLUTE
    ../clib/microlib/init/entry.s            0x00000000   Number         0  entry.o ABSOLUTE
    ../clib/microlib/init/entry.s            0x00000000   Number         0  entry2.o ABSOLUTE
    ../clib/microlib/init/entry.s            0x00000000   Number         0  entry5.o ABSOLUTE
    ../clib/microlib/init/entry.s            0x00000000   Number         0  entry7a.o ABSOLUTE
    ../clib/microlib/init/entry.s            0x00000000   Number         0  entry7b.o ABSOLUTE
    ../clib/microlib/init/entry.s            0x00000000   Number         0  entry8a.o ABSOLUTE
    ../clib/microlib/init/entry.s            0x00000000   Number         0  entry8b.o ABSOLUTE
    ../clib/microlib/init/entry.s            0x00000000   Number         0  entry9a.o ABSOLUTE
    ../clib/microlib/init/entry.s            0x00000000   Number         0  entry9b.o ABSOLUTE
    ../clib/microlib/init/entry.s            0x00000000   Number         0  entry10a.o ABSOLUTE
    ../clib/microlib/init/entry.s            0x00000000   Number         0  entry10b.o ABSOLUTE
    ../clib/microlib/init/entry.s            0x00000000   Number         0  entry11a.o ABSOLUTE
    ../clib/microlib/init/entry.s            0x00000000   Number         0  entry11b.o ABSOLUTE
    ../clib/microlib/longlong.c              0x00000000   Number         0  llshl.o ABSOLUTE
    ../clib/microlib/longlong.c              0x00000000   Number         0  llushr.o ABSOLUTE
    ../clib/microlib/longlong.c              0x00000000   Number         0  llsshr.o ABSOLUTE
    ../clib/microlib/printf/printf.c         0x00000000   Number         0  printfb.o ABSOLUTE
    ../clib/microlib/printf/printf.c         0x00000000   Number         0  printf0.o ABSOLUTE
    ../clib/microlib/printf/printf.c         0x00000000   Number         0  printf1.o ABSOLUTE
    ../clib/microlib/printf/printf.c         0x00000000   Number         0  printf2.o ABSOLUTE
    ../clib/microlib/printf/printf.c         0x00000000   Number         0  printf3.o ABSOLUTE
    ../clib/microlib/printf/printf.c         0x00000000   Number         0  printf4.o ABSOLUTE
    ../clib/microlib/printf/printf.c         0x00000000   Number         0  printf5.o ABSOLUTE
    ../clib/microlib/printf/printf.c         0x00000000   Number         0  printf6.o ABSOLUTE
    ../clib/microlib/printf/printf.c         0x00000000   Number         0  printf7.o ABSOLUTE
    ../clib/microlib/printf/printf.c         0x00000000   Number         0  printf8.o ABSOLUTE
    ../clib/microlib/printf/printf.c         0x00000000   Number         0  printfa.o ABSOLUTE
    ../clib/microlib/printf/stubs.s          0x00000000   Number         0  printfstubs.o ABSOLUTE
    ../clib/microlib/stdio/puts.c            0x00000000   Number         0  puts.o ABSOLUTE
    ../clib/microlib/stdio/puts.c            0x00000000   Number         0  puts_e.o ABSOLUTE
    ../clib/microlib/stdio/streams.c         0x00000000   Number         0  stdout.o ABSOLUTE
    ../clib/microlib/string/memcpy.c         0x00000000   Number         0  memcpya.o ABSOLUTE
    ../clib/microlib/string/memcpy.c         0x00000000   Number         0  memcpyb.o ABSOLUTE
    ../clib/microlib/string/memset.c         0x00000000   Number         0  memseta.o ABSOLUTE
    ../clib/microlib/string/strlen.c         0x00000000   Number         0  strlen.o ABSOLUTE
    ../clib/microlib/stubs.s                 0x00000000   Number         0  iusefp.o ABSOLUTE
    ../common/Startup_ACM32F4.s              0x00000000   Number         0  startup_acm32f4.o ABSOLUTE
    ../fplib/microlib/fpadd.c                0x00000000   Number         0  dadd.o ABSOLUTE
    ../fplib/microlib/fpdiv.c                0x00000000   Number         0  ddiv.o ABSOLUTE
    ../fplib/microlib/fpepilogue.c           0x00000000   Number         0  depilogue.o ABSOLUTE
    ../fplib/microlib/fpfix.c                0x00000000   Number         0  dfixul.o ABSOLUTE
    ../fplib/microlib/fpmul.c                0x00000000   Number         0  dmul.o ABSOLUTE
    ..\application\HardFaultHandlerMDK\HardFaultHandler.S 0x00000000   Number         0  hardfaulthandler.o ABSOLUTE
    HAL_ADC.c                                0x00000000   Number         0  hal_adc.o ABSOLUTE
    HAL_CAN.c                                0x00000000   Number         0  hal_can.o ABSOLUTE
    HAL_COMP.c                               0x00000000   Number         0  hal_comp.o ABSOLUTE
    HAL_CRC.c                                0x00000000   Number         0  hal_crc.o ABSOLUTE
    HAL_DAC.c                                0x00000000   Number         0  hal_dac.o ABSOLUTE
    HAL_DMA.c                                0x00000000   Number         0  hal_dma.o ABSOLUTE
    HAL_EFlash.c                             0x00000000   Number         0  hal_eflash.o ABSOLUTE
    HAL_EFlash_Ex.c                          0x00000000   Number         0  hal_eflash_ex.o ABSOLUTE
    HAL_EXTI.c                               0x00000000   Number         0  hal_exti.o ABSOLUTE
    HAL_FSUSB.c                              0x00000000   Number         0  hal_fsusb.o ABSOLUTE
    HAL_GPIO.c                               0x00000000   Number         0  hal_gpio.o ABSOLUTE
    HAL_I2C.c                                0x00000000   Number         0  hal_i2c.o ABSOLUTE
    HAL_I2S.c                                0x00000000   Number         0  hal_i2s.o ABSOLUTE
    HAL_IWDT.c                               0x00000000   Number         0  hal_iwdt.o ABSOLUTE
    HAL_LPUART.c                             0x00000000   Number         0  hal_lpuart.o ABSOLUTE
    HAL_OPA.c                                0x00000000   Number         0  hal_opa.o ABSOLUTE
    HAL_RTC.c                                0x00000000   Number         0  hal_rtc.o ABSOLUTE
    HAL_SPI.c                                0x00000000   Number         0  hal_spi.o ABSOLUTE
    HAL_TIMER.c                              0x00000000   Number         0  hal_timer.o ABSOLUTE
    HAL_TIMER_EX.c                           0x00000000   Number         0  hal_timer_ex.o ABSOLUTE
    HAL_UART.c                               0x00000000   Number         0  hal_uart.o ABSOLUTE
    HAL_UART_EX.c                            0x00000000   Number         0  hal_uart_ex.o ABSOLUTE
    HAL_WDT.c                                0x00000000   Number         0  hal_wdt.o ABSOLUTE
    SEGGER_HardFaultHandler.c                0x00000000   Number         0  segger_hardfaulthandler.o ABSOLUTE
    SEGGER_RTT.c                             0x00000000   Number         0  segger_rtt.o ABSOLUTE
    SEGGER_RTT_printf.c                      0x00000000   Number         0  segger_rtt_printf.o ABSOLUTE
    System_ACM32F4.c                         0x00000000   Number         0  system_acm32f4.o ABSOLUTE
    System_Accelerate.c                      0x00000000   Number         0  system_accelerate.o ABSOLUTE
    app.c                                    0x00000000   Number         0  app.o ABSOLUTE
    cdrcmple.s                               0x00000000   Number         0  cdrcmple.o ABSOLUTE
    dc.s                                     0x00000000   Number         0  dc.o ABSOLUTE
    handlers.s                               0x00000000   Number         0  handlers.o ABSOLUTE
    init.s                                   0x00000000   Number         0  init.o ABSOLUTE
    main.c                                   0x00000000   Number         0  main.o ABSOLUTE
    RESET                                    0x20000000   Section      228  startup_acm32f4.o(RESET)
    .ARM.Collect$$$$00000000                 0x200000e4   Section        0  entry.o(.ARM.Collect$$$$00000000)
    .ARM.Collect$$$$00000001                 0x200000e4   Section        4  entry2.o(.ARM.Collect$$$$00000001)
    .ARM.Collect$$$$00000004                 0x200000e8   Section        4  entry5.o(.ARM.Collect$$$$00000004)
    .ARM.Collect$$$$00000008                 0x200000ec   Section        0  entry7b.o(.ARM.Collect$$$$00000008)
    .ARM.Collect$$$$0000000A                 0x200000ec   Section        0  entry8b.o(.ARM.Collect$$$$0000000A)
    .ARM.Collect$$$$0000000B                 0x200000ec   Section        8  entry9a.o(.ARM.Collect$$$$0000000B)
    __lit__00000000                          0x200000f4   Data           4  entry2.o(.ARM.Collect$$$$00002712)
    .ARM.Collect$$$$0000000D                 0x200000f4   Section        0  entry10a.o(.ARM.Collect$$$$0000000D)
    .ARM.Collect$$$$0000000F                 0x200000f4   Section        0  entry11a.o(.ARM.Collect$$$$0000000F)
    .ARM.Collect$$$$00002712                 0x200000f4   Section        4  entry2.o(.ARM.Collect$$$$00002712)
    $v0                                      0x200000f8   Number         0  startup_acm32f4.o(.text)
    .text                                    0x200000f8   Section       36  startup_acm32f4.o(.text)
    .text                                    0x2000011c   Section        0  uldiv.o(.text)
    .text                                    0x2000017e   Section        0  memcpya.o(.text)
    .text                                    0x200001a2   Section        0  memseta.o(.text)
    .text                                    0x200001c6   Section        0  llshl.o(.text)
    .text                                    0x200001e4   Section        0  llushr.o(.text)
    .text                                    0x20000204   Section       36  init.o(.text)
    [Anonymous Symbol]                       0x20000228   Section        0  main.o(.text.ADC_GetVrefP)
    [Anonymous Symbol]                       0x20000320   Section        0  main.o(.text.ADC_IRQHandler)
    [Anonymous Symbol]                       0x20000340   Section        0  main.o(.text.DMA_IRQHandler)
    [Anonymous Symbol]                       0x20000350   Section        0  main.o(.text.GPIOAB_IRQHandler)
    [Anonymous Symbol]                       0x20000378   Section        0  hal_adc.o(.text.HAL_ADC_ConfigChannel)
    [Anonymous Symbol]                       0x2000053c   Section        0  hal_adc.o(.text.HAL_ADC_IRQHandler)
    [Anonymous Symbol]                       0x20000618   Section        0  hal_adc.o(.text.HAL_ADC_Init)
    [Anonymous Symbol]                       0x20000738   Section        0  hal_adc.o(.text.HAL_ADC_MspInit)
    [Anonymous Symbol]                       0x2000079c   Section        0  hal_adc.o(.text.HAL_ADC_Polling)
    [Anonymous Symbol]                       0x20000914   Section        0  hal_adc.o(.text.HAL_ADC_Start)
    [Anonymous Symbol]                       0x20000978   Section        0  hal_adc.o(.text.HAL_ADC_Start_DMA)
    [Anonymous Symbol]                       0x200009fc   Section        0  hal_adc.o(.text.HAL_ADC_Stop_DMA)
    [Anonymous Symbol]                       0x20000a90   Section        0  hal_dma.o(.text.HAL_DMA_Abort)
    [Anonymous Symbol]                       0x20000ad0   Section        0  hal_dma.o(.text.HAL_DMA_IRQHandler)
    [Anonymous Symbol]                       0x20000b28   Section        0  hal_dma.o(.text.HAL_DMA_Init)
    [Anonymous Symbol]                       0x20000bf0   Section        0  hal_dma.o(.text.HAL_DMA_Start_IT)
    [Anonymous Symbol]                       0x20000c7c   Section        0  hal_eflash.o(.text.HAL_EFlash_Init)
    [Anonymous Symbol]                       0x20000c80   Section        0  hal_eflash_ex.o(.text.HAL_EFlash_Init_Para)
    [Anonymous Symbol]                       0x20000d9c   Section        0  hal_gpio.o(.text.HAL_GPIO_IRQHandler)
    [Anonymous Symbol]                       0x20000ddc   Section        0  hal_gpio.o(.text.HAL_GPIO_Init)
    [Anonymous Symbol]                       0x20001144   Section        0  hal_gpio.o(.text.HAL_GPIO_WritePin)
    [Anonymous Symbol]                       0x200011b0   Section        0  hal_uart.o(.text.HAL_UART_Init)
    [Anonymous Symbol]                       0x2000133c   Section        0  hal_uart.o(.text.HAL_UART_MspInit)
    [Anonymous Symbol]                       0x200013c0   Section        0  hal_uart.o(.text.HAL_UART_Transmit)
    [Anonymous Symbol]                       0x20001634   Section        0  hal_eflash_ex.o(.text.HAL_Verify_Chip)
    [Anonymous Symbol]                       0x20001648   Section        0  segger_hardfaulthandler.o(.text.HardFaultHandler)
    [Anonymous Symbol]                       0x200016f0   Section        0  segger_rtt.o(.text.SEGGER_RTT_Init)
    [Anonymous Symbol]                       0x2000176c   Section        0  segger_rtt.o(.text.SEGGER_RTT_Write)
    [Anonymous Symbol]                       0x2000182c   Section        0  segger_rtt.o(.text.SEGGER_RTT_WriteNoLock)
    [Anonymous Symbol]                       0x200019bc   Section        0  segger_rtt_printf.o(.text.SEGGER_RTT_printf)
    [Anonymous Symbol]                       0x200019dc   Section        0  segger_rtt_printf.o(.text.SEGGER_RTT_vprintf)
    [Anonymous Symbol]                       0x20001fc0   Section        0  system_acm32f4.o(.text.Set_Pll_Div)
    [Anonymous Symbol]                       0x200021c8   Section        0  main.o(.text.SysTick_Handler)
    [Anonymous Symbol]                       0x200021d8   Section        0  system_acm32f4.o(.text.System_Clock_Init)
    [Anonymous Symbol]                       0x20002354   Section        0  system_acm32f4.o(.text.System_Core_Config)
    [Anonymous Symbol]                       0x20002368   Section        0  system_acm32f4.o(.text.System_Delay)
    [Anonymous Symbol]                       0x20002394   Section        0  system_acm32f4.o(.text.System_Delay_MS)
    [Anonymous Symbol]                       0x200023d0   Section        0  system_accelerate.o(.text.System_EnableIAccelerate)
    [Anonymous Symbol]                       0x20002408   Section        0  system_acm32f4.o(.text.System_Get_APBClock)
    [Anonymous Symbol]                       0x20002414   Section        0  system_acm32f4.o(.text.System_Get_Clk_Source)
    [Anonymous Symbol]                       0x20002420   Section        0  system_acm32f4.o(.text.System_Get_SystemClock)
    [Anonymous Symbol]                       0x2000242c   Section        0  system_acm32f4.o(.text.System_Init)
    [Anonymous Symbol]                       0x200024b8   Section        0  system_acm32f4.o(.text.System_Module_Enable)
    [Anonymous Symbol]                       0x20002510   Section        0  system_acm32f4.o(.text.System_SysTick_Init)
    [Anonymous Symbol]                       0x20002558   Section        0  main.o(.text.UART1_IRQHandler)
    _PrintUnsigned                           0x20002591   Thumb Code   436  segger_rtt_printf.o(.text._PrintUnsigned)
    [Anonymous Symbol]                       0x20002590   Section        0  segger_rtt_printf.o(.text._PrintUnsigned)
    _PrintUnsigned._aV2C                     0x20002734   Number         0  segger_rtt_printf.o(.text._PrintUnsigned)
    [Anonymous Symbol]                       0x20002744   Section        0  app.o(.text.app)
    [Anonymous Symbol]                       0x20002748   Section        0  hal_uart.o(.text.fputc)
    [Anonymous Symbol]                       0x20002780   Section        0  main.o(.text.main)
    $v0                                      0x20002a70   Number         0  hardfaulthandler.o(OSKERNEL)
    OSKERNEL                                 0x20002a70   Section       18  hardfaulthandler.o(OSKERNEL)
    i.__0printf$8                            0x20002a84   Section        0  printf8.o(i.__0printf$8)
    i.__scatterload_copy                     0x20002aa4   Section       14  handlers.o(i.__scatterload_copy)
    i.__scatterload_null                     0x20002ab2   Section        2  handlers.o(i.__scatterload_null)
    i.__scatterload_zeroinit                 0x20002ab4   Section       14  handlers.o(i.__scatterload_zeroinit)
    _printf_core                             0x20002ac5   Thumb Code   996  printf8.o(i._printf_core)
    i._printf_core                           0x20002ac4   Section        0  printf8.o(i._printf_core)
    _printf_post_padding                     0x20002ed5   Thumb Code    36  printf8.o(i._printf_post_padding)
    i._printf_post_padding                   0x20002ed4   Section        0  printf8.o(i._printf_post_padding)
    _printf_pre_padding                      0x20002ef9   Thumb Code    46  printf8.o(i._printf_pre_padding)
    i._printf_pre_padding                    0x20002ef8   Section        0  printf8.o(i._printf_pre_padding)
    i.puts                                   0x20002f28   Section        0  puts.o(i.puts)
    .L__const.HAL_ADC_MspInit.ADC_Pin_Map    0x20002f4c   Data         204  hal_adc.o(.rodata..L__const.HAL_ADC_MspInit.ADC_Pin_Map)
    .L.str.11                                0x200030a4   Data          25  main.o(.rodata.str1.1)
    [Anonymous Symbol]                       0x200030a4   Section        0  main.o(.rodata.str1.1)
    .L.str.12                                0x200030bd   Data          16  main.o(.rodata.str1.1)
    .L.str.3                                 0x200030cd   Data          23  main.o(.rodata.str1.1)
    .L.str                                   0x200030e4   Data          35  main.o(.rodata.str1.1)
    .L.str.6                                 0x20003107   Data          38  main.o(.rodata.str1.1)
    .L.str.4                                 0x2000312d   Data          12  main.o(.rodata.str1.1)
    .L.str.5                                 0x20003139   Data           9  main.o(.rodata.str1.1)
    .L.str.2                                 0x20003142   Data           5  main.o(.rodata.str1.1)
    .L.str.1                                 0x20003147   Data           8  main.o(.rodata.str1.1)
    .L.str                                   0x2000314f   Data           9  segger_rtt.o(.rodata.str1.1)
    [Anonymous Symbol]                       0x2000314f   Section        0  segger_rtt.o(.rodata.str1.1)
    .data                                    0x20010000   Section        4  stdout.o(.data)
    .L_MergedGlobals                         0x20010008   Data         116  main.o(.bss..L_MergedGlobals)
    [Anonymous Symbol]                       0x20010008   Section        0  main.o(.bss..L_MergedGlobals)
    Dma_Adc_Handle                           0x2001000c   Data          40  main.o(.bss..L_MergedGlobals)
    .L_MergedGlobals                         0x2001007c   Data          16  system_acm32f4.o(.bss..L_MergedGlobals)
    [Anonymous Symbol]                       0x2001007c   Section        0  system_acm32f4.o(.bss..L_MergedGlobals)
    .L_MergedGlobals                         0x2001008c   Data          68  segger_hardfaulthandler.o(.bss..L_MergedGlobals)
    _Continue                                0x2001008c   Data           4  segger_hardfaulthandler.o(.bss..L_MergedGlobals)
    [Anonymous Symbol]                       0x2001008c   Section        0  segger_hardfaulthandler.o(.bss..L_MergedGlobals)
    HardFaultRegs                            0x20010090   Data          64  segger_hardfaulthandler.o(.bss..L_MergedGlobals)
    .L_MergedGlobals                         0x200100d0   Data          17  segger_rtt.o(.bss..L_MergedGlobals)
    _ActiveTerminal                          0x200100d0   Data           1  segger_rtt.o(.bss..L_MergedGlobals)
    [Anonymous Symbol]                       0x200100d0   Section        0  segger_rtt.o(.bss..L_MergedGlobals)
    _acDownBuffer                            0x200100d1   Data          16  segger_rtt.o(.bss..L_MergedGlobals)
    Cycle_Channel                            0x2001013c   Data         128  hal_dma.o(.bss.Cycle_Channel)
    [Anonymous Symbol]                       0x2001013c   Section        0  hal_dma.o(.bss.Cycle_Channel)
    _acUpBuffer                              0x20010268   Data        1024  segger_rtt.o(.bss._acUpBuffer)
    [Anonymous Symbol]                       0x20010268   Section        0  segger_rtt.o(.bss._acUpBuffer)
    STACK                                    0x200106c0   Section     2048  startup_acm32f4.o(STACK)

    Global Symbols

    Symbol Name                              Value     Ov Type        Size  Object(Section)

    BuildAttributes$$THM_ISAv4$E$P$D$K$B$S$7EM$8M$VFPi5$EXTD16$VFPS$VFMA$PE$A:L22UL41UL21$X:L11$S22US41US21$IEEE1$IW$~IW$USESV6$~STKCKD$USESV7$~SHL$OTIME$ROPI$EBA8$MICROLIB$REQ8$PRES8$EABIv2 0x00000000   Number         0  anon$$obj.o ABSOLUTE
    _printf_a                                0x00000000   Number         0  printfstubs.o ABSOLUTE
    _printf_c                                0x00000000   Number         0  printfstubs.o ABSOLUTE
    _printf_charcount                        0x00000000   Number         0  printfstubs.o ABSOLUTE
    _printf_d                                0x00000000   Number         0  printfstubs.o ABSOLUTE
    _printf_e                                0x00000000   Number         0  printfstubs.o ABSOLUTE
    _printf_f                                0x00000000   Number         0  printfstubs.o ABSOLUTE
    _printf_flags                            0x00000000   Number         0  printfstubs.o ABSOLUTE
    _printf_fp_dec                           0x00000000   Number         0  printfstubs.o ABSOLUTE
    _printf_fp_hex                           0x00000000   Number         0  printfstubs.o ABSOLUTE
    _printf_g                                0x00000000   Number         0  printfstubs.o ABSOLUTE
    _printf_i                                0x00000000   Number         0  printfstubs.o ABSOLUTE
    _printf_int_dec                          0x00000000   Number         0  printfstubs.o ABSOLUTE
    _printf_l                                0x00000000   Number         0  printfstubs.o ABSOLUTE
    _printf_lc                               0x00000000   Number         0  printfstubs.o ABSOLUTE
    _printf_ll                               0x00000000   Number         0  printfstubs.o ABSOLUTE
    _printf_lld                              0x00000000   Number         0  printfstubs.o ABSOLUTE
    _printf_lli                              0x00000000   Number         0  printfstubs.o ABSOLUTE
    _printf_llo                              0x00000000   Number         0  printfstubs.o ABSOLUTE
    _printf_llu                              0x00000000   Number         0  printfstubs.o ABSOLUTE
    _printf_llx                              0x00000000   Number         0  printfstubs.o ABSOLUTE
    _printf_longlong_dec                     0x00000000   Number         0  printfstubs.o ABSOLUTE
    _printf_longlong_hex                     0x00000000   Number         0  printfstubs.o ABSOLUTE
    _printf_longlong_oct                     0x00000000   Number         0  printfstubs.o ABSOLUTE
    _printf_ls                               0x00000000   Number         0  printfstubs.o ABSOLUTE
    _printf_mbtowc                           0x00000000   Number         0  printfstubs.o ABSOLUTE
    _printf_n                                0x00000000   Number         0  printfstubs.o ABSOLUTE
    _printf_o                                0x00000000   Number         0  printfstubs.o ABSOLUTE
    _printf_p                                0x00000000   Number         0  printfstubs.o ABSOLUTE
    _printf_percent                          0x00000000   Number         0  printfstubs.o ABSOLUTE
    _printf_pre_padding                      0x00000000   Number         0  printfstubs.o ABSOLUTE
    _printf_return_value                     0x00000000   Number         0  printfstubs.o ABSOLUTE
    _printf_s                                0x00000000   Number         0  printfstubs.o ABSOLUTE
    _printf_sizespec                         0x00000000   Number         0  printfstubs.o ABSOLUTE
    _printf_str                              0x00000000   Number         0  printfstubs.o ABSOLUTE
    _printf_truncate_signed                  0x00000000   Number         0  printfstubs.o ABSOLUTE
    _printf_truncate_unsigned                0x00000000   Number         0  printfstubs.o ABSOLUTE
    _printf_u                                0x00000000   Number         0  printfstubs.o ABSOLUTE
    _printf_wc                               0x00000000   Number         0  printfstubs.o ABSOLUTE
    _printf_wctomb                           0x00000000   Number         0  printfstubs.o ABSOLUTE
    _printf_widthprec                        0x00000000   Number         0  printfstubs.o ABSOLUTE
    _printf_x                                0x00000000   Number         0  printfstubs.o ABSOLUTE
    HAL_UART_ErrorCallback                    - Undefined Weak Reference
    __cpp_initialize__aeabi_                  - Undefined Weak Reference
    __cxa_finalize                            - Undefined Weak Reference
    __decompress                              - Undefined Weak Reference
    _clock_init                               - Undefined Weak Reference
    _microlib_exit                            - Undefined Weak Reference
    __Vectors                                0x20000000   Data           0  startup_acm32f4.o(RESET)
    __main                                   0x200000e5   Thumb Code     0  entry.o(.ARM.Collect$$$$00000000)
    _main_stk                                0x200000e5   Thumb Code     0  entry2.o(.ARM.Collect$$$$00000001)
    _main_scatterload                        0x200000e9   Thumb Code     0  entry5.o(.ARM.Collect$$$$00000004)
    __main_after_scatterload                 0x200000ed   Thumb Code     0  entry5.o(.ARM.Collect$$$$00000004)
    _main_clock                              0x200000ed   Thumb Code     0  entry7b.o(.ARM.Collect$$$$00000008)
    _main_cpp_init                           0x200000ed   Thumb Code     0  entry8b.o(.ARM.Collect$$$$0000000A)
    _main_init                               0x200000ed   Thumb Code     0  entry9a.o(.ARM.Collect$$$$0000000B)
    __rt_final_cpp                           0x200000f5   Thumb Code     0  entry10a.o(.ARM.Collect$$$$0000000D)
    __rt_final_exit                          0x200000f5   Thumb Code     0  entry11a.o(.ARM.Collect$$$$0000000F)
    Reset_Handler                            0x200000f9   Thumb Code     8  startup_acm32f4.o(.text)
    NMI_Handler                              0x20000101   Thumb Code     2  startup_acm32f4.o(.text)
    MemManage_Handler                        0x20000105   Thumb Code     2  startup_acm32f4.o(.text)
    BusFault_Handler                         0x20000107   Thumb Code     2  startup_acm32f4.o(.text)
    UsageFault_Handler                       0x20000109   Thumb Code     2  startup_acm32f4.o(.text)
    SVC_Handler                              0x2000010b   Thumb Code     2  startup_acm32f4.o(.text)
    DebugMon_Handler                         0x2000010d   Thumb Code     2  startup_acm32f4.o(.text)
    PendSV_Handler                           0x2000010f   Thumb Code     2  startup_acm32f4.o(.text)
    AES_IRQHandler                           0x20000113   Thumb Code     0  startup_acm32f4.o(.text)
    CAN1_IRQHandler                          0x20000113   Thumb Code     0  startup_acm32f4.o(.text)
    CAN2_IRQHandler                          0x20000113   Thumb Code     0  startup_acm32f4.o(.text)
    CLKRDY_IRQHandler                        0x20000113   Thumb Code     0  startup_acm32f4.o(.text)
    DAC_IRQHandler                           0x20000113   Thumb Code     0  startup_acm32f4.o(.text)
    EFC_IRQHandler                           0x20000113   Thumb Code     0  startup_acm32f4.o(.text)
    EXTI_IRQHandler                          0x20000113   Thumb Code     0  startup_acm32f4.o(.text)
    FPU_IRQHandler                           0x20000113   Thumb Code     0  startup_acm32f4.o(.text)
    GPIOCD_IRQHandler                        0x20000113   Thumb Code     0  startup_acm32f4.o(.text)
    GPIOEF_IRQHandler                        0x20000113   Thumb Code     0  startup_acm32f4.o(.text)
    I2C1_IRQHandler                          0x20000113   Thumb Code     0  startup_acm32f4.o(.text)
    I2C2_IRQHandler                          0x20000113   Thumb Code     0  startup_acm32f4.o(.text)
    I2S_IRQHandler                           0x20000113   Thumb Code     0  startup_acm32f4.o(.text)
    LPUART_IRQHandler                        0x20000113   Thumb Code     0  startup_acm32f4.o(.text)
    RSV_IRQHandler                           0x20000113   Thumb Code     0  startup_acm32f4.o(.text)
    RTC_IRQHandler                           0x20000113   Thumb Code     0  startup_acm32f4.o(.text)
    SPI1_IRQHandler                          0x20000113   Thumb Code     0  startup_acm32f4.o(.text)
    SPI2_IRQHandler                          0x20000113   Thumb Code     0  startup_acm32f4.o(.text)
    SPI3_IRQHandler                          0x20000113   Thumb Code     0  startup_acm32f4.o(.text)
    SPI4_IRQHandler                          0x20000113   Thumb Code     0  startup_acm32f4.o(.text)
    SRAM_PARITY_IRQHandler                   0x20000113   Thumb Code     0  startup_acm32f4.o(.text)
    TIM14_IRQHandler                         0x20000113   Thumb Code     0  startup_acm32f4.o(.text)
    TIM15_IRQHandler                         0x20000113   Thumb Code     0  startup_acm32f4.o(.text)
    TIM16_IRQHandler                         0x20000113   Thumb Code     0  startup_acm32f4.o(.text)
    TIM17_IRQHandler                         0x20000113   Thumb Code     0  startup_acm32f4.o(.text)
    TIM1_BRK_UP_TRG_COM_IRQHandler           0x20000113   Thumb Code     0  startup_acm32f4.o(.text)
    TIM1_CC_IRQHandler                       0x20000113   Thumb Code     0  startup_acm32f4.o(.text)
    TIM2_IRQHandler                          0x20000113   Thumb Code     0  startup_acm32f4.o(.text)
    TIM3_IRQHandler                          0x20000113   Thumb Code     0  startup_acm32f4.o(.text)
    TIM4_IRQHandler                          0x20000113   Thumb Code     0  startup_acm32f4.o(.text)
    TIM6_IRQHandler                          0x20000113   Thumb Code     0  startup_acm32f4.o(.text)
    TIM7_IRQHandler                          0x20000113   Thumb Code     0  startup_acm32f4.o(.text)
    UART2_IRQHandler                         0x20000113   Thumb Code     0  startup_acm32f4.o(.text)
    UART3_IRQHandler                         0x20000113   Thumb Code     0  startup_acm32f4.o(.text)
    UART4_IRQHandler                         0x20000113   Thumb Code     0  startup_acm32f4.o(.text)
    USB_IRQHandler                           0x20000113   Thumb Code     0  startup_acm32f4.o(.text)
    WDT_IRQHandler                           0x20000113   Thumb Code     0  startup_acm32f4.o(.text)
    __aeabi_uldivmod                         0x2000011d   Thumb Code    98  uldiv.o(.text)
    __aeabi_memcpy                           0x2000017f   Thumb Code    36  memcpya.o(.text)
    __aeabi_memcpy4                          0x2000017f   Thumb Code     0  memcpya.o(.text)
    __aeabi_memcpy8                          0x2000017f   Thumb Code     0  memcpya.o(.text)
    __aeabi_memset                           0x200001a3   Thumb Code    14  memseta.o(.text)
    __aeabi_memset4                          0x200001a3   Thumb Code     0  memseta.o(.text)
    __aeabi_memset8                          0x200001a3   Thumb Code     0  memseta.o(.text)
    __aeabi_memclr                           0x200001b1   Thumb Code     4  memseta.o(.text)
    __aeabi_memclr4                          0x200001b1   Thumb Code     0  memseta.o(.text)
    __aeabi_memclr8                          0x200001b1   Thumb Code     0  memseta.o(.text)
    _memset$wrapper                          0x200001b5   Thumb Code    18  memseta.o(.text)
    __aeabi_llsl                             0x200001c7   Thumb Code    30  llshl.o(.text)
    _ll_shift_l                              0x200001c7   Thumb Code     0  llshl.o(.text)
    __aeabi_llsr                             0x200001e5   Thumb Code    32  llushr.o(.text)
    _ll_ushift_r                             0x200001e5   Thumb Code     0  llushr.o(.text)
    __scatterload                            0x20000205   Thumb Code    28  init.o(.text)
    __scatterload_rt2                        0x20000205   Thumb Code     0  init.o(.text)
    ADC_GetVrefP                             0x20000229   Thumb Code   248  main.o(.text.ADC_GetVrefP)
    ADC_IRQHandler                           0x20000321   Thumb Code    30  main.o(.text.ADC_IRQHandler)
    DMA_IRQHandler                           0x20000341   Thumb Code    14  main.o(.text.DMA_IRQHandler)
    GPIOAB_IRQHandler                        0x20000351   Thumb Code    38  main.o(.text.GPIOAB_IRQHandler)
    HAL_ADC_ConfigChannel                    0x20000379   Thumb Code   452  hal_adc.o(.text.HAL_ADC_ConfigChannel)
    HAL_ADC_IRQHandler                       0x2000053d   Thumb Code   220  hal_adc.o(.text.HAL_ADC_IRQHandler)
    HAL_ADC_Init                             0x20000619   Thumb Code   286  hal_adc.o(.text.HAL_ADC_Init)
    HAL_ADC_MspInit                          0x20000739   Thumb Code    98  hal_adc.o(.text.HAL_ADC_MspInit)
    HAL_ADC_Polling                          0x2000079d   Thumb Code   374  hal_adc.o(.text.HAL_ADC_Polling)
    HAL_ADC_Start                            0x20000915   Thumb Code    98  hal_adc.o(.text.HAL_ADC_Start)
    HAL_ADC_Start_DMA                        0x20000979   Thumb Code   130  hal_adc.o(.text.HAL_ADC_Start_DMA)
    HAL_ADC_Stop_DMA                         0x200009fd   Thumb Code   146  hal_adc.o(.text.HAL_ADC_Stop_DMA)
    HAL_DMA_Abort                            0x20000a91   Thumb Code    64  hal_dma.o(.text.HAL_DMA_Abort)
    HAL_DMA_IRQHandler                       0x20000ad1   Thumb Code    88  hal_dma.o(.text.HAL_DMA_IRQHandler)
    HAL_DMA_Init                             0x20000b29   Thumb Code   200  hal_dma.o(.text.HAL_DMA_Init)
    HAL_DMA_Start_IT                         0x20000bf1   Thumb Code   140  hal_dma.o(.text.HAL_DMA_Start_IT)
    HAL_EFlash_Init                          0x20000c7d   Thumb Code     4  hal_eflash.o(.text.HAL_EFlash_Init)
    HAL_EFlash_Init_Para                     0x20000c81   Thumb Code   284  hal_eflash_ex.o(.text.HAL_EFlash_Init_Para)
    HAL_GPIO_IRQHandler                      0x20000d9d   Thumb Code    62  hal_gpio.o(.text.HAL_GPIO_IRQHandler)
    HAL_GPIO_Init                            0x20000ddd   Thumb Code   872  hal_gpio.o(.text.HAL_GPIO_Init)
    HAL_GPIO_WritePin                        0x20001145   Thumb Code   106  hal_gpio.o(.text.HAL_GPIO_WritePin)
    HAL_UART_Init                            0x200011b1   Thumb Code   394  hal_uart.o(.text.HAL_UART_Init)
    HAL_UART_MspInit                         0x2000133d   Thumb Code   130  hal_uart.o(.text.HAL_UART_MspInit)
    HAL_UART_Transmit                        0x200013c1   Thumb Code   626  hal_uart.o(.text.HAL_UART_Transmit)
    HAL_Verify_Chip                          0x20001635   Thumb Code    18  hal_eflash_ex.o(.text.HAL_Verify_Chip)
    HardFaultHandler                         0x20001649   Thumb Code   168  segger_hardfaulthandler.o(.text.HardFaultHandler)
    SEGGER_RTT_Init                          0x200016f1   Thumb Code   124  segger_rtt.o(.text.SEGGER_RTT_Init)
    SEGGER_RTT_Write                         0x2000176d   Thumb Code   190  segger_rtt.o(.text.SEGGER_RTT_Write)
    SEGGER_RTT_WriteNoLock                   0x2000182d   Thumb Code   398  segger_rtt.o(.text.SEGGER_RTT_WriteNoLock)
    SEGGER_RTT_printf                        0x200019bd   Thumb Code    30  segger_rtt_printf.o(.text.SEGGER_RTT_printf)
    SEGGER_RTT_vprintf                       0x200019dd   Thumb Code  1508  segger_rtt_printf.o(.text.SEGGER_RTT_vprintf)
    Set_Pll_Div                              0x20001fc1   Thumb Code   518  system_acm32f4.o(.text.Set_Pll_Div)
    SysTick_Handler                          0x200021c9   Thumb Code    16  main.o(.text.SysTick_Handler)
    System_Clock_Init                        0x200021d9   Thumb Code   378  system_acm32f4.o(.text.System_Clock_Init)
    System_Core_Config                       0x20002355   Thumb Code    18  system_acm32f4.o(.text.System_Core_Config)
    System_Delay                             0x20002369   Thumb Code    42  system_acm32f4.o(.text.System_Delay)
    System_Delay_MS                          0x20002395   Thumb Code    60  system_acm32f4.o(.text.System_Delay_MS)
    System_EnableIAccelerate                 0x200023d1   Thumb Code    54  system_accelerate.o(.text.System_EnableIAccelerate)
    System_Get_APBClock                      0x20002409   Thumb Code    12  system_acm32f4.o(.text.System_Get_APBClock)
    System_Get_Clk_Source                    0x20002415   Thumb Code    12  system_acm32f4.o(.text.System_Get_Clk_Source)
    System_Get_SystemClock                   0x20002421   Thumb Code    12  system_acm32f4.o(.text.System_Get_SystemClock)
    System_Init                              0x2000242d   Thumb Code   138  system_acm32f4.o(.text.System_Init)
    System_Module_Enable                     0x200024b9   Thumb Code    86  system_acm32f4.o(.text.System_Module_Enable)
    System_SysTick_Init                      0x20002511   Thumb Code    72  system_acm32f4.o(.text.System_SysTick_Init)
    UART1_IRQHandler                         0x20002559   Thumb Code    54  main.o(.text.UART1_IRQHandler)
    app                                      0x20002745   Thumb Code     2  app.o(.text.app)
    fputc                                    0x20002749   Thumb Code    54  hal_uart.o(.text.fputc)
    main                                     0x20002781   Thumb Code   752  main.o(.text.main)
    HardFault_Handler                        0x20002a71   Thumb Code     0  hardfaulthandler.o(OSKERNEL)
    __0printf$8                              0x20002a85   Thumb Code    22  printf8.o(i.__0printf$8)
    __1printf$8                              0x20002a85   Thumb Code     0  printf8.o(i.__0printf$8)
    __2printf                                0x20002a85   Thumb Code     0  printf8.o(i.__0printf$8)
    __scatterload_copy                       0x20002aa5   Thumb Code    14  handlers.o(i.__scatterload_copy)
    __scatterload_null                       0x20002ab3   Thumb Code     2  handlers.o(i.__scatterload_null)
    __scatterload_zeroinit                   0x20002ab5   Thumb Code    14  handlers.o(i.__scatterload_zeroinit)
    puts                                     0x20002f29   Thumb Code    30  puts.o(i.puts)
    System_Clock_Map                         0x20003018   Data         140  system_acm32f4.o(.rodata.System_Clock_Map)
    Region$$Table$$Base                      0x20003158   Number         0  anon$$obj.o(Region$$Table)
    Region$$Table$$Limit                     0x20003178   Number         0  anon$$obj.o(Region$$Table)
    __stdout                                 0x20010000   Data           4  stdout.o(.data)
    gu32_GPIOIRQ_Flag                        0x20010008   Data           4  main.o(.bss..L_MergedGlobals)
    UART1_Handle                             0x20010034   Data          72  main.o(.bss..L_MergedGlobals)
    gu32_Clocksrc                            0x2001007c   Data           4  system_acm32f4.o(.bss..L_MergedGlobals)
    gu32_SystemCount                         0x20010080   Data           4  system_acm32f4.o(.bss..L_MergedGlobals)
    gu32_SystemClock                         0x20010084   Data           4  system_acm32f4.o(.bss..L_MergedGlobals)
    gu32_APBClock                            0x20010088   Data           4  system_acm32f4.o(.bss..L_MergedGlobals)
    ADC_Handle                               0x200100e4   Data          88  main.o(.bss.ADC_Handle)
    Uart_Debug                               0x200101bc   Data           4  hal_uart.o(.bss.Uart_Debug)
    _SEGGER_RTT                              0x200101c0   Data         168  segger_rtt.o(.bss._SEGGER_RTT)
    gu32_AdcBuffer                           0x20010668   Data          84  main.o(.bss.gu32_AdcBuffer)
    __initial_sp                             0x20010ec0   Data           0  startup_acm32f4.o(STACK)



==============================================================================

Memory Map of the image

  Image Entry point : 0x200000e5

  Load Region LR_IROM1 (Base: 0x20000000, Size: 0x00003180, Max: 0x00010000, ABSOLUTE)

    Execution Region ER_IROM1 (Exec base: 0x20000000, Load base: 0x20000000, Size: 0x00003178, Max: 0x00010000, ABSOLUTE)

    Exec Addr    Load Addr    Size         Type   Attr      Idx    E Section Name        Object

    0x20000000   0x20000000   0x000000e4   Data   RO          122    RESET               startup_acm32f4.o
    0x200000e4   0x200000e4   0x00000000   Code   RO          968  * .ARM.Collect$$$$00000000  mc_w.l(entry.o)
    0x200000e4   0x200000e4   0x00000004   Code   RO         1246    .ARM.Collect$$$$00000001  mc_w.l(entry2.o)
    0x200000e8   0x200000e8   0x00000004   Code   RO         1249    .ARM.Collect$$$$00000004  mc_w.l(entry5.o)
    0x200000ec   0x200000ec   0x00000000   Code   RO         1251    .ARM.Collect$$$$00000008  mc_w.l(entry7b.o)
    0x200000ec   0x200000ec   0x00000000   Code   RO         1253    .ARM.Collect$$$$0000000A  mc_w.l(entry8b.o)
    0x200000ec   0x200000ec   0x00000008   Code   RO         1254    .ARM.Collect$$$$0000000B  mc_w.l(entry9a.o)
    0x200000f4   0x200000f4   0x00000000   Code   RO         1256    .ARM.Collect$$$$0000000D  mc_w.l(entry10a.o)
    0x200000f4   0x200000f4   0x00000000   Code   RO         1258    .ARM.Collect$$$$0000000F  mc_w.l(entry11a.o)
    0x200000f4   0x200000f4   0x00000004   Code   RO         1247    .ARM.Collect$$$$00002712  mc_w.l(entry2.o)
    0x200000f8   0x200000f8   0x00000024   Code   RO          123    .text               startup_acm32f4.o
    0x2000011c   0x2000011c   0x00000062   Code   RO          975    .text               mc_w.l(uldiv.o)
    0x2000017e   0x2000017e   0x00000024   Code   RO          977    .text               mc_w.l(memcpya.o)
    0x200001a2   0x200001a2   0x00000024   Code   RO          979    .text               mc_w.l(memseta.o)
    0x200001c6   0x200001c6   0x0000001e   Code   RO         1263    .text               mc_w.l(llshl.o)
    0x200001e4   0x200001e4   0x00000020   Code   RO         1265    .text               mc_w.l(llushr.o)
    0x20000204   0x20000204   0x00000024   Code   RO         1278    .text               mc_w.l(init.o)
    0x20000228   0x20000228   0x000000f8   Code   RO           28    .text.ADC_GetVrefP  main.o
    0x20000320   0x20000320   0x0000001e   Code   RO           34    .text.ADC_IRQHandler  main.o
    0x2000033e   0x2000033e   0x00000002   PAD
    0x20000340   0x20000340   0x0000000e   Code   RO           36    .text.DMA_IRQHandler  main.o
    0x2000034e   0x2000034e   0x00000002   PAD
    0x20000350   0x20000350   0x00000026   Code   RO           18    .text.GPIOAB_IRQHandler  main.o
    0x20000376   0x20000376   0x00000002   PAD
    0x20000378   0x20000378   0x000001c4   Code   RO          781    .text.HAL_ADC_ConfigChannel  hal_adc.o
    0x2000053c   0x2000053c   0x000000dc   Code   RO          771    .text.HAL_ADC_IRQHandler  hal_adc.o
    0x20000618   0x20000618   0x0000011e   Code   RO          777    .text.HAL_ADC_Init  hal_adc.o
    0x20000736   0x20000736   0x00000002   PAD
    0x20000738   0x20000738   0x00000062   Code   RO          773    .text.HAL_ADC_MspInit  hal_adc.o
    0x2000079a   0x2000079a   0x00000002   PAD
    0x2000079c   0x2000079c   0x00000176   Code   RO          807    .text.HAL_ADC_Polling  hal_adc.o
    0x20000912   0x20000912   0x00000002   PAD
    0x20000914   0x20000914   0x00000062   Code   RO          785    .text.HAL_ADC_Start  hal_adc.o
    0x20000976   0x20000976   0x00000002   PAD
    0x20000978   0x20000978   0x00000082   Code   RO          793    .text.HAL_ADC_Start_DMA  hal_adc.o
    0x200009fa   0x200009fa   0x00000002   PAD
    0x200009fc   0x200009fc   0x00000092   Code   RO          795    .text.HAL_ADC_Stop_DMA  hal_adc.o
    0x20000a8e   0x20000a8e   0x00000002   PAD
    0x20000a90   0x20000a90   0x00000040   Code   RO          290    .text.HAL_DMA_Abort  hal_dma.o
    0x20000ad0   0x20000ad0   0x00000058   Code   RO          272    .text.HAL_DMA_IRQHandler  hal_dma.o
    0x20000b28   0x20000b28   0x000000c8   Code   RO          274    .text.HAL_DMA_Init  hal_dma.o
    0x20000bf0   0x20000bf0   0x0000008c   Code   RO          288    .text.HAL_DMA_Start_IT  hal_dma.o
    0x20000c7c   0x20000c7c   0x00000004   Code   RO          303    .text.HAL_EFlash_Init  hal_eflash.o
    0x20000c80   0x20000c80   0x0000011c   Code   RO          955    .text.HAL_EFlash_Init_Para  HAL_EFlash_EX.lib(hal_eflash_ex.o)
    0x20000d9c   0x20000d9c   0x0000003e   Code   RO          374    .text.HAL_GPIO_IRQHandler  hal_gpio.o
    0x20000dda   0x20000dda   0x00000002   PAD
    0x20000ddc   0x20000ddc   0x00000368   Code   RO          376    .text.HAL_GPIO_Init  hal_gpio.o
    0x20001144   0x20001144   0x0000006a   Code   RO          382    .text.HAL_GPIO_WritePin  hal_gpio.o
    0x200011ae   0x200011ae   0x00000002   PAD
    0x200011b0   0x200011b0   0x0000018a   Code   RO          692    .text.HAL_UART_Init  hal_uart.o
    0x2000133a   0x2000133a   0x00000002   PAD
    0x2000133c   0x2000133c   0x00000082   Code   RO          690    .text.HAL_UART_MspInit  hal_uart.o
    0x200013be   0x200013be   0x00000002   PAD
    0x200013c0   0x200013c0   0x00000272   Code   RO          698    .text.HAL_UART_Transmit  hal_uart.o
    0x20001632   0x20001632   0x00000002   PAD
    0x20001634   0x20001634   0x00000012   Code   RO          953    .text.HAL_Verify_Chip  HAL_EFlash_EX.lib(hal_eflash_ex.o)
    0x20001646   0x20001646   0x00000002   PAD
    0x20001648   0x20001648   0x000000a8   Code   RO          818    .text.HardFaultHandler  segger_hardfaulthandler.o
    0x200016f0   0x200016f0   0x0000007c   Code   RO          883    .text.SEGGER_RTT_Init  segger_rtt.o
    0x2000176c   0x2000176c   0x000000be   Code   RO          847    .text.SEGGER_RTT_Write  segger_rtt.o
    0x2000182a   0x2000182a   0x00000002   PAD
    0x2000182c   0x2000182c   0x0000018e   Code   RO          843    .text.SEGGER_RTT_WriteNoLock  segger_rtt.o
    0x200019ba   0x200019ba   0x00000002   PAD
    0x200019bc   0x200019bc   0x0000001e   Code   RO          910    .text.SEGGER_RTT_printf  segger_rtt_printf.o
    0x200019da   0x200019da   0x00000002   PAD
    0x200019dc   0x200019dc   0x000005e4   Code   RO          906    .text.SEGGER_RTT_vprintf  segger_rtt_printf.o
    0x20001fc0   0x20001fc0   0x00000206   Code   RO           65    .text.Set_Pll_Div   system_acm32f4.o
    0x200021c6   0x200021c6   0x00000002   PAD
    0x200021c8   0x200021c8   0x00000010   Code   RO           24    .text.SysTick_Handler  main.o
    0x200021d8   0x200021d8   0x0000017a   Code   RO           61    .text.System_Clock_Init  system_acm32f4.o
    0x20002352   0x20002352   0x00000002   PAD
    0x20002354   0x20002354   0x00000012   Code   RO           63    .text.System_Core_Config  system_acm32f4.o
    0x20002366   0x20002366   0x00000002   PAD
    0x20002368   0x20002368   0x0000002a   Code   RO           75    .text.System_Delay  system_acm32f4.o
    0x20002392   0x20002392   0x00000002   PAD
    0x20002394   0x20002394   0x0000003c   Code   RO           81    .text.System_Delay_MS  system_acm32f4.o
    0x200023d0   0x200023d0   0x00000036   Code   RO          920    .text.System_EnableIAccelerate  System_Accelerate.lib(system_accelerate.o)
    0x20002406   0x20002406   0x00000002   PAD
    0x20002408   0x20002408   0x0000000c   Code   RO           69    .text.System_Get_APBClock  system_acm32f4.o
    0x20002414   0x20002414   0x0000000c   Code   RO           71    .text.System_Get_Clk_Source  system_acm32f4.o
    0x20002420   0x20002420   0x0000000c   Code   RO           67    .text.System_Get_SystemClock  system_acm32f4.o
    0x2000242c   0x2000242c   0x0000008a   Code   RO           57    .text.System_Init   system_acm32f4.o
    0x200024b6   0x200024b6   0x00000002   PAD
    0x200024b8   0x200024b8   0x00000056   Code   RO           77    .text.System_Module_Enable  system_acm32f4.o
    0x2000250e   0x2000250e   0x00000002   PAD
    0x20002510   0x20002510   0x00000048   Code   RO           53    .text.System_SysTick_Init  system_acm32f4.o
    0x20002558   0x20002558   0x00000036   Code   RO           22    .text.UART1_IRQHandler  main.o
    0x2000258e   0x2000258e   0x00000002   PAD
    0x20002590   0x20002590   0x000001b4   Code   RO          908    .text._PrintUnsigned  segger_rtt_printf.o
    0x20002744   0x20002744   0x00000002   Code   RO            2    .text.app           app.o
    0x20002746   0x20002746   0x00000002   PAD
    0x20002748   0x20002748   0x00000036   Code   RO          722    .text.fputc         hal_uart.o
    0x2000277e   0x2000277e   0x00000002   PAD
    0x20002780   0x20002780   0x000002f0   Code   RO           38    .text.main          main.o
    0x20002a70   0x20002a70   0x00000012   Code   RO          827    OSKERNEL            hardfaulthandler.o
    0x20002a82   0x20002a82   0x00000002   PAD
    0x20002a84   0x20002a84   0x00000020   Code   RO         1192    i.__0printf$8       mc_w.l(printf8.o)
    0x20002aa4   0x20002aa4   0x0000000e   Code   RO         1286    i.__scatterload_copy  mc_w.l(handlers.o)
    0x20002ab2   0x20002ab2   0x00000002   Code   RO         1287    i.__scatterload_null  mc_w.l(handlers.o)
    0x20002ab4   0x20002ab4   0x0000000e   Code   RO         1288    i.__scatterload_zeroinit  mc_w.l(handlers.o)
    0x20002ac2   0x20002ac2   0x00000002   PAD
    0x20002ac4   0x20002ac4   0x00000410   Code   RO         1199    i._printf_core      mc_w.l(printf8.o)
    0x20002ed4   0x20002ed4   0x00000024   Code   RO         1200    i._printf_post_padding  mc_w.l(printf8.o)
    0x20002ef8   0x20002ef8   0x0000002e   Code   RO         1201    i._printf_pre_padding  mc_w.l(printf8.o)
    0x20002f26   0x20002f26   0x00000002   PAD
    0x20002f28   0x20002f28   0x00000024   Code   RO          971    i.puts              mc_w.l(puts.o)
    0x20002f4c   0x20002f4c   0x000000cc   Data   RO          809    .rodata..L__const.HAL_ADC_MspInit.ADC_Pin_Map  hal_adc.o
    0x20003018   0x20003018   0x0000008c   Data   RO          111    .rodata.System_Clock_Map  system_acm32f4.o
    0x200030a4   0x200030a4   0x000000ab   Data   RO           40    .rodata.str1.1      main.o
    0x2000314f   0x2000314f   0x00000009   Data   RO          895    .rodata.str1.1      segger_rtt.o
    0x20003158   0x20003158   0x00000020   Data   RO         1285    Region$$Table       anon$$obj.o


    Execution Region RW_IRAM1 (Exec base: 0x20010000, Load base: 0x20003178, Size: 0x00000ec0, Max: 0x00020000, ABSOLUTE)

    Exec Addr    Load Addr    Size         Type   Attr      Idx    E Section Name        Object

    0x20010000   0x20003178   0x00000004   Data   RW         1260    .data               mc_w.l(stdout.o)
    0x20010004   0x2000317c   0x00000004   PAD
    0x20010008        -       0x00000074   Zero   RW           44    .bss..L_MergedGlobals  main.o
    0x2001007c        -       0x00000010   Zero   RW          112    .bss..L_MergedGlobals  system_acm32f4.o
    0x2001008c        -       0x00000044   Zero   RW          820    .bss..L_MergedGlobals  segger_hardfaulthandler.o
    0x200100d0        -       0x00000011   Zero   RW          897    .bss..L_MergedGlobals  segger_rtt.o
    0x200100e1   0x2000317c   0x00000003   PAD
    0x200100e4        -       0x00000058   Zero   RW           41    .bss.ADC_Handle     main.o
    0x2001013c        -       0x00000080   Zero   RW          294    .bss.Cycle_Channel  hal_dma.o
    0x200101bc        -       0x00000004   Zero   RW          724    .bss.Uart_Debug     hal_uart.o
    0x200101c0        -       0x000000a8   Zero   RW          893    .bss._SEGGER_RTT    segger_rtt.o
    0x20010268        -       0x00000400   Zero   RW          896    .bss._acUpBuffer    segger_rtt.o
    0x20010668        -       0x00000054   Zero   RW           42    .bss.gu32_AdcBuffer  main.o
    0x200106bc   0x2000317c   0x00000004   PAD
    0x200106c0        -       0x00000800   Zero   RW          120    STACK               startup_acm32f4.o


==============================================================================

Image component sizes


      Code (inc. data)   RO Data    RW Data    ZI Data      Debug   Object Name

         2          0          0          0          0        353   app.o
      1804          0        204          0          0      11216   hal_adc.o
       492          0          0          0        128       9179   hal_dma.o
         4          0          0          0          0       1478   hal_eflash.o
      1040          0          0          0          0       7497   hal_gpio.o
      1204          0          0          0          4      13606   hal_uart.o
        18          0          0          0          0        304   hardfaulthandler.o
      1152        224        171          0        288       9579   main.o
       168          0          0          0         68       2737   segger_hardfaulthandler.o
       712          0          9          0       1209      29387   segger_rtt.o
      1974        198          0          0          0       7674   segger_rtt_printf.o
        36          8        228          0       2048        848   startup_acm32f4.o
      1348          0        140          0         16      15757   system_acm32f4.o

    ----------------------------------------------------------------------
     10008        430        784          0       3768     109615   Object Totals
         0          0         32          0          0          0   (incl. Generated)
        54          0          0          0          7          0   (incl. Padding)

    ----------------------------------------------------------------------

      Code (inc. data)   RO Data    RW Data    ZI Data      Debug   Library Member Name

       302          0          0          0          0       4364   hal_eflash_ex.o
        54          0          0          0          0       3896   system_accelerate.o
         0          0          0          0          0          0   entry.o
         0          0          0          0          0          0   entry10a.o
         0          0          0          0          0          0   entry11a.o
         8          4          0          0          0          0   entry2.o
         4          0          0          0          0          0   entry5.o
         0          0          0          0          0          0   entry7b.o
         0          0          0          0          0          0   entry8b.o
         8          4          0          0          0          0   entry9a.o
        30          0          0          0          0          0   handlers.o
        36          8          0          0          0         68   init.o
        30          0          0          0          0         68   llshl.o
        32          0          0          0          0         68   llushr.o
        36          0          0          0          0         68   memcpya.o
        36          0          0          0          0        108   memseta.o
      1154         54          0          0          0        352   printf8.o
        36          6          0          0          0         80   puts.o
         0          0          0          4          0          0   stdout.o
        98          0          0          0          0         92   uldiv.o

    ----------------------------------------------------------------------
      1872         76          0          4          4       9164   Library Totals
         8          0          0          0          4          0   (incl. Padding)

    ----------------------------------------------------------------------

      Code (inc. data)   RO Data    RW Data    ZI Data      Debug   Library Name

       302          0          0          0          0       4364   HAL_EFlash_EX.lib
        54          0          0          0          0       3896   System_Accelerate.lib
      1508         76          0          4          0        904   mc_w.l

    ----------------------------------------------------------------------
      1872         76          0          4          4       9164   Library Totals

    ----------------------------------------------------------------------

==============================================================================


      Code (inc. data)   RO Data    RW Data    ZI Data      Debug   

     11880        506        784          4       3772     118375   Grand Totals
     11880        506        784          4       3772     118375   ELF Image Totals
     11880        506        784          4          0          0   ROM Totals

==============================================================================

    Total RO  Size (Code + RO Data)                12664 (  12.37kB)
    Total RW  Size (RW Data + ZI Data)              3776 (   3.69kB)
    Total ROM Size (Code + RO Data + RW Data)      12668 (  12.37kB)

==============================================================================

